GAS LISTING /tmp/ccyUzbxl.s 			page 1


   1               		.file	"gpioPin.cpp"
   2               	__SP_H__ = 0x3e
   3               	__SP_L__ = 0x3d
   4               	__SREG__ = 0x3f
   5               	__tmp_reg__ = 0
   6               	__zero_reg__ = 1
   7               		.text
   8               	.Ltext0:
   9               		.cfi_sections	.debug_frame
  10               		.file 1 "funsape/peripheral/gpioPin.cpp"
  11               		.section	.text._ZN7GpioPinC2Ev,"ax",@progbits
  12               	.global	_ZN7GpioPinC2Ev
  14               	_ZN7GpioPinC2Ev:
  15               	.LVL0:
  16               	.LFB137:
   1:funsape/peripheral/gpioPin.cpp **** //!
   2:funsape/peripheral/gpioPin.cpp **** //! ****************************************************************************
   3:funsape/peripheral/gpioPin.cpp **** //! @file           gpioPin.cpp
   4:funsape/peripheral/gpioPin.cpp **** //! @author         Leandro Schwarz (bladabuska+funsapeavr8lib@gmail.com)
   5:funsape/peripheral/gpioPin.cpp **** //! @brief          GPIO single pin peripheral control.
   6:funsape/peripheral/gpioPin.cpp **** //! @details        This file provides driver interface with the GPIO module to
   7:funsape/peripheral/gpioPin.cpp **** //!                     single pin peripheral control for the FunSAPE++ AVR8
   8:funsape/peripheral/gpioPin.cpp **** //!                     Library.
   9:funsape/peripheral/gpioPin.cpp **** //! @date           2026-04-01
  10:funsape/peripheral/gpioPin.cpp **** //! @version        26.04
  11:funsape/peripheral/gpioPin.cpp **** //! @copyright      MIT License
  12:funsape/peripheral/gpioPin.cpp **** //! @note           No notes at this time.
  13:funsape/peripheral/gpioPin.cpp **** //! @todo           No items in todo list yet.
  14:funsape/peripheral/gpioPin.cpp **** //! @warning        When the user calls GpioPin::clr(), GpioPin::cpl(),
  15:funsape/peripheral/gpioPin.cpp **** //!                     GpioPin::set(), GpioPin::low(), GpioPin::high() or
  16:funsape/peripheral/gpioPin.cpp **** //!                     GpioPin::toggle() and the pin is in
  17:funsape/peripheral/gpioPin.cpp **** //!                     PinMode::INPUT_FLOATING mode or in
  18:funsape/peripheral/gpioPin.cpp **** //!                     PinMode::INPUT_PULLED_UP mode, the mode is changed which
  19:funsape/peripheral/gpioPin.cpp **** //!                     could lead to some undefined behavior.
  20:funsape/peripheral/gpioPin.cpp **** //! ****************************************************************************
  21:funsape/peripheral/gpioPin.cpp **** //! @attention
  22:funsape/peripheral/gpioPin.cpp **** //!
  23:funsape/peripheral/gpioPin.cpp **** //! MIT License
  24:funsape/peripheral/gpioPin.cpp **** //!
  25:funsape/peripheral/gpioPin.cpp **** //! Copyright (c) 2026 Leandro Schwarz
  26:funsape/peripheral/gpioPin.cpp **** //!
  27:funsape/peripheral/gpioPin.cpp **** //! Permission is hereby granted, free of charge, to any person obtaining a copy
  28:funsape/peripheral/gpioPin.cpp **** //!     of this software and associated documentation files (the "Software"), to
  29:funsape/peripheral/gpioPin.cpp **** //!     deal in the Software without restriction, including without limitation
  30:funsape/peripheral/gpioPin.cpp **** //!     the rights to use, copy, modify, merge, publish, distribute, sublicense,
  31:funsape/peripheral/gpioPin.cpp **** //!     and/or sell copies of the Software, and to permit persons to whom the
  32:funsape/peripheral/gpioPin.cpp **** //!     Software is furnished to do so, subject to the following conditions:
  33:funsape/peripheral/gpioPin.cpp **** //!
  34:funsape/peripheral/gpioPin.cpp **** //! The above copyright notice and this permission notice shall be included in
  35:funsape/peripheral/gpioPin.cpp **** //!     all copies or substantial portions of the Software.
  36:funsape/peripheral/gpioPin.cpp **** //!
  37:funsape/peripheral/gpioPin.cpp **** //! THE SOFTWARE IS PROVIDED "AS IS", WITHOUT WARRANTY OF ANY KIND, EXPRESS OR
  38:funsape/peripheral/gpioPin.cpp **** //!     IMPLIED, INCLUDING BUT NOT LIMITED TO THE WARRANTIES OF MERCHANTABILITY,
  39:funsape/peripheral/gpioPin.cpp **** //!     FITNESS FOR A PARTICULAR PURPOSE AND NONINFRINGEMENT. IN NO EVENT SHALL
  40:funsape/peripheral/gpioPin.cpp **** //!     THE AUTHORS OR COPYRIGHT HOLDERS BE LIABLE FOR ANY CLAIM, DAMAGES OR
  41:funsape/peripheral/gpioPin.cpp **** //!     OTHER LIABILITY, WHETHER IN AN ACTION OF CONTRACT, TORT OR OTHERWISE,
  42:funsape/peripheral/gpioPin.cpp **** //!     ARISING FROM, OUT OF OR IN CONNECTION WITH THE SOFTWARE OR THE USE OR
GAS LISTING /tmp/ccyUzbxl.s 			page 2


  43:funsape/peripheral/gpioPin.cpp **** //!     OTHER DEALINGS IN THE SOFTWARE.
  44:funsape/peripheral/gpioPin.cpp **** //!
  45:funsape/peripheral/gpioPin.cpp **** //! ****************************************************************************
  46:funsape/peripheral/gpioPin.cpp **** //!
  47:funsape/peripheral/gpioPin.cpp **** 
  48:funsape/peripheral/gpioPin.cpp **** // =============================================================================
  49:funsape/peripheral/gpioPin.cpp **** // System file dependencies
  50:funsape/peripheral/gpioPin.cpp **** // =============================================================================
  51:funsape/peripheral/gpioPin.cpp **** 
  52:funsape/peripheral/gpioPin.cpp **** #include "gpioPin.hpp"
  53:funsape/peripheral/gpioPin.cpp **** #if !defined(__GPIO_PIN_HPP)
  54:funsape/peripheral/gpioPin.cpp **** #    error Error 1 - Header file (gpioPin.hpp) is missing or corrupted!
  55:funsape/peripheral/gpioPin.cpp **** #elif __GPIO_PIN_HPP != 2604
  56:funsape/peripheral/gpioPin.cpp **** #    error Error 6 - Build mismatch between header file (gpioPin.hpp) and source file (gpioPin.cpp)
  57:funsape/peripheral/gpioPin.cpp **** #endif
  58:funsape/peripheral/gpioPin.cpp **** 
  59:funsape/peripheral/gpioPin.cpp **** // =============================================================================
  60:funsape/peripheral/gpioPin.cpp **** // File exclusive - Constants
  61:funsape/peripheral/gpioPin.cpp **** // =============================================================================
  62:funsape/peripheral/gpioPin.cpp **** 
  63:funsape/peripheral/gpioPin.cpp **** // NONE
  64:funsape/peripheral/gpioPin.cpp **** 
  65:funsape/peripheral/gpioPin.cpp **** // =============================================================================
  66:funsape/peripheral/gpioPin.cpp **** // File exclusive - New data types
  67:funsape/peripheral/gpioPin.cpp **** // =============================================================================
  68:funsape/peripheral/gpioPin.cpp **** 
  69:funsape/peripheral/gpioPin.cpp **** // NONE
  70:funsape/peripheral/gpioPin.cpp **** 
  71:funsape/peripheral/gpioPin.cpp **** // =============================================================================
  72:funsape/peripheral/gpioPin.cpp **** // File exclusive - Macro-functions
  73:funsape/peripheral/gpioPin.cpp **** // =============================================================================
  74:funsape/peripheral/gpioPin.cpp **** 
  75:funsape/peripheral/gpioPin.cpp **** // NONE
  76:funsape/peripheral/gpioPin.cpp **** 
  77:funsape/peripheral/gpioPin.cpp **** // =============================================================================
  78:funsape/peripheral/gpioPin.cpp **** // Global variables
  79:funsape/peripheral/gpioPin.cpp **** // =============================================================================
  80:funsape/peripheral/gpioPin.cpp **** 
  81:funsape/peripheral/gpioPin.cpp **** // NONE
  82:funsape/peripheral/gpioPin.cpp **** 
  83:funsape/peripheral/gpioPin.cpp **** // =============================================================================
  84:funsape/peripheral/gpioPin.cpp **** // Static functions declarations
  85:funsape/peripheral/gpioPin.cpp **** // =============================================================================
  86:funsape/peripheral/gpioPin.cpp **** 
  87:funsape/peripheral/gpioPin.cpp **** // NONE
  88:funsape/peripheral/gpioPin.cpp **** 
  89:funsape/peripheral/gpioPin.cpp **** // =============================================================================
  90:funsape/peripheral/gpioPin.cpp **** // Public function definitions
  91:funsape/peripheral/gpioPin.cpp **** // =============================================================================
  92:funsape/peripheral/gpioPin.cpp **** 
  93:funsape/peripheral/gpioPin.cpp **** // NONE
  94:funsape/peripheral/gpioPin.cpp **** 
  95:funsape/peripheral/gpioPin.cpp **** // =============================================================================
  96:funsape/peripheral/gpioPin.cpp **** // Class constructors
  97:funsape/peripheral/gpioPin.cpp **** // =============================================================================
  98:funsape/peripheral/gpioPin.cpp **** 
  99:funsape/peripheral/gpioPin.cpp **** GpioPin::GpioPin(void) :
GAS LISTING /tmp/ccyUzbxl.s 			page 3


  17               		.loc 1 99 1 view -0
  18               		.cfi_startproc
  19               	/* prologue: function */
  20               	/* frame size = 0 */
  21               	/* stack size = 0 */
  22               	.L__stack_usage = 0
  23               		.loc 1 99 1 is_stmt 0 view .LVU1
  24 0000 FC01      		movw r30,r24
  25               	.LBB2:
 100:funsape/peripheral/gpioPin.cpp ****     _regDir(nullptr),
  26               		.loc 1 100 5 view .LVU2
  27 0002 1182      		std Z+1,__zero_reg__
  28 0004 1082      		st Z,__zero_reg__
 101:funsape/peripheral/gpioPin.cpp ****     _regOut(nullptr),
  29               		.loc 1 101 5 view .LVU3
  30 0006 1382      		std Z+3,__zero_reg__
  31 0008 1282      		std Z+2,__zero_reg__
 102:funsape/peripheral/gpioPin.cpp ****     _regIn(nullptr),
  32               		.loc 1 102 5 view .LVU4
  33 000a 1582      		std Z+5,__zero_reg__
  34 000c 1482      		std Z+4,__zero_reg__
 103:funsape/peripheral/gpioPin.cpp ****     _pinMask(0x00),
  35               		.loc 1 103 5 view .LVU5
  36 000e 1682      		std Z+6,__zero_reg__
 104:funsape/peripheral/gpioPin.cpp ****     _isInitialized(false),
  37               		.loc 1 104 5 view .LVU6
  38 0010 8781      		ldd r24,Z+7
  39               	.LVL1:
  40               		.loc 1 104 5 view .LVU7
  41 0012 8E7F      		andi r24,lo8(~(1<<0))
  42 0014 8783      		std Z+7,r24
 105:funsape/peripheral/gpioPin.cpp ****     _lastError(Error::NONE)
  43               		.loc 1 105 5 view .LVU8
  44 0016 1186      		std Z+9,__zero_reg__
  45 0018 1086      		std Z+8,__zero_reg__
 106:funsape/peripheral/gpioPin.cpp **** {
 107:funsape/peripheral/gpioPin.cpp ****     // Mark passage for debugging purpose
 108:funsape/peripheral/gpioPin.cpp ****     debugMark(PSTR("GpioPin::GpioPin(void)"), Debug::CodeIndex::GPIO_BUS_MODULE);
  46               		.loc 1 108 5 is_stmt 1 view .LVU9
 109:funsape/peripheral/gpioPin.cpp **** 
 110:funsape/peripheral/gpioPin.cpp ****     // Returns successfully
 111:funsape/peripheral/gpioPin.cpp ****     debugMessage(Error::NONE, Debug::CodeIndex::GPIO_PIN_MODULE);
  47               		.loc 1 111 5 view .LVU10
 112:funsape/peripheral/gpioPin.cpp ****     return;
  48               		.loc 1 112 5 view .LVU11
  49               	/* epilogue start */
  50               	.LBE2:
 113:funsape/peripheral/gpioPin.cpp **** }
  51               		.loc 1 113 1 is_stmt 0 view .LVU12
  52 001a 0895      		ret
  53               		.cfi_endproc
  54               	.LFE137:
  56               	.global	_ZN7GpioPinC1Ev
  57               		.set	_ZN7GpioPinC1Ev,_ZN7GpioPinC2Ev
  58               		.section	.text._ZN7GpioPinD2Ev,"ax",@progbits
  59               	.global	_ZN7GpioPinD2Ev
  61               	_ZN7GpioPinD2Ev:
GAS LISTING /tmp/ccyUzbxl.s 			page 4


  62               	.LVL2:
  63               	.LFB140:
 114:funsape/peripheral/gpioPin.cpp **** 
 115:funsape/peripheral/gpioPin.cpp **** GpioPin::~GpioPin(void)
  64               		.loc 1 115 1 is_stmt 1 view -0
  65               		.cfi_startproc
  66               	/* prologue: function */
  67               	/* frame size = 0 */
  68               	/* stack size = 0 */
  69               	.L__stack_usage = 0
  70               	.LBB3:
 116:funsape/peripheral/gpioPin.cpp **** {
 117:funsape/peripheral/gpioPin.cpp ****     // Mark passage for debugging purpose
 118:funsape/peripheral/gpioPin.cpp ****     debugMark(PSTR("GpioPin::~GpioPin(void)"), Debug::CodeIndex::GPIO_BUS_MODULE);
  71               		.loc 1 118 5 view .LVU14
 119:funsape/peripheral/gpioPin.cpp **** 
 120:funsape/peripheral/gpioPin.cpp ****     // Returns successfully
 121:funsape/peripheral/gpioPin.cpp ****     return;
  72               		.loc 1 121 5 view .LVU15
  73               	/* epilogue start */
  74               	.LBE3:
 122:funsape/peripheral/gpioPin.cpp **** }
  75               		.loc 1 122 1 is_stmt 0 view .LVU16
  76 0000 0895      		ret
  77               		.cfi_endproc
  78               	.LFE140:
  80               	.global	_ZN7GpioPinD1Ev
  81               		.set	_ZN7GpioPinD1Ev,_ZN7GpioPinD2Ev
  82               		.section	.text._ZN7GpioPin4initEPVh8PinIndex,"ax",@progbits
  83               	.global	_ZN7GpioPin4initEPVh8PinIndex
  85               	_ZN7GpioPin4initEPVh8PinIndex:
  86               	.LVL3:
  87               	.LFB142:
 123:funsape/peripheral/gpioPin.cpp **** 
 124:funsape/peripheral/gpioPin.cpp **** // =============================================================================
 125:funsape/peripheral/gpioPin.cpp **** // Class own methods - Public
 126:funsape/peripheral/gpioPin.cpp **** // =============================================================================
 127:funsape/peripheral/gpioPin.cpp **** 
 128:funsape/peripheral/gpioPin.cpp **** //     ///////////////////     CONTROL AND STATUS     ///////////////////     //
 129:funsape/peripheral/gpioPin.cpp **** 
 130:funsape/peripheral/gpioPin.cpp **** bool_t GpioPin::init(ioRegAddress_t gpioPortAddress_p, const PinIndex gpioPinIndex_p)
 131:funsape/peripheral/gpioPin.cpp **** {
  88               		.loc 1 131 1 is_stmt 1 view -0
  89               		.cfi_startproc
  90               	/* prologue: function */
  91               	/* frame size = 0 */
  92               	/* stack size = 0 */
  93               	.L__stack_usage = 0
  94               		.loc 1 131 1 is_stmt 0 view .LVU18
  95 0000 FC01      		movw r30,r24
 132:funsape/peripheral/gpioPin.cpp ****     // Mark passage for debugging purpose
 133:funsape/peripheral/gpioPin.cpp ****     debugMark(PSTR("GpioPin::init(ioRegAddress_t, const PinIndex)"), Debug::CodeIndex::GPIO_PIN_MOD
  96               		.loc 1 133 5 is_stmt 1 view .LVU19
 134:funsape/peripheral/gpioPin.cpp **** 
 135:funsape/peripheral/gpioPin.cpp ****     // Local variables
 136:funsape/peripheral/gpioPin.cpp ****     ioRegAddress_t auxDir = nullptr;
  97               		.loc 1 136 5 view .LVU20
GAS LISTING /tmp/ccyUzbxl.s 			page 5


  98               	.LVL4:
 137:funsape/peripheral/gpioPin.cpp ****     ioRegAddress_t auxOut = nullptr;
  99               		.loc 1 137 5 view .LVU21
 138:funsape/peripheral/gpioPin.cpp **** 
 139:funsape/peripheral/gpioPin.cpp ****     // CHECK FOR ERROR - port address invalid
 140:funsape/peripheral/gpioPin.cpp ****     if(!isGpioAddressValid(gpioPortAddress_p)) {
 100               		.loc 1 140 5 view .LVU22
 101               		.loc 1 140 9 is_stmt 0 view .LVU23
 102 0002 CB01      		movw r24,r22
 103               	.LVL5:
 104               		.loc 1 140 9 view .LVU24
 105 0004 8397      		sbiw r24,35
 106               		.loc 1 140 5 view .LVU25
 107 0006 0997      		sbiw r24,9
 108 0008 00F4      		brsh .L6
 141:funsape/peripheral/gpioPin.cpp ****         // Returns error
 142:funsape/peripheral/gpioPin.cpp ****         this->_lastError = Error::GPIO_PORT_INVALID;
 143:funsape/peripheral/gpioPin.cpp ****         debugMessage(Error::GPIO_PORT_INVALID, Debug::CodeIndex::GPIO_PIN_MODULE);
 144:funsape/peripheral/gpioPin.cpp ****         return false;
 145:funsape/peripheral/gpioPin.cpp ****     }
 146:funsape/peripheral/gpioPin.cpp **** 
 147:funsape/peripheral/gpioPin.cpp ****     // Evaluates pin addresses
 148:funsape/peripheral/gpioPin.cpp ****     auxDir = getGpioDdrAddress(gpioPortAddress_p);
 109               		.loc 1 148 5 is_stmt 1 view .LVU26
 110               		.loc 1 148 14 is_stmt 0 view .LVU27
 111 000a 9B01      		movw r18,r22
 112 000c 2052      		subi r18,32
 113 000e 3040      		sbci r19,0
 114 0010 ABEA      		ldi r26,lo8(-85)
 115 0012 BAEA      		ldi r27,lo8(-86)
 116 0014 0E94 0000 		call __umulhisi3
 117               	.LVL6:
 118               		.loc 1 148 14 view .LVU28
 119 0018 9C01      		movw r18,r24
 120               	.LVL7:
 121               		.loc 1 148 14 view .LVU29
 122 001a 3695      		lsr r19
 123 001c 2795      		ror r18
 124 001e 8E7F      		andi r24,254
 125 0020 820F      		add r24,r18
 126 0022 931F      		adc r25,r19
 127 0024 BC01      		movw r22,r24
 128 0026 6F5D      		subi r22,-33
 129 0028 7F4F      		sbci r23,-1
 130               	.LVL8:
 149:funsape/peripheral/gpioPin.cpp ****     auxOut = getGpioPortAddress(gpioPortAddress_p);
 131               		.loc 1 149 5 is_stmt 1 view .LVU30
 132               		.loc 1 149 14 is_stmt 0 view .LVU31
 133 002a 9C01      		movw r18,r24
 134 002c 2E5D      		subi r18,-34
 135 002e 3F4F      		sbci r19,-1
 136               	.LVL9:
 150:funsape/peripheral/gpioPin.cpp **** 
 151:funsape/peripheral/gpioPin.cpp ****     // Update data members
 152:funsape/peripheral/gpioPin.cpp ****     this->_regDir                       = auxDir;
 137               		.loc 1 152 5 is_stmt 1 view .LVU32
 138               		.loc 1 152 41 is_stmt 0 view .LVU33
GAS LISTING /tmp/ccyUzbxl.s 			page 6


 139 0030 7183      		std Z+1,r23
 140 0032 6083      		st Z,r22
 153:funsape/peripheral/gpioPin.cpp ****     this->_regOut                       = auxOut;
 141               		.loc 1 153 5 is_stmt 1 view .LVU34
 142               		.loc 1 153 41 is_stmt 0 view .LVU35
 143 0034 3383      		std Z+3,r19
 144 0036 2283      		std Z+2,r18
 154:funsape/peripheral/gpioPin.cpp ****     this->_regIn                        = getGpioPinAddress(gpioPortAddress_p);
 145               		.loc 1 154 5 is_stmt 1 view .LVU36
 146               		.loc 1 154 43 is_stmt 0 view .LVU37
 147 0038 8096      		adiw r24,32
 148               		.loc 1 154 41 view .LVU38
 149 003a 9583      		std Z+5,r25
 150 003c 8483      		std Z+4,r24
 155:funsape/peripheral/gpioPin.cpp ****     this->_pinMask                      = (ioPinMask_t)(1 << (uint8_t)gpioPinIndex_p);
 151               		.loc 1 155 5 is_stmt 1 view .LVU39
 152               		.loc 1 155 41 is_stmt 0 view .LVU40
 153 003e 81E0      		ldi r24,lo8(1)
 154 0040 00C0      		rjmp 2f
 155               		1:
 156 0042 880F      		lsl r24
 157               		2:
 158 0044 4A95      		dec r20
 159 0046 02F4      		brpl 1b
 160 0048 8683      		std Z+6,r24
 156:funsape/peripheral/gpioPin.cpp ****     this->_isInitialized                = true;
 161               		.loc 1 156 5 is_stmt 1 view .LVU41
 162               		.loc 1 156 41 is_stmt 0 view .LVU42
 163 004a 8781      		ldd r24,Z+7
 164 004c 8160      		ori r24,lo8(1<<0)
 165 004e 8783      		std Z+7,r24
 157:funsape/peripheral/gpioPin.cpp **** 
 158:funsape/peripheral/gpioPin.cpp ****     // Returns successfully
 159:funsape/peripheral/gpioPin.cpp ****     this->_lastError = Error::NONE;
 166               		.loc 1 159 5 is_stmt 1 view .LVU43
 167               		.loc 1 159 22 is_stmt 0 view .LVU44
 168 0050 1186      		std Z+9,__zero_reg__
 169 0052 1086      		std Z+8,__zero_reg__
 160:funsape/peripheral/gpioPin.cpp ****     debugMessage(Error::NONE, Debug::CodeIndex::GPIO_PIN_MODULE);
 170               		.loc 1 160 5 is_stmt 1 view .LVU45
 161:funsape/peripheral/gpioPin.cpp ****     return true;
 171               		.loc 1 161 5 view .LVU46
 172               		.loc 1 161 12 is_stmt 0 view .LVU47
 173 0054 81E0      		ldi r24,lo8(1)
 174               	/* epilogue start */
 162:funsape/peripheral/gpioPin.cpp **** }
 175               		.loc 1 162 1 view .LVU48
 176 0056 0895      		ret
 177               	.LVL10:
 178               	.L6:
 142:funsape/peripheral/gpioPin.cpp ****         debugMessage(Error::GPIO_PORT_INVALID, Debug::CodeIndex::GPIO_PIN_MODULE);
 179               		.loc 1 142 9 is_stmt 1 view .LVU49
 142:funsape/peripheral/gpioPin.cpp ****         debugMessage(Error::GPIO_PORT_INVALID, Debug::CodeIndex::GPIO_PIN_MODULE);
 180               		.loc 1 142 26 is_stmt 0 view .LVU50
 181 0058 84E8      		ldi r24,lo8(-124)
 182 005a 90E0      		ldi r25,0
 183 005c 9187      		std Z+9,r25
GAS LISTING /tmp/ccyUzbxl.s 			page 7


 184 005e 8087      		std Z+8,r24
 143:funsape/peripheral/gpioPin.cpp ****         return false;
 185               		.loc 1 143 9 is_stmt 1 view .LVU51
 144:funsape/peripheral/gpioPin.cpp ****     }
 186               		.loc 1 144 9 view .LVU52
 144:funsape/peripheral/gpioPin.cpp ****     }
 187               		.loc 1 144 16 is_stmt 0 view .LVU53
 188 0060 80E0      		ldi r24,0
 189 0062 0895      		ret
 190               		.cfi_endproc
 191               	.LFE142:
 193               		.section	.text._ZN7GpioPin7setModeE7PinMode,"ax",@progbits
 194               	.global	_ZN7GpioPin7setModeE7PinMode
 196               	_ZN7GpioPin7setModeE7PinMode:
 197               	.LVL11:
 198               	.LFB143:
 163:funsape/peripheral/gpioPin.cpp **** 
 164:funsape/peripheral/gpioPin.cpp **** //     ///////////////////    PIN RELATED METHODS     ///////////////////     //
 165:funsape/peripheral/gpioPin.cpp **** 
 166:funsape/peripheral/gpioPin.cpp **** bool_t GpioPin::setMode(const PinMode mode_p)
 167:funsape/peripheral/gpioPin.cpp **** {
 199               		.loc 1 167 1 is_stmt 1 view -0
 200               		.cfi_startproc
 201               	/* prologue: function */
 202               	/* frame size = 0 */
 203               	/* stack size = 0 */
 204               	.L__stack_usage = 0
 205               		.loc 1 167 1 is_stmt 0 view .LVU55
 206 0000 FC01      		movw r30,r24
 168:funsape/peripheral/gpioPin.cpp ****     // Mark passage for debugging purpose
 169:funsape/peripheral/gpioPin.cpp ****     debugMark(PSTR("GpioPin::setMode(const PinMode)"), Debug::CodeIndex::GPIO_PIN_MODULE);
 207               		.loc 1 169 5 is_stmt 1 view .LVU56
 170:funsape/peripheral/gpioPin.cpp **** 
 171:funsape/peripheral/gpioPin.cpp ****     // Checks initialization
 172:funsape/peripheral/gpioPin.cpp ****     if(!this->_isInitialized) {
 208               		.loc 1 172 5 view .LVU57
 209               		.loc 1 172 15 is_stmt 0 view .LVU58
 210 0002 9781      		ldd r25,Z+7
 211 0004 892F      		mov r24,r25
 212 0006 8170      		andi r24,1
 213               	.LVL12:
 214               		.loc 1 172 5 view .LVU59
 215 0008 90FF      		sbrs r25,0
 216 000a 00C0      		rjmp .L13
 173:funsape/peripheral/gpioPin.cpp ****         // Returns error
 174:funsape/peripheral/gpioPin.cpp ****         this->_lastError = Error::NOT_INITIALIZED;
 175:funsape/peripheral/gpioPin.cpp ****         debugMessage(Error::NOT_INITIALIZED, Debug::CodeIndex::GPIO_PIN_MODULE);
 176:funsape/peripheral/gpioPin.cpp ****         return false;
 177:funsape/peripheral/gpioPin.cpp ****     }
 178:funsape/peripheral/gpioPin.cpp **** 
 179:funsape/peripheral/gpioPin.cpp ****     // Configure pin
 180:funsape/peripheral/gpioPin.cpp ****     switch(mode_p) {
 217               		.loc 1 180 5 is_stmt 1 view .LVU60
 218 000c 6130      		cpi r22,lo8(1)
 219 000e 01F0      		breq .L10
 220 0010 6230      		cpi r22,lo8(2)
 221 0012 01F0      		breq .L11
GAS LISTING /tmp/ccyUzbxl.s 			page 8


 222 0014 6111      		cpse r22,__zero_reg__
 223 0016 00C0      		rjmp .L12
 181:funsape/peripheral/gpioPin.cpp ****     case PinMode::INPUT_FLOATING:
 224               		.loc 1 181 5 view .LVU61
 182:funsape/peripheral/gpioPin.cpp ****         clrMask(*(this->_regDir), (uint8_t)this->_pinMask);
 225               		.loc 1 182 9 view .LVU62
 226               		.loc 1 182 9 view .LVU63
 227 0018 A081      		ld r26,Z
 228 001a B181      		ldd r27,Z+1
 229 001c 2C91      		ld r18,X
 230 001e 9681      		ldd r25,Z+6
 231 0020 9095      		com r25
 232 0022 9223      		and r25,r18
 233 0024 9C93      		st X,r25
 234               		.loc 1 182 9 view .LVU64
 183:funsape/peripheral/gpioPin.cpp ****         clrMask(*(this->_regOut), (uint8_t)this->_pinMask);
 235               		.loc 1 183 9 view .LVU65
 236               		.loc 1 183 9 view .LVU66
 237 0026 A281      		ldd r26,Z+2
 238 0028 B381      		ldd r27,Z+3
 239 002a 2C91      		ld r18,X
 240 002c 9681      		ldd r25,Z+6
 241 002e 9095      		com r25
 242 0030 9223      		and r25,r18
 243 0032 9C93      		st X,r25
 244               		.loc 1 183 9 view .LVU67
 184:funsape/peripheral/gpioPin.cpp ****         break;
 245               		.loc 1 184 9 view .LVU68
 246               	.L12:
 185:funsape/peripheral/gpioPin.cpp ****     case PinMode::INPUT_PULLED_UP:
 186:funsape/peripheral/gpioPin.cpp ****         clrMask(*(this->_regDir), (uint8_t)this->_pinMask);
 187:funsape/peripheral/gpioPin.cpp ****         setMask(*(this->_regOut), (uint8_t)this->_pinMask);
 188:funsape/peripheral/gpioPin.cpp ****         break;
 189:funsape/peripheral/gpioPin.cpp ****     case PinMode::OUTPUT_PUSH_PULL:
 190:funsape/peripheral/gpioPin.cpp ****         setMask(*(this->_regDir), (uint8_t)this->_pinMask);
 191:funsape/peripheral/gpioPin.cpp ****         break;
 192:funsape/peripheral/gpioPin.cpp ****     }
 193:funsape/peripheral/gpioPin.cpp **** 
 194:funsape/peripheral/gpioPin.cpp ****     // Returns successfully
 195:funsape/peripheral/gpioPin.cpp ****     this->_lastError = Error::NONE;
 247               		.loc 1 195 5 view .LVU69
 248               		.loc 1 195 22 is_stmt 0 view .LVU70
 249 0034 1186      		std Z+9,__zero_reg__
 250 0036 1086      		std Z+8,__zero_reg__
 196:funsape/peripheral/gpioPin.cpp ****     debugMessage(Error::NONE, Debug::CodeIndex::GPIO_PIN_MODULE);
 251               		.loc 1 196 5 is_stmt 1 view .LVU71
 197:funsape/peripheral/gpioPin.cpp ****     return true;
 252               		.loc 1 197 5 view .LVU72
 253               	/* epilogue start */
 198:funsape/peripheral/gpioPin.cpp **** }
 254               		.loc 1 198 1 is_stmt 0 view .LVU73
 255 0038 0895      		ret
 256               	.L13:
 174:funsape/peripheral/gpioPin.cpp ****         debugMessage(Error::NOT_INITIALIZED, Debug::CodeIndex::GPIO_PIN_MODULE);
 257               		.loc 1 174 9 is_stmt 1 view .LVU74
 174:funsape/peripheral/gpioPin.cpp ****         debugMessage(Error::NOT_INITIALIZED, Debug::CodeIndex::GPIO_PIN_MODULE);
 258               		.loc 1 174 26 is_stmt 0 view .LVU75
GAS LISTING /tmp/ccyUzbxl.s 			page 9


 259 003a 26E0      		ldi r18,lo8(6)
 260 003c 30E0      		ldi r19,0
 261 003e 3187      		std Z+9,r19
 262 0040 2087      		std Z+8,r18
 175:funsape/peripheral/gpioPin.cpp ****         return false;
 263               		.loc 1 175 9 is_stmt 1 view .LVU76
 176:funsape/peripheral/gpioPin.cpp ****     }
 264               		.loc 1 176 9 view .LVU77
 176:funsape/peripheral/gpioPin.cpp ****     }
 265               		.loc 1 176 16 is_stmt 0 view .LVU78
 266 0042 0895      		ret
 267               	.L10:
 185:funsape/peripheral/gpioPin.cpp ****         clrMask(*(this->_regDir), (uint8_t)this->_pinMask);
 268               		.loc 1 185 5 is_stmt 1 view .LVU79
 186:funsape/peripheral/gpioPin.cpp ****         setMask(*(this->_regOut), (uint8_t)this->_pinMask);
 269               		.loc 1 186 9 view .LVU80
 186:funsape/peripheral/gpioPin.cpp ****         setMask(*(this->_regOut), (uint8_t)this->_pinMask);
 270               		.loc 1 186 9 view .LVU81
 271 0044 A081      		ld r26,Z
 272 0046 B181      		ldd r27,Z+1
 273 0048 2C91      		ld r18,X
 274 004a 9681      		ldd r25,Z+6
 275 004c 9095      		com r25
 276 004e 9223      		and r25,r18
 277 0050 9C93      		st X,r25
 186:funsape/peripheral/gpioPin.cpp ****         setMask(*(this->_regOut), (uint8_t)this->_pinMask);
 278               		.loc 1 186 9 view .LVU82
 187:funsape/peripheral/gpioPin.cpp ****         break;
 279               		.loc 1 187 9 view .LVU83
 187:funsape/peripheral/gpioPin.cpp ****         break;
 280               		.loc 1 187 9 view .LVU84
 281 0052 A281      		ldd r26,Z+2
 282 0054 B381      		ldd r27,Z+3
 283 0056 9C91      		ld r25,X
 284 0058 2681      		ldd r18,Z+6
 285 005a 922B      		or r25,r18
 286 005c 9C93      		st X,r25
 187:funsape/peripheral/gpioPin.cpp ****         break;
 287               		.loc 1 187 9 view .LVU85
 188:funsape/peripheral/gpioPin.cpp ****     case PinMode::OUTPUT_PUSH_PULL:
 288               		.loc 1 188 9 view .LVU86
 289 005e 00C0      		rjmp .L12
 290               	.L11:
 189:funsape/peripheral/gpioPin.cpp ****         setMask(*(this->_regDir), (uint8_t)this->_pinMask);
 291               		.loc 1 189 5 view .LVU87
 190:funsape/peripheral/gpioPin.cpp ****         break;
 292               		.loc 1 190 9 view .LVU88
 190:funsape/peripheral/gpioPin.cpp ****         break;
 293               		.loc 1 190 9 view .LVU89
 294 0060 A081      		ld r26,Z
 295 0062 B181      		ldd r27,Z+1
 296 0064 9C91      		ld r25,X
 297 0066 2681      		ldd r18,Z+6
 298 0068 922B      		or r25,r18
 299 006a 9C93      		st X,r25
 190:funsape/peripheral/gpioPin.cpp ****         break;
 300               		.loc 1 190 9 view .LVU90
GAS LISTING /tmp/ccyUzbxl.s 			page 10


 191:funsape/peripheral/gpioPin.cpp ****     }
 301               		.loc 1 191 9 view .LVU91
 302 006c 00C0      		rjmp .L12
 303               		.cfi_endproc
 304               	.LFE143:
 306               		.text
 307               	.Letext0:
 308               		.file 2 "/usr/avr/include/stdint.h"
 309               		.file 3 "funsape/peripheral/../config/atmega328p.hpp"
 310               		.file 4 "funsape/peripheral/../globalDefines.hpp"
 311               		.file 5 "funsape/peripheral/gpioPin.hpp"
GAS LISTING /tmp/ccyUzbxl.s 			page 11


DEFINED SYMBOLS
                            *ABS*:00000000 gpioPin.cpp
     /tmp/ccyUzbxl.s:2      *ABS*:0000003e __SP_H__
     /tmp/ccyUzbxl.s:3      *ABS*:0000003d __SP_L__
     /tmp/ccyUzbxl.s:4      *ABS*:0000003f __SREG__
     /tmp/ccyUzbxl.s:5      *ABS*:00000000 __tmp_reg__
     /tmp/ccyUzbxl.s:6      *ABS*:00000001 __zero_reg__
     /tmp/ccyUzbxl.s:14     .text._ZN7GpioPinC2Ev:00000000 _ZN7GpioPinC2Ev
     /tmp/ccyUzbxl.s:17     .text._ZN7GpioPinC2Ev:00000000 .Loc.0
     /tmp/ccyUzbxl.s:18     .text._ZN7GpioPinC2Ev:00000000 L0
     /tmp/ccyUzbxl.s:23     .text._ZN7GpioPinC2Ev:00000000 .Loc.1
     /tmp/ccyUzbxl.s:26     .text._ZN7GpioPinC2Ev:00000002 .Loc.2
     /tmp/ccyUzbxl.s:29     .text._ZN7GpioPinC2Ev:00000006 .Loc.3
     /tmp/ccyUzbxl.s:32     .text._ZN7GpioPinC2Ev:0000000a .Loc.4
     /tmp/ccyUzbxl.s:35     .text._ZN7GpioPinC2Ev:0000000e .Loc.5
     /tmp/ccyUzbxl.s:37     .text._ZN7GpioPinC2Ev:00000010 .Loc.6
     /tmp/ccyUzbxl.s:40     .text._ZN7GpioPinC2Ev:00000012 .Loc.7
     /tmp/ccyUzbxl.s:43     .text._ZN7GpioPinC2Ev:00000016 .Loc.8
     /tmp/ccyUzbxl.s:46     .text._ZN7GpioPinC2Ev:0000001a .Loc.9
     /tmp/ccyUzbxl.s:47     .text._ZN7GpioPinC2Ev:0000001a .Loc.10
     /tmp/ccyUzbxl.s:48     .text._ZN7GpioPinC2Ev:0000001a .Loc.11
     /tmp/ccyUzbxl.s:51     .text._ZN7GpioPinC2Ev:0000001a .Loc.12
     /tmp/ccyUzbxl.s:53     .text._ZN7GpioPinC2Ev:0000001c L0
     /tmp/ccyUzbxl.s:14     .text._ZN7GpioPinC2Ev:00000000 _ZN7GpioPinC1Ev
     /tmp/ccyUzbxl.s:61     .text._ZN7GpioPinD2Ev:00000000 _ZN7GpioPinD2Ev
     /tmp/ccyUzbxl.s:64     .text._ZN7GpioPinD2Ev:00000000 .Loc.13
     /tmp/ccyUzbxl.s:65     .text._ZN7GpioPinD2Ev:00000000 L0
     /tmp/ccyUzbxl.s:71     .text._ZN7GpioPinD2Ev:00000000 .Loc.14
     /tmp/ccyUzbxl.s:72     .text._ZN7GpioPinD2Ev:00000000 .Loc.15
     /tmp/ccyUzbxl.s:75     .text._ZN7GpioPinD2Ev:00000000 .Loc.16
     /tmp/ccyUzbxl.s:77     .text._ZN7GpioPinD2Ev:00000002 L0
     /tmp/ccyUzbxl.s:61     .text._ZN7GpioPinD2Ev:00000000 _ZN7GpioPinD1Ev
     /tmp/ccyUzbxl.s:85     .text._ZN7GpioPin4initEPVh8PinIndex:00000000 _ZN7GpioPin4initEPVh8PinIndex
     /tmp/ccyUzbxl.s:88     .text._ZN7GpioPin4initEPVh8PinIndex:00000000 .Loc.17
     /tmp/ccyUzbxl.s:89     .text._ZN7GpioPin4initEPVh8PinIndex:00000000 L0
     /tmp/ccyUzbxl.s:94     .text._ZN7GpioPin4initEPVh8PinIndex:00000000 .Loc.18
     /tmp/ccyUzbxl.s:96     .text._ZN7GpioPin4initEPVh8PinIndex:00000002 .Loc.19
     /tmp/ccyUzbxl.s:97     .text._ZN7GpioPin4initEPVh8PinIndex:00000002 .Loc.20
     /tmp/ccyUzbxl.s:99     .text._ZN7GpioPin4initEPVh8PinIndex:00000002 .Loc.21
     /tmp/ccyUzbxl.s:100    .text._ZN7GpioPin4initEPVh8PinIndex:00000002 .Loc.22
     /tmp/ccyUzbxl.s:101    .text._ZN7GpioPin4initEPVh8PinIndex:00000002 .Loc.23
     /tmp/ccyUzbxl.s:104    .text._ZN7GpioPin4initEPVh8PinIndex:00000004 .Loc.24
     /tmp/ccyUzbxl.s:106    .text._ZN7GpioPin4initEPVh8PinIndex:00000006 .Loc.25
     /tmp/ccyUzbxl.s:109    .text._ZN7GpioPin4initEPVh8PinIndex:0000000a .Loc.26
     /tmp/ccyUzbxl.s:110    .text._ZN7GpioPin4initEPVh8PinIndex:0000000a .Loc.27
     /tmp/ccyUzbxl.s:118    .text._ZN7GpioPin4initEPVh8PinIndex:00000018 .Loc.28
     /tmp/ccyUzbxl.s:121    .text._ZN7GpioPin4initEPVh8PinIndex:0000001a .Loc.29
     /tmp/ccyUzbxl.s:131    .text._ZN7GpioPin4initEPVh8PinIndex:0000002a .Loc.30
     /tmp/ccyUzbxl.s:132    .text._ZN7GpioPin4initEPVh8PinIndex:0000002a .Loc.31
     /tmp/ccyUzbxl.s:137    .text._ZN7GpioPin4initEPVh8PinIndex:00000030 .Loc.32
     /tmp/ccyUzbxl.s:138    .text._ZN7GpioPin4initEPVh8PinIndex:00000030 .Loc.33
     /tmp/ccyUzbxl.s:141    .text._ZN7GpioPin4initEPVh8PinIndex:00000034 .Loc.34
     /tmp/ccyUzbxl.s:142    .text._ZN7GpioPin4initEPVh8PinIndex:00000034 .Loc.35
     /tmp/ccyUzbxl.s:145    .text._ZN7GpioPin4initEPVh8PinIndex:00000038 .Loc.36
     /tmp/ccyUzbxl.s:146    .text._ZN7GpioPin4initEPVh8PinIndex:00000038 .Loc.37
     /tmp/ccyUzbxl.s:148    .text._ZN7GpioPin4initEPVh8PinIndex:0000003a .Loc.38
     /tmp/ccyUzbxl.s:151    .text._ZN7GpioPin4initEPVh8PinIndex:0000003e .Loc.39
GAS LISTING /tmp/ccyUzbxl.s 			page 12


     /tmp/ccyUzbxl.s:152    .text._ZN7GpioPin4initEPVh8PinIndex:0000003e .Loc.40
     /tmp/ccyUzbxl.s:161    .text._ZN7GpioPin4initEPVh8PinIndex:0000004a .Loc.41
     /tmp/ccyUzbxl.s:162    .text._ZN7GpioPin4initEPVh8PinIndex:0000004a .Loc.42
     /tmp/ccyUzbxl.s:166    .text._ZN7GpioPin4initEPVh8PinIndex:00000050 .Loc.43
     /tmp/ccyUzbxl.s:167    .text._ZN7GpioPin4initEPVh8PinIndex:00000050 .Loc.44
     /tmp/ccyUzbxl.s:170    .text._ZN7GpioPin4initEPVh8PinIndex:00000054 .Loc.45
     /tmp/ccyUzbxl.s:171    .text._ZN7GpioPin4initEPVh8PinIndex:00000054 .Loc.46
     /tmp/ccyUzbxl.s:172    .text._ZN7GpioPin4initEPVh8PinIndex:00000054 .Loc.47
     /tmp/ccyUzbxl.s:175    .text._ZN7GpioPin4initEPVh8PinIndex:00000056 .Loc.48
     /tmp/ccyUzbxl.s:179    .text._ZN7GpioPin4initEPVh8PinIndex:00000058 .Loc.49
     /tmp/ccyUzbxl.s:180    .text._ZN7GpioPin4initEPVh8PinIndex:00000058 .Loc.50
     /tmp/ccyUzbxl.s:185    .text._ZN7GpioPin4initEPVh8PinIndex:00000060 .Loc.51
     /tmp/ccyUzbxl.s:186    .text._ZN7GpioPin4initEPVh8PinIndex:00000060 .Loc.52
     /tmp/ccyUzbxl.s:187    .text._ZN7GpioPin4initEPVh8PinIndex:00000060 .Loc.53
     /tmp/ccyUzbxl.s:190    .text._ZN7GpioPin4initEPVh8PinIndex:00000064 L0
     /tmp/ccyUzbxl.s:196    .text._ZN7GpioPin7setModeE7PinMode:00000000 _ZN7GpioPin7setModeE7PinMode
     /tmp/ccyUzbxl.s:199    .text._ZN7GpioPin7setModeE7PinMode:00000000 .Loc.54
     /tmp/ccyUzbxl.s:200    .text._ZN7GpioPin7setModeE7PinMode:00000000 L0
     /tmp/ccyUzbxl.s:205    .text._ZN7GpioPin7setModeE7PinMode:00000000 .Loc.55
     /tmp/ccyUzbxl.s:207    .text._ZN7GpioPin7setModeE7PinMode:00000002 .Loc.56
     /tmp/ccyUzbxl.s:208    .text._ZN7GpioPin7setModeE7PinMode:00000002 .Loc.57
     /tmp/ccyUzbxl.s:209    .text._ZN7GpioPin7setModeE7PinMode:00000002 .Loc.58
     /tmp/ccyUzbxl.s:214    .text._ZN7GpioPin7setModeE7PinMode:00000008 .Loc.59
     /tmp/ccyUzbxl.s:217    .text._ZN7GpioPin7setModeE7PinMode:0000000c .Loc.60
     /tmp/ccyUzbxl.s:224    .text._ZN7GpioPin7setModeE7PinMode:00000018 .Loc.61
     /tmp/ccyUzbxl.s:225    .text._ZN7GpioPin7setModeE7PinMode:00000018 .Loc.62
     /tmp/ccyUzbxl.s:226    .text._ZN7GpioPin7setModeE7PinMode:00000018 .Loc.63
     /tmp/ccyUzbxl.s:234    .text._ZN7GpioPin7setModeE7PinMode:00000026 .Loc.64
     /tmp/ccyUzbxl.s:235    .text._ZN7GpioPin7setModeE7PinMode:00000026 .Loc.65
     /tmp/ccyUzbxl.s:236    .text._ZN7GpioPin7setModeE7PinMode:00000026 .Loc.66
     /tmp/ccyUzbxl.s:244    .text._ZN7GpioPin7setModeE7PinMode:00000034 .Loc.67
     /tmp/ccyUzbxl.s:245    .text._ZN7GpioPin7setModeE7PinMode:00000034 .Loc.68
     /tmp/ccyUzbxl.s:247    .text._ZN7GpioPin7setModeE7PinMode:00000034 .Loc.69
     /tmp/ccyUzbxl.s:248    .text._ZN7GpioPin7setModeE7PinMode:00000034 .Loc.70
     /tmp/ccyUzbxl.s:251    .text._ZN7GpioPin7setModeE7PinMode:00000038 .Loc.71
     /tmp/ccyUzbxl.s:252    .text._ZN7GpioPin7setModeE7PinMode:00000038 .Loc.72
     /tmp/ccyUzbxl.s:254    .text._ZN7GpioPin7setModeE7PinMode:00000038 .Loc.73
     /tmp/ccyUzbxl.s:257    .text._ZN7GpioPin7setModeE7PinMode:0000003a .Loc.74
     /tmp/ccyUzbxl.s:258    .text._ZN7GpioPin7setModeE7PinMode:0000003a .Loc.75
     /tmp/ccyUzbxl.s:263    .text._ZN7GpioPin7setModeE7PinMode:00000042 .Loc.76
     /tmp/ccyUzbxl.s:264    .text._ZN7GpioPin7setModeE7PinMode:00000042 .Loc.77
     /tmp/ccyUzbxl.s:265    .text._ZN7GpioPin7setModeE7PinMode:00000042 .Loc.78
     /tmp/ccyUzbxl.s:268    .text._ZN7GpioPin7setModeE7PinMode:00000044 .Loc.79
     /tmp/ccyUzbxl.s:269    .text._ZN7GpioPin7setModeE7PinMode:00000044 .Loc.80
     /tmp/ccyUzbxl.s:270    .text._ZN7GpioPin7setModeE7PinMode:00000044 .Loc.81
     /tmp/ccyUzbxl.s:278    .text._ZN7GpioPin7setModeE7PinMode:00000052 .Loc.82
     /tmp/ccyUzbxl.s:279    .text._ZN7GpioPin7setModeE7PinMode:00000052 .Loc.83
     /tmp/ccyUzbxl.s:280    .text._ZN7GpioPin7setModeE7PinMode:00000052 .Loc.84
     /tmp/ccyUzbxl.s:287    .text._ZN7GpioPin7setModeE7PinMode:0000005e .Loc.85
     /tmp/ccyUzbxl.s:288    .text._ZN7GpioPin7setModeE7PinMode:0000005e .Loc.86
     /tmp/ccyUzbxl.s:291    .text._ZN7GpioPin7setModeE7PinMode:00000060 .Loc.87
     /tmp/ccyUzbxl.s:292    .text._ZN7GpioPin7setModeE7PinMode:00000060 .Loc.88
     /tmp/ccyUzbxl.s:293    .text._ZN7GpioPin7setModeE7PinMode:00000060 .Loc.89
     /tmp/ccyUzbxl.s:300    .text._ZN7GpioPin7setModeE7PinMode:0000006c .Loc.90
     /tmp/ccyUzbxl.s:301    .text._ZN7GpioPin7setModeE7PinMode:0000006c .Loc.91
     /tmp/ccyUzbxl.s:303    .text._ZN7GpioPin7setModeE7PinMode:0000006e L0
     /tmp/ccyUzbxl.s:58     .text._ZN7GpioPinC2Ev:0000001c L0
GAS LISTING /tmp/ccyUzbxl.s 			page 13


     /tmp/ccyUzbxl.s:82     .text._ZN7GpioPinD2Ev:00000002 L0
     /tmp/ccyUzbxl.s:193    .text._ZN7GpioPin4initEPVh8PinIndex:00000064 L0
     /tmp/ccyUzbxl.s:306    .text._ZN7GpioPin7setModeE7PinMode:0000006e L0
                     .debug_frame:00000000 L0
     /tmp/ccyUzbxl.s:178    .text._ZN7GpioPin4initEPVh8PinIndex:00000058 .L6
     /tmp/ccyUzbxl.s:157    .text._ZN7GpioPin4initEPVh8PinIndex:00000044 .L21
     /tmp/ccyUzbxl.s:155    .text._ZN7GpioPin4initEPVh8PinIndex:00000042 .L11
     /tmp/ccyUzbxl.s:256    .text._ZN7GpioPin7setModeE7PinMode:0000003a .L13
     /tmp/ccyUzbxl.s:267    .text._ZN7GpioPin7setModeE7PinMode:00000044 .L10
     /tmp/ccyUzbxl.s:290    .text._ZN7GpioPin7setModeE7PinMode:00000060 .L11
     /tmp/ccyUzbxl.s:246    .text._ZN7GpioPin7setModeE7PinMode:00000034 .L12
     /tmp/ccyUzbxl.s:1124   .debug_abbrev:00000000 .Ldebug_abbrev0
     /tmp/ccyUzbxl.s:1918   .debug_ranges:00000000 .Ldebug_ranges0
     /tmp/ccyUzbxl.s:1930   .debug_line:00000000 .Ldebug_line0
     /tmp/ccyUzbxl.s:198    .text._ZN7GpioPin7setModeE7PinMode:00000000 .LFB143
     /tmp/ccyUzbxl.s:304    .text._ZN7GpioPin7setModeE7PinMode:0000006e .LFE143
     /tmp/ccyUzbxl.s:1719   .debug_loc:00000004 .LLST5
     /tmp/ccyUzbxl.s:1714   .debug_loc:00000000 .LVUS5
     /tmp/ccyUzbxl.s:87     .text._ZN7GpioPin4initEPVh8PinIndex:00000000 .LFB142
     /tmp/ccyUzbxl.s:191    .text._ZN7GpioPin4initEPVh8PinIndex:00000064 .LFE142
     /tmp/ccyUzbxl.s:1745   .debug_loc:00000030 .LLST1
     /tmp/ccyUzbxl.s:1740   .debug_loc:0000002c .LVUS1
     /tmp/ccyUzbxl.s:1775   .debug_loc:00000060 .LLST2
     /tmp/ccyUzbxl.s:1766   .debug_loc:00000058 .LVUS2
     /tmp/ccyUzbxl.s:1822   .debug_loc:000000af .LLST3
     /tmp/ccyUzbxl.s:1815   .debug_loc:000000a9 .LVUS3
     /tmp/ccyUzbxl.s:1851   .debug_loc:000000e5 .LLST4
     /tmp/ccyUzbxl.s:1844   .debug_loc:000000df .LVUS4
     /tmp/ccyUzbxl.s:63     .text._ZN7GpioPinD2Ev:00000000 .LFB140
     /tmp/ccyUzbxl.s:78     .text._ZN7GpioPinD2Ev:00000002 .LFE140
     /tmp/ccyUzbxl.s:16     .text._ZN7GpioPinC2Ev:00000000 .LFB137
     /tmp/ccyUzbxl.s:54     .text._ZN7GpioPinC2Ev:0000001c .LFE137
     /tmp/ccyUzbxl.s:1878   .debug_loc:00000119 .LLST0
     /tmp/ccyUzbxl.s:1873   .debug_loc:00000115 .LVUS0
     /tmp/ccyUzbxl.s:197    .text._ZN7GpioPin7setModeE7PinMode:00000000 .LVL11
     /tmp/ccyUzbxl.s:213    .text._ZN7GpioPin7setModeE7PinMode:00000008 .LVL12
     /tmp/ccyUzbxl.s:86     .text._ZN7GpioPin4initEPVh8PinIndex:00000000 .LVL3
     /tmp/ccyUzbxl.s:103    .text._ZN7GpioPin4initEPVh8PinIndex:00000004 .LVL5
     /tmp/ccyUzbxl.s:117    .text._ZN7GpioPin4initEPVh8PinIndex:00000018 .LVL6
     /tmp/ccyUzbxl.s:120    .text._ZN7GpioPin4initEPVh8PinIndex:0000001a .LVL7
     /tmp/ccyUzbxl.s:177    .text._ZN7GpioPin4initEPVh8PinIndex:00000058 .LVL10
     /tmp/ccyUzbxl.s:98     .text._ZN7GpioPin4initEPVh8PinIndex:00000002 .LVL4
     /tmp/ccyUzbxl.s:130    .text._ZN7GpioPin4initEPVh8PinIndex:0000002a .LVL8
     /tmp/ccyUzbxl.s:136    .text._ZN7GpioPin4initEPVh8PinIndex:00000030 .LVL9
     /tmp/ccyUzbxl.s:15     .text._ZN7GpioPinC2Ev:00000000 .LVL0
     /tmp/ccyUzbxl.s:39     .text._ZN7GpioPinC2Ev:00000012 .LVL1
     /tmp/ccyUzbxl.s:313    .debug_info:00000000 .Ldebug_info0

UNDEFINED SYMBOLS
__umulhisi3
