GAS LISTING /tmp/ccUMk0PR.s 			page 1


   1               		.file	"main.cpp"
   2               	__SP_H__ = 0x3e
   3               	__SP_L__ = 0x3d
   4               	__SREG__ = 0x3f
   5               	__tmp_reg__ = 0
   6               	__zero_reg__ = 1
   7               		.text
   8               	.Ltext0:
   9               		.cfi_sections	.debug_frame
  10               		.file 1 "main.cpp"
  11               		.section	.text._Z41__static_initialization_and_destruction_0v,"ax",@progbits
  13               	_Z41__static_initialization_and_destruction_0v:
  14               	.LFB254:
   1:main.cpp      **** #define F_CPU 16000000UL
   2:main.cpp      **** 
   3:main.cpp      **** #include "funsape/globalDefines.hpp"
   4:main.cpp      **** #include "funsape/peripheral/gpioPin.hpp"
   5:main.cpp      **** #include "funsape/peripheral/gpioBus.hpp"
   6:main.cpp      **** 
   7:main.cpp      **** #include "funsape/peripheral/timer1.hpp"
   8:main.cpp      **** #include "funsape/peripheral/timer0.hpp"
   9:main.cpp      **** #include "funsape/peripheral/pcint1.hpp"
  10:main.cpp      **** 
  11:main.cpp      **** #include "funsape/peripheral/usart0.hpp"
  12:main.cpp      **** 
  13:main.cpp      **** #include "funsape/peripheral/twi.hpp"
  14:main.cpp      **** #include "funsape/device/ssd1306.hpp"
  15:main.cpp      **** #include "funsape/util/intTrig.hpp"
  16:main.cpp      **** //Macro definitions ------------------------------------------------------------
  17:main.cpp      **** 
  18:main.cpp      **** #define defineBit(var, pos, value) ((uint8_t)((var & (1 << pos)) ? (var & (~((!((bool_t)value)) << 
  19:main.cpp      **** #define MSB(x) ((uint8_t)((x >> 8) & 0xFF))
  20:main.cpp      **** #define LSB(x) ((uint8_t)(x & 0xFF))
  21:main.cpp      **** #define ABS(x) ((x>0) ? (x) : (-x))
  22:main.cpp      **** #define MAX(a,b) ((a>b) ? (a) : (b))
  23:main.cpp      **** #define MIN(a,b) ((b>a) ? (a) : (b))
  24:main.cpp      **** #define SIGN(a) ((a>0) ? (1) : ((a<0) ? (-1) : (0)))
  25:main.cpp      **** 
  26:main.cpp      **** #define ENABLE_BUTTON 1
  27:main.cpp      **** #define LEFT_BUTTON 4
  28:main.cpp      **** #define RIGHT_BUTTON 2
  29:main.cpp      **** 
  30:main.cpp      **** #define PACKET_SIZE 16
  31:main.cpp      **** 
  32:main.cpp      **** //Data structure declarations --------------------------------------------------
  33:main.cpp      **** 
  34:main.cpp      **** enum OP_MODE{
  35:main.cpp      ****   IDLE_MODE,
  36:main.cpp      ****   CURSOR_MODE,
  37:main.cpp      ****   SCROLL_MODE,
  38:main.cpp      ****   CALIBRATION_MODE
  39:main.cpp      **** };
  40:main.cpp      **** 
  41:main.cpp      **** enum BT_STATE{
  42:main.cpp      ****     BT_CONNECTED,
  43:main.cpp      ****     BT_DISCONNECTED
  44:main.cpp      **** };
GAS LISTING /tmp/ccUMk0PR.s 			page 2


  45:main.cpp      **** 
  46:main.cpp      **** 
  47:main.cpp      **** //Function prototype definition ------------------------------------------------
  48:main.cpp      **** 
  49:main.cpp      **** uint32_t get_millis();
  50:main.cpp      **** uint32_t micros();
  51:main.cpp      **** uint8_t spi_writeRead(uint8_t data);
  52:main.cpp      **** void transcieve_packets(uint8_t *packet, uint8_t *recv_packet, size_t len);
  53:main.cpp      **** 
  54:main.cpp      **** void format_packet(uint16_t x, uint16_t y, uint8_t buttons, \
  55:main.cpp      ****     int16_t scroll, OP_MODE mode, uint8_t *packet);
  56:main.cpp      **** 
  57:main.cpp      **** void convert_recieved(int32_t *roll, int32_t *pitch, \
  58:main.cpp      ****     int32_t *yaw, int16_t *accel_x, BT_STATE *state, uint8_t *packet);
  59:main.cpp      **** 
  60:main.cpp      **** uint16_t projectTan(int32_t angle_mdeg, int32_t center_mdeg,
  61:main.cpp      ****                     int32_t halfRange_mdeg, uint16_t sens_q8);
  62:main.cpp      **** 
  63:main.cpp      **** // GLOBAL VARIABLE DECLARATIONS ================================================
  64:main.cpp      **** 
  65:main.cpp      **** //GPIO Declarations ------------------------------------------------------------
  66:main.cpp      **** GpioPin led;
  67:main.cpp      **** GpioBus buttons;
  68:main.cpp      **** GpioPin slave_select_esp;
  69:main.cpp      **** 
  70:main.cpp      **** //OLED Display -----------------------------------------------------------------
  71:main.cpp      **** Ssd1306 display;
  72:main.cpp      **** uint8_t oledBuffer[1024];
  73:main.cpp      **** volatile bool update_display_flag = false;
  74:main.cpp      **** volatile bool clear_display_flag = false;
  75:main.cpp      **** 
  76:main.cpp      **** //Timer counter ----------------------------------------------------------------
  77:main.cpp      **** volatile uint32_t timer1_overflows = 0;
  78:main.cpp      **** 
  79:main.cpp      **** //Button and debounce variables ------------------------------------------------
  80:main.cpp      **** volatile bool_t button_pending_change = false;
  81:main.cpp      **** volatile uint32_t button_last_changed[3];
  82:main.cpp      **** volatile uint8_t debounced_buttons = 0;
  83:main.cpp      **** 
  84:main.cpp      **** //SPI variables ----------------------------------------------------------------
  85:main.cpp      **** volatile bool spi_flag = false;
  86:main.cpp      **** 
  87:main.cpp      **** //STATE
  88:main.cpp      **** OP_MODE current_state = IDLE_MODE;
  89:main.cpp      **** 
  90:main.cpp      **** 
  91:main.cpp      **** 
  92:main.cpp      **** int main(){
  93:main.cpp      ****     
  94:main.cpp      ****     // Config do Pcint1 --- Botões do mouse ------------------------------------
  95:main.cpp      ****     {
  96:main.cpp      ****     pcint1.setPinMode(Pcint1::Pin::PIN_PCINT8 | Pcint1::Pin::PIN_PCINT9 | Pcint1::Pin::PIN_PCINT10,
  97:main.cpp      ****     pcint1.init(Pcint1::Pin::PIN_PCINT8 | Pcint1::Pin::PIN_PCINT9 | Pcint1::Pin::PIN_PCINT10);
  98:main.cpp      ****     pcint1.clearInterruptRequest();
  99:main.cpp      ****     pcint1.activateInterrupt();
 100:main.cpp      ****     }
 101:main.cpp      **** 
GAS LISTING /tmp/ccUMk0PR.s 			page 3


 102:main.cpp      ****     // Configure GPIO --- Led / Botoẽs do mouse / SS esp -----------------------
 103:main.cpp      ****     {
 104:main.cpp      ****     // led.init(&PORTB, PinIndex::P5);
 105:main.cpp      ****     // led.setMode(PinMode::OUTPUT_PUSH_PULL);
 106:main.cpp      ****     
 107:main.cpp      ****     buttons.init(&PORTC, PinIndex::P0, 3);
 108:main.cpp      ****     buttons.setMode(PinMode::INPUT_PULLED_UP);
 109:main.cpp      **** 
 110:main.cpp      ****     slave_select_esp.init(&PORTB, PinIndex::P1);
 111:main.cpp      ****     slave_select_esp.setMode(PinMode::OUTPUT_PUSH_PULL);
 112:main.cpp      ****     }
 113:main.cpp      **** 
 114:main.cpp      ****     // Config SPI --- Comm com ESP ---------------------------------------------
 115:main.cpp      ****     {
 116:main.cpp      ****     //SS, MISO, MOSI, SCK
 117:main.cpp      ****     clrBit(PRR, PRSPI);
 118:main.cpp      **** 
 119:main.cpp      ****     setBit(DDRB, (uint8_t)PinIndex::P2); // SS
 120:main.cpp      ****     setBit(DDRB, (uint8_t)PinIndex::P3); // MOSI
 121:main.cpp      ****     clrBit(DDRB, (uint8_t)PinIndex::P4); // MISO
 122:main.cpp      ****     setBit(DDRB, (uint8_t)PinIndex::P5); // SCK
 123:main.cpp      **** 
 124:main.cpp      **** 
 125:main.cpp      ****     // setBit(SPCR, 6); //BIT 6 SPE - SPI Enable
 126:main.cpp      ****     // clrBit(SPCR, 5); //BIT 5 DORD - Data order, 0 - MSB
 127:main.cpp      ****     // setBit(SPCR, 4); //BIT 4 MSTR - Set master
 128:main.cpp      ****     // clrBit(SPCR, 3); //BIT 3 CPOL - Clock Polarity, mode 0 - 0
 129:main.cpp      ****     // clrBit(SPCR, 2); //BIT 2 CPHA - Clock Phase, mode 0 - 0
 130:main.cpp      **** 
 131:main.cpp      ****     // clrBit(SPCR, SPR1); //BIT 1 SPR1 - Clock prescaler - Prescaler 16
 132:main.cpp      ****     // setBit(SPCR, SPR0); //BIT 0 SPR2 - Clock prescaler - Prescaler 16
 133:main.cpp      ****     SPCR = 0b1010001;
 134:main.cpp      ****     }
 135:main.cpp      **** 
 136:main.cpp      ****     // Config Timer 0 --- 1ms --------------------------------------------------
 137:main.cpp      ****     {
 138:main.cpp      ****     timer0.init(Timer0::Mode::NORMAL, //Colocamos quantos ciclos pra chegar na interrupção
 139:main.cpp      ****             Timer0::ClockSource::PRESCALER_1024);//Velocidade que e dividida a cpu
 140:main.cpp      ****     timer0.setCompareAValue(155); //Fala quantos ticks precisam para chegar a 10ms
 141:main.cpp      ****     timer0.clearCompareAInterruptRequest(); //Limpar o pre interrupt
 142:main.cpp      ****     timer0.activateCompareAInterrupt();
 143:main.cpp      ****     }
 144:main.cpp      **** 
 145:main.cpp      ****     // Config Timer 1 --- 5ms -------------------------------------------------
 146:main.cpp      ****     {
 147:main.cpp      ****     timer1.init(Timer1::Mode::NORMAL, //Colocamos quantos ciclos pra chegar na interrupção
 148:main.cpp      ****             Timer1::ClockSource::PRESCALER_8);//Velocidade que e dividida a cpu
 149:main.cpp      ****     // timer1.setCompareAValue(1250*4); // 50ms
 150:main.cpp      ****     timer1.clearOverflowInterruptRequest(); //Limpar o pre interrupt
 151:main.cpp      ****     timer1.activateOverflowInterrupt();
 152:main.cpp      ****     }
 153:main.cpp      ****     
 154:main.cpp      ****     // Config Uart --- Debug ---------------------------------------------------
 155:main.cpp      ****     {
 156:main.cpp      ****     usart0.init();
 157:main.cpp      ****     usart0.setBaudRate(Usart0::BaudRate::BAUD_RATE_115200);
 158:main.cpp      ****     usart0.setFrameFormat(Usart0::FrameFormat::FRAME_FORMAT_8_E_1);
GAS LISTING /tmp/ccUMk0PR.s 			page 4


 159:main.cpp      ****     usart0.enableTransmitter();
 160:main.cpp      ****     usart0.enableReceiver();
 161:main.cpp      ****     usart0.stdio();
 162:main.cpp      ****     }
 163:main.cpp      **** 
 164:main.cpp      ****     // Set enable interrupts ---------------------------------------------------
 165:main.cpp      ****     sei();
 166:main.cpp      **** 
 167:main.cpp      ****     // Config OLED SSD1306 --- Display I2C -------------------------------------
 168:main.cpp      ****     // (TWI a 400kHz, buffer de 64 bytes; interrupcoes ja habilitadas com sei())
 169:main.cpp      ****     {
 170:main.cpp      ****     twi.init(400000, 64);
 171:main.cpp      **** 
 172:main.cpp      ****     display.init(&twi, Ssd1306::Size::SSD1306_128X64, 0x3C, oledBuffer);
 173:main.cpp      **** 
 174:main.cpp      ****     display.setUpsideDown(true);
 175:main.cpp      ****     display.clearScreen();
 176:main.cpp      ****     
 177:main.cpp      ****     // display.drawRect(0, 5, 128, 3);     // contorno cobrindo 3 paginas
 178:main.cpp      ****     // display.fillRect(4, 6, 40, 1, true);// barra solida
 179:main.cpp      ****     }
 180:main.cpp      **** 
 181:main.cpp      **** 
 182:main.cpp      **** 
 183:main.cpp      ****     // Local variable declarations ---------------------------------------------
 184:main.cpp      ****     uint16_t x {0}, y {0};
 185:main.cpp      ****     uint8_t packet[PACKET_SIZE], recv_packet[PACKET_SIZE];
 186:main.cpp      ****     int32_t pitch {0}, roll {0}, yaw {0};
 187:main.cpp      ****     int16_t accel_x {0};
 188:main.cpp      ****     uint8_t sense_x {20}, sense_y{20}; 
 189:main.cpp      **** 
 190:main.cpp      ****     BT_STATE ble_state = BT_DISCONNECTED;
 191:main.cpp      ****     uint8_t last_debounced_buttons = 0;
 192:main.cpp      **** 
 193:main.cpp      ****     uint8_t idle_count = 0;
 194:main.cpp      **** 
 195:main.cpp      ****     uint32_t last_mouse_button_pressed {0};
 196:main.cpp      **** 
 197:main.cpp      ****     printf("Inicializando Atmega\n");
 198:main.cpp      **** 
 199:main.cpp      ****     while (true){
 200:main.cpp      ****         uint8_t button_data = buttons.read();
 201:main.cpp      ****         if(button_pending_change){
 202:main.cpp      ****             button_pending_change = false;
 203:main.cpp      ****             
 204:main.cpp      ****             uint32_t current_milis = get_millis();
 205:main.cpp      ****             for(uint8_t i = 0; i < 3; i++)
 206:main.cpp      ****                 if((current_milis - button_last_changed[i]) > 15){
 207:main.cpp      ****                     debounced_buttons = defineBit(debounced_buttons, i, !(bool)(button_data & (1 <<
 208:main.cpp      ****                 }else{
 209:main.cpp      ****                     button_pending_change = true;
 210:main.cpp      ****                 }
 211:main.cpp      ****         }
 212:main.cpp      **** 
 213:main.cpp      ****         uint8_t pressed_buttons = (debounced_buttons ^ last_debounced_buttons) & debounced_buttons;
 214:main.cpp      **** 
 215:main.cpp      ****         if((debounced_buttons & ENABLE_BUTTON) && (get_millis()-button_last_changed[ENABLE_BUTTON] 
GAS LISTING /tmp/ccUMk0PR.s 			page 5


 216:main.cpp      ****             current_state = CALIBRATION_MODE;
 217:main.cpp      ****         }
 218:main.cpp      **** 
 219:main.cpp      ****         if((pressed_buttons & ENABLE_BUTTON) && (debounced_buttons & ENABLE_BUTTON)){
 220:main.cpp      ****             current_state = (current_state == IDLE_MODE) ? CURSOR_MODE : IDLE_MODE;
 221:main.cpp      ****         }
 222:main.cpp      ****         if((pressed_buttons & (RIGHT_BUTTON | LEFT_BUTTON)) && (debounced_buttons & (RIGHT_BUTTON |
 223:main.cpp      ****             last_mouse_button_pressed = get_millis();
 224:main.cpp      ****         }
 225:main.cpp      **** 
 226:main.cpp      ****         // printf("State: %s", (current_state == IDLE_MODE) ? "IDLE" : ((current_state == CURSOR_MO
 227:main.cpp      ****         if(update_display_flag){
 228:main.cpp      ****             display.clearScreen();
 229:main.cpp      ****             display.setCursor(0, 7);
 230:main.cpp      ****             display.setTextSize(1);
 231:main.cpp      ****             char formatted_state[22];
 232:main.cpp      ****             sprintf_P(formatted_state, PSTR("State: %S|BLE: %S"), 
 233:main.cpp      ****                 (current_state == IDLE_MODE) ? PSTR("IDLE") : 
 234:main.cpp      ****                 (current_state == CURSOR_MODE) ? PSTR("CURSOR") : 
 235:main.cpp      ****                 (current_state == SCROLL_MODE) ? PSTR("SCROLL") : PSTR("ADJUST"),
 236:main.cpp      ****                 (ble_state == BT_CONNECTED) ? PSTR("OK") : PSTR("NO"));
 237:main.cpp      ****             display.print(formatted_state);
 238:main.cpp      ****             
 239:main.cpp      ****             int8_t bar_roll = MIN(MAX((roll/1410), -63), 63);
 240:main.cpp      ****             display.fillRect(63+MIN(0, bar_roll), 0, (cuint8_t)ABS(bar_roll), 1, true);            
 241:main.cpp      ****             
 242:main.cpp      ****             int8_t bar_pitch = MIN(MAX((pitch/1410), -63), 63);
 243:main.cpp      ****             display.fillRect(63+MIN(0, bar_pitch), 1, (cuint8_t)ABS(bar_pitch), 1, true);          
 244:main.cpp      ****             
 245:main.cpp      ****             int8_t bar_yaw = MIN(MAX((yaw/1410), -63), 63);
 246:main.cpp      ****             display.fillRect(63+MIN(0, bar_yaw), 2, (cuint8_t)ABS(bar_yaw), 1, true);              
 247:main.cpp      **** 
 248:main.cpp      ****             display.drawPixel(x>>8, y>>9);
 249:main.cpp      ****             
 250:main.cpp      ****             display.setCursor(10,5);
 251:main.cpp      **** 
 252:main.cpp      ****             char formatted_sense[21];
 253:main.cpp      ****             sprintf_P(formatted_sense, PSTR("SENSE X: %u.%ux Y: %u.%ux"), sense_x/10, sense_x%10, s
 254:main.cpp      ****             display.setCursor(0,5);            
 255:main.cpp      ****             display.print(formatted_sense);
 256:main.cpp      **** 
 257:main.cpp      ****             display.display();
 258:main.cpp      ****             update_display_flag = false;
 259:main.cpp      ****         }
 260:main.cpp      **** 
 261:main.cpp      ****         switch (current_state){
 262:main.cpp      ****             case IDLE_MODE:
 263:main.cpp      ****                 if(spi_flag){
 264:main.cpp      ****                     spi_flag=false;
 265:main.cpp      ****                     idle_count++;
 266:main.cpp      ****                     if(idle_count >= 5){
 267:main.cpp      ****                         
 268:main.cpp      ****                         idle_count = 0;
 269:main.cpp      ****                         format_packet(x, y, 0, 0, current_state, packet);
 270:main.cpp      ****                         transcieve_packets(packet, recv_packet, PACKET_SIZE);
 271:main.cpp      ****                         convert_recieved(&roll, &pitch, &yaw, &accel_x, &ble_state, recv_packet);
 272:main.cpp      ****                         spi_flag = false;
GAS LISTING /tmp/ccUMk0PR.s 			page 6


 273:main.cpp      ****             
 274:main.cpp      ****                         // printf("State: %u  Pitch: %i.%u  Roll: %i.%u  Yaw: %i.%u SENDING: SCROLL
 275:main.cpp      ****                         // printf("Buttons: %u %u %u\r\n", (bool_t)(debounced_buttons&(1<<0)), (boo
 276:main.cpp      ****                     }
 277:main.cpp      ****                 }
 278:main.cpp      ****                 break;
 279:main.cpp      ****             case CURSOR_MODE:
 280:main.cpp      ****                 if (pitch > 60000){current_state = SCROLL_MODE; break;}
 281:main.cpp      **** 
 282:main.cpp      ****                 {
 283:main.cpp      **** 
 284:main.cpp      ****                     if(get_millis() - last_mouse_button_pressed > 100){
 285:main.cpp      ****                         // int32_t raw_x = ((int32_t)(yaw+45000)*410*sense_x)/10000;
 286:main.cpp      ****                         // int32_t raw_y = ((int32_t)pitch*655*sense_y)/10000;
 287:main.cpp      **** 
 288:main.cpp      ****                         // yaw no eixo X: 0 -> centro, -45 -> esquerda, +45 -> direita
 289:main.cpp      ****                         int32_t raw_x = projectTan(yaw,   0,     45000, sense_x);
 290:main.cpp      ****                         // pitch no eixo Y: 0..50 -> tela toda (centro em 25)
 291:main.cpp      ****                         int32_t raw_y = projectTan(pitch, 25000, 25000, sense_y);
 292:main.cpp      ****                         
 293:main.cpp      ****                         x = (int16_t)truncateBetween(raw_x, 0, 32767);
 294:main.cpp      ****                         y = 32767 - (int16_t)truncateBetween(raw_y, 0, 32767);
 295:main.cpp      **** 
 296:main.cpp      ****                     }
 297:main.cpp      **** 
 298:main.cpp      ****                     if(spi_flag){
 299:main.cpp      ****                             format_packet(x, y, debounced_buttons, 0, current_state, packet);
 300:main.cpp      ****                             transcieve_packets(packet, recv_packet, PACKET_SIZE);
 301:main.cpp      ****                             convert_recieved(&roll, &pitch, &yaw, &accel_x, &ble_state, recv_packet
 302:main.cpp      ****                             spi_flag = false;
 303:main.cpp      ****                 
 304:main.cpp      ****                             // printf("State: %u  Pitch: %li  Roll: %li  Yaw: %li SENDING: X: %u  Y
 305:main.cpp      ****                             // printf("Buttons: %u %u %u\r\n", (bool_t)(debounced_buttons&(1<<0)), 
 306:main.cpp      ****                     }
 307:main.cpp      ****                 }        
 308:main.cpp      ****                 break;
 309:main.cpp      ****             case SCROLL_MODE:
 310:main.cpp      ****                 if (pitch < 50000){current_state = CURSOR_MODE; break;}
 311:main.cpp      **** 
 312:main.cpp      ****                 if(spi_flag){
 313:main.cpp      ****                     int8_t scroll_packet = (int8_t)(ABS(yaw) > 15000) ? (int8_t)(yaw/15000) : 0;
 314:main.cpp      **** 
 315:main.cpp      ****                     format_packet(x, y, debounced_buttons, scroll_packet, current_state, packet);
 316:main.cpp      ****                     transcieve_packets(packet, recv_packet, PACKET_SIZE);
 317:main.cpp      ****                     convert_recieved(&roll, &pitch, &yaw, &accel_x, &ble_state, recv_packet);
 318:main.cpp      ****                     
 319:main.cpp      ****                     printf("State: %u  Pitch:  %li  Roll: %li  Yaw: %li Accel_x: %d.%u SENDING: SCR
 320:main.cpp      **** 
 321:main.cpp      ****                     spi_flag=false;
 322:main.cpp      ****                 }
 323:main.cpp      **** 
 324:main.cpp      ****                 break;
 325:main.cpp      ****             case CALIBRATION_MODE:
 326:main.cpp      ****                 if(pressed_buttons & LEFT_BUTTON){
 327:main.cpp      ****                     sense_x = (sense_x+5)%45;
 328:main.cpp      ****                 }
 329:main.cpp      ****                 if(pressed_buttons & RIGHT_BUTTON){
GAS LISTING /tmp/ccUMk0PR.s 			page 7


 330:main.cpp      ****                     sense_y = (sense_y+5)%45;
 331:main.cpp      ****                 }
 332:main.cpp      **** 
 333:main.cpp      ****                 if(spi_flag){
 334:main.cpp      ****                         format_packet(x, y, 0, 0, current_state, packet);
 335:main.cpp      ****                         transcieve_packets(packet, recv_packet, PACKET_SIZE);
 336:main.cpp      ****                         convert_recieved(&roll, &pitch, &yaw, &accel_x, &ble_state, recv_packet);
 337:main.cpp      ****                         
 338:main.cpp      ****                         spi_flag=false;
 339:main.cpp      ****                     }
 340:main.cpp      ****                 break;
 341:main.cpp      ****             default:
 342:main.cpp      ****                 ;
 343:main.cpp      ****             }
 344:main.cpp      ****             
 345:main.cpp      ****     
 346:main.cpp      ****             last_debounced_buttons = debounced_buttons;
 347:main.cpp      ****     }
 348:main.cpp      **** }
 349:main.cpp      **** 
 350:main.cpp      **** //! Projeta um angulo (em milesimos de grau) numa coordenada de tela 0..32767,
 351:main.cpp      **** //! por TANGENTE (projecao "tela plana"). 'center' cai no meio (16384); em
 352:main.cpp      **** //! (center +- halfRange) chega nas bordas (0 e 32767). 'sens' e' ganho Q8
 353:main.cpp      **** //! (256 = 1.0x; 512 = 2.0x; 128 = 0.5x). Resultado sempre limitado a [0,32767].
 354:main.cpp      **** uint16_t projectTan(int32_t angle_mdeg, int32_t center_mdeg,
 355:main.cpp      ****                     int32_t halfRange_mdeg, uint16_t sens_q8)
 356:main.cpp      **** {
 357:main.cpp      **** 
 358:main.cpp      ****     int32_t rel = angle_mdeg - center_mdeg;
 359:main.cpp      ****     rel = truncateBetween(rel, -60000L, 60000L);              // evita div0/estouro do tan
 360:main.cpp      ****     int32_t tanRel  = ((int32_t)sini(rel) << 12) / cosi(rel);          // tan em Q12
 361:main.cpp      ****     int32_t tanHalf = ((int32_t)sini(halfRange_mdeg) << 12) / cosi(halfRange_mdeg);
 362:main.cpp      ****     int32_t offset  = ((int32_t)tanRel * sens_q8 * 1536) / tanHalf;      // 16384 na borda (sens=25
 363:main.cpp      ****     int32_t coord   = 16384L + offset;
 364:main.cpp      ****     return (uint16_t)truncateBetween(coord, 0L, 32767L);
 365:main.cpp      **** }
 366:main.cpp      **** 
 367:main.cpp      **** 
 368:main.cpp      **** uint8_t spi_writeRead(uint8_t data){
 369:main.cpp      ****     SPDR = data;
 370:main.cpp      ****     while(!(SPSR & (1<<SPIF)));
 371:main.cpp      **** 
 372:main.cpp      ****     return SPDR;
 373:main.cpp      **** }
 374:main.cpp      **** 
 375:main.cpp      **** void transcieve_packets(uint8_t *packet, uint8_t *recv_packet, size_t len) {
 376:main.cpp      ****   // take the SS pin low to select the chip:
 377:main.cpp      ****   slave_select_esp.low();
 378:main.cpp      **** //   delayMs(1);
 379:main.cpp      ****   // send in the address and value via SPI:
 380:main.cpp      ****   
 381:main.cpp      ****   for(uint8_t i = 0; i < len; i++){
 382:main.cpp      ****     recv_packet[i] = spi_writeRead(packet[i]);
 383:main.cpp      ****   }
 384:main.cpp      **** 
 385:main.cpp      **** //   delayMs(1);
 386:main.cpp      ****   // take the SS pin high to de-select the chip:
GAS LISTING /tmp/ccUMk0PR.s 			page 8


 387:main.cpp      ****   slave_select_esp.high();
 388:main.cpp      **** }
 389:main.cpp      **** 
 390:main.cpp      **** void format_packet(uint16_t x, uint16_t y, uint8_t buttons, int16_t scroll, OP_MODE mode, uint8_t *
 391:main.cpp      ****   packet[0] = 0x67;
 392:main.cpp      ****   packet[1] = (uint8_t)mode;
 393:main.cpp      ****   packet[2] = MSB(x);
 394:main.cpp      ****   packet[3] = LSB(x);
 395:main.cpp      ****   packet[4] = MSB(y);
 396:main.cpp      ****   packet[5] = LSB(y);
 397:main.cpp      ****   packet[6] = ((bool_t)(buttons & LEFT_BUTTON)) + (((bool_t)(buttons & RIGHT_BUTTON)) << 1);
 398:main.cpp      ****   packet[7] = (scroll >> 8) & 0xFF;
 399:main.cpp      ****   packet[8] = scroll & 0xFF;
 400:main.cpp      ****   packet[9] = 0;
 401:main.cpp      ****   packet[10] = 0;
 402:main.cpp      ****   packet[11] = 0;
 403:main.cpp      ****   packet[12] = 0;
 404:main.cpp      ****   packet[13] = 0;
 405:main.cpp      ****   packet[14] = 0;
 406:main.cpp      ****   packet[15] = 0;
 407:main.cpp      **** }
 408:main.cpp      **** 
 409:main.cpp      **** void convert_recieved(int32_t *roll, int32_t *pitch, int32_t *yaw, int16_t *accel_x, BT_STATE *stat
 410:main.cpp      ****   if(packet[0] != 0x68) return;
 411:main.cpp      **** 
 412:main.cpp      ****   *state = (BT_STATE)packet[1];
 413:main.cpp      ****   *pitch = ((uint32_t)packet[2] << 24) + ((uint32_t)packet[3] << 16) + ((uint32_t)packet[4] << 8) +
 414:main.cpp      ****   *roll = ((uint32_t)packet[6] << 24) + ((uint32_t)packet[7] << 16) + ((uint32_t)packet[8] << 8) + 
 415:main.cpp      ****   *yaw = ((uint32_t)packet[10] << 24) + ((uint32_t)packet[11] << 16) + ((uint32_t)packet[12] << 8) 
 416:main.cpp      ****   *accel_x = (packet[14] << 8) + packet[15];
 417:main.cpp      **** }
 418:main.cpp      **** 
 419:main.cpp      **** 
 420:main.cpp      **** void pcint1InterruptCallback(void){
 421:main.cpp      ****     uint8_t button_data = buttons.read();
 422:main.cpp      ****     for(uint8_t i = 0; i < 3; i++){
 423:main.cpp      ****         if((button_data & (1 << i)) != (debounced_buttons & (1 << i))){
 424:main.cpp      ****             button_last_changed[i] = get_millis();
 425:main.cpp      ****             button_pending_change = true;
 426:main.cpp      ****         }else
 427:main.cpp      ****             button_last_changed[i] = 0;
 428:main.cpp      ****     }
 429:main.cpp      **** 
 430:main.cpp      **** }
 431:main.cpp      **** 
 432:main.cpp      **** void timer1OverflowCallback(void){
 433:main.cpp      ****     //A cada 50ms
 434:main.cpp      ****     timer1_overflows++;
 435:main.cpp      **** }
 436:main.cpp      **** 
 437:main.cpp      **** uint32_t micros() {
 438:main.cpp      ****     uint32_t overflows;
 439:main.cpp      ****     uint16_t ticks;
 440:main.cpp      **** 
 441:main.cpp      ****     // Disable interrupts briefly to ensure atomic read of 16-bit register and 32-bit counter
 442:main.cpp      ****     cli();
 443:main.cpp      ****     overflows = timer1_overflows;
GAS LISTING /tmp/ccUMk0PR.s 			page 9


 444:main.cpp      ****     ticks = timer1.getCounterValue();;
 445:main.cpp      ****     
 446:main.cpp      ****     // Check if an overflow just occurred but hasn't been handled yet
 447:main.cpp      ****     if ((TIFR1 & (1 << TOV1)) && (ticks < 65535)) {
 448:main.cpp      ****         overflows++;
 449:main.cpp      ****         ticks = timer1.getCounterValue(); // Re-read to guarantee accurate timing
 450:main.cpp      ****     }
 451:main.cpp      ****     sei();
 452:main.cpp      **** 
 453:main.cpp      ****     // Each overflow is 65536 ticks. Each tick is 0.5 microseconds.
 454:main.cpp      ****     // Total microseconds = (overflows * 65536 * 0.5) + (ticks * 0.5)
 455:main.cpp      ****     return (overflows * 32768) + (ticks >> 1);
 456:main.cpp      **** }
 457:main.cpp      **** 
 458:main.cpp      **** uint32_t get_millis() {
 459:main.cpp      ****     uint32_t overflows;
 460:main.cpp      ****     uint16_t ticks;
 461:main.cpp      **** 
 462:main.cpp      ****     cli();
 463:main.cpp      ****     overflows = timer1_overflows;
 464:main.cpp      ****     ticks = timer1.getCounterValue();
 465:main.cpp      ****     if ((TIFR1 & (1 << TOV1)) && (ticks < 65535)) {
 466:main.cpp      ****         overflows++;
 467:main.cpp      ****         ticks = timer1.getCounterValue();
 468:main.cpp      ****     }
 469:main.cpp      ****     sei();
 470:main.cpp      **** 
 471:main.cpp      ****     // Em vez de calcular microssegundos, calculamos direto o milissegundo aproximado.
 472:main.cpp      ****     // 32768 / 1024 = 32 (Exato!) -> overflows * 32
 473:main.cpp      ****     // ticks / 2048 -> equivale a ticks >> 11
 474:main.cpp      ****     return (overflows * 32) + (ticks >> 11);
 475:main.cpp      **** }
 476:main.cpp      **** 
 477:main.cpp      **** void timer0CompareACallback(void){
 478:main.cpp      ****     //A cada 10 ms
 479:main.cpp      ****     static uint8_t counter_spi = 0;
 480:main.cpp      ****     static uint8_t counter_display = 0;
 481:main.cpp      ****     static uint8_t counter_clear_display = 0;
 482:main.cpp      **** 
 483:main.cpp      ****     if(counter_spi++ == 1){
 484:main.cpp      ****         spi_flag = true;    
 485:main.cpp      ****         counter_spi = 0;
 486:main.cpp      ****     }
 487:main.cpp      **** 
 488:main.cpp      ****     if(counter_display++ == 10){
 489:main.cpp      ****         update_display_flag = true;
 490:main.cpp      ****         counter_display = 0;
 491:main.cpp      ****     }
 492:main.cpp      **** 
 493:main.cpp      ****     if(counter_clear_display++ == 50){
 494:main.cpp      ****         clear_display_flag = true;
 495:main.cpp      ****         counter_clear_display = 0;
 496:main.cpp      ****     }
 497:main.cpp      **** }...
  15               		.loc 1 497 1 view -0
  16               		.cfi_startproc
  17               	/* prologue: function */
GAS LISTING /tmp/ccUMk0PR.s 			page 10


  18               	/* frame size = 0 */
  19               	/* stack size = 0 */
  20               	.L__stack_usage = 0
  66:main.cpp      **** GpioPin led;
  21               		.loc 1 66 9 is_stmt 0 view .LVU1
  22 0000 80E0      		ldi r24,lo8(led)
  23 0002 90E0      		ldi r25,hi8(led)
  24 0004 0E94 0000 		call _ZN7GpioPinC1Ev
  25               	.LVL0:
  67:main.cpp      **** GpioBus buttons;
  26               		.loc 1 67 9 view .LVU2
  27 0008 80E0      		ldi r24,lo8(buttons)
  28 000a 90E0      		ldi r25,hi8(buttons)
  29 000c 0E94 0000 		call _ZN7GpioBusC1Ev
  30               	.LVL1:
  68:main.cpp      **** GpioPin slave_select_esp;
  31               		.loc 1 68 9 view .LVU3
  32 0010 80E0      		ldi r24,lo8(slave_select_esp)
  33 0012 90E0      		ldi r25,hi8(slave_select_esp)
  34 0014 0E94 0000 		call _ZN7GpioPinC1Ev
  35               	.LVL2:
  71:main.cpp      **** Ssd1306 display;
  36               		.loc 1 71 9 view .LVU4
  37 0018 80E0      		ldi r24,lo8(display)
  38 001a 90E0      		ldi r25,hi8(display)
  39 001c 0E94 0000 		call _ZN7Ssd1306C1Ev
  40               	.LVL3:
  41               	/* epilogue start */
  42               		.loc 1 497 1 view .LVU5
  43 0020 0895      		ret
  44               		.cfi_endproc
  45               	.LFE254:
  47               		.section	.text._Z41__static_initialization_and_destruction_1v,"ax",@progbits
  49               	_Z41__static_initialization_and_destruction_1v:
  50               	.LFB255:
  51               		.loc 1 497 1 is_stmt 1 view -0
  52               		.cfi_startproc
  53               	/* prologue: function */
  54               	/* frame size = 0 */
  55               	/* stack size = 0 */
  56               	.L__stack_usage = 0
  71:main.cpp      **** Ssd1306 display;
  57               		.loc 1 71 9 is_stmt 0 view .LVU7
  58 0000 80E0      		ldi r24,lo8(display)
  59 0002 90E0      		ldi r25,hi8(display)
  60 0004 0E94 0000 		call _ZN7Ssd1306D1Ev
  61               	.LVL4:
  68:main.cpp      **** GpioPin slave_select_esp;
  62               		.loc 1 68 9 view .LVU8
  63 0008 80E0      		ldi r24,lo8(slave_select_esp)
  64 000a 90E0      		ldi r25,hi8(slave_select_esp)
  65 000c 0E94 0000 		call _ZN7GpioPinD1Ev
  66               	.LVL5:
  67:main.cpp      **** GpioBus buttons;
  67               		.loc 1 67 9 view .LVU9
  68 0010 80E0      		ldi r24,lo8(buttons)
  69 0012 90E0      		ldi r25,hi8(buttons)
GAS LISTING /tmp/ccUMk0PR.s 			page 11


  70 0014 0E94 0000 		call _ZN7GpioBusD1Ev
  71               	.LVL6:
  66:main.cpp      **** GpioPin led;
  72               		.loc 1 66 9 view .LVU10
  73 0018 80E0      		ldi r24,lo8(led)
  74 001a 90E0      		ldi r25,hi8(led)
  75 001c 0E94 0000 		call _ZN7GpioPinD1Ev
  76               	.LVL7:
  77               	/* epilogue start */
  78               		.loc 1 497 1 view .LVU11
  79 0020 0895      		ret
  80               		.cfi_endproc
  81               	.LFE255:
  83               		.section	.text._Z10projectTanlllj,"ax",@progbits
  84               	.global	_Z10projectTanlllj
  86               	_Z10projectTanlllj:
  87               	.LVL8:
  88               	.LFB244:
 356:main.cpp      **** {
  89               		.loc 1 356 1 is_stmt 1 view -0
  90               		.cfi_startproc
 356:main.cpp      **** {
  91               		.loc 1 356 1 is_stmt 0 view .LVU13
  92 0000 4F92      		push r4
  93               	.LCFI0:
  94               		.cfi_def_cfa_offset 3
  95               		.cfi_offset 4, -2
  96 0002 5F92      		push r5
  97               	.LCFI1:
  98               		.cfi_def_cfa_offset 4
  99               		.cfi_offset 5, -3
 100 0004 6F92      		push r6
 101               	.LCFI2:
 102               		.cfi_def_cfa_offset 5
 103               		.cfi_offset 6, -4
 104 0006 7F92      		push r7
 105               	.LCFI3:
 106               		.cfi_def_cfa_offset 6
 107               		.cfi_offset 7, -5
 108 0008 8F92      		push r8
 109               	.LCFI4:
 110               		.cfi_def_cfa_offset 7
 111               		.cfi_offset 8, -6
 112 000a 9F92      		push r9
 113               	.LCFI5:
 114               		.cfi_def_cfa_offset 8
 115               		.cfi_offset 9, -7
 116 000c AF92      		push r10
 117               	.LCFI6:
 118               		.cfi_def_cfa_offset 9
 119               		.cfi_offset 10, -8
 120 000e BF92      		push r11
 121               	.LCFI7:
 122               		.cfi_def_cfa_offset 10
 123               		.cfi_offset 11, -9
 124 0010 CF92      		push r12
 125               	.LCFI8:
GAS LISTING /tmp/ccUMk0PR.s 			page 12


 126               		.cfi_def_cfa_offset 11
 127               		.cfi_offset 12, -10
 128 0012 DF92      		push r13
 129               	.LCFI9:
 130               		.cfi_def_cfa_offset 12
 131               		.cfi_offset 13, -11
 132 0014 EF92      		push r14
 133               	.LCFI10:
 134               		.cfi_def_cfa_offset 13
 135               		.cfi_offset 14, -12
 136 0016 FF92      		push r15
 137               	.LCFI11:
 138               		.cfi_def_cfa_offset 14
 139               		.cfi_offset 15, -13
 140 0018 0F93      		push r16
 141               	.LCFI12:
 142               		.cfi_def_cfa_offset 15
 143               		.cfi_offset 16, -14
 144 001a 1F93      		push r17
 145               	.LCFI13:
 146               		.cfi_def_cfa_offset 16
 147               		.cfi_offset 17, -15
 148               	/* prologue: function */
 149               	/* frame size = 0 */
 150               	/* stack size = 14 */
 151               	.L__stack_usage = 14
 152 001c 4701      		movw r8,r14
 153 001e 5801      		movw r10,r16
 154 0020 8601      		movw r16,r12
 358:main.cpp      ****     int32_t rel = angle_mdeg - center_mdeg;
 155               		.loc 1 358 5 is_stmt 1 view .LVU14
 358:main.cpp      ****     int32_t rel = angle_mdeg - center_mdeg;
 156               		.loc 1 358 13 is_stmt 0 view .LVU15
 157 0022 621B      		sub r22,r18
 158 0024 730B      		sbc r23,r19
 159 0026 840B      		sbc r24,r20
 160 0028 950B      		sbc r25,r21
 161               	.LVL9:
 358:main.cpp      ****     int32_t rel = angle_mdeg - center_mdeg;
 162               		.loc 1 358 13 view .LVU16
 163 002a 6B01      		movw r12,r22
 164 002c 7C01      		movw r14,r24
 165               	.LVL10:
 359:main.cpp      ****     rel = truncateBetween(rel, -60000L, 60000L);              // evita div0/estouro do tan
 166               		.loc 1 359 5 is_stmt 1 view .LVU17
 359:main.cpp      ****     rel = truncateBetween(rel, -60000L, 60000L);              // evita div0/estouro do tan
 167               		.loc 1 359 11 is_stmt 0 view .LVU18
 168 002e 80EA      		ldi r24,-96
 169 0030 C816      		cp r12,r24
 170 0032 85E1      		ldi r24,21
 171 0034 D806      		cpc r13,r24
 172 0036 8FEF      		ldi r24,-1
 173 0038 E806      		cpc r14,r24
 174 003a F806      		cpc r15,r24
 175 003c 04F0      		brlt .L8
 359:main.cpp      ****     rel = truncateBetween(rel, -60000L, 60000L);              // evita div0/estouro do tan
 176               		.loc 1 359 9 discriminator 1 view .LVU19
GAS LISTING /tmp/ccUMk0PR.s 			page 13


 177 003e 81E6      		ldi r24,97
 178 0040 C816      		cp r12,r24
 179 0042 8AEE      		ldi r24,-22
 180 0044 D806      		cpc r13,r24
 181 0046 E104      		cpc r14,__zero_reg__
 182 0048 F104      		cpc r15,__zero_reg__
 183 004a 04F0      		brlt .L4
 184 004c 0F2E      		mov __tmp_reg__,r31
 185 004e F0E6      		ldi r31,lo8(96)
 186 0050 CF2E      		mov r12,r31
 187 0052 FAEE      		ldi r31,lo8(-22)
 188 0054 DF2E      		mov r13,r31
 189 0056 E12C      		mov r14,__zero_reg__
 190 0058 F12C      		mov r15,__zero_reg__
 191 005a F02D      		mov r31,__tmp_reg__
 192               	.LVL11:
 359:main.cpp      ****     rel = truncateBetween(rel, -60000L, 60000L);              // evita div0/estouro do tan
 193               		.loc 1 359 9 discriminator 1 view .LVU20
 194 005c 00C0      		rjmp .L4
 195               	.LVL12:
 196               	.L8:
 359:main.cpp      ****     rel = truncateBetween(rel, -60000L, 60000L);              // evita div0/estouro do tan
 197               		.loc 1 359 9 discriminator 2 view .LVU21
 198 005e 0F2E      		mov __tmp_reg__,r31
 199 0060 F0EA      		ldi r31,lo8(-96)
 200 0062 CF2E      		mov r12,r31
 201 0064 F5E1      		ldi r31,lo8(21)
 202 0066 DF2E      		mov r13,r31
 203 0068 EE24      		clr r14
 204 006a EA94      		dec r14
 205 006c FE2C      		mov r15,r14
 206 006e F02D      		mov r31,__tmp_reg__
 207               	.LVL13:
 208               	.L4:
 360:main.cpp      ****     int32_t tanRel  = ((int32_t)sini(rel) << 12) / cosi(rel);          // tan em Q12
 209               		.loc 1 360 5 is_stmt 1 view .LVU22
 360:main.cpp      ****     int32_t tanRel  = ((int32_t)sini(rel) << 12) / cosi(rel);          // tan em Q12
 210               		.loc 1 360 37 is_stmt 0 view .LVU23
 211 0070 C701      		movw r24,r14
 212 0072 B601      		movw r22,r12
 213 0074 0E94 0000 		call _Z4sinil
 214               	.LVL14:
 360:main.cpp      ****     int32_t tanRel  = ((int32_t)sini(rel) << 12) / cosi(rel);          // tan em Q12
 215               		.loc 1 360 24 discriminator 1 view .LVU24
 216 0078 092E      		mov __tmp_reg__,r25
 217 007a 000C      		lsl r0
 218 007c AA0B      		sbc r26,r26
 219 007e BB0B      		sbc r27,r27
 360:main.cpp      ****     int32_t tanRel  = ((int32_t)sini(rel) << 12) / cosi(rel);          // tan em Q12
 220               		.loc 1 360 43 discriminator 1 view .LVU25
 221 0080 072E      		mov r0,r23
 222 0082 7CE0      		ldi r23,12
 223               		1:
 224 0084 880F      		lsl r24
 225 0086 991F      		rol r25
 226 0088 AA1F      		rol r26
 227 008a BB1F      		rol r27
GAS LISTING /tmp/ccUMk0PR.s 			page 14


 228 008c 7A95      		dec r23
 229 008e 01F4      		brne 1b
 230 0090 702D      		mov r23,r0
 231 0092 2C01      		movw r4,r24
 232 0094 3D01      		movw r6,r26
 360:main.cpp      ****     int32_t tanRel  = ((int32_t)sini(rel) << 12) / cosi(rel);          // tan em Q12
 233               		.loc 1 360 56 discriminator 1 view .LVU26
 234 0096 C701      		movw r24,r14
 235 0098 B601      		movw r22,r12
 236 009a 0E94 0000 		call _Z4cosil
 237               	.LVL15:
 360:main.cpp      ****     int32_t tanRel  = ((int32_t)sini(rel) << 12) / cosi(rel);          // tan em Q12
 238               		.loc 1 360 56 discriminator 2 view .LVU27
 239 009e 9C01      		movw r18,r24
 240 00a0 990F      		lsl r25
 241 00a2 440B      		sbc r20,r20
 242 00a4 550B      		sbc r21,r21
 360:main.cpp      ****     int32_t tanRel  = ((int32_t)sini(rel) << 12) / cosi(rel);          // tan em Q12
 243               		.loc 1 360 60 discriminator 2 view .LVU28
 244 00a6 C301      		movw r24,r6
 245 00a8 B201      		movw r22,r4
 246 00aa 0E94 0000 		call __divmodsi4
 247 00ae 2901      		movw r4,r18
 248 00b0 3A01      		movw r6,r20
 249               	.LVL16:
 361:main.cpp      ****     int32_t tanHalf = ((int32_t)sini(halfRange_mdeg) << 12) / cosi(halfRange_mdeg);
 250               		.loc 1 361 5 is_stmt 1 view .LVU29
 361:main.cpp      ****     int32_t tanHalf = ((int32_t)sini(halfRange_mdeg) << 12) / cosi(halfRange_mdeg);
 251               		.loc 1 361 37 is_stmt 0 view .LVU30
 252 00b2 C501      		movw r24,r10
 253 00b4 B401      		movw r22,r8
 254 00b6 0E94 0000 		call _Z4sinil
 255               	.LVL17:
 361:main.cpp      ****     int32_t tanHalf = ((int32_t)sini(halfRange_mdeg) << 12) / cosi(halfRange_mdeg);
 256               		.loc 1 361 24 discriminator 1 view .LVU31
 257 00ba 6C01      		movw r12,r24
 258 00bc 990F      		lsl r25
 259 00be EE08      		sbc r14,r14
 260 00c0 FF08      		sbc r15,r15
 261               	.LVL18:
 361:main.cpp      ****     int32_t tanHalf = ((int32_t)sini(halfRange_mdeg) << 12) / cosi(halfRange_mdeg);
 262               		.loc 1 361 54 discriminator 1 view .LVU32
 263 00c2 0B2E      		mov r0,r27
 264 00c4 BCE0      		ldi r27,12
 265               		1:
 266 00c6 CC0C      		lsl r12
 267 00c8 DD1C      		rol r13
 268 00ca EE1C      		rol r14
 269 00cc FF1C      		rol r15
 270 00ce BA95      		dec r27
 271 00d0 01F4      		brne 1b
 272 00d2 B02D      		mov r27,r0
 361:main.cpp      ****     int32_t tanHalf = ((int32_t)sini(halfRange_mdeg) << 12) / cosi(halfRange_mdeg);
 273               		.loc 1 361 67 discriminator 1 view .LVU33
 274 00d4 C501      		movw r24,r10
 275 00d6 B401      		movw r22,r8
 276 00d8 0E94 0000 		call _Z4cosil
GAS LISTING /tmp/ccUMk0PR.s 			page 15


 277               	.LVL19:
 361:main.cpp      ****     int32_t tanHalf = ((int32_t)sini(halfRange_mdeg) << 12) / cosi(halfRange_mdeg);
 278               		.loc 1 361 67 discriminator 2 view .LVU34
 279 00dc 9C01      		movw r18,r24
 280 00de 990F      		lsl r25
 281 00e0 440B      		sbc r20,r20
 282 00e2 550B      		sbc r21,r21
 361:main.cpp      ****     int32_t tanHalf = ((int32_t)sini(halfRange_mdeg) << 12) / cosi(halfRange_mdeg);
 283               		.loc 1 361 82 discriminator 2 view .LVU35
 284 00e4 C701      		movw r24,r14
 285 00e6 B601      		movw r22,r12
 286 00e8 0E94 0000 		call __divmodsi4
 287 00ec 6901      		movw r12,r18
 288 00ee 7A01      		movw r14,r20
 289               	.LVL20:
 362:main.cpp      ****     int32_t offset  = ((int32_t)tanRel * sens_q8 * 1536) / tanHalf;      // 16384 na borda (sens=25
 290               		.loc 1 362 5 is_stmt 1 view .LVU36
 362:main.cpp      ****     int32_t offset  = ((int32_t)tanRel * sens_q8 * 1536) / tanHalf;      // 16384 na borda (sens=25
 291               		.loc 1 362 40 is_stmt 0 view .LVU37
 292 00f0 D801      		movw r26,r16
 293 00f2 A301      		movw r20,r6
 294 00f4 9201      		movw r18,r4
 295 00f6 0E94 0000 		call __muluhisi3
 296 00fa 9B01      		movw r18,r22
 297 00fc AC01      		movw r20,r24
 362:main.cpp      ****     int32_t offset  = ((int32_t)tanRel * sens_q8 * 1536) / tanHalf;      // 16384 na borda (sens=25
 298               		.loc 1 362 50 view .LVU38
 299 00fe A0E0      		ldi r26,0
 300 0100 B6E0      		ldi r27,lo8(6)
 301 0102 0E94 0000 		call __muluhisi3
 362:main.cpp      ****     int32_t offset  = ((int32_t)tanRel * sens_q8 * 1536) / tanHalf;      // 16384 na borda (sens=25
 302               		.loc 1 362 13 view .LVU39
 303 0106 A701      		movw r20,r14
 304 0108 9601      		movw r18,r12
 305 010a 0E94 0000 		call __divmodsi4
 306               	.LVL21:
 363:main.cpp      ****     int32_t coord   = 16384L + offset;
 307               		.loc 1 363 5 is_stmt 1 view .LVU40
 363:main.cpp      ****     int32_t coord   = 16384L + offset;
 308               		.loc 1 363 13 is_stmt 0 view .LVU41
 309 010e DA01      		movw r26,r20
 310 0110 C901      		movw r24,r18
 311 0112 905C      		subi r25,-64
 312 0114 AF4F      		sbci r26,-1
 313 0116 BF4F      		sbci r27,-1
 314               	.LVL22:
 364:main.cpp      ****     return (uint16_t)truncateBetween(coord, 0L, 32767L);
 315               		.loc 1 364 5 is_stmt 1 view .LVU42
 364:main.cpp      ****     return (uint16_t)truncateBetween(coord, 0L, 32767L);
 316               		.loc 1 364 22 is_stmt 0 view .LVU43
 317 0118 BB23      		tst r27
 318 011a 04F0      		brlt .L9
 364:main.cpp      ****     return (uint16_t)truncateBetween(coord, 0L, 32767L);
 319               		.loc 1 364 22 discriminator 1 view .LVU44
 320 011c 9038      		cpi r25,-128
 321 011e A105      		cpc r26,__zero_reg__
 322 0120 B105      		cpc r27,__zero_reg__
GAS LISTING /tmp/ccUMk0PR.s 			page 16


 323               	.LVL23:
 364:main.cpp      ****     return (uint16_t)truncateBetween(coord, 0L, 32767L);
 324               		.loc 1 364 22 discriminator 1 view .LVU45
 325 0122 04F0      		brlt .L3
 326 0124 8FEF      		ldi r24,lo8(-1)
 327 0126 9FE7      		ldi r25,lo8(127)
 328 0128 A0E0      		ldi r26,0
 329 012a B0E0      		ldi r27,0
 330               	.LVL24:
 364:main.cpp      ****     return (uint16_t)truncateBetween(coord, 0L, 32767L);
 331               		.loc 1 364 22 discriminator 1 view .LVU46
 332 012c 00C0      		rjmp .L3
 333               	.LVL25:
 334               	.L9:
 364:main.cpp      ****     return (uint16_t)truncateBetween(coord, 0L, 32767L);
 335               		.loc 1 364 22 discriminator 2 view .LVU47
 336 012e 80E0      		ldi r24,0
 337 0130 90E0      		ldi r25,0
 338               	.LVL26:
 339               	.L3:
 340               	/* epilogue start */
 365:main.cpp      **** }
 341               		.loc 1 365 1 view .LVU48
 342 0132 1F91      		pop r17
 343 0134 0F91      		pop r16
 344               	.LVL27:
 365:main.cpp      **** }
 345               		.loc 1 365 1 view .LVU49
 346 0136 FF90      		pop r15
 347 0138 EF90      		pop r14
 348               	.LVL28:
 365:main.cpp      **** }
 349               		.loc 1 365 1 view .LVU50
 350 013a DF90      		pop r13
 351 013c CF90      		pop r12
 352               	.LVL29:
 365:main.cpp      **** }
 353               		.loc 1 365 1 view .LVU51
 354 013e BF90      		pop r11
 355 0140 AF90      		pop r10
 356 0142 9F90      		pop r9
 357 0144 8F90      		pop r8
 358               	.LVL30:
 365:main.cpp      **** }
 359               		.loc 1 365 1 view .LVU52
 360 0146 7F90      		pop r7
 361 0148 6F90      		pop r6
 362 014a 5F90      		pop r5
 363 014c 4F90      		pop r4
 364               	.LVL31:
 365:main.cpp      **** }
 365               		.loc 1 365 1 view .LVU53
 366 014e 0895      		ret
 367               		.cfi_endproc
 368               	.LFE244:
 370               		.section	.text._Z13spi_writeReadh,"ax",@progbits
 371               	.global	_Z13spi_writeReadh
GAS LISTING /tmp/ccUMk0PR.s 			page 17


 373               	_Z13spi_writeReadh:
 374               	.LVL32:
 375               	.LFB245:
 368:main.cpp      **** uint8_t spi_writeRead(uint8_t data){
 376               		.loc 1 368 36 is_stmt 1 view -0
 377               		.cfi_startproc
 378               	/* prologue: function */
 379               	/* frame size = 0 */
 380               	/* stack size = 0 */
 381               	.L__stack_usage = 0
 369:main.cpp      ****     SPDR = data;
 382               		.loc 1 369 5 view .LVU55
 369:main.cpp      ****     SPDR = data;
 383               		.loc 1 369 10 is_stmt 0 view .LVU56
 384 0000 8EBD      		out 0x2e,r24
 370:main.cpp      ****     while(!(SPSR & (1<<SPIF)));
 385               		.loc 1 370 5 is_stmt 1 view .LVU57
 386               	.L13:
 370:main.cpp      ****     while(!(SPSR & (1<<SPIF)));
 387               		.loc 1 370 11 discriminator 1 view .LVU58
 388 0002 0DB4      		in __tmp_reg__,0x2d
 389 0004 07FE      		sbrs __tmp_reg__,7
 390 0006 00C0      		rjmp .L13
 372:main.cpp      ****     return SPDR;
 391               		.loc 1 372 5 view .LVU59
 373:main.cpp      **** }
 392               		.loc 1 373 1 is_stmt 0 view .LVU60
 393 0008 8EB5      		in r24,0x2e
 394               	.LVL33:
 395               	/* epilogue start */
 373:main.cpp      **** }
 396               		.loc 1 373 1 view .LVU61
 397 000a 0895      		ret
 398               		.cfi_endproc
 399               	.LFE245:
 401               		.section	.text._Z18transcieve_packetsPhS_j,"ax",@progbits
 402               	.global	_Z18transcieve_packetsPhS_j
 404               	_Z18transcieve_packetsPhS_j:
 405               	.LVL34:
 406               	.LFB246:
 375:main.cpp      **** void transcieve_packets(uint8_t *packet, uint8_t *recv_packet, size_t len) {
 407               		.loc 1 375 76 is_stmt 1 view -0
 408               		.cfi_startproc
 375:main.cpp      **** void transcieve_packets(uint8_t *packet, uint8_t *recv_packet, size_t len) {
 409               		.loc 1 375 76 is_stmt 0 view .LVU63
 410 0000 AF92      		push r10
 411               	.LCFI14:
 412               		.cfi_def_cfa_offset 3
 413               		.cfi_offset 10, -2
 414 0002 BF92      		push r11
 415               	.LCFI15:
 416               		.cfi_def_cfa_offset 4
 417               		.cfi_offset 11, -3
 418 0004 CF92      		push r12
 419               	.LCFI16:
 420               		.cfi_def_cfa_offset 5
 421               		.cfi_offset 12, -4
GAS LISTING /tmp/ccUMk0PR.s 			page 18


 422 0006 DF92      		push r13
 423               	.LCFI17:
 424               		.cfi_def_cfa_offset 6
 425               		.cfi_offset 13, -5
 426 0008 EF92      		push r14
 427               	.LCFI18:
 428               		.cfi_def_cfa_offset 7
 429               		.cfi_offset 14, -6
 430 000a FF92      		push r15
 431               	.LCFI19:
 432               		.cfi_def_cfa_offset 8
 433               		.cfi_offset 15, -7
 434 000c 1F93      		push r17
 435               	.LCFI20:
 436               		.cfi_def_cfa_offset 9
 437               		.cfi_offset 17, -8
 438 000e CF93      		push r28
 439               	.LCFI21:
 440               		.cfi_def_cfa_offset 10
 441               		.cfi_offset 28, -9
 442 0010 DF93      		push r29
 443               	.LCFI22:
 444               		.cfi_def_cfa_offset 11
 445               		.cfi_offset 29, -10
 446               	/* prologue: function */
 447               	/* frame size = 0 */
 448               	/* stack size = 9 */
 449               	.L__stack_usage = 9
 450 0012 5C01      		movw r10,r24
 451 0014 6B01      		movw r12,r22
 452 0016 7A01      		movw r14,r20
 377:main.cpp      ****   slave_select_esp.low();
 453               		.loc 1 377 3 is_stmt 1 view .LVU64
 454               	.LVL35:
 455               	.LBB132:
 456               	.LBI132:
 457               		.file 2 "funsape/peripheral/gpioPin.hpp"
   1:funsape/peripheral/gpioPin.hpp **** //!
   2:funsape/peripheral/gpioPin.hpp **** //! ****************************************************************************
   3:funsape/peripheral/gpioPin.hpp **** //! @file           gpioPin.hpp
   4:funsape/peripheral/gpioPin.hpp **** //! @author         Leandro Schwarz (bladabuska+funsapeavr8lib@gmail.com)
   5:funsape/peripheral/gpioPin.hpp **** //! @brief          GPIO single pin peripheral control.
   6:funsape/peripheral/gpioPin.hpp **** //! @details        This file provides driver interface with the GPIO module to
   7:funsape/peripheral/gpioPin.hpp **** //!                     single pin peripheral control for the FunSAPE++ AVR8
   8:funsape/peripheral/gpioPin.hpp **** //!                     Library.
   9:funsape/peripheral/gpioPin.hpp **** //! @date           2026-04-01
  10:funsape/peripheral/gpioPin.hpp **** //! @version        26.04
  11:funsape/peripheral/gpioPin.hpp **** //! @copyright      MIT License
  12:funsape/peripheral/gpioPin.hpp **** //! @note           No notes at this time.
  13:funsape/peripheral/gpioPin.hpp **** //! @todo           No items in todo list yet.
  14:funsape/peripheral/gpioPin.hpp **** //! @warning        When the user calls GpioPin::clr(), GpioPin::cpl(),
  15:funsape/peripheral/gpioPin.hpp **** //!                     GpioPin::set(), GpioPin::low(), GpioPin::high() or
  16:funsape/peripheral/gpioPin.hpp **** //!                     GpioPin::toggle() and the pin is in
  17:funsape/peripheral/gpioPin.hpp **** //!                     PinMode::INPUT_FLOATING mode or in
  18:funsape/peripheral/gpioPin.hpp **** //!                     PinMode::INPUT_PULLED_UP mode, the mode is changed which
  19:funsape/peripheral/gpioPin.hpp **** //!                     could lead to some undefined behavior.
  20:funsape/peripheral/gpioPin.hpp **** //! ****************************************************************************
GAS LISTING /tmp/ccUMk0PR.s 			page 19


  21:funsape/peripheral/gpioPin.hpp **** //! @attention
  22:funsape/peripheral/gpioPin.hpp **** //!
  23:funsape/peripheral/gpioPin.hpp **** //! MIT License
  24:funsape/peripheral/gpioPin.hpp **** //!
  25:funsape/peripheral/gpioPin.hpp **** //! Copyright (c) 2026 Leandro Schwarz
  26:funsape/peripheral/gpioPin.hpp **** //!
  27:funsape/peripheral/gpioPin.hpp **** //! Permission is hereby granted, free of charge, to any person obtaining a copy
  28:funsape/peripheral/gpioPin.hpp **** //!     of this software and associated documentation files (the "Software"), to
  29:funsape/peripheral/gpioPin.hpp **** //!     deal in the Software without restriction, including without limitation
  30:funsape/peripheral/gpioPin.hpp **** //!     the rights to use, copy, modify, merge, publish, distribute, sublicense,
  31:funsape/peripheral/gpioPin.hpp **** //!     and/or sell copies of the Software, and to permit persons to whom the
  32:funsape/peripheral/gpioPin.hpp **** //!     Software is furnished to do so, subject to the following conditions:
  33:funsape/peripheral/gpioPin.hpp **** //!
  34:funsape/peripheral/gpioPin.hpp **** //! The above copyright notice and this permission notice shall be included in
  35:funsape/peripheral/gpioPin.hpp **** //!     all copies or substantial portions of the Software.
  36:funsape/peripheral/gpioPin.hpp **** //!
  37:funsape/peripheral/gpioPin.hpp **** //! THE SOFTWARE IS PROVIDED "AS IS", WITHOUT WARRANTY OF ANY KIND, EXPRESS OR
  38:funsape/peripheral/gpioPin.hpp **** //!     IMPLIED, INCLUDING BUT NOT LIMITED TO THE WARRANTIES OF MERCHANTABILITY,
  39:funsape/peripheral/gpioPin.hpp **** //!     FITNESS FOR A PARTICULAR PURPOSE AND NONINFRINGEMENT. IN NO EVENT SHALL
  40:funsape/peripheral/gpioPin.hpp **** //!     THE AUTHORS OR COPYRIGHT HOLDERS BE LIABLE FOR ANY CLAIM, DAMAGES OR
  41:funsape/peripheral/gpioPin.hpp **** //!     OTHER LIABILITY, WHETHER IN AN ACTION OF CONTRACT, TORT OR OTHERWISE,
  42:funsape/peripheral/gpioPin.hpp **** //!     ARISING FROM, OUT OF OR IN CONNECTION WITH THE SOFTWARE OR THE USE OR
  43:funsape/peripheral/gpioPin.hpp **** //!     OTHER DEALINGS IN THE SOFTWARE.
  44:funsape/peripheral/gpioPin.hpp **** //!
  45:funsape/peripheral/gpioPin.hpp **** //! ****************************************************************************
  46:funsape/peripheral/gpioPin.hpp **** //!
  47:funsape/peripheral/gpioPin.hpp **** 
  48:funsape/peripheral/gpioPin.hpp **** // =============================================================================
  49:funsape/peripheral/gpioPin.hpp **** // Include guard (START)
  50:funsape/peripheral/gpioPin.hpp **** // =============================================================================
  51:funsape/peripheral/gpioPin.hpp **** 
  52:funsape/peripheral/gpioPin.hpp **** #ifndef __GPIO_PIN_HPP
  53:funsape/peripheral/gpioPin.hpp **** #define __GPIO_PIN_HPP                  2604
  54:funsape/peripheral/gpioPin.hpp **** 
  55:funsape/peripheral/gpioPin.hpp **** // =============================================================================
  56:funsape/peripheral/gpioPin.hpp **** // Dependencies
  57:funsape/peripheral/gpioPin.hpp **** // =============================================================================
  58:funsape/peripheral/gpioPin.hpp **** 
  59:funsape/peripheral/gpioPin.hpp **** //     /////////////////     GLOBAL DEFINITIONS FILE    /////////////////     //
  60:funsape/peripheral/gpioPin.hpp **** 
  61:funsape/peripheral/gpioPin.hpp **** #include "../globalDefines.hpp"
  62:funsape/peripheral/gpioPin.hpp **** #if !defined(__GLOBAL_DEFINES_HPP)
  63:funsape/peripheral/gpioPin.hpp **** #   error [gpioPin.hpp] Error 1 - Header file (globalDefines.hpp) is missing or corrupted!
  64:funsape/peripheral/gpioPin.hpp **** #elif __GLOBAL_DEFINES_HPP != __GPIO_PIN_HPP
  65:funsape/peripheral/gpioPin.hpp **** #   error [gpioPin.hpp] Error 2 - Build mismatch between file (gpioPin.hpp) and global definitions 
  66:funsape/peripheral/gpioPin.hpp **** #endif
  67:funsape/peripheral/gpioPin.hpp **** 
  68:funsape/peripheral/gpioPin.hpp **** //     //////////////////     LIBRARY DEPENDENCIES     //////////////////     //
  69:funsape/peripheral/gpioPin.hpp **** 
  70:funsape/peripheral/gpioPin.hpp **** #include "../util/debug.hpp"
  71:funsape/peripheral/gpioPin.hpp **** #if !defined(__DEBUG_HPP)
  72:funsape/peripheral/gpioPin.hpp **** #   error [gpioPin.hpp] Error 1 - Header file (debug.hpp) is missing or corrupted!
  73:funsape/peripheral/gpioPin.hpp **** #elif __DEBUG_HPP != __GPIO_PIN_HPP
  74:funsape/peripheral/gpioPin.hpp **** #   error [gpioPin.hpp] Error 5 - Build mismatch between file (gpioPin.hpp) and library dependency 
  75:funsape/peripheral/gpioPin.hpp **** #endif
  76:funsape/peripheral/gpioPin.hpp **** 
  77:funsape/peripheral/gpioPin.hpp **** //     ///////////////////     STANDARD C LIBRARY     ///////////////////     //
GAS LISTING /tmp/ccUMk0PR.s 			page 20


  78:funsape/peripheral/gpioPin.hpp **** 
  79:funsape/peripheral/gpioPin.hpp **** // NONE
  80:funsape/peripheral/gpioPin.hpp **** 
  81:funsape/peripheral/gpioPin.hpp **** //     ////////////////////    AVR LIBRARY FILES     ////////////////////     //
  82:funsape/peripheral/gpioPin.hpp **** 
  83:funsape/peripheral/gpioPin.hpp **** // NONE
  84:funsape/peripheral/gpioPin.hpp **** 
  85:funsape/peripheral/gpioPin.hpp **** // +++++++++++++++++++++++++++++++++++++++++++++++++++++++++++++++++++++++++++++
  86:funsape/peripheral/gpioPin.hpp **** // Doxygen: Start main group "Peripherals"
  87:funsape/peripheral/gpioPin.hpp **** // +++++++++++++++++++++++++++++++++++++++++++++++++++++++++++++++++++++++++++++
  88:funsape/peripheral/gpioPin.hpp **** 
  89:funsape/peripheral/gpioPin.hpp **** //!
  90:funsape/peripheral/gpioPin.hpp **** //! @addtogroup     Peripherals
  91:funsape/peripheral/gpioPin.hpp **** //! @brief          Microcontroller peripherals.
  92:funsape/peripheral/gpioPin.hpp **** //! @{
  93:funsape/peripheral/gpioPin.hpp **** //!
  94:funsape/peripheral/gpioPin.hpp **** 
  95:funsape/peripheral/gpioPin.hpp **** // +++++++++++++++++++++++++++++++++++++++++++++++++++++++++++++++++++++++++++++
  96:funsape/peripheral/gpioPin.hpp **** // Doxygen: Start subgroup "Gpio" in "Peripherals"
  97:funsape/peripheral/gpioPin.hpp **** // +++++++++++++++++++++++++++++++++++++++++++++++++++++++++++++++++++++++++++++
  98:funsape/peripheral/gpioPin.hpp **** 
  99:funsape/peripheral/gpioPin.hpp **** //!
 100:funsape/peripheral/gpioPin.hpp **** //! @addtogroup     Gpio
 101:funsape/peripheral/gpioPin.hpp **** //! @brief          General Purpose Input/Output (GPIO) controller module.
 102:funsape/peripheral/gpioPin.hpp **** //! @{
 103:funsape/peripheral/gpioPin.hpp **** //!
 104:funsape/peripheral/gpioPin.hpp **** 
 105:funsape/peripheral/gpioPin.hpp **** // =============================================================================
 106:funsape/peripheral/gpioPin.hpp **** // Undefining previous definitions
 107:funsape/peripheral/gpioPin.hpp **** // =============================================================================
 108:funsape/peripheral/gpioPin.hpp **** 
 109:funsape/peripheral/gpioPin.hpp **** // NONE
 110:funsape/peripheral/gpioPin.hpp **** 
 111:funsape/peripheral/gpioPin.hpp **** // =============================================================================
 112:funsape/peripheral/gpioPin.hpp **** // Constant definitions
 113:funsape/peripheral/gpioPin.hpp **** // =============================================================================
 114:funsape/peripheral/gpioPin.hpp **** 
 115:funsape/peripheral/gpioPin.hpp **** // NONE
 116:funsape/peripheral/gpioPin.hpp **** 
 117:funsape/peripheral/gpioPin.hpp **** // =============================================================================
 118:funsape/peripheral/gpioPin.hpp **** // New data types
 119:funsape/peripheral/gpioPin.hpp **** // =============================================================================
 120:funsape/peripheral/gpioPin.hpp **** 
 121:funsape/peripheral/gpioPin.hpp **** // NONE
 122:funsape/peripheral/gpioPin.hpp **** 
 123:funsape/peripheral/gpioPin.hpp **** // =============================================================================
 124:funsape/peripheral/gpioPin.hpp **** // Interrupt callback functions declarations
 125:funsape/peripheral/gpioPin.hpp **** // =============================================================================
 126:funsape/peripheral/gpioPin.hpp **** 
 127:funsape/peripheral/gpioPin.hpp **** // NONE
 128:funsape/peripheral/gpioPin.hpp **** 
 129:funsape/peripheral/gpioPin.hpp **** // =============================================================================
 130:funsape/peripheral/gpioPin.hpp **** // Public functions declarations
 131:funsape/peripheral/gpioPin.hpp **** // =============================================================================
 132:funsape/peripheral/gpioPin.hpp **** 
 133:funsape/peripheral/gpioPin.hpp **** // NONE
 134:funsape/peripheral/gpioPin.hpp **** 
GAS LISTING /tmp/ccUMk0PR.s 			page 21


 135:funsape/peripheral/gpioPin.hpp **** // =============================================================================
 136:funsape/peripheral/gpioPin.hpp **** // Classes
 137:funsape/peripheral/gpioPin.hpp **** // =============================================================================
 138:funsape/peripheral/gpioPin.hpp **** 
 139:funsape/peripheral/gpioPin.hpp **** //!
 140:funsape/peripheral/gpioPin.hpp **** //! @brief          GpioPin class
 141:funsape/peripheral/gpioPin.hpp **** //! @details        This class manages the General Purpose Input-Output (GPIO)
 142:funsape/peripheral/gpioPin.hpp **** //!                     peripheral in single pin mode.
 143:funsape/peripheral/gpioPin.hpp **** //! @attention      This class is not instantiated by default. The user may
 144:funsape/peripheral/gpioPin.hpp **** //!                     create as many instances as necessary.
 145:funsape/peripheral/gpioPin.hpp **** //!
 146:funsape/peripheral/gpioPin.hpp **** class GpioPin
 147:funsape/peripheral/gpioPin.hpp **** {
 148:funsape/peripheral/gpioPin.hpp ****     // -------------------------------------------------------------------------
 149:funsape/peripheral/gpioPin.hpp ****     // New data types ----------------------------------------------------------
 150:funsape/peripheral/gpioPin.hpp **** 
 151:funsape/peripheral/gpioPin.hpp **** public:
 152:funsape/peripheral/gpioPin.hpp ****     // NONE
 153:funsape/peripheral/gpioPin.hpp **** 
 154:funsape/peripheral/gpioPin.hpp **** private:
 155:funsape/peripheral/gpioPin.hpp ****     // NONE
 156:funsape/peripheral/gpioPin.hpp **** 
 157:funsape/peripheral/gpioPin.hpp **** protected:
 158:funsape/peripheral/gpioPin.hpp ****     // NONE
 159:funsape/peripheral/gpioPin.hpp **** 
 160:funsape/peripheral/gpioPin.hpp **** // -------------------------------------------------------------------------
 161:funsape/peripheral/gpioPin.hpp **** // Constructors ------------------------------------------------------------
 162:funsape/peripheral/gpioPin.hpp **** 
 163:funsape/peripheral/gpioPin.hpp **** public:
 164:funsape/peripheral/gpioPin.hpp ****     //!
 165:funsape/peripheral/gpioPin.hpp ****     //! @brief      GpioPin class constructor.
 166:funsape/peripheral/gpioPin.hpp ****     //! @details    Creates a GpioPin object. The object must be initialized
 167:funsape/peripheral/gpioPin.hpp ****     //!                 before use.
 168:funsape/peripheral/gpioPin.hpp ****     //! @see        init(ioRegAddress_t gpioPort_p, PinIndex gpioPinIndex_p).
 169:funsape/peripheral/gpioPin.hpp ****     //! @par Error codes:
 170:funsape/peripheral/gpioPin.hpp ****     //!
 171:funsape/peripheral/gpioPin.hpp ****     //! | Error code       | Meaning                          |
 172:funsape/peripheral/gpioPin.hpp ****     //! |: ----------------|: --------------------------------|
 173:funsape/peripheral/gpioPin.hpp ****     //! | @ref Error::NONE | Success. No erros were detected. |
 174:funsape/peripheral/gpioPin.hpp ****     //!
 175:funsape/peripheral/gpioPin.hpp ****     GpioPin(
 176:funsape/peripheral/gpioPin.hpp ****             void
 177:funsape/peripheral/gpioPin.hpp ****     );
 178:funsape/peripheral/gpioPin.hpp **** 
 179:funsape/peripheral/gpioPin.hpp ****     //!
 180:funsape/peripheral/gpioPin.hpp ****     //! @brief      GpioPin class destructor.
 181:funsape/peripheral/gpioPin.hpp ****     //! @details    Destroys a GpioPin object.
 182:funsape/peripheral/gpioPin.hpp ****     //!
 183:funsape/peripheral/gpioPin.hpp ****     ~GpioPin(
 184:funsape/peripheral/gpioPin.hpp ****             void
 185:funsape/peripheral/gpioPin.hpp ****     );
 186:funsape/peripheral/gpioPin.hpp **** 
 187:funsape/peripheral/gpioPin.hpp **** private:
 188:funsape/peripheral/gpioPin.hpp ****     // NONE
 189:funsape/peripheral/gpioPin.hpp **** 
 190:funsape/peripheral/gpioPin.hpp **** protected:
 191:funsape/peripheral/gpioPin.hpp ****     // NONE
GAS LISTING /tmp/ccUMk0PR.s 			page 22


 192:funsape/peripheral/gpioPin.hpp **** 
 193:funsape/peripheral/gpioPin.hpp ****     // -------------------------------------------------------------------------
 194:funsape/peripheral/gpioPin.hpp ****     // Methods - Inherited methods ---------------------------------------------
 195:funsape/peripheral/gpioPin.hpp **** 
 196:funsape/peripheral/gpioPin.hpp **** public:
 197:funsape/peripheral/gpioPin.hpp ****     // NONE
 198:funsape/peripheral/gpioPin.hpp **** 
 199:funsape/peripheral/gpioPin.hpp **** protected:
 200:funsape/peripheral/gpioPin.hpp ****     // NONE
 201:funsape/peripheral/gpioPin.hpp **** 
 202:funsape/peripheral/gpioPin.hpp ****     // -------------------------------------------------------------------------
 203:funsape/peripheral/gpioPin.hpp ****     // Methods - class own methods ---------------------------------------------
 204:funsape/peripheral/gpioPin.hpp **** 
 205:funsape/peripheral/gpioPin.hpp **** public:
 206:funsape/peripheral/gpioPin.hpp ****     //     /////////////////     CONTROL AND STATUS     /////////////////     //
 207:funsape/peripheral/gpioPin.hpp **** 
 208:funsape/peripheral/gpioPin.hpp ****     //!
 209:funsape/peripheral/gpioPin.hpp ****     //! @brief      Returns the last error.
 210:funsape/peripheral/gpioPin.hpp ****     //! @details    Returns the last error.
 211:funsape/peripheral/gpioPin.hpp ****     //! @return     @ref Error          Error status of the last operation.
 212:funsape/peripheral/gpioPin.hpp ****     //!
 213:funsape/peripheral/gpioPin.hpp ****     Error inlined getLastError(
 214:funsape/peripheral/gpioPin.hpp ****             void
 215:funsape/peripheral/gpioPin.hpp ****     ) const;
 216:funsape/peripheral/gpioPin.hpp **** 
 217:funsape/peripheral/gpioPin.hpp ****     //!
 218:funsape/peripheral/gpioPin.hpp ****     //! @brief      Initializes the GpioPin module.
 219:funsape/peripheral/gpioPin.hpp ****     //! @details    Initializes the GpioPin module.
 220:funsape/peripheral/gpioPin.hpp ****     //! @param[in]  gpioPortAddress_p   Register address of the GPIO port.
 221:funsape/peripheral/gpioPin.hpp ****     //! @param[in]  gpioPinIndex_p      @ref PinIndex pin position.
 222:funsape/peripheral/gpioPin.hpp ****     //! @retval     true                if success.
 223:funsape/peripheral/gpioPin.hpp ****     //! @retval     false               if an error occurred. Retrieve the error
 224:funsape/peripheral/gpioPin.hpp ****     //!                                     by calling @ref getLastError().
 225:funsape/peripheral/gpioPin.hpp ****     //! @par Error codes:
 226:funsape/peripheral/gpioPin.hpp ****     //!
 227:funsape/peripheral/gpioPin.hpp ****     //! | Error code                    | Meaning                              |
 228:funsape/peripheral/gpioPin.hpp ****     //! |:------------------------------|:-------------------------------------|
 229:funsape/peripheral/gpioPin.hpp ****     //! | @ref Error::NONE              | Success. No erros were detected.     |
 230:funsape/peripheral/gpioPin.hpp ****     //! | @ref Error::GPIO_PORT_INVALID | The given GPIO address is not valid. |
 231:funsape/peripheral/gpioPin.hpp ****     //!
 232:funsape/peripheral/gpioPin.hpp ****     bool_t init(
 233:funsape/peripheral/gpioPin.hpp ****             ioRegAddress_t gpioPortAddress_p,
 234:funsape/peripheral/gpioPin.hpp ****             const PinIndex gpioPinIndex_p
 235:funsape/peripheral/gpioPin.hpp ****     );
 236:funsape/peripheral/gpioPin.hpp **** 
 237:funsape/peripheral/gpioPin.hpp ****     //     /////////////////    PIN RELATED METHODS     /////////////////     //
 238:funsape/peripheral/gpioPin.hpp **** 
 239:funsape/peripheral/gpioPin.hpp ****     //!
 240:funsape/peripheral/gpioPin.hpp ****     //! @brief      Clears the GpioPin pin.
 241:funsape/peripheral/gpioPin.hpp ****     //! @details    This function clears the pin bit in the output @c PORTx
 242:funsape/peripheral/gpioPin.hpp ****     //!                 register. If the pin mode is set to
 243:funsape/peripheral/gpioPin.hpp ****     //!                 @ref PinMode::OUTPUT_PUSH_PULL, the pin output
 244:funsape/peripheral/gpioPin.hpp ****     //!                 will be set to @ref LogicLevel::LOW.
 245:funsape/peripheral/gpioPin.hpp ****     //! @warning    It is recommended to use this function only when the pin
 246:funsape/peripheral/gpioPin.hpp ****     //!                 mode is set to @ref PinMode::OUTPUT_PUSH_PULL,
 247:funsape/peripheral/gpioPin.hpp ****     //!                 otherwise, the pin mode will be changed to
 248:funsape/peripheral/gpioPin.hpp ****     //!                 @ref PinMode::INPUT_FLOATING.
GAS LISTING /tmp/ccUMk0PR.s 			page 23


 249:funsape/peripheral/gpioPin.hpp ****     //!
 250:funsape/peripheral/gpioPin.hpp ****     void inlined clr(
 251:funsape/peripheral/gpioPin.hpp ****             void
 252:funsape/peripheral/gpioPin.hpp ****     ) const;
 253:funsape/peripheral/gpioPin.hpp **** 
 254:funsape/peripheral/gpioPin.hpp ****     //!
 255:funsape/peripheral/gpioPin.hpp ****     //! @brief      Complements (inverts) the GpioPin pin.
 256:funsape/peripheral/gpioPin.hpp ****     //! @details    This function toggles the pin bit in the output @c PORTx
 257:funsape/peripheral/gpioPin.hpp ****     //!                 register. If the pin mode is set to
 258:funsape/peripheral/gpioPin.hpp ****     //!                 @ref PinMode::OUTPUT_PUSH_PULL, the pin output
 259:funsape/peripheral/gpioPin.hpp ****     //!                 will be toggled between @ref LogicLevel::LOW and
 260:funsape/peripheral/gpioPin.hpp ****     //!                 @ref LogicLevel::HIGH.
 261:funsape/peripheral/gpioPin.hpp ****     //! @warning    It is recommended to use this function only when the pin
 262:funsape/peripheral/gpioPin.hpp ****     //!                 mode is set to @ref PinMode::OUTPUT_PUSH_PULL,
 263:funsape/peripheral/gpioPin.hpp ****     //!                 otherwise, the pin mode will be toggled between
 264:funsape/peripheral/gpioPin.hpp ****     //!                 @ref PinMode::INPUT_FLOATING and
 265:funsape/peripheral/gpioPin.hpp ****     //!                 @ref PinMode::INPUT_PULLED_UP.
 266:funsape/peripheral/gpioPin.hpp ****     //!
 267:funsape/peripheral/gpioPin.hpp ****     void inlined cpl(
 268:funsape/peripheral/gpioPin.hpp ****             void
 269:funsape/peripheral/gpioPin.hpp ****     ) const;
 270:funsape/peripheral/gpioPin.hpp **** 
 271:funsape/peripheral/gpioPin.hpp ****     //!
 272:funsape/peripheral/gpioPin.hpp ****     //! @brief      Sets the GpioPin pin.
 273:funsape/peripheral/gpioPin.hpp ****     //! @details    This function is an alias for @ref GpioPin::set().
 274:funsape/peripheral/gpioPin.hpp ****     //!
 275:funsape/peripheral/gpioPin.hpp ****     void inlined high(
 276:funsape/peripheral/gpioPin.hpp ****             void
 277:funsape/peripheral/gpioPin.hpp ****     ) const;
 278:funsape/peripheral/gpioPin.hpp **** 
 279:funsape/peripheral/gpioPin.hpp ****     //!
 280:funsape/peripheral/gpioPin.hpp ****     //! @brief      Checks if the GpioPin is initialized.
 281:funsape/peripheral/gpioPin.hpp ****     //! @details    This function checks if the GpioPin object was successfully
 282:funsape/peripheral/gpioPin.hpp ****     //!                 initialized.
 283:funsape/peripheral/gpioPin.hpp ****     //! @retval     true                if the object is initialized.
 284:funsape/peripheral/gpioPin.hpp ****     //! @retval     false               if the object is not initialized.
 285:funsape/peripheral/gpioPin.hpp ****     //!
 286:funsape/peripheral/gpioPin.hpp ****     bool_t inlined isInitialized(
 287:funsape/peripheral/gpioPin.hpp ****             void
 288:funsape/peripheral/gpioPin.hpp ****     ) const;
 289:funsape/peripheral/gpioPin.hpp **** 
 290:funsape/peripheral/gpioPin.hpp ****     //!
 291:funsape/peripheral/gpioPin.hpp ****     //! @brief      Clears the GpioPin pin.
 292:funsape/peripheral/gpioPin.hpp ****     //! @details    This function is an alias for @ref GpioPin::clr().
 293:funsape/peripheral/gpioPin.hpp ****     //!
 294:funsape/peripheral/gpioPin.hpp ****     void inlined low(
 295:funsape/peripheral/gpioPin.hpp ****             void
 296:funsape/peripheral/gpioPin.hpp ****     ) const;
 297:funsape/peripheral/gpioPin.hpp **** 
 298:funsape/peripheral/gpioPin.hpp ****     //!
 299:funsape/peripheral/gpioPin.hpp ****     //! @brief      Reads the pin level.
 300:funsape/peripheral/gpioPin.hpp ****     //! @details    This function returns the logic level of the pin. Since it
 301:funsape/peripheral/gpioPin.hpp ****     //!                 returns the value of the input @c PINx register, this
 302:funsape/peripheral/gpioPin.hpp ****     //!                 function can be used with any @ref PinMode
 303:funsape/peripheral/gpioPin.hpp ****     //!                 selection.
 304:funsape/peripheral/gpioPin.hpp ****     //! @retval     true                if the pin is in @ref LogicLevel::HIGH.
 305:funsape/peripheral/gpioPin.hpp ****     //! @retval     false               if the pin is in @ref LogicLevel::LOW.
GAS LISTING /tmp/ccUMk0PR.s 			page 24


 306:funsape/peripheral/gpioPin.hpp ****     //!
 307:funsape/peripheral/gpioPin.hpp ****     bool_t inlined read(
 308:funsape/peripheral/gpioPin.hpp ****             void
 309:funsape/peripheral/gpioPin.hpp ****     ) const;
 310:funsape/peripheral/gpioPin.hpp **** 
 311:funsape/peripheral/gpioPin.hpp ****     //!
 312:funsape/peripheral/gpioPin.hpp ****     //! @brief      Sets the GpioPin pin.
 313:funsape/peripheral/gpioPin.hpp ****     //! @details    This function sets the pin bit in the output @c PORTx
 314:funsape/peripheral/gpioPin.hpp ****     //!                 register. If the pin mode is set to
 315:funsape/peripheral/gpioPin.hpp ****     //!                 @ref PinMode::OUTPUT_PUSH_PULL, the pin output
 316:funsape/peripheral/gpioPin.hpp ****     //!                 will be set to @ref LogicLevel::HIGH.
 317:funsape/peripheral/gpioPin.hpp ****     //! @warning    It is recommended to use this function only when the pin
 318:funsape/peripheral/gpioPin.hpp ****     //!                 mode is set to @ref PinMode::OUTPUT_PUSH_PULL,
 319:funsape/peripheral/gpioPin.hpp ****     //!                 otherwise, the pin mode will be changed to
 320:funsape/peripheral/gpioPin.hpp ****     //!                 @ref PinMode::INPUT_PULLED_UP.
 321:funsape/peripheral/gpioPin.hpp ****     //!
 322:funsape/peripheral/gpioPin.hpp ****     void inlined set(
 323:funsape/peripheral/gpioPin.hpp ****             void
 324:funsape/peripheral/gpioPin.hpp ****     ) const;
 325:funsape/peripheral/gpioPin.hpp **** 
 326:funsape/peripheral/gpioPin.hpp ****     //!
 327:funsape/peripheral/gpioPin.hpp ****     //! @brief      Sets the GpioPin operation mode.
 328:funsape/peripheral/gpioPin.hpp ****     //! @details    This function sets the GPIO pin operation mode to the given
 329:funsape/peripheral/gpioPin.hpp ****     //!                 @a mode_p.
 330:funsape/peripheral/gpioPin.hpp ****     //! @note       When the operation mode is changed to
 331:funsape/peripheral/gpioPin.hpp ****     //!                 @ref PinMode::INPUT_FLOATING or to
 332:funsape/peripheral/gpioPin.hpp ****     //!                 @ref PinMode::INPUT_PULLED_UP, both output @c PORTx
 333:funsape/peripheral/gpioPin.hpp ****     //!                 and direction @c DDRx registers are changed. However,
 334:funsape/peripheral/gpioPin.hpp ****     //!                 when the mode is changed to
 335:funsape/peripheral/gpioPin.hpp ****     //!                 @ref PinMode::OUTPUT_PUSH_PULL, only the direction
 336:funsape/peripheral/gpioPin.hpp ****     //!                 @c DDRx register is changed, therefore, if a specific
 337:funsape/peripheral/gpioPin.hpp ****     //!                 output logic level is desired on the pin, the user must
 338:funsape/peripheral/gpioPin.hpp ****     //!                 call the @ref clr() or @ref set().
 339:funsape/peripheral/gpioPin.hpp ****     //! @param[in]  mode_p              @ref PinMode operation mode.
 340:funsape/peripheral/gpioPin.hpp ****     //! @retval     true                if success.
 341:funsape/peripheral/gpioPin.hpp ****     //! @retval     false               if an error occurred. Retrieve the error
 342:funsape/peripheral/gpioPin.hpp ****     //!                                     by calling @ref getLastError().
 343:funsape/peripheral/gpioPin.hpp ****     //! @par Error codes:
 344:funsape/peripheral/gpioPin.hpp ****     //!
 345:funsape/peripheral/gpioPin.hpp ****     //! | Error code                  | Meaning                          |
 346:funsape/peripheral/gpioPin.hpp ****     //! |:----------------------------|:---------------------------------|
 347:funsape/peripheral/gpioPin.hpp ****     //! | @ref Error::NONE            | Success. No erros were detected. |
 348:funsape/peripheral/gpioPin.hpp ****     //! | @ref Error::NOT_INITIALIZED | The pin is not initialized.      |
 349:funsape/peripheral/gpioPin.hpp ****     //!
 350:funsape/peripheral/gpioPin.hpp ****     bool_t setMode(
 351:funsape/peripheral/gpioPin.hpp ****             const PinMode mode_p
 352:funsape/peripheral/gpioPin.hpp ****     );
 353:funsape/peripheral/gpioPin.hpp **** 
 354:funsape/peripheral/gpioPin.hpp ****     //!
 355:funsape/peripheral/gpioPin.hpp ****     //! @brief      Complements (inverts) the GpioPin pin.
 356:funsape/peripheral/gpioPin.hpp ****     //! @details    This function is an alias for @ref GpioPin::cpl().
 357:funsape/peripheral/gpioPin.hpp ****     //!
 358:funsape/peripheral/gpioPin.hpp ****     void inlined toggle(
 359:funsape/peripheral/gpioPin.hpp ****             void
 360:funsape/peripheral/gpioPin.hpp ****     ) const;
 361:funsape/peripheral/gpioPin.hpp **** 
 362:funsape/peripheral/gpioPin.hpp **** private:
GAS LISTING /tmp/ccUMk0PR.s 			page 25


 363:funsape/peripheral/gpioPin.hpp ****     // NONE
 364:funsape/peripheral/gpioPin.hpp **** 
 365:funsape/peripheral/gpioPin.hpp **** protected:
 366:funsape/peripheral/gpioPin.hpp ****     // NONE
 367:funsape/peripheral/gpioPin.hpp **** 
 368:funsape/peripheral/gpioPin.hpp **** // -------------------------------------------------------------------------
 369:funsape/peripheral/gpioPin.hpp **** // Properties --------------------------------------------------------------
 370:funsape/peripheral/gpioPin.hpp **** 
 371:funsape/peripheral/gpioPin.hpp **** private:
 372:funsape/peripheral/gpioPin.hpp ****     //     //////////////////    HARDWARE LINKAGE     ///////////////////     //
 373:funsape/peripheral/gpioPin.hpp **** 
 374:funsape/peripheral/gpioPin.hpp ****     ioRegAddress_t  _regDir;                    //!< Address to the direction @c DDRx register.
 375:funsape/peripheral/gpioPin.hpp ****     ioRegAddress_t  _regOut;                    //!< Address to the output @c PORTx register.
 376:funsape/peripheral/gpioPin.hpp ****     ioRegAddress_t  _regIn;                     //!< Address to the input @c PINx register.
 377:funsape/peripheral/gpioPin.hpp ****     ioPinMask_t     _pinMask;                   //!< Pin mask.
 378:funsape/peripheral/gpioPin.hpp **** 
 379:funsape/peripheral/gpioPin.hpp ****     //     /////////////////    CONTROL AND STATUS     //////////////////     //
 380:funsape/peripheral/gpioPin.hpp **** 
 381:funsape/peripheral/gpioPin.hpp ****     bool_t          _isInitialized      : 1;    //!< Initialization flag.
 382:funsape/peripheral/gpioPin.hpp ****     Error           _lastError;                 //!< Last error.
 383:funsape/peripheral/gpioPin.hpp **** 
 384:funsape/peripheral/gpioPin.hpp **** protected:
 385:funsape/peripheral/gpioPin.hpp ****     // NONE
 386:funsape/peripheral/gpioPin.hpp **** 
 387:funsape/peripheral/gpioPin.hpp **** }; // class GpioPin
 388:funsape/peripheral/gpioPin.hpp **** 
 389:funsape/peripheral/gpioPin.hpp **** // =============================================================================
 390:funsape/peripheral/gpioPin.hpp **** // Inlined class functions
 391:funsape/peripheral/gpioPin.hpp **** // =============================================================================
 392:funsape/peripheral/gpioPin.hpp **** 
 393:funsape/peripheral/gpioPin.hpp **** //!
 394:funsape/peripheral/gpioPin.hpp **** //! @cond
 395:funsape/peripheral/gpioPin.hpp **** //!
 396:funsape/peripheral/gpioPin.hpp **** 
 397:funsape/peripheral/gpioPin.hpp **** //     /////////////////     CONTROL AND STATUS     /////////////////     //
 398:funsape/peripheral/gpioPin.hpp **** 
 399:funsape/peripheral/gpioPin.hpp **** Error inlined GpioPin::getLastError(void) const
 400:funsape/peripheral/gpioPin.hpp **** {
 401:funsape/peripheral/gpioPin.hpp ****     // Returns last error
 402:funsape/peripheral/gpioPin.hpp ****     return this->_lastError;
 403:funsape/peripheral/gpioPin.hpp **** }
 404:funsape/peripheral/gpioPin.hpp **** 
 405:funsape/peripheral/gpioPin.hpp **** //     /////////////////    PIN RELATED METHODS     /////////////////     //
 406:funsape/peripheral/gpioPin.hpp **** 
 407:funsape/peripheral/gpioPin.hpp **** void inlined GpioPin::clr(void) const
 408:funsape/peripheral/gpioPin.hpp **** {
 409:funsape/peripheral/gpioPin.hpp ****     // Clear pin
 410:funsape/peripheral/gpioPin.hpp ****     clrMask(*(this->_regOut), (uint8_t)this->_pinMask);
 411:funsape/peripheral/gpioPin.hpp **** 
 412:funsape/peripheral/gpioPin.hpp ****     // Returns
 413:funsape/peripheral/gpioPin.hpp ****     return;
 414:funsape/peripheral/gpioPin.hpp **** }
 415:funsape/peripheral/gpioPin.hpp **** 
 416:funsape/peripheral/gpioPin.hpp **** void inlined GpioPin::cpl(void) const
 417:funsape/peripheral/gpioPin.hpp **** {
 418:funsape/peripheral/gpioPin.hpp ****     // Toggle pin
 419:funsape/peripheral/gpioPin.hpp ****     cplMask(*(this->_regOut), (uint8_t)this->_pinMask);
GAS LISTING /tmp/ccUMk0PR.s 			page 26


 420:funsape/peripheral/gpioPin.hpp **** 
 421:funsape/peripheral/gpioPin.hpp ****     // Returns
 422:funsape/peripheral/gpioPin.hpp ****     return;
 423:funsape/peripheral/gpioPin.hpp **** }
 424:funsape/peripheral/gpioPin.hpp **** 
 425:funsape/peripheral/gpioPin.hpp **** void inlined GpioPin::high(void) const
 426:funsape/peripheral/gpioPin.hpp **** {
 427:funsape/peripheral/gpioPin.hpp ****     this->set();
 428:funsape/peripheral/gpioPin.hpp **** 
 429:funsape/peripheral/gpioPin.hpp ****     return;
 430:funsape/peripheral/gpioPin.hpp **** }
 431:funsape/peripheral/gpioPin.hpp **** 
 432:funsape/peripheral/gpioPin.hpp **** bool_t inlined GpioPin::isInitialized(void) const
 433:funsape/peripheral/gpioPin.hpp **** {
 434:funsape/peripheral/gpioPin.hpp ****     return this->_isInitialized;
 435:funsape/peripheral/gpioPin.hpp **** }
 436:funsape/peripheral/gpioPin.hpp **** 
 437:funsape/peripheral/gpioPin.hpp **** void inlined GpioPin::low(void) const
 458               		.loc 2 437 14 view .LVU65
 438:funsape/peripheral/gpioPin.hpp **** {
 439:funsape/peripheral/gpioPin.hpp ****     this->clr();
 459               		.loc 2 439 5 view .LVU66
 460               	.LBB133:
 461               	.LBI133:
 407:funsape/peripheral/gpioPin.hpp **** {
 462               		.loc 2 407 14 view .LVU67
 463               	.LBB134:
 410:funsape/peripheral/gpioPin.hpp **** 
 464               		.loc 2 410 5 view .LVU68
 410:funsape/peripheral/gpioPin.hpp **** 
 465               		.loc 2 410 5 view .LVU69
 466 0018 A0E0      		ldi r26,lo8(slave_select_esp+2)
 467 001a B0E0      		ldi r27,hi8(slave_select_esp+2)
 468 001c ED91      		ld r30,X+
 469 001e FD91      		ld r31,X+
 470 0020 9081      		ld r25,Z
 471 0022 1296      		adiw r26,2
 472 0024 8C91      		ld r24,X
 473               	.LVL36:
 410:funsape/peripheral/gpioPin.hpp **** 
 474               		.loc 2 410 5 is_stmt 0 view .LVU70
 475 0026 8095      		com r24
 476 0028 8923      		and r24,r25
 477 002a 8083      		st Z,r24
 410:funsape/peripheral/gpioPin.hpp **** 
 478               		.loc 2 410 5 is_stmt 1 view .LVU71
 413:funsape/peripheral/gpioPin.hpp **** }
 479               		.loc 2 413 5 view .LVU72
 480               	.LVL37:
 413:funsape/peripheral/gpioPin.hpp **** }
 481               		.loc 2 413 5 is_stmt 0 view .LVU73
 482               	.LBE134:
 483               	.LBE133:
 440:funsape/peripheral/gpioPin.hpp **** 
 441:funsape/peripheral/gpioPin.hpp ****     return;
 484               		.loc 2 441 5 is_stmt 1 view .LVU74
 485               		.loc 2 441 5 is_stmt 0 view .LVU75
GAS LISTING /tmp/ccUMk0PR.s 			page 27


 486               	.LBE132:
 381:main.cpp      ****   for(uint8_t i = 0; i < len; i++){
 487               		.loc 1 381 3 is_stmt 1 view .LVU76
 488               	.LBB135:
 381:main.cpp      ****   for(uint8_t i = 0; i < len; i++){
 489               		.loc 1 381 15 is_stmt 0 view .LVU77
 490 002c 10E0      		ldi r17,0
 381:main.cpp      ****   for(uint8_t i = 0; i < len; i++){
 491               		.loc 1 381 3 view .LVU78
 492 002e 00C0      		rjmp .L15
 493               	.LVL38:
 494               	.L16:
 382:main.cpp      ****     recv_packet[i] = spi_writeRead(packet[i]);
 495               		.loc 1 382 5 is_stmt 1 view .LVU79
 382:main.cpp      ****     recv_packet[i] = spi_writeRead(packet[i]);
 496               		.loc 1 382 44 is_stmt 0 view .LVU80
 497 0030 F501      		movw r30,r10
 498 0032 EC0F      		add r30,r28
 499 0034 FD1F      		adc r31,r29
 382:main.cpp      ****     recv_packet[i] = spi_writeRead(packet[i]);
 500               		.loc 1 382 18 view .LVU81
 501 0036 CC0D      		add r28,r12
 502 0038 DD1D      		adc r29,r13
 382:main.cpp      ****     recv_packet[i] = spi_writeRead(packet[i]);
 503               		.loc 1 382 35 view .LVU82
 504 003a 8081      		ld r24,Z
 505 003c 0E94 0000 		call _Z13spi_writeReadh
 506               	.LVL39:
 382:main.cpp      ****     recv_packet[i] = spi_writeRead(packet[i]);
 507               		.loc 1 382 20 discriminator 1 view .LVU83
 508 0040 8883      		st Y,r24
 381:main.cpp      ****   for(uint8_t i = 0; i < len; i++){
 509               		.loc 1 381 3 is_stmt 1 discriminator 1 view .LVU84
 510 0042 1F5F      		subi r17,lo8(-(1))
 511               	.LVL40:
 512               	.L15:
 381:main.cpp      ****   for(uint8_t i = 0; i < len; i++){
 513               		.loc 1 381 24 discriminator 2 view .LVU85
 381:main.cpp      ****   for(uint8_t i = 0; i < len; i++){
 514               		.loc 1 381 22 is_stmt 0 discriminator 2 view .LVU86
 515 0044 C12F      		mov r28,r17
 516 0046 D0E0      		ldi r29,0
 381:main.cpp      ****   for(uint8_t i = 0; i < len; i++){
 517               		.loc 1 381 24 discriminator 2 view .LVU87
 518 0048 1E15      		cp r17,r14
 519 004a 1F04      		cpc __zero_reg__,r15
 520 004c 00F0      		brlo .L16
 521               	.LBE135:
 387:main.cpp      ****   slave_select_esp.high();
 522               		.loc 1 387 3 is_stmt 1 view .LVU88
 523               	.LVL41:
 524               	.LBB136:
 525               	.LBI136:
 425:funsape/peripheral/gpioPin.hpp **** {
 526               		.loc 2 425 14 view .LVU89
 427:funsape/peripheral/gpioPin.hpp **** 
 527               		.loc 2 427 5 view .LVU90
GAS LISTING /tmp/ccUMk0PR.s 			page 28


 528               	.LBB137:
 529               	.LBI137:
 442:funsape/peripheral/gpioPin.hpp **** }
 443:funsape/peripheral/gpioPin.hpp **** 
 444:funsape/peripheral/gpioPin.hpp **** bool_t inlined GpioPin::read(void) const
 445:funsape/peripheral/gpioPin.hpp **** {
 446:funsape/peripheral/gpioPin.hpp ****     return (bool_t)(*(this->_regIn) & (uint8_t)(this->_pinMask));
 447:funsape/peripheral/gpioPin.hpp **** }
 448:funsape/peripheral/gpioPin.hpp **** 
 449:funsape/peripheral/gpioPin.hpp **** void inlined GpioPin::set(void) const
 530               		.loc 2 449 14 view .LVU91
 531               	.LBB138:
 450:funsape/peripheral/gpioPin.hpp **** {
 451:funsape/peripheral/gpioPin.hpp ****     // Set pin
 452:funsape/peripheral/gpioPin.hpp ****     setMask(*(this->_regOut), (uint8_t)this->_pinMask);
 532               		.loc 2 452 5 view .LVU92
 533               		.loc 2 452 5 view .LVU93
 534 004e A0E0      		ldi r26,lo8(slave_select_esp+2)
 535 0050 B0E0      		ldi r27,hi8(slave_select_esp+2)
 536 0052 ED91      		ld r30,X+
 537 0054 FD91      		ld r31,X+
 538 0056 8081      		ld r24,Z
 539 0058 1296      		adiw r26,2
 540 005a 9C91      		ld r25,X
 541 005c 892B      		or r24,r25
 542 005e 8083      		st Z,r24
 543               		.loc 2 452 5 view .LVU94
 453:funsape/peripheral/gpioPin.hpp **** 
 454:funsape/peripheral/gpioPin.hpp ****     // Returns
 455:funsape/peripheral/gpioPin.hpp ****     return;
 544               		.loc 2 455 5 view .LVU95
 545               	.LVL42:
 546               		.loc 2 455 5 is_stmt 0 view .LVU96
 547               	.LBE138:
 548               	.LBE137:
 429:funsape/peripheral/gpioPin.hpp **** }
 549               		.loc 2 429 5 is_stmt 1 view .LVU97
 550               	/* epilogue start */
 429:funsape/peripheral/gpioPin.hpp **** }
 551               		.loc 2 429 5 is_stmt 0 view .LVU98
 552               	.LBE136:
 388:main.cpp      **** }
 553               		.loc 1 388 1 view .LVU99
 554 0060 DF91      		pop r29
 555 0062 CF91      		pop r28
 556 0064 1F91      		pop r17
 557               	.LVL43:
 388:main.cpp      **** }
 558               		.loc 1 388 1 view .LVU100
 559 0066 FF90      		pop r15
 560 0068 EF90      		pop r14
 561               	.LVL44:
 388:main.cpp      **** }
 562               		.loc 1 388 1 view .LVU101
 563 006a DF90      		pop r13
 564 006c CF90      		pop r12
 565               	.LVL45:
GAS LISTING /tmp/ccUMk0PR.s 			page 29


 388:main.cpp      **** }
 566               		.loc 1 388 1 view .LVU102
 567 006e BF90      		pop r11
 568 0070 AF90      		pop r10
 569               	.LVL46:
 388:main.cpp      **** }
 570               		.loc 1 388 1 view .LVU103
 571 0072 0895      		ret
 572               		.cfi_endproc
 573               	.LFE246:
 575               		.section	.text._Z13format_packetjjhi7OP_MODEPh,"ax",@progbits
 576               	.global	_Z13format_packetjjhi7OP_MODEPh
 578               	_Z13format_packetjjhi7OP_MODEPh:
 579               	.LVL47:
 580               	.LFB247:
 390:main.cpp      **** void format_packet(uint16_t x, uint16_t y, uint8_t buttons, int16_t scroll, OP_MODE mode, uint8_t *
 581               		.loc 1 390 107 is_stmt 1 view -0
 582               		.cfi_startproc
 390:main.cpp      **** void format_packet(uint16_t x, uint16_t y, uint8_t buttons, int16_t scroll, OP_MODE mode, uint8_t *
 583               		.loc 1 390 107 is_stmt 0 view .LVU105
 584 0000 EF92      		push r14
 585               	.LCFI23:
 586               		.cfi_def_cfa_offset 3
 587               		.cfi_offset 14, -2
 588 0002 FF92      		push r15
 589               	.LCFI24:
 590               		.cfi_def_cfa_offset 4
 591               		.cfi_offset 15, -3
 592 0004 0F93      		push r16
 593               	.LCFI25:
 594               		.cfi_def_cfa_offset 5
 595               		.cfi_offset 16, -4
 596               	/* prologue: function */
 597               	/* frame size = 0 */
 598               	/* stack size = 3 */
 599               	.L__stack_usage = 3
 600 0006 F701      		movw r30,r14
 391:main.cpp      ****   packet[0] = 0x67;
 601               		.loc 1 391 3 is_stmt 1 view .LVU106
 391:main.cpp      ****   packet[0] = 0x67;
 602               		.loc 1 391 13 is_stmt 0 view .LVU107
 603 0008 57E6      		ldi r21,lo8(103)
 604 000a 5083      		st Z,r21
 392:main.cpp      ****   packet[1] = (uint8_t)mode;
 605               		.loc 1 392 3 is_stmt 1 view .LVU108
 392:main.cpp      ****   packet[1] = (uint8_t)mode;
 606               		.loc 1 392 13 is_stmt 0 view .LVU109
 607 000c 0183      		std Z+1,r16
 393:main.cpp      ****   packet[2] = MSB(x);
 608               		.loc 1 393 3 is_stmt 1 view .LVU110
 393:main.cpp      ****   packet[2] = MSB(x);
 609               		.loc 1 393 13 is_stmt 0 view .LVU111
 610 000e 9283      		std Z+2,r25
 394:main.cpp      ****   packet[3] = LSB(x);
 611               		.loc 1 394 3 is_stmt 1 view .LVU112
 394:main.cpp      ****   packet[3] = LSB(x);
 612               		.loc 1 394 13 is_stmt 0 view .LVU113
GAS LISTING /tmp/ccUMk0PR.s 			page 30


 613 0010 8383      		std Z+3,r24
 395:main.cpp      ****   packet[4] = MSB(y);
 614               		.loc 1 395 3 is_stmt 1 view .LVU114
 395:main.cpp      ****   packet[4] = MSB(y);
 615               		.loc 1 395 13 is_stmt 0 view .LVU115
 616 0012 7483      		std Z+4,r23
 396:main.cpp      ****   packet[5] = LSB(y);
 617               		.loc 1 396 3 is_stmt 1 view .LVU116
 396:main.cpp      ****   packet[5] = LSB(y);
 618               		.loc 1 396 13 is_stmt 0 view .LVU117
 619 0014 6583      		std Z+5,r22
 397:main.cpp      ****   packet[6] = ((bool_t)(buttons & LEFT_BUTTON)) + (((bool_t)(buttons & RIGHT_BUTTON)) << 1);
 620               		.loc 1 397 3 is_stmt 1 view .LVU118
 397:main.cpp      ****   packet[6] = ((bool_t)(buttons & LEFT_BUTTON)) + (((bool_t)(buttons & RIGHT_BUTTON)) << 1);
 621               		.loc 1 397 16 is_stmt 0 view .LVU119
 622 0016 42FB      		bst r20,2
 623 0018 8827      		clr r24
 624 001a 80F9      		bld r24,0
 625               	.LVL48:
 397:main.cpp      ****   packet[6] = ((bool_t)(buttons & LEFT_BUTTON)) + (((bool_t)(buttons & RIGHT_BUTTON)) << 1);
 626               		.loc 1 397 87 view .LVU120
 627 001c 4270      		andi r20,lo8(2)
 628               	.LVL49:
 397:main.cpp      ****   packet[6] = ((bool_t)(buttons & LEFT_BUTTON)) + (((bool_t)(buttons & RIGHT_BUTTON)) << 1);
 629               		.loc 1 397 49 view .LVU121
 630 001e 840F      		add r24,r20
 397:main.cpp      ****   packet[6] = ((bool_t)(buttons & LEFT_BUTTON)) + (((bool_t)(buttons & RIGHT_BUTTON)) << 1);
 631               		.loc 1 397 13 view .LVU122
 632 0020 8683      		std Z+6,r24
 398:main.cpp      ****   packet[7] = (scroll >> 8) & 0xFF;
 633               		.loc 1 398 3 is_stmt 1 view .LVU123
 398:main.cpp      ****   packet[7] = (scroll >> 8) & 0xFF;
 634               		.loc 1 398 13 is_stmt 0 view .LVU124
 635 0022 3783      		std Z+7,r19
 399:main.cpp      ****   packet[8] = scroll & 0xFF;
 636               		.loc 1 399 3 is_stmt 1 view .LVU125
 399:main.cpp      ****   packet[8] = scroll & 0xFF;
 637               		.loc 1 399 13 is_stmt 0 view .LVU126
 638 0024 2087      		std Z+8,r18
 400:main.cpp      ****   packet[9] = 0;
 639               		.loc 1 400 3 is_stmt 1 view .LVU127
 400:main.cpp      ****   packet[9] = 0;
 640               		.loc 1 400 13 is_stmt 0 view .LVU128
 641 0026 1186      		std Z+9,__zero_reg__
 401:main.cpp      ****   packet[10] = 0;
 642               		.loc 1 401 3 is_stmt 1 view .LVU129
 401:main.cpp      ****   packet[10] = 0;
 643               		.loc 1 401 14 is_stmt 0 view .LVU130
 644 0028 1286      		std Z+10,__zero_reg__
 402:main.cpp      ****   packet[11] = 0;
 645               		.loc 1 402 3 is_stmt 1 view .LVU131
 402:main.cpp      ****   packet[11] = 0;
 646               		.loc 1 402 14 is_stmt 0 view .LVU132
 647 002a 1386      		std Z+11,__zero_reg__
 403:main.cpp      ****   packet[12] = 0;
 648               		.loc 1 403 3 is_stmt 1 view .LVU133
 403:main.cpp      ****   packet[12] = 0;
GAS LISTING /tmp/ccUMk0PR.s 			page 31


 649               		.loc 1 403 14 is_stmt 0 view .LVU134
 650 002c 1486      		std Z+12,__zero_reg__
 404:main.cpp      ****   packet[13] = 0;
 651               		.loc 1 404 3 is_stmt 1 view .LVU135
 404:main.cpp      ****   packet[13] = 0;
 652               		.loc 1 404 14 is_stmt 0 view .LVU136
 653 002e 1586      		std Z+13,__zero_reg__
 405:main.cpp      ****   packet[14] = 0;
 654               		.loc 1 405 3 is_stmt 1 view .LVU137
 405:main.cpp      ****   packet[14] = 0;
 655               		.loc 1 405 14 is_stmt 0 view .LVU138
 656 0030 1686      		std Z+14,__zero_reg__
 406:main.cpp      ****   packet[15] = 0;
 657               		.loc 1 406 3 is_stmt 1 view .LVU139
 406:main.cpp      ****   packet[15] = 0;
 658               		.loc 1 406 14 is_stmt 0 view .LVU140
 659 0032 1786      		std Z+15,__zero_reg__
 660               	/* epilogue start */
 407:main.cpp      **** }
 661               		.loc 1 407 1 view .LVU141
 662 0034 0F91      		pop r16
 663               	.LVL50:
 407:main.cpp      **** }
 664               		.loc 1 407 1 view .LVU142
 665 0036 FF90      		pop r15
 666 0038 EF90      		pop r14
 667               	.LVL51:
 407:main.cpp      **** }
 668               		.loc 1 407 1 view .LVU143
 669 003a 0895      		ret
 670               		.cfi_endproc
 671               	.LFE247:
 673               		.section	.text._Z16convert_recievedPlS_S_PiP8BT_STATEPh,"ax",@progbits
 674               	.global	_Z16convert_recievedPlS_S_PiP8BT_STATEPh
 676               	_Z16convert_recievedPlS_S_PiP8BT_STATEPh:
 677               	.LVL52:
 678               	.LFB248:
 409:main.cpp      **** void convert_recieved(int32_t *roll, int32_t *pitch, int32_t *yaw, int16_t *accel_x, BT_STATE *stat
 679               		.loc 1 409 119 is_stmt 1 view -0
 680               		.cfi_startproc
 409:main.cpp      **** void convert_recieved(int32_t *roll, int32_t *pitch, int32_t *yaw, int16_t *accel_x, BT_STATE *stat
 681               		.loc 1 409 119 is_stmt 0 view .LVU145
 682 0000 EF92      		push r14
 683               	.LCFI26:
 684               		.cfi_def_cfa_offset 3
 685               		.cfi_offset 14, -2
 686 0002 FF92      		push r15
 687               	.LCFI27:
 688               		.cfi_def_cfa_offset 4
 689               		.cfi_offset 15, -3
 690 0004 0F93      		push r16
 691               	.LCFI28:
 692               		.cfi_def_cfa_offset 5
 693               		.cfi_offset 16, -4
 694 0006 1F93      		push r17
 695               	.LCFI29:
 696               		.cfi_def_cfa_offset 6
GAS LISTING /tmp/ccUMk0PR.s 			page 32


 697               		.cfi_offset 17, -5
 698 0008 CF93      		push r28
 699               	.LCFI30:
 700               		.cfi_def_cfa_offset 7
 701               		.cfi_offset 28, -6
 702 000a DF93      		push r29
 703               	.LCFI31:
 704               		.cfi_def_cfa_offset 8
 705               		.cfi_offset 29, -7
 706               	/* prologue: function */
 707               	/* frame size = 0 */
 708               	/* stack size = 6 */
 709               	.L__stack_usage = 6
 710 000c EC01      		movw r28,r24
 711 000e F701      		movw r30,r14
 410:main.cpp      ****   if(packet[0] != 0x68) return;
 712               		.loc 1 410 3 is_stmt 1 view .LVU146
 410:main.cpp      ****   if(packet[0] != 0x68) return;
 713               		.loc 1 410 14 is_stmt 0 view .LVU147
 714 0010 8081      		ld r24,Z
 715               	.LVL53:
 410:main.cpp      ****   if(packet[0] != 0x68) return;
 716               		.loc 1 410 3 view .LVU148
 717 0012 8836      		cpi r24,lo8(104)
 718 0014 01F0      		breq .+2
 719 0016 00C0      		rjmp .L18
 412:main.cpp      ****   *state = (BT_STATE)packet[1];
 720               		.loc 1 412 3 is_stmt 1 view .LVU149
 412:main.cpp      ****   *state = (BT_STATE)packet[1];
 721               		.loc 1 412 30 is_stmt 0 view .LVU150
 722 0018 8181      		ldd r24,Z+1
 412:main.cpp      ****   *state = (BT_STATE)packet[1];
 723               		.loc 1 412 12 view .LVU151
 724 001a 90E0      		ldi r25,0
 412:main.cpp      ****   *state = (BT_STATE)packet[1];
 725               		.loc 1 412 10 view .LVU152
 726 001c D801      		movw r26,r16
 727 001e 8D93      		st X+,r24
 728 0020 9D93      		st X+,r25
 413:main.cpp      ****   *pitch = ((uint32_t)packet[2] << 24) + ((uint32_t)packet[3] << 16) + ((uint32_t)packet[4] << 8) +
 729               		.loc 1 413 3 is_stmt 1 view .LVU153
 413:main.cpp      ****   *pitch = ((uint32_t)packet[2] << 24) + ((uint32_t)packet[3] << 16) + ((uint32_t)packet[4] << 8) +
 730               		.loc 1 413 31 is_stmt 0 view .LVU154
 731 0022 E280      		ldd r14,Z+2
 732               	.LVL54:
 413:main.cpp      ****   *pitch = ((uint32_t)packet[2] << 24) + ((uint32_t)packet[3] << 16) + ((uint32_t)packet[4] << 8) +
 733               		.loc 1 413 13 view .LVU155
 734 0024 F12C      		mov r15,__zero_reg__
 735 0026 00E0      		ldi r16,0
 736 0028 10E0      		ldi r17,0
 737               	.LVL55:
 413:main.cpp      ****   *pitch = ((uint32_t)packet[2] << 24) + ((uint32_t)packet[3] << 16) + ((uint32_t)packet[4] << 8) +
 738               		.loc 1 413 33 view .LVU156
 739 002a 1E2D      		mov r17,r14
 740 002c 0027      		clr r16
 741 002e FF24      		clr r15
 742 0030 EE24      		clr r14
GAS LISTING /tmp/ccUMk0PR.s 			page 33


 413:main.cpp      ****   *pitch = ((uint32_t)packet[2] << 24) + ((uint32_t)packet[3] << 16) + ((uint32_t)packet[4] << 8) +
 743               		.loc 1 413 61 view .LVU157
 744 0032 8381      		ldd r24,Z+3
 413:main.cpp      ****   *pitch = ((uint32_t)packet[2] << 24) + ((uint32_t)packet[3] << 16) + ((uint32_t)packet[4] << 8) +
 745               		.loc 1 413 43 view .LVU158
 746 0034 90E0      		ldi r25,0
 747 0036 A0E0      		ldi r26,0
 748 0038 B0E0      		ldi r27,0
 749               	.LVL56:
 413:main.cpp      ****   *pitch = ((uint32_t)packet[2] << 24) + ((uint32_t)packet[3] << 16) + ((uint32_t)packet[4] << 8) +
 750               		.loc 1 413 63 view .LVU159
 751 003a DC01      		movw r26,r24
 752 003c 9927      		clr r25
 753 003e 8827      		clr r24
 413:main.cpp      ****   *pitch = ((uint32_t)packet[2] << 24) + ((uint32_t)packet[3] << 16) + ((uint32_t)packet[4] << 8) +
 754               		.loc 1 413 40 view .LVU160
 755 0040 E80E      		add r14,r24
 756 0042 F91E      		adc r15,r25
 757 0044 0A1F      		adc r16,r26
 758 0046 1B1F      		adc r17,r27
 413:main.cpp      ****   *pitch = ((uint32_t)packet[2] << 24) + ((uint32_t)packet[3] << 16) + ((uint32_t)packet[4] << 8) +
 759               		.loc 1 413 91 view .LVU161
 760 0048 8481      		ldd r24,Z+4
 413:main.cpp      ****   *pitch = ((uint32_t)packet[2] << 24) + ((uint32_t)packet[3] << 16) + ((uint32_t)packet[4] << 8) +
 761               		.loc 1 413 73 view .LVU162
 762 004a 90E0      		ldi r25,0
 763 004c A0E0      		ldi r26,0
 764 004e B0E0      		ldi r27,0
 413:main.cpp      ****   *pitch = ((uint32_t)packet[2] << 24) + ((uint32_t)packet[3] << 16) + ((uint32_t)packet[4] << 8) +
 765               		.loc 1 413 93 view .LVU163
 766 0050 BA2F      		mov r27,r26
 767 0052 A92F      		mov r26,r25
 768 0054 982F      		mov r25,r24
 769 0056 8827      		clr r24
 413:main.cpp      ****   *pitch = ((uint32_t)packet[2] << 24) + ((uint32_t)packet[3] << 16) + ((uint32_t)packet[4] << 8) +
 770               		.loc 1 413 70 view .LVU164
 771 0058 E80E      		add r14,r24
 772 005a F91E      		adc r15,r25
 773 005c 0A1F      		adc r16,r26
 774 005e 1B1F      		adc r17,r27
 413:main.cpp      ****   *pitch = ((uint32_t)packet[2] << 24) + ((uint32_t)packet[3] << 16) + ((uint32_t)packet[4] << 8) +
 775               		.loc 1 413 119 view .LVU165
 776 0060 8581      		ldd r24,Z+5
 413:main.cpp      ****   *pitch = ((uint32_t)packet[2] << 24) + ((uint32_t)packet[3] << 16) + ((uint32_t)packet[4] << 8) +
 777               		.loc 1 413 99 view .LVU166
 778 0062 E80E      		add r14,r24
 779 0064 F11C      		adc r15,__zero_reg__
 780 0066 011D      		adc r16,__zero_reg__
 781 0068 111D      		adc r17,__zero_reg__
 413:main.cpp      ****   *pitch = ((uint32_t)packet[2] << 24) + ((uint32_t)packet[3] << 16) + ((uint32_t)packet[4] << 8) +
 782               		.loc 1 413 10 view .LVU167
 783 006a DB01      		movw r26,r22
 784 006c ED92      		st X+,r14
 785 006e FD92      		st X+,r15
 786 0070 0D93      		st X+,r16
 787 0072 1D93      		st X+,r17
 414:main.cpp      ****   *roll = ((uint32_t)packet[6] << 24) + ((uint32_t)packet[7] << 16) + ((uint32_t)packet[8] << 8) + 
GAS LISTING /tmp/ccUMk0PR.s 			page 34


 788               		.loc 1 414 3 is_stmt 1 view .LVU168
 414:main.cpp      ****   *roll = ((uint32_t)packet[6] << 24) + ((uint32_t)packet[7] << 16) + ((uint32_t)packet[8] << 8) + 
 789               		.loc 1 414 30 is_stmt 0 view .LVU169
 790 0074 6681      		ldd r22,Z+6
 791               	.LVL57:
 414:main.cpp      ****   *roll = ((uint32_t)packet[6] << 24) + ((uint32_t)packet[7] << 16) + ((uint32_t)packet[8] << 8) + 
 792               		.loc 1 414 12 view .LVU170
 793 0076 70E0      		ldi r23,0
 794 0078 80E0      		ldi r24,0
 795 007a 90E0      		ldi r25,0
 414:main.cpp      ****   *roll = ((uint32_t)packet[6] << 24) + ((uint32_t)packet[7] << 16) + ((uint32_t)packet[8] << 8) + 
 796               		.loc 1 414 32 view .LVU171
 797 007c 962F      		mov r25,r22
 798 007e 8827      		clr r24
 799 0080 7727      		clr r23
 800 0082 6627      		clr r22
 414:main.cpp      ****   *roll = ((uint32_t)packet[6] << 24) + ((uint32_t)packet[7] << 16) + ((uint32_t)packet[8] << 8) + 
 801               		.loc 1 414 60 view .LVU172
 802 0084 E780      		ldd r14,Z+7
 414:main.cpp      ****   *roll = ((uint32_t)packet[6] << 24) + ((uint32_t)packet[7] << 16) + ((uint32_t)packet[8] << 8) + 
 803               		.loc 1 414 42 view .LVU173
 804 0086 F12C      		mov r15,__zero_reg__
 805 0088 00E0      		ldi r16,0
 806 008a 10E0      		ldi r17,0
 414:main.cpp      ****   *roll = ((uint32_t)packet[6] << 24) + ((uint32_t)packet[7] << 16) + ((uint32_t)packet[8] << 8) + 
 807               		.loc 1 414 62 view .LVU174
 808 008c 8701      		movw r16,r14
 809 008e FF24      		clr r15
 810 0090 EE24      		clr r14
 414:main.cpp      ****   *roll = ((uint32_t)packet[6] << 24) + ((uint32_t)packet[7] << 16) + ((uint32_t)packet[8] << 8) + 
 811               		.loc 1 414 39 view .LVU175
 812 0092 6E0D      		add r22,r14
 813 0094 7F1D      		adc r23,r15
 814 0096 801F      		adc r24,r16
 815 0098 911F      		adc r25,r17
 414:main.cpp      ****   *roll = ((uint32_t)packet[6] << 24) + ((uint32_t)packet[7] << 16) + ((uint32_t)packet[8] << 8) + 
 816               		.loc 1 414 90 view .LVU176
 817 009a E084      		ldd r14,Z+8
 414:main.cpp      ****   *roll = ((uint32_t)packet[6] << 24) + ((uint32_t)packet[7] << 16) + ((uint32_t)packet[8] << 8) + 
 818               		.loc 1 414 72 view .LVU177
 819 009c F12C      		mov r15,__zero_reg__
 820 009e 00E0      		ldi r16,0
 821 00a0 10E0      		ldi r17,0
 414:main.cpp      ****   *roll = ((uint32_t)packet[6] << 24) + ((uint32_t)packet[7] << 16) + ((uint32_t)packet[8] << 8) + 
 822               		.loc 1 414 92 view .LVU178
 823 00a2 102F      		mov r17,r16
 824 00a4 0F2D      		mov r16,r15
 825 00a6 FE2C      		mov r15,r14
 826 00a8 EE24      		clr r14
 414:main.cpp      ****   *roll = ((uint32_t)packet[6] << 24) + ((uint32_t)packet[7] << 16) + ((uint32_t)packet[8] << 8) + 
 827               		.loc 1 414 69 view .LVU179
 828 00aa 6E0D      		add r22,r14
 829 00ac 7F1D      		adc r23,r15
 830 00ae 801F      		adc r24,r16
 831 00b0 911F      		adc r25,r17
 414:main.cpp      ****   *roll = ((uint32_t)packet[6] << 24) + ((uint32_t)packet[7] << 16) + ((uint32_t)packet[8] << 8) + 
 832               		.loc 1 414 118 view .LVU180
GAS LISTING /tmp/ccUMk0PR.s 			page 35


 833 00b2 1185      		ldd r17,Z+9
 414:main.cpp      ****   *roll = ((uint32_t)packet[6] << 24) + ((uint32_t)packet[7] << 16) + ((uint32_t)packet[8] << 8) + 
 834               		.loc 1 414 98 view .LVU181
 835 00b4 610F      		add r22,r17
 836 00b6 711D      		adc r23,__zero_reg__
 837 00b8 811D      		adc r24,__zero_reg__
 838 00ba 911D      		adc r25,__zero_reg__
 414:main.cpp      ****   *roll = ((uint32_t)packet[6] << 24) + ((uint32_t)packet[7] << 16) + ((uint32_t)packet[8] << 8) + 
 839               		.loc 1 414 9 view .LVU182
 840 00bc DE01      		movw r26,r28
 841               	.LVL58:
 414:main.cpp      ****   *roll = ((uint32_t)packet[6] << 24) + ((uint32_t)packet[7] << 16) + ((uint32_t)packet[8] << 8) + 
 842               		.loc 1 414 9 view .LVU183
 843 00be 6D93      		st X+,r22
 844 00c0 7D93      		st X+,r23
 845 00c2 8D93      		st X+,r24
 846 00c4 9D93      		st X+,r25
 415:main.cpp      ****   *yaw = ((uint32_t)packet[10] << 24) + ((uint32_t)packet[11] << 16) + ((uint32_t)packet[12] << 8) 
 847               		.loc 1 415 3 is_stmt 1 view .LVU184
 415:main.cpp      ****   *yaw = ((uint32_t)packet[10] << 24) + ((uint32_t)packet[11] << 16) + ((uint32_t)packet[12] << 8) 
 848               		.loc 1 415 30 is_stmt 0 view .LVU185
 849 00c6 8285      		ldd r24,Z+10
 415:main.cpp      ****   *yaw = ((uint32_t)packet[10] << 24) + ((uint32_t)packet[11] << 16) + ((uint32_t)packet[12] << 8) 
 850               		.loc 1 415 11 view .LVU186
 851 00c8 90E0      		ldi r25,0
 852 00ca A0E0      		ldi r26,0
 853 00cc B0E0      		ldi r27,0
 415:main.cpp      ****   *yaw = ((uint32_t)packet[10] << 24) + ((uint32_t)packet[11] << 16) + ((uint32_t)packet[12] << 8) 
 854               		.loc 1 415 32 view .LVU187
 855 00ce B82F      		mov r27,r24
 856 00d0 AA27      		clr r26
 857 00d2 9927      		clr r25
 858 00d4 8827      		clr r24
 415:main.cpp      ****   *yaw = ((uint32_t)packet[10] << 24) + ((uint32_t)packet[11] << 16) + ((uint32_t)packet[12] << 8) 
 859               		.loc 1 415 61 view .LVU188
 860 00d6 E384      		ldd r14,Z+11
 415:main.cpp      ****   *yaw = ((uint32_t)packet[10] << 24) + ((uint32_t)packet[11] << 16) + ((uint32_t)packet[12] << 8) 
 861               		.loc 1 415 42 view .LVU189
 862 00d8 F12C      		mov r15,__zero_reg__
 863 00da 00E0      		ldi r16,0
 864 00dc 10E0      		ldi r17,0
 415:main.cpp      ****   *yaw = ((uint32_t)packet[10] << 24) + ((uint32_t)packet[11] << 16) + ((uint32_t)packet[12] << 8) 
 865               		.loc 1 415 63 view .LVU190
 866 00de 8701      		movw r16,r14
 867 00e0 FF24      		clr r15
 868 00e2 EE24      		clr r14
 415:main.cpp      ****   *yaw = ((uint32_t)packet[10] << 24) + ((uint32_t)packet[11] << 16) + ((uint32_t)packet[12] << 8) 
 869               		.loc 1 415 39 view .LVU191
 870 00e4 8E0D      		add r24,r14
 871 00e6 9F1D      		adc r25,r15
 872 00e8 A01F      		adc r26,r16
 873 00ea B11F      		adc r27,r17
 415:main.cpp      ****   *yaw = ((uint32_t)packet[10] << 24) + ((uint32_t)packet[11] << 16) + ((uint32_t)packet[12] << 8) 
 874               		.loc 1 415 92 view .LVU192
 875 00ec E484      		ldd r14,Z+12
 415:main.cpp      ****   *yaw = ((uint32_t)packet[10] << 24) + ((uint32_t)packet[11] << 16) + ((uint32_t)packet[12] << 8) 
 876               		.loc 1 415 73 view .LVU193
GAS LISTING /tmp/ccUMk0PR.s 			page 36


 877 00ee F12C      		mov r15,__zero_reg__
 878 00f0 00E0      		ldi r16,0
 879 00f2 10E0      		ldi r17,0
 415:main.cpp      ****   *yaw = ((uint32_t)packet[10] << 24) + ((uint32_t)packet[11] << 16) + ((uint32_t)packet[12] << 8) 
 880               		.loc 1 415 94 view .LVU194
 881 00f4 102F      		mov r17,r16
 882 00f6 0F2D      		mov r16,r15
 883 00f8 FE2C      		mov r15,r14
 884 00fa EE24      		clr r14
 415:main.cpp      ****   *yaw = ((uint32_t)packet[10] << 24) + ((uint32_t)packet[11] << 16) + ((uint32_t)packet[12] << 8) 
 885               		.loc 1 415 70 view .LVU195
 886 00fc 8E0D      		add r24,r14
 887 00fe 9F1D      		adc r25,r15
 888 0100 A01F      		adc r26,r16
 889 0102 B11F      		adc r27,r17
 415:main.cpp      ****   *yaw = ((uint32_t)packet[10] << 24) + ((uint32_t)packet[11] << 16) + ((uint32_t)packet[12] << 8) 
 890               		.loc 1 415 121 view .LVU196
 891 0104 6585      		ldd r22,Z+13
 415:main.cpp      ****   *yaw = ((uint32_t)packet[10] << 24) + ((uint32_t)packet[11] << 16) + ((uint32_t)packet[12] << 8) 
 892               		.loc 1 415 100 view .LVU197
 893 0106 860F      		add r24,r22
 894 0108 911D      		adc r25,__zero_reg__
 895 010a A11D      		adc r26,__zero_reg__
 896 010c B11D      		adc r27,__zero_reg__
 415:main.cpp      ****   *yaw = ((uint32_t)packet[10] << 24) + ((uint32_t)packet[11] << 16) + ((uint32_t)packet[12] << 8) 
 897               		.loc 1 415 8 view .LVU198
 898 010e EA01      		movw r28,r20
 899               	.LVL59:
 415:main.cpp      ****   *yaw = ((uint32_t)packet[10] << 24) + ((uint32_t)packet[11] << 16) + ((uint32_t)packet[12] << 8) 
 900               		.loc 1 415 8 view .LVU199
 901 0110 8883      		st Y,r24
 902 0112 9983      		std Y+1,r25
 903 0114 AA83      		std Y+2,r26
 904 0116 BB83      		std Y+3,r27
 416:main.cpp      ****   *accel_x = (packet[14] << 8) + packet[15];
 905               		.loc 1 416 3 is_stmt 1 view .LVU200
 416:main.cpp      ****   *accel_x = (packet[14] << 8) + packet[15];
 906               		.loc 1 416 24 is_stmt 0 view .LVU201
 907 0118 8685      		ldd r24,Z+14
 908 011a 90E0      		ldi r25,0
 416:main.cpp      ****   *accel_x = (packet[14] << 8) + packet[15];
 909               		.loc 1 416 26 view .LVU202
 910 011c 982F      		mov r25,r24
 911 011e 8827      		clr r24
 416:main.cpp      ****   *accel_x = (packet[14] << 8) + packet[15];
 912               		.loc 1 416 43 view .LVU203
 913 0120 4785      		ldd r20,Z+15
 914               	.LVL60:
 416:main.cpp      ****   *accel_x = (packet[14] << 8) + packet[15];
 915               		.loc 1 416 32 view .LVU204
 916 0122 840F      		add r24,r20
 917 0124 911D      		adc r25,__zero_reg__
 416:main.cpp      ****   *accel_x = (packet[14] << 8) + packet[15];
 918               		.loc 1 416 12 view .LVU205
 919 0126 F901      		movw r30,r18
 920               	.LVL61:
 416:main.cpp      ****   *accel_x = (packet[14] << 8) + packet[15];
GAS LISTING /tmp/ccUMk0PR.s 			page 37


 921               		.loc 1 416 12 view .LVU206
 922 0128 9183      		std Z+1,r25
 923 012a 8083      		st Z,r24
 924               	.LVL62:
 925               	.L18:
 926               	/* epilogue start */
 417:main.cpp      **** }
 927               		.loc 1 417 1 view .LVU207
 928 012c DF91      		pop r29
 929 012e CF91      		pop r28
 930 0130 1F91      		pop r17
 931 0132 0F91      		pop r16
 932 0134 FF90      		pop r15
 933 0136 EF90      		pop r14
 934 0138 0895      		ret
 935               		.cfi_endproc
 936               	.LFE248:
 938               		.section	.text._Z22timer1OverflowCallbackv,"ax",@progbits
 939               	.global	_Z22timer1OverflowCallbackv
 941               	_Z22timer1OverflowCallbackv:
 942               	.LFB250:
 432:main.cpp      **** void timer1OverflowCallback(void){
 943               		.loc 1 432 34 is_stmt 1 view -0
 944               		.cfi_startproc
 945               	/* prologue: function */
 946               	/* frame size = 0 */
 947               	/* stack size = 0 */
 948               	.L__stack_usage = 0
 434:main.cpp      ****     timer1_overflows++;
 949               		.loc 1 434 5 view .LVU209
 434:main.cpp      ****     timer1_overflows++;
 950               		.loc 1 434 21 is_stmt 0 view .LVU210
 951 0000 8091 0000 		lds r24,timer1_overflows
 952 0004 9091 0000 		lds r25,timer1_overflows+1
 953 0008 A091 0000 		lds r26,timer1_overflows+2
 954 000c B091 0000 		lds r27,timer1_overflows+3
 955 0010 0196      		adiw r24,1
 956 0012 A11D      		adc r26,__zero_reg__
 957 0014 B11D      		adc r27,__zero_reg__
 958 0016 8093 0000 		sts timer1_overflows,r24
 959 001a 9093 0000 		sts timer1_overflows+1,r25
 960 001e A093 0000 		sts timer1_overflows+2,r26
 961 0022 B093 0000 		sts timer1_overflows+3,r27
 962               	/* epilogue start */
 435:main.cpp      **** }
 963               		.loc 1 435 1 view .LVU211
 964 0026 0895      		ret
 965               		.cfi_endproc
 966               	.LFE250:
 968               		.section	.text._Z6microsv,"ax",@progbits
 969               	.global	_Z6microsv
 971               	_Z6microsv:
 972               	.LFB251:
 437:main.cpp      **** uint32_t micros() {
 973               		.loc 1 437 19 is_stmt 1 view -0
 974               		.cfi_startproc
 975               	/* prologue: function */
GAS LISTING /tmp/ccUMk0PR.s 			page 38


 976               	/* frame size = 0 */
 977               	/* stack size = 0 */
 978               	.L__stack_usage = 0
 438:main.cpp      ****     uint32_t overflows;
 979               		.loc 1 438 5 view .LVU213
 439:main.cpp      ****     uint16_t ticks;
 980               		.loc 1 439 5 view .LVU214
 442:main.cpp      ****     cli();
 981               		.loc 1 442 5 view .LVU215
 982               	/* #APP */
 983               	 ;  442 "main.cpp" 1
 984 0000 F894      		cli ; [[len=1]]
 985               	 ;  0 "" 2
 443:main.cpp      ****     overflows = timer1_overflows;
 986               		.loc 1 443 5 view .LVU216
 443:main.cpp      ****     overflows = timer1_overflows;
 987               		.loc 1 443 15 is_stmt 0 view .LVU217
 988               	/* #NOAPP */
 989 0002 4091 0000 		lds r20,timer1_overflows
 990 0006 5091 0000 		lds r21,timer1_overflows+1
 991 000a 6091 0000 		lds r22,timer1_overflows+2
 992 000e 7091 0000 		lds r23,timer1_overflows+3
 993               	.LVL63:
 444:main.cpp      ****     ticks = timer1.getCounterValue();;
 994               		.loc 1 444 5 is_stmt 1 view .LVU218
 995               	.LBB139:
 996               	.LBI139:
 997               		.file 3 "funsape/peripheral/timer1.hpp"
   1:funsape/peripheral/timer1.hpp **** //!
   2:funsape/peripheral/timer1.hpp **** //! ****************************************************************************
   3:funsape/peripheral/timer1.hpp **** //! @file           timer1.hpp
   4:funsape/peripheral/timer1.hpp **** //! @author         Leandro Schwarz (bladabuska+funsapeavr8lib@gmail.com)
   5:funsape/peripheral/timer1.hpp **** //! @brief          TIMER1 peripheral control.
   6:funsape/peripheral/timer1.hpp **** //! @details        This file provides peripheral control for the TIMER1 module
   7:funsape/peripheral/timer1.hpp **** //!                     for the FunSAPE++ AVR8 Library.
   8:funsape/peripheral/timer1.hpp **** //! @date           2026-04-03
   9:funsape/peripheral/timer1.hpp **** //! @version        26.04
  10:funsape/peripheral/timer1.hpp **** //! @copyright      MIT License
  11:funsape/peripheral/timer1.hpp **** //! @note           No notes at this time.
  12:funsape/peripheral/timer1.hpp **** //! @todo           No items in todo list yet.
  13:funsape/peripheral/timer1.hpp **** //! @bug            No bugs detected yet.
  14:funsape/peripheral/timer1.hpp **** //! ****************************************************************************
  15:funsape/peripheral/timer1.hpp **** //! @attention
  16:funsape/peripheral/timer1.hpp **** //!
  17:funsape/peripheral/timer1.hpp **** //! MIT License
  18:funsape/peripheral/timer1.hpp **** //!
  19:funsape/peripheral/timer1.hpp **** //! Copyright (c) 2026 Leandro Schwarz
  20:funsape/peripheral/timer1.hpp **** //!
  21:funsape/peripheral/timer1.hpp **** //! Permission is hereby granted, free of charge, to any person obtaining a copy
  22:funsape/peripheral/timer1.hpp **** //!     of this software and associated documentation files (the "Software"), to
  23:funsape/peripheral/timer1.hpp **** //!     deal in the Software without restriction, including without limitation
  24:funsape/peripheral/timer1.hpp **** //!     the rights to use, copy, modify, merge, publish, distribute, sublicense,
  25:funsape/peripheral/timer1.hpp **** //!     and/or sell copies of the Software, and to permit persons to whom the
  26:funsape/peripheral/timer1.hpp **** //!     Software is furnished to do so, subject to the following conditions:
  27:funsape/peripheral/timer1.hpp **** //!
  28:funsape/peripheral/timer1.hpp **** //! The above copyright notice and this permission notice shall be included in
  29:funsape/peripheral/timer1.hpp **** //!     all copies or substantial portions of the Software.
GAS LISTING /tmp/ccUMk0PR.s 			page 39


  30:funsape/peripheral/timer1.hpp **** //!
  31:funsape/peripheral/timer1.hpp **** //! THE SOFTWARE IS PROVIDED "AS IS", WITHOUT WARRANTY OF ANY KIND, EXPRESS OR
  32:funsape/peripheral/timer1.hpp **** //!     IMPLIED, INCLUDING BUT NOT LIMITED TO THE WARRANTIES OF MERCHANTABILITY,
  33:funsape/peripheral/timer1.hpp **** //!     FITNESS FOR A PARTICULAR PURPOSE AND NONINFRINGEMENT. IN NO EVENT SHALL
  34:funsape/peripheral/timer1.hpp **** //!     THE AUTHORS OR COPYRIGHT HOLDERS BE LIABLE FOR ANY CLAIM, DAMAGES OR
  35:funsape/peripheral/timer1.hpp **** //!     OTHER LIABILITY, WHETHER IN AN ACTION OF CONTRACT, TORT OR OTHERWISE,
  36:funsape/peripheral/timer1.hpp **** //!     ARISING FROM, OUT OF OR IN CONNECTION WITH THE SOFTWARE OR THE USE OR
  37:funsape/peripheral/timer1.hpp **** //!     OTHER DEALINGS IN THE SOFTWARE.
  38:funsape/peripheral/timer1.hpp **** //!
  39:funsape/peripheral/timer1.hpp **** //! ****************************************************************************
  40:funsape/peripheral/timer1.hpp **** //!
  41:funsape/peripheral/timer1.hpp **** 
  42:funsape/peripheral/timer1.hpp **** // =============================================================================
  43:funsape/peripheral/timer1.hpp **** // Include guard (START)
  44:funsape/peripheral/timer1.hpp **** // =============================================================================
  45:funsape/peripheral/timer1.hpp **** 
  46:funsape/peripheral/timer1.hpp **** #ifndef __TIMER1_HPP
  47:funsape/peripheral/timer1.hpp **** #define __TIMER1_HPP                    2604
  48:funsape/peripheral/timer1.hpp **** 
  49:funsape/peripheral/timer1.hpp **** // =============================================================================
  50:funsape/peripheral/timer1.hpp **** // Dependencies
  51:funsape/peripheral/timer1.hpp **** // =============================================================================
  52:funsape/peripheral/timer1.hpp **** 
  53:funsape/peripheral/timer1.hpp **** //     /////////////////     GLOBAL DEFINITIONS FILE    /////////////////     //
  54:funsape/peripheral/timer1.hpp **** 
  55:funsape/peripheral/timer1.hpp **** #include "../globalDefines.hpp"
  56:funsape/peripheral/timer1.hpp **** #if !defined(__GLOBAL_DEFINES_HPP)
  57:funsape/peripheral/timer1.hpp **** #   error [timer1.hpp] Error 1 - Header file (globalDefines.hpp) is missing or corrupted!
  58:funsape/peripheral/timer1.hpp **** #elif __GLOBAL_DEFINES_HPP != __TIMER1_HPP
  59:funsape/peripheral/timer1.hpp **** #   error [timer1.hpp] Error 2 - Build mismatch between file (timer1.hpp) and global definitions fi
  60:funsape/peripheral/timer1.hpp **** #endif
  61:funsape/peripheral/timer1.hpp **** 
  62:funsape/peripheral/timer1.hpp **** //     //////////////////     LIBRARY DEPENDENCIES     //////////////////     //
  63:funsape/peripheral/timer1.hpp **** 
  64:funsape/peripheral/timer1.hpp **** #include "../util/debug.hpp"
  65:funsape/peripheral/timer1.hpp **** #if !defined(__DEBUG_HPP)
  66:funsape/peripheral/timer1.hpp **** #   error [timer1.hpp] Error 1 - Header file (debug.hpp) is missing or corrupted!
  67:funsape/peripheral/timer1.hpp **** #elif __DEBUG_HPP != __TIMER1_HPP
  68:funsape/peripheral/timer1.hpp **** #   error [timer1.hpp] Error 5 - Build mismatch between file (timer1.hpp) and library dependency (d
  69:funsape/peripheral/timer1.hpp **** #endif
  70:funsape/peripheral/timer1.hpp **** 
  71:funsape/peripheral/timer1.hpp **** //     ///////////////////     STANDARD C LIBRARY     ///////////////////     //
  72:funsape/peripheral/timer1.hpp **** 
  73:funsape/peripheral/timer1.hpp **** // NONE
  74:funsape/peripheral/timer1.hpp **** 
  75:funsape/peripheral/timer1.hpp **** //     ////////////////////    AVR LIBRARY FILES     ////////////////////     //
  76:funsape/peripheral/timer1.hpp **** 
  77:funsape/peripheral/timer1.hpp **** // NONE
  78:funsape/peripheral/timer1.hpp **** 
  79:funsape/peripheral/timer1.hpp **** // =============================================================================
  80:funsape/peripheral/timer1.hpp **** // Checks peripheral existance
  81:funsape/peripheral/timer1.hpp **** // =============================================================================
  82:funsape/peripheral/timer1.hpp **** 
  83:funsape/peripheral/timer1.hpp **** #if !defined(MCU_TIMER1_PERIPHERAL_EXISTS)
  84:funsape/peripheral/timer1.hpp **** #   error [timer1.hpp] Error X - Peripheral TIMER1 is not avalilable in selected device!
  85:funsape/peripheral/timer1.hpp **** #endif
  86:funsape/peripheral/timer1.hpp **** 
GAS LISTING /tmp/ccUMk0PR.s 			page 40


  87:funsape/peripheral/timer1.hpp **** // +++++++++++++++++++++++++++++++++++++++++++++++++++++++++++++++++++++++++++++
  88:funsape/peripheral/timer1.hpp **** // Doxygen: Start main group "Peripherals"
  89:funsape/peripheral/timer1.hpp **** // +++++++++++++++++++++++++++++++++++++++++++++++++++++++++++++++++++++++++++++
  90:funsape/peripheral/timer1.hpp **** 
  91:funsape/peripheral/timer1.hpp **** //!
  92:funsape/peripheral/timer1.hpp **** //! @addtogroup     Peripherals
  93:funsape/peripheral/timer1.hpp **** //! @brief          Microcontroller peripherals.
  94:funsape/peripheral/timer1.hpp **** //! @{
  95:funsape/peripheral/timer1.hpp **** //!
  96:funsape/peripheral/timer1.hpp **** 
  97:funsape/peripheral/timer1.hpp **** // +++++++++++++++++++++++++++++++++++++++++++++++++++++++++++++++++++++++++++++
  98:funsape/peripheral/timer1.hpp **** // Doxygen: Start subgroup "Timer1" in "Peripherals"
  99:funsape/peripheral/timer1.hpp **** // +++++++++++++++++++++++++++++++++++++++++++++++++++++++++++++++++++++++++++++
 100:funsape/peripheral/timer1.hpp **** 
 101:funsape/peripheral/timer1.hpp **** //!
 102:funsape/peripheral/timer1.hpp **** //! @addtogroup     Timer1
 103:funsape/peripheral/timer1.hpp **** //! @brief          Timer/Counter 1 (TIMER1) controller module.
 104:funsape/peripheral/timer1.hpp **** //! @{
 105:funsape/peripheral/timer1.hpp **** //!
 106:funsape/peripheral/timer1.hpp **** 
 107:funsape/peripheral/timer1.hpp **** // =============================================================================
 108:funsape/peripheral/timer1.hpp **** // Undefining previous definitions
 109:funsape/peripheral/timer1.hpp **** // =============================================================================
 110:funsape/peripheral/timer1.hpp **** 
 111:funsape/peripheral/timer1.hpp **** // NONE
 112:funsape/peripheral/timer1.hpp **** 
 113:funsape/peripheral/timer1.hpp **** // =============================================================================
 114:funsape/peripheral/timer1.hpp **** // Constant definitions
 115:funsape/peripheral/timer1.hpp **** // =============================================================================
 116:funsape/peripheral/timer1.hpp **** 
 117:funsape/peripheral/timer1.hpp **** // NONE
 118:funsape/peripheral/timer1.hpp **** 
 119:funsape/peripheral/timer1.hpp **** // =============================================================================
 120:funsape/peripheral/timer1.hpp **** // New data types
 121:funsape/peripheral/timer1.hpp **** // =============================================================================
 122:funsape/peripheral/timer1.hpp **** 
 123:funsape/peripheral/timer1.hpp **** // NONE
 124:funsape/peripheral/timer1.hpp **** 
 125:funsape/peripheral/timer1.hpp **** // =============================================================================
 126:funsape/peripheral/timer1.hpp **** // Interrupt callback functions declarations
 127:funsape/peripheral/timer1.hpp **** // =============================================================================
 128:funsape/peripheral/timer1.hpp **** 
 129:funsape/peripheral/timer1.hpp **** //!
 130:funsape/peripheral/timer1.hpp **** //! @brief          TIMER1 compare A match interrupt callback function.
 131:funsape/peripheral/timer1.hpp **** //! @details        This function is called when the TIMER1 compare A match
 132:funsape/peripheral/timer1.hpp **** //!                     interrupt is treated. It is a weak function that can be
 133:funsape/peripheral/timer1.hpp **** //!                     overwritten by user code.
 134:funsape/peripheral/timer1.hpp **** //!
 135:funsape/peripheral/timer1.hpp **** void timer1CompareACallback(void);
 136:funsape/peripheral/timer1.hpp **** 
 137:funsape/peripheral/timer1.hpp **** //!
 138:funsape/peripheral/timer1.hpp **** //! @brief          TIMER1 compare B match interrupt callback function.
 139:funsape/peripheral/timer1.hpp **** //! @details        This function is called when the TIMER1 compare B match
 140:funsape/peripheral/timer1.hpp **** //!                     interrupt is treated. It is a weak function that can be
 141:funsape/peripheral/timer1.hpp **** //!                     overwritten by user code.
 142:funsape/peripheral/timer1.hpp **** //!
 143:funsape/peripheral/timer1.hpp **** void timer1CompareBCallback(void);
GAS LISTING /tmp/ccUMk0PR.s 			page 41


 144:funsape/peripheral/timer1.hpp **** 
 145:funsape/peripheral/timer1.hpp **** //!
 146:funsape/peripheral/timer1.hpp **** //! @brief          TIMER1 Input Capture interrupt callback function.
 147:funsape/peripheral/timer1.hpp **** //! @details        This function is called when the TIMER1 input capture
 148:funsape/peripheral/timer1.hpp **** //!                     interrupt is treated. It is a weak function that can be
 149:funsape/peripheral/timer1.hpp **** //!                     overwritten by user code.
 150:funsape/peripheral/timer1.hpp **** //!
 151:funsape/peripheral/timer1.hpp **** void timer1InputCaptureCallback(void);
 152:funsape/peripheral/timer1.hpp **** 
 153:funsape/peripheral/timer1.hpp **** //!
 154:funsape/peripheral/timer1.hpp **** //! @brief          TIMER1 overflow interrupt callback function.
 155:funsape/peripheral/timer1.hpp **** //! @details        This function is called when the TIMER1 overflow interrupt
 156:funsape/peripheral/timer1.hpp **** //!                     is treated. It is a weak function that can be
 157:funsape/peripheral/timer1.hpp **** //!                     overwritten by user code.
 158:funsape/peripheral/timer1.hpp **** //!
 159:funsape/peripheral/timer1.hpp **** void timer1OverflowCallback(void);
 160:funsape/peripheral/timer1.hpp **** 
 161:funsape/peripheral/timer1.hpp **** // =============================================================================
 162:funsape/peripheral/timer1.hpp **** // Public functions declarations
 163:funsape/peripheral/timer1.hpp **** // =============================================================================
 164:funsape/peripheral/timer1.hpp **** 
 165:funsape/peripheral/timer1.hpp **** // NONE
 166:funsape/peripheral/timer1.hpp **** 
 167:funsape/peripheral/timer1.hpp **** // =============================================================================
 168:funsape/peripheral/timer1.hpp **** // Classes
 169:funsape/peripheral/timer1.hpp **** // =============================================================================
 170:funsape/peripheral/timer1.hpp **** 
 171:funsape/peripheral/timer1.hpp **** //!
 172:funsape/peripheral/timer1.hpp **** //! @brief          Timer1 class
 173:funsape/peripheral/timer1.hpp **** //! @details        This class manages the Timer/Counter 1 (TIMER1) peripheral.
 174:funsape/peripheral/timer1.hpp **** //! @attention      The @ref timer1 instance of this class is already defined as
 175:funsape/peripheral/timer1.hpp **** //!                     a singleton global object.
 176:funsape/peripheral/timer1.hpp **** //!
 177:funsape/peripheral/timer1.hpp **** class Timer1
 178:funsape/peripheral/timer1.hpp **** {
 179:funsape/peripheral/timer1.hpp ****     // -------------------------------------------------------------------------
 180:funsape/peripheral/timer1.hpp ****     // New data types ----------------------------------------------------------
 181:funsape/peripheral/timer1.hpp **** 
 182:funsape/peripheral/timer1.hpp **** public:
 183:funsape/peripheral/timer1.hpp ****     //!
 184:funsape/peripheral/timer1.hpp ****     //! @enum       ClockSource
 185:funsape/peripheral/timer1.hpp ****     //! @brief      Clock prescaler enumeration.
 186:funsape/peripheral/timer1.hpp ****     //! @details    Clock prescaler options associated with TIMER1.
 187:funsape/peripheral/timer1.hpp ****     //! @warning    The value associate with the symbolic names may change
 188:funsape/peripheral/timer1.hpp ****     //!                 between builds and might not reflect the register/bits
 189:funsape/peripheral/timer1.hpp ****     //!                 real values. In order to ensure compatibility between
 190:funsape/peripheral/timer1.hpp ****     //!                 builds, always refer to the SYMBOLIC NAME, instead of
 191:funsape/peripheral/timer1.hpp ****     //!                 its VALUE.
 192:funsape/peripheral/timer1.hpp ****     //!
 193:funsape/peripheral/timer1.hpp ****     enum class ClockSource : uint8_t {
 194:funsape/peripheral/timer1.hpp ****         DISABLED = 0,           //!< Disables clock, timer is off.
 195:funsape/peripheral/timer1.hpp ****         PRESCALER_1 = 1,        //!< Disables prescaler, timer clock frequency will be equal to CPU
 196:funsape/peripheral/timer1.hpp ****         PRESCALER_8 = 2,        //!< Timer clock frequency will be CPU clock divided by 8.
 197:funsape/peripheral/timer1.hpp ****         PRESCALER_64 = 3,       //!< Timer clock frequency will be CPU clock divided by 64.
 198:funsape/peripheral/timer1.hpp ****         PRESCALER_256 = 4,      //!< Timer clock frequency will be CPU clock divided by 256.
 199:funsape/peripheral/timer1.hpp ****         PRESCALER_1024 = 5,     //!< Timer clock frequency will be CPU clock divided by 1024.
 200:funsape/peripheral/timer1.hpp ****         T1_FALLING_EDGE = 6,    //!< Timer clock will be based on the falling edge of a signal plac
GAS LISTING /tmp/ccUMk0PR.s 			page 42


 201:funsape/peripheral/timer1.hpp ****         T1_RISING_EDGE = 7      //!< Timer clock will be based on the rising edge of a signal place
 202:funsape/peripheral/timer1.hpp ****     };
 203:funsape/peripheral/timer1.hpp **** 
 204:funsape/peripheral/timer1.hpp ****     //!
 205:funsape/peripheral/timer1.hpp ****     //! @enum       Mode
 206:funsape/peripheral/timer1.hpp ****     //! @brief      Operation mode enumeration.
 207:funsape/peripheral/timer1.hpp ****     //! @details    Operation mode options associated with TIMER1.
 208:funsape/peripheral/timer1.hpp ****     //! @warning    The value associate with the symbolic names may change
 209:funsape/peripheral/timer1.hpp ****     //!                 between builds and might not reflect the register/bits
 210:funsape/peripheral/timer1.hpp ****     //!                 real values. In order to ensure compatibility between
 211:funsape/peripheral/timer1.hpp ****     //!                 builds, always refer to the SYMBOLIC NAME, instead of
 212:funsape/peripheral/timer1.hpp ****     //!                 its VALUE.
 213:funsape/peripheral/timer1.hpp ****     //!
 214:funsape/peripheral/timer1.hpp ****     enum class Mode : uint8_t {
 215:funsape/peripheral/timer1.hpp ****         NORMAL                          = 0,    //!< Normal mode (direction = UP / TOP = 0x00FF / U
 216:funsape/peripheral/timer1.hpp ****         PWM_PHASE_CORRECTED_8_BITS      = 1,    //!< PWM mode with phase correction (direction = DO
 217:funsape/peripheral/timer1.hpp ****         PWM_PHASE_CORRECTED_9_BITS      = 2,    //!< PWM mode with phase correction (direction = DO
 218:funsape/peripheral/timer1.hpp ****         PWM_PHASE_CORRECTED_10_BITS     = 3,    //!< PWM mode with phase correction (direction = DO
 219:funsape/peripheral/timer1.hpp ****         CTC_OCRA                        = 4,    //!< CTC mode (direction = UP / TOP = OCR1A / UPDAT
 220:funsape/peripheral/timer1.hpp ****         PWM_FAST_8_BITS                 = 5,    //!< PWM mode fast (direction = UP / TOP = 0x00FF /
 221:funsape/peripheral/timer1.hpp ****         PWM_FAST_9_BITS                 = 6,    //!< PWM mode fast (direction = UP / TOP = 0x01FF /
 222:funsape/peripheral/timer1.hpp ****         PWM_FAST_10_BITS                = 7,    //!< PWM mode fast (direction = UP / TOP = 0x03FF /
 223:funsape/peripheral/timer1.hpp ****         PWM_PHASE_FREQ_CORRECTED_ICR    = 8,    //!< PWM mode with phase and frequency correction (
 224:funsape/peripheral/timer1.hpp ****         PWM_PHASE_FREQ_CORRECTED_OCRA   = 9,    //!< PWM mode with phase and frequency correction (
 225:funsape/peripheral/timer1.hpp ****         PWM_PHASE_CORRECTED_ICR         = 10,   //!< PWM mode with phase correction (direction = DO
 226:funsape/peripheral/timer1.hpp ****         PWM_PHASE_CORRECTED_OCRA        = 11,   //!< PWM mode with phase correction (direction = DO
 227:funsape/peripheral/timer1.hpp ****         CTC_ICR                         = 12,    //!< CTC mode (direction = UP / TOP = ICR1A / UPDA
 228:funsape/peripheral/timer1.hpp ****         // RESERVED                     = 13,
 229:funsape/peripheral/timer1.hpp ****         PWM_FAST_ICR                    = 14,   //!< PWM mode fast (direction = UP / TOP = ICR1 / U
 230:funsape/peripheral/timer1.hpp ****         PWM_FAST_OCRA                   = 15    //!< PWM mode fast (direction = UP / TOP = OCR1A / 
 231:funsape/peripheral/timer1.hpp ****     };
 232:funsape/peripheral/timer1.hpp **** 
 233:funsape/peripheral/timer1.hpp ****     //!
 234:funsape/peripheral/timer1.hpp ****     //! @enum       OutputMode
 235:funsape/peripheral/timer1.hpp ****     //! @brief      Output mode enumeration.
 236:funsape/peripheral/timer1.hpp ****     //! @details    Output Mmode options associated with TIMER1.
 237:funsape/peripheral/timer1.hpp ****     //! @warning    The value associate with the symbolic names may change
 238:funsape/peripheral/timer1.hpp ****     //!                 between builds and might not reflect the register/bits
 239:funsape/peripheral/timer1.hpp ****     //!                 real values. In order to ensure compatibility between
 240:funsape/peripheral/timer1.hpp ****     //!                 builds, always refer to the SYMBOLIC NAME, instead of
 241:funsape/peripheral/timer1.hpp ****     //!                 its VALUE.
 242:funsape/peripheral/timer1.hpp ****     //!
 243:funsape/peripheral/timer1.hpp ****     enum class OutputMode : uint8_t {
 244:funsape/peripheral/timer1.hpp ****         NORMAL_GPIO_OPERATION = 0,      //!< OC1x disabled. Normal GPIO port operation.
 245:funsape/peripheral/timer1.hpp ****         TOGGLE_ON_COMPARE = 1,          //!< OC1x will toggle on OCR1x compare match.
 246:funsape/peripheral/timer1.hpp ****         CLEAR_ON_COMPARE = 2,           //!< OC1x will clear on OCR1x compare match.
 247:funsape/peripheral/timer1.hpp ****         SET_ON_COMPARE = 3,             //!< OC1x will set on OCR1x compare match.
 248:funsape/peripheral/timer1.hpp ****         NON_INVERTING_MODE = 2,         //!< OC1x will produce a non-inverted PWM signal.
 249:funsape/peripheral/timer1.hpp ****         INVERTING_MODE = 3,             //!< OC1x will produce a inverted PWM signal.
 250:funsape/peripheral/timer1.hpp ****     };
 251:funsape/peripheral/timer1.hpp **** 
 252:funsape/peripheral/timer1.hpp **** private:
 253:funsape/peripheral/timer1.hpp ****     // NONE
 254:funsape/peripheral/timer1.hpp **** 
 255:funsape/peripheral/timer1.hpp **** protected:
 256:funsape/peripheral/timer1.hpp ****     // NONE
 257:funsape/peripheral/timer1.hpp **** 
GAS LISTING /tmp/ccUMk0PR.s 			page 43


 258:funsape/peripheral/timer1.hpp **** // -------------------------------------------------------------------------
 259:funsape/peripheral/timer1.hpp **** // Constructors ------------------------------------------------------------
 260:funsape/peripheral/timer1.hpp **** 
 261:funsape/peripheral/timer1.hpp **** public:
 262:funsape/peripheral/timer1.hpp ****     //!
 263:funsape/peripheral/timer1.hpp ****     //! @brief      Timer1 class destructor.
 264:funsape/peripheral/timer1.hpp ****     //! @details    Destroys a Timer1 object.
 265:funsape/peripheral/timer1.hpp ****     //!
 266:funsape/peripheral/timer1.hpp ****     ~Timer1(
 267:funsape/peripheral/timer1.hpp ****             void
 268:funsape/peripheral/timer1.hpp ****     );
 269:funsape/peripheral/timer1.hpp **** 
 270:funsape/peripheral/timer1.hpp **** private:
 271:funsape/peripheral/timer1.hpp ****     //!
 272:funsape/peripheral/timer1.hpp ****     //! @brief      Timer1 class constructor.
 273:funsape/peripheral/timer1.hpp ****     //! @details    Creates a Timer1 object. The object is loaded with the
 274:funsape/peripheral/timer1.hpp ****     //!                 default register values:
 275:funsape/peripheral/timer1.hpp ****     //!                 @ref Timer1::ClockSource::DISABLED and
 276:funsape/peripheral/timer1.hpp ****     //!                 @ref Timer1::Mode::NORMAL. The object still must be
 277:funsape/peripheral/timer1.hpp ****     //!                 initialized before use.
 278:funsape/peripheral/timer1.hpp ****     //! @see        init(const Timer1::Mode mode_p, const Timer1::ClockSource clockSource_p).
 279:funsape/peripheral/timer1.hpp ****     //! @par Error codes:
 280:funsape/peripheral/timer1.hpp ****     //!
 281:funsape/peripheral/timer1.hpp ****     //! | Error code       | Meaning                           |
 282:funsape/peripheral/timer1.hpp ****     //! |: ----------------|: ---------------------------------|
 283:funsape/peripheral/timer1.hpp ****     //! | @ref Error::NONE | Success. No errors were detected. |
 284:funsape/peripheral/timer1.hpp ****     //!
 285:funsape/peripheral/timer1.hpp ****     Timer1(
 286:funsape/peripheral/timer1.hpp ****             void
 287:funsape/peripheral/timer1.hpp ****     );
 288:funsape/peripheral/timer1.hpp **** 
 289:funsape/peripheral/timer1.hpp ****     //!
 290:funsape/peripheral/timer1.hpp ****     //! @brief      Copy constructor (deleted).
 291:funsape/peripheral/timer1.hpp ****     //! @details    Deleted to prevent cloning the Singleton instance.
 292:funsape/peripheral/timer1.hpp ****     //!
 293:funsape/peripheral/timer1.hpp ****     Timer1(
 294:funsape/peripheral/timer1.hpp ****             const Timer1 &
 295:funsape/peripheral/timer1.hpp ****     ) = delete;
 296:funsape/peripheral/timer1.hpp **** 
 297:funsape/peripheral/timer1.hpp ****     //!
 298:funsape/peripheral/timer1.hpp ****     //! @brief      Copy assignment operator (deleted).
 299:funsape/peripheral/timer1.hpp ****     //! @details    Deleted to prevent assignment of the Singleton instance.
 300:funsape/peripheral/timer1.hpp ****     //!
 301:funsape/peripheral/timer1.hpp ****     Timer1 &operator=(
 302:funsape/peripheral/timer1.hpp ****             const Timer1 &
 303:funsape/peripheral/timer1.hpp ****     ) = delete;
 304:funsape/peripheral/timer1.hpp **** 
 305:funsape/peripheral/timer1.hpp **** protected:
 306:funsape/peripheral/timer1.hpp ****     // NONE
 307:funsape/peripheral/timer1.hpp **** 
 308:funsape/peripheral/timer1.hpp ****     // -------------------------------------------------------------------------
 309:funsape/peripheral/timer1.hpp ****     // Methods - Inherited methods ---------------------------------------------
 310:funsape/peripheral/timer1.hpp **** 
 311:funsape/peripheral/timer1.hpp **** public:
 312:funsape/peripheral/timer1.hpp ****     // NONE
 313:funsape/peripheral/timer1.hpp **** 
 314:funsape/peripheral/timer1.hpp **** protected:
GAS LISTING /tmp/ccUMk0PR.s 			page 44


 315:funsape/peripheral/timer1.hpp ****     // NONE
 316:funsape/peripheral/timer1.hpp **** 
 317:funsape/peripheral/timer1.hpp ****     // -------------------------------------------------------------------------
 318:funsape/peripheral/timer1.hpp ****     // Methods - class own methods ---------------------------------------------
 319:funsape/peripheral/timer1.hpp **** 
 320:funsape/peripheral/timer1.hpp **** public:
 321:funsape/peripheral/timer1.hpp ****     //     ///////////////////    SINGLETON ACCESS    ///////////////////     //
 322:funsape/peripheral/timer1.hpp **** 
 323:funsape/peripheral/timer1.hpp ****     //!
 324:funsape/peripheral/timer1.hpp ****     //! @brief      Returns the Singleton instance.
 325:funsape/peripheral/timer1.hpp ****     //! @details    Provides global access to the single instance of the Timer1
 326:funsape/peripheral/timer1.hpp ****     //!                 class. This method is tightly inlined to ensure
 327:funsape/peripheral/timer1.hpp ****     //!                 zero-overhead during execution.
 328:funsape/peripheral/timer1.hpp ****     //! @return     Reference to the single Timer1 instance.
 329:funsape/peripheral/timer1.hpp ****     //!
 330:funsape/peripheral/timer1.hpp ****     static inlined Timer1 &getInstance(
 331:funsape/peripheral/timer1.hpp ****             void
 332:funsape/peripheral/timer1.hpp ****     );
 333:funsape/peripheral/timer1.hpp **** 
 334:funsape/peripheral/timer1.hpp ****     //     /////////////////     CONTROL AND STATUS     /////////////////     //
 335:funsape/peripheral/timer1.hpp **** 
 336:funsape/peripheral/timer1.hpp ****     //!
 337:funsape/peripheral/timer1.hpp ****     //! @brief      Returns the last error.
 338:funsape/peripheral/timer1.hpp ****     //! @details    Returns the last error.
 339:funsape/peripheral/timer1.hpp ****     //! @return     @ref Error          Error status of the last operation.
 340:funsape/peripheral/timer1.hpp ****     //!
 341:funsape/peripheral/timer1.hpp ****     Error inlined getLastError(
 342:funsape/peripheral/timer1.hpp ****             void
 343:funsape/peripheral/timer1.hpp ****     ) const;
 344:funsape/peripheral/timer1.hpp **** 
 345:funsape/peripheral/timer1.hpp ****     //!
 346:funsape/peripheral/timer1.hpp ****     //! @brief      Initializes the Timer1 module.
 347:funsape/peripheral/timer1.hpp ****     //! @details    Initializes the Timer1 module.
 348:funsape/peripheral/timer1.hpp ****     //! @param[in]  mode_p              Operation mode.
 349:funsape/peripheral/timer1.hpp ****     //! @param[in]  clockSource_p       Clock source and prescaler.
 350:funsape/peripheral/timer1.hpp ****     //! @retval     true                if success.
 351:funsape/peripheral/timer1.hpp ****     //! @retval     false               if an error occurred. Retrieve the error
 352:funsape/peripheral/timer1.hpp ****     //!                                     by calling
 353:funsape/peripheral/timer1.hpp ****     //!                                     @ref Timer1::getLastError().
 354:funsape/peripheral/timer1.hpp ****     //! @par Error codes:
 355:funsape/peripheral/timer1.hpp ****     //!
 356:funsape/peripheral/timer1.hpp ****     //! | Error code       | Meaning                          |
 357:funsape/peripheral/timer1.hpp ****     //! |:-----------------|:---------------------------------|
 358:funsape/peripheral/timer1.hpp ****     //! | @ref Error::NONE | Success. No erros were detected. |
 359:funsape/peripheral/timer1.hpp ****     //!
 360:funsape/peripheral/timer1.hpp ****     bool_t init(
 361:funsape/peripheral/timer1.hpp ****             const Timer1::Mode mode_p,
 362:funsape/peripheral/timer1.hpp ****             const Timer1::ClockSource clockSource_p
 363:funsape/peripheral/timer1.hpp ****     );
 364:funsape/peripheral/timer1.hpp **** 
 365:funsape/peripheral/timer1.hpp ****     //!
 366:funsape/peripheral/timer1.hpp ****     //! @brief       Configures the clock source and prescaler.
 367:funsape/peripheral/timer1.hpp ****     //! @details     Configures the clock source and prescaler.
 368:funsape/peripheral/timer1.hpp ****     //! @param[in]   clockSource_p       Clock source and prescaler.
 369:funsape/peripheral/timer1.hpp ****     //! @retval      true                if success.
 370:funsape/peripheral/timer1.hpp ****     //! @retval      false               if an error occurred. Retrieve the error
 371:funsape/peripheral/timer1.hpp ****     //!                                      by calling
GAS LISTING /tmp/ccUMk0PR.s 			page 45


 372:funsape/peripheral/timer1.hpp ****     //!                                     @ref Timer1::getLastError().
 373:funsape/peripheral/timer1.hpp ****     //! @par Error codes:
 374:funsape/peripheral/timer1.hpp ****     //!
 375:funsape/peripheral/timer1.hpp ****     //! | Error code       | Meaning                          |
 376:funsape/peripheral/timer1.hpp ****     //! |:-----------------|:---------------------------------|
 377:funsape/peripheral/timer1.hpp ****     //! | @ref Error::NONE | Success. No erros were detected. |
 378:funsape/peripheral/timer1.hpp ****     //!
 379:funsape/peripheral/timer1.hpp ****     bool_t setClockSource(
 380:funsape/peripheral/timer1.hpp ****             const Timer1::ClockSource clockSource_p
 381:funsape/peripheral/timer1.hpp ****     );
 382:funsape/peripheral/timer1.hpp **** 
 383:funsape/peripheral/timer1.hpp ****     //!
 384:funsape/peripheral/timer1.hpp ****     //! @brief      Configures the input capture mode.
 385:funsape/peripheral/timer1.hpp ****     //! @details    Configures the input capture mode.
 386:funsape/peripheral/timer1.hpp ****     //! @param[in]  edgeSelection_p     edge of the input capture signal.
 387:funsape/peripheral/timer1.hpp ****     //! @param[in]  noiseCanceler_p     state of the noise canceler circuit.
 388:funsape/peripheral/timer1.hpp ****     //! @retval     true                if success.
 389:funsape/peripheral/timer1.hpp ****     //! @retval     false               if an error occurred. Retrieve the error
 390:funsape/peripheral/timer1.hpp ****     //!                                     by calling
 391:funsape/peripheral/timer1.hpp ****     //!                                     @ref Timer1::getLastError().
 392:funsape/peripheral/timer1.hpp ****     //! @par Error codes:
 393:funsape/peripheral/timer1.hpp ****     //!
 394:funsape/peripheral/timer1.hpp ****     //! | Error code       | Meaning                          |
 395:funsape/peripheral/timer1.hpp ****     //! |:-----------------|:---------------------------------|
 396:funsape/peripheral/timer1.hpp ****     //! | @ref Error::NONE | Success. No erros were detected. |
 397:funsape/peripheral/timer1.hpp ****     //!
 398:funsape/peripheral/timer1.hpp ****     //!
 399:funsape/peripheral/timer1.hpp ****     bool_t setInputCaptureMode(
 400:funsape/peripheral/timer1.hpp ****             const Edge edgeSelection_p,
 401:funsape/peripheral/timer1.hpp ****             cbool_t noiseCanceler_p
 402:funsape/peripheral/timer1.hpp ****     );
 403:funsape/peripheral/timer1.hpp **** 
 404:funsape/peripheral/timer1.hpp ****     //!
 405:funsape/peripheral/timer1.hpp ****     //! @brief      Configures the operation mode.
 406:funsape/peripheral/timer1.hpp ****     //! @details    Configures the operation mode.
 407:funsape/peripheral/timer1.hpp ****     //! @param[in]  mode_p              Operation mode.
 408:funsape/peripheral/timer1.hpp ****     //! @retval     true                if success.
 409:funsape/peripheral/timer1.hpp ****     //! @retval     false               if an error occurred. Retrieve the error
 410:funsape/peripheral/timer1.hpp ****     //!                                     by calling
 411:funsape/peripheral/timer1.hpp ****     //!                                     @ref Timer1::getLastError().
 412:funsape/peripheral/timer1.hpp ****     //! @par Error codes:
 413:funsape/peripheral/timer1.hpp ****     //!
 414:funsape/peripheral/timer1.hpp ****     //! | Error code       | Meaning                          |
 415:funsape/peripheral/timer1.hpp ****     //! |:-----------------|:---------------------------------|
 416:funsape/peripheral/timer1.hpp ****     //! | @ref Error::NONE | Success. No erros were detected. |
 417:funsape/peripheral/timer1.hpp ****     //!
 418:funsape/peripheral/timer1.hpp ****     bool_t setMode(
 419:funsape/peripheral/timer1.hpp ****             const Timer1::Mode mode_p
 420:funsape/peripheral/timer1.hpp ****     );
 421:funsape/peripheral/timer1.hpp **** 
 422:funsape/peripheral/timer1.hpp ****     //!
 423:funsape/peripheral/timer1.hpp ****     //! @brief      Configures the output compare pins mode.
 424:funsape/peripheral/timer1.hpp ****     //! @details    Configures the desired behavior of @c OC1x pins during
 425:funsape/peripheral/timer1.hpp ****     //!                 compare match.
 426:funsape/peripheral/timer1.hpp ****     //! @param[in]  compA_p             Behavior of @c OC1A pin during a compare
 427:funsape/peripheral/timer1.hpp ****     //!                                     A match.
 428:funsape/peripheral/timer1.hpp ****     //! @param[in]  compB_p             Behavior of @c OC1B pin during a compare
GAS LISTING /tmp/ccUMk0PR.s 			page 46


 429:funsape/peripheral/timer1.hpp ****     //!                                     B match.
 430:funsape/peripheral/timer1.hpp ****     //! @retval     true                if success.
 431:funsape/peripheral/timer1.hpp ****     //! @retval     false               if an error occurred. Retrieve the error
 432:funsape/peripheral/timer1.hpp ****     //!                                     by calling
 433:funsape/peripheral/timer1.hpp ****     //!                                     @ref Timer1::getLastError().
 434:funsape/peripheral/timer1.hpp ****     //! @par Error codes:
 435:funsape/peripheral/timer1.hpp ****     //!
 436:funsape/peripheral/timer1.hpp ****     //! | Error code       | Meaning                          |
 437:funsape/peripheral/timer1.hpp ****     //! |:-----------------|:---------------------------------|
 438:funsape/peripheral/timer1.hpp ****     //! | @ref Error::NONE | Success. No erros were detected. |
 439:funsape/peripheral/timer1.hpp ****     //!
 440:funsape/peripheral/timer1.hpp ****     bool_t setOutputMode(
 441:funsape/peripheral/timer1.hpp ****             const Timer1::OutputMode compA_p,
 442:funsape/peripheral/timer1.hpp ****             const Timer1::OutputMode compB_p
 443:funsape/peripheral/timer1.hpp ****     );
 444:funsape/peripheral/timer1.hpp **** 
 445:funsape/peripheral/timer1.hpp ****     //     /////////////////////     COMPARE A     //////////////////////     //
 446:funsape/peripheral/timer1.hpp **** 
 447:funsape/peripheral/timer1.hpp ****     //!
 448:funsape/peripheral/timer1.hpp ****     //! @brief      Activates Compare A Match interrupt.
 449:funsape/peripheral/timer1.hpp ****     //! @details    Activates Compare A Match interrupt. If an interrupt request
 450:funsape/peripheral/timer1.hpp ****     //!                 is pending, an interrupt will be triggered when
 451:funsape/peripheral/timer1.hpp ****     //!                 activated. In most applications, it is recommended to
 452:funsape/peripheral/timer1.hpp ****     //!                 ignore an old interrupt request prior to activate the
 453:funsape/peripheral/timer1.hpp ****     //!                 interrupt. This can be done by calling
 454:funsape/peripheral/timer1.hpp ****     //!                 @ref Timer1::clearCompareAInterruptRequest() function
 455:funsape/peripheral/timer1.hpp ****     //!                 imediatelly before activating the interrupt.
 456:funsape/peripheral/timer1.hpp ****     //!
 457:funsape/peripheral/timer1.hpp ****     void inlined activateCompareAInterrupt(
 458:funsape/peripheral/timer1.hpp ****             void
 459:funsape/peripheral/timer1.hpp ****     ) const;
 460:funsape/peripheral/timer1.hpp **** 
 461:funsape/peripheral/timer1.hpp ****     //!
 462:funsape/peripheral/timer1.hpp ****     //! @brief      Clears Compare A Match interrupt flag.
 463:funsape/peripheral/timer1.hpp ****     //! @details    Clears Compare A Match interrupt flag, dismissing any
 464:funsape/peripheral/timer1.hpp ****     //!                 pending interrupt request.
 465:funsape/peripheral/timer1.hpp ****     //!
 466:funsape/peripheral/timer1.hpp ****     void inlined clearCompareAInterruptRequest(
 467:funsape/peripheral/timer1.hpp ****             void
 468:funsape/peripheral/timer1.hpp ****     ) const;
 469:funsape/peripheral/timer1.hpp **** 
 470:funsape/peripheral/timer1.hpp ****     //!
 471:funsape/peripheral/timer1.hpp ****     //! @brief      Deactivates Compare A Match interrupt.
 472:funsape/peripheral/timer1.hpp ****     //! @details    Deactivates Compare A Match interrupt. This function does
 473:funsape/peripheral/timer1.hpp ****     //!                 not clears any pending interrupt request.
 474:funsape/peripheral/timer1.hpp ****     //!
 475:funsape/peripheral/timer1.hpp ****     void inlined deactivateCompareAInterrupt(
 476:funsape/peripheral/timer1.hpp ****             void
 477:funsape/peripheral/timer1.hpp ****     ) const;
 478:funsape/peripheral/timer1.hpp **** 
 479:funsape/peripheral/timer1.hpp ****     //!
 480:funsape/peripheral/timer1.hpp ****     //! @brief      Forces a Compare A Match condition on output pin.
 481:funsape/peripheral/timer1.hpp ****     //! @details    Forces a Compare A Match condition on output pin. No
 482:funsape/peripheral/timer1.hpp ****     //!                 interrupt will be generated.
 483:funsape/peripheral/timer1.hpp ****     //!
 484:funsape/peripheral/timer1.hpp ****     void inlined forceCompareA(
 485:funsape/peripheral/timer1.hpp ****             void
GAS LISTING /tmp/ccUMk0PR.s 			page 47


 486:funsape/peripheral/timer1.hpp ****     ) const;
 487:funsape/peripheral/timer1.hpp **** 
 488:funsape/peripheral/timer1.hpp ****     //!
 489:funsape/peripheral/timer1.hpp ****     //! @brief      Returns the Compare A Match value.
 490:funsape/peripheral/timer1.hpp ****     //! @details    Returns the Compare A Match value at @c OCR1A register.
 491:funsape/peripheral/timer1.hpp ****     //! @return     the value of the Compare A Match, i.e. the value of @c OCR1A
 492:funsape/peripheral/timer1.hpp ****     //!                 register.
 493:funsape/peripheral/timer1.hpp ****     //!
 494:funsape/peripheral/timer1.hpp ****     uint16_t inlined getCompareAValue(
 495:funsape/peripheral/timer1.hpp ****             void
 496:funsape/peripheral/timer1.hpp ****     ) const;
 497:funsape/peripheral/timer1.hpp **** 
 498:funsape/peripheral/timer1.hpp ****     //!
 499:funsape/peripheral/timer1.hpp ****     //! @brief      Sets the Compare A Match value.
 500:funsape/peripheral/timer1.hpp ****     //! @details    Sets the Compare A Match value at @c OCR1A register.
 501:funsape/peripheral/timer1.hpp ****     //! @param[in]  value_p             Compare A Match value.
 502:funsape/peripheral/timer1.hpp ****     //!
 503:funsape/peripheral/timer1.hpp ****     void inlined setCompareAValue(
 504:funsape/peripheral/timer1.hpp ****             cuint16_t value_p
 505:funsape/peripheral/timer1.hpp ****     ) const;
 506:funsape/peripheral/timer1.hpp **** 
 507:funsape/peripheral/timer1.hpp ****     //     /////////////////////     COMPARE B     //////////////////////     //
 508:funsape/peripheral/timer1.hpp **** 
 509:funsape/peripheral/timer1.hpp ****     //!
 510:funsape/peripheral/timer1.hpp ****     //! @brief      Activates Compare B Match interrupt.
 511:funsape/peripheral/timer1.hpp ****     //! @details    Activates Compare B Match interrupt. If an interrupt request
 512:funsape/peripheral/timer1.hpp ****     //!                 is pending, an interrupt will be triggered when
 513:funsape/peripheral/timer1.hpp ****     //!                 activated. In most applications, it is recommended to
 514:funsape/peripheral/timer1.hpp ****     //!                 ignore an old interrupt request prior to activate the
 515:funsape/peripheral/timer1.hpp ****     //!                 interrupt. This can be done by calling
 516:funsape/peripheral/timer1.hpp ****     //!                 @ref Timer1::clearCompareBInterruptRequest() function
 517:funsape/peripheral/timer1.hpp ****     //!                 imediatelly before activating the interrupt.
 518:funsape/peripheral/timer1.hpp ****     //!
 519:funsape/peripheral/timer1.hpp ****     void inlined activateCompareBInterrupt(
 520:funsape/peripheral/timer1.hpp ****             void
 521:funsape/peripheral/timer1.hpp ****     ) const;
 522:funsape/peripheral/timer1.hpp **** 
 523:funsape/peripheral/timer1.hpp ****     //!
 524:funsape/peripheral/timer1.hpp ****     //! @brief      Clears Compare B Match interrupt flag.
 525:funsape/peripheral/timer1.hpp ****     //! @details    Clears Compare B Match interrupt flag, dismissing any
 526:funsape/peripheral/timer1.hpp ****     //!                 pending interrupt request.
 527:funsape/peripheral/timer1.hpp ****     //!
 528:funsape/peripheral/timer1.hpp ****     void inlined clearCompareBInterruptRequest(
 529:funsape/peripheral/timer1.hpp ****             void
 530:funsape/peripheral/timer1.hpp ****     ) const;
 531:funsape/peripheral/timer1.hpp **** 
 532:funsape/peripheral/timer1.hpp ****     //!
 533:funsape/peripheral/timer1.hpp ****     //! @brief      Deactivates Compare B Match interrupt.
 534:funsape/peripheral/timer1.hpp ****     //! @details    Deactivates Compare B Match interrupt. This function does
 535:funsape/peripheral/timer1.hpp ****     //!                 not clears any pending interrupt request.
 536:funsape/peripheral/timer1.hpp ****     //!
 537:funsape/peripheral/timer1.hpp ****     void inlined deactivateCompareBInterrupt(
 538:funsape/peripheral/timer1.hpp ****             void
 539:funsape/peripheral/timer1.hpp ****     ) const;
 540:funsape/peripheral/timer1.hpp **** 
 541:funsape/peripheral/timer1.hpp ****     //!
 542:funsape/peripheral/timer1.hpp ****     //! @brief      Forces a Compare B Match condition on output pin.
GAS LISTING /tmp/ccUMk0PR.s 			page 48


 543:funsape/peripheral/timer1.hpp ****     //! @details    Forces a Compare B Match condition on output pin. No
 544:funsape/peripheral/timer1.hpp ****     //!                 interrupt will be generated.
 545:funsape/peripheral/timer1.hpp ****     //!
 546:funsape/peripheral/timer1.hpp ****     void inlined forceCompareB(
 547:funsape/peripheral/timer1.hpp ****             void
 548:funsape/peripheral/timer1.hpp ****     ) const;
 549:funsape/peripheral/timer1.hpp **** 
 550:funsape/peripheral/timer1.hpp ****     //!
 551:funsape/peripheral/timer1.hpp ****     //! @brief      Returns the Compare B Match value.
 552:funsape/peripheral/timer1.hpp ****     //! @details    Returns the Compare B Match value at @c OCR1B register.
 553:funsape/peripheral/timer1.hpp ****     //! @return     the value of the Compare B Match, i.e. the value of @c OCR1B
 554:funsape/peripheral/timer1.hpp ****     //!                 register.
 555:funsape/peripheral/timer1.hpp ****     //!
 556:funsape/peripheral/timer1.hpp ****     uint16_t inlined getCompareBValue(
 557:funsape/peripheral/timer1.hpp ****             void
 558:funsape/peripheral/timer1.hpp ****     ) const;
 559:funsape/peripheral/timer1.hpp **** 
 560:funsape/peripheral/timer1.hpp ****     //!
 561:funsape/peripheral/timer1.hpp ****     //! @brief      Sets the Compare B Match value.
 562:funsape/peripheral/timer1.hpp ****     //! @details    Sets the Compare B Match value at @c OCR1B register.
 563:funsape/peripheral/timer1.hpp ****     //! @param[in]  value_p             Compare B Match value.
 564:funsape/peripheral/timer1.hpp ****     //!
 565:funsape/peripheral/timer1.hpp ****     void inlined setCompareBValue(
 566:funsape/peripheral/timer1.hpp ****             cuint16_t value_p
 567:funsape/peripheral/timer1.hpp ****     ) const;
 568:funsape/peripheral/timer1.hpp **** 
 569:funsape/peripheral/timer1.hpp ****     //     ///////////////////     INPUT CAPTURE     ////////////////////     //
 570:funsape/peripheral/timer1.hpp **** 
 571:funsape/peripheral/timer1.hpp ****     //!
 572:funsape/peripheral/timer1.hpp ****     //! @brief      Activates Input Capture interrupt.
 573:funsape/peripheral/timer1.hpp ****     //! @details    Activates Input Capture interrupt. If an interrupt request
 574:funsape/peripheral/timer1.hpp ****     //!                 is pending, an interrupt will be triggered when
 575:funsape/peripheral/timer1.hpp ****     //!                 activated. In most applications, it is recommended to
 576:funsape/peripheral/timer1.hpp ****     //!                 ignore an old interrupt request prior to activate the
 577:funsape/peripheral/timer1.hpp ****     //!                 interrupt. This can be done by calling
 578:funsape/peripheral/timer1.hpp ****     //!                 @ref clearInputCaptureInterruptRequest() function
 579:funsape/peripheral/timer1.hpp ****     //!                 imediatelly before activating the interrupt.
 580:funsape/peripheral/timer1.hpp ****     //!
 581:funsape/peripheral/timer1.hpp ****     void inlined activateInputCaptureInterrupt(
 582:funsape/peripheral/timer1.hpp ****             void
 583:funsape/peripheral/timer1.hpp ****     ) const;
 584:funsape/peripheral/timer1.hpp **** 
 585:funsape/peripheral/timer1.hpp ****     //!
 586:funsape/peripheral/timer1.hpp ****     //! @brief      Clears Input Capture interrupt flag.
 587:funsape/peripheral/timer1.hpp ****     //! @details    Clears Input Capture interrupt flag, dismissing any
 588:funsape/peripheral/timer1.hpp ****     //!                 pending interrupt request.
 589:funsape/peripheral/timer1.hpp ****     //!
 590:funsape/peripheral/timer1.hpp ****     void inlined clearInputCaptureInterruptRequest(
 591:funsape/peripheral/timer1.hpp ****             void
 592:funsape/peripheral/timer1.hpp ****     ) const;
 593:funsape/peripheral/timer1.hpp **** 
 594:funsape/peripheral/timer1.hpp ****     //!
 595:funsape/peripheral/timer1.hpp ****     //! @brief      Deactivates Input Capture interrupt.
 596:funsape/peripheral/timer1.hpp ****     //! @details    Deactivates Input Capture interrupt. This function does not
 597:funsape/peripheral/timer1.hpp ****     //!                 clears any pending interrupt request.
 598:funsape/peripheral/timer1.hpp ****     //!
 599:funsape/peripheral/timer1.hpp ****     void inlined deactivateInputCaptureInterrupt(
GAS LISTING /tmp/ccUMk0PR.s 			page 49


 600:funsape/peripheral/timer1.hpp ****             void
 601:funsape/peripheral/timer1.hpp ****     ) const;
 602:funsape/peripheral/timer1.hpp **** 
 603:funsape/peripheral/timer1.hpp ****     //!
 604:funsape/peripheral/timer1.hpp ****     //! @brief      Returns the Input Capture value.
 605:funsape/peripheral/timer1.hpp ****     //! @details    Returns the Input Capture value at @c ICR1 register.
 606:funsape/peripheral/timer1.hpp ****     //! @return     the value of the Input Capture, i.e. the value of @c ICR1
 607:funsape/peripheral/timer1.hpp ****     //!                  register.
 608:funsape/peripheral/timer1.hpp ****     //!
 609:funsape/peripheral/timer1.hpp ****     uint16_t inlined getInputCaptureValue(
 610:funsape/peripheral/timer1.hpp ****             void
 611:funsape/peripheral/timer1.hpp ****     ) const;
 612:funsape/peripheral/timer1.hpp **** 
 613:funsape/peripheral/timer1.hpp ****     //!
 614:funsape/peripheral/timer1.hpp ****     //! @brief      Sets the Input Capture value.
 615:funsape/peripheral/timer1.hpp ****     //! @details    Sets the Input Capture value at @c ICR1 register.
 616:funsape/peripheral/timer1.hpp ****     //! @param[in]  value_p             Input Capture value.
 617:funsape/peripheral/timer1.hpp ****     //!
 618:funsape/peripheral/timer1.hpp ****     void inlined setInputCaptureValue(
 619:funsape/peripheral/timer1.hpp ****             cuint16_t value_p
 620:funsape/peripheral/timer1.hpp ****     ) const;
 621:funsape/peripheral/timer1.hpp **** 
 622:funsape/peripheral/timer1.hpp ****     //     //////////////////////     OVERFLOW    ///////////////////////     //
 623:funsape/peripheral/timer1.hpp **** 
 624:funsape/peripheral/timer1.hpp ****     //!
 625:funsape/peripheral/timer1.hpp ****     //! @brief      Activates Timer Overflow interrupt.
 626:funsape/peripheral/timer1.hpp ****     //! @details    Activates Timer Overflow interrupt. If an interrupt request
 627:funsape/peripheral/timer1.hpp ****     //!                 is pending, an interrupt will be triggered when
 628:funsape/peripheral/timer1.hpp ****     //!                 activated. In most applications, it is recommended to
 629:funsape/peripheral/timer1.hpp ****     //!                 ignore an old interrupt request prior to activate the
 630:funsape/peripheral/timer1.hpp ****     //!                 interrupt. This can be done by calling
 631:funsape/peripheral/timer1.hpp ****     //!                 @ref Timer1::clearOverflowInterruptRequest() function
 632:funsape/peripheral/timer1.hpp ****     //!                 imediatelly before activating the interrupt.
 633:funsape/peripheral/timer1.hpp ****     //!
 634:funsape/peripheral/timer1.hpp ****     void inlined activateOverflowInterrupt(
 635:funsape/peripheral/timer1.hpp ****             void
 636:funsape/peripheral/timer1.hpp ****     ) const;
 637:funsape/peripheral/timer1.hpp **** 
 638:funsape/peripheral/timer1.hpp ****     //!
 639:funsape/peripheral/timer1.hpp ****     //! @brief      Clears Timer Overflow interrupt flag.
 640:funsape/peripheral/timer1.hpp ****     //! @details    Clears Timer Overflow interrupt flag, dismissing any
 641:funsape/peripheral/timer1.hpp ****     //!                 pending interrupt request.
 642:funsape/peripheral/timer1.hpp ****     //!
 643:funsape/peripheral/timer1.hpp ****     void inlined clearOverflowInterruptRequest(
 644:funsape/peripheral/timer1.hpp ****             void
 645:funsape/peripheral/timer1.hpp ****     ) const;
 646:funsape/peripheral/timer1.hpp **** 
 647:funsape/peripheral/timer1.hpp ****     //!
 648:funsape/peripheral/timer1.hpp ****     //! @brief      Deactivates Timer Overflow interrupt.
 649:funsape/peripheral/timer1.hpp ****     //! @details    Deactivates Timer Overflow interrupt. This function does not
 650:funsape/peripheral/timer1.hpp ****     //!                 clears any pending interrupt request.
 651:funsape/peripheral/timer1.hpp ****     //!
 652:funsape/peripheral/timer1.hpp ****     void inlined deactivateOverflowInterrupt(
 653:funsape/peripheral/timer1.hpp ****             void
 654:funsape/peripheral/timer1.hpp ****     ) const;
 655:funsape/peripheral/timer1.hpp **** 
 656:funsape/peripheral/timer1.hpp ****     //!
GAS LISTING /tmp/ccUMk0PR.s 			page 50


 657:funsape/peripheral/timer1.hpp ****     //! @brief      Returns the Timer Counter value.
 658:funsape/peripheral/timer1.hpp ****     //! @details    Returns the Timer Counter value at @c TCNT1 register.
 659:funsape/peripheral/timer1.hpp ****     //! @return     the value of the Timer Counter, i.e. the value of @c TCNT1
 660:funsape/peripheral/timer1.hpp ****     //!                 register.
 661:funsape/peripheral/timer1.hpp ****     //!
 662:funsape/peripheral/timer1.hpp ****     uint16_t inlined getCounterValue(
 663:funsape/peripheral/timer1.hpp ****             void
 664:funsape/peripheral/timer1.hpp ****     ) const;
 665:funsape/peripheral/timer1.hpp **** 
 666:funsape/peripheral/timer1.hpp ****     //!
 667:funsape/peripheral/timer1.hpp ****     //! @brief      Sets the Timer Counter value.
 668:funsape/peripheral/timer1.hpp ****     //! @details    Sets the Timer Counter value at @c MCU_TIMER1_COUNTER_REG register.
 669:funsape/peripheral/timer1.hpp ****     //! @param[in]  value_p             Timer Counter value.
 670:funsape/peripheral/timer1.hpp ****     //!
 671:funsape/peripheral/timer1.hpp ****     void inlined setCounterValue(
 672:funsape/peripheral/timer1.hpp ****             cuint16_t value_p
 673:funsape/peripheral/timer1.hpp ****     ) const;
 674:funsape/peripheral/timer1.hpp **** 
 675:funsape/peripheral/timer1.hpp **** private:
 676:funsape/peripheral/timer1.hpp ****     // NONE
 677:funsape/peripheral/timer1.hpp **** 
 678:funsape/peripheral/timer1.hpp **** protected:
 679:funsape/peripheral/timer1.hpp ****     // NONE
 680:funsape/peripheral/timer1.hpp **** 
 681:funsape/peripheral/timer1.hpp **** // -------------------------------------------------------------------------
 682:funsape/peripheral/timer1.hpp **** // Properties --------------------------------------------------------------
 683:funsape/peripheral/timer1.hpp **** 
 684:funsape/peripheral/timer1.hpp **** private:
 685:funsape/peripheral/timer1.hpp ****     //     /////////////////    SINGLETON INSTANCE     //////////////////     //
 686:funsape/peripheral/timer1.hpp ****     static Timer1   _instance;                  //|< Static private instance
 687:funsape/peripheral/timer1.hpp **** 
 688:funsape/peripheral/timer1.hpp ****     //     /////////////////    CONTROL AND STATUS     //////////////////     //
 689:funsape/peripheral/timer1.hpp ****     bool_t          _isInitialized      : 1;    //!< Initialization flag.
 690:funsape/peripheral/timer1.hpp ****     Error           _lastError;                 //!< Last error.
 691:funsape/peripheral/timer1.hpp **** 
 692:funsape/peripheral/timer1.hpp ****     //     ////////////////////   CONFIGURATION     /////////////////////     //
 693:funsape/peripheral/timer1.hpp ****     Timer1::ClockSource     _clockSource;       //!< Clock source and prescaler.
 694:funsape/peripheral/timer1.hpp ****     Timer1::Mode            _mode;              //!< Operation mode.
 695:funsape/peripheral/timer1.hpp **** 
 696:funsape/peripheral/timer1.hpp **** protected:
 697:funsape/peripheral/timer1.hpp ****     // NONE
 698:funsape/peripheral/timer1.hpp **** 
 699:funsape/peripheral/timer1.hpp **** }; // class Timer1
 700:funsape/peripheral/timer1.hpp **** 
 701:funsape/peripheral/timer1.hpp **** // =============================================================================
 702:funsape/peripheral/timer1.hpp **** // Inlined class functions
 703:funsape/peripheral/timer1.hpp **** // =============================================================================
 704:funsape/peripheral/timer1.hpp **** 
 705:funsape/peripheral/timer1.hpp **** //!
 706:funsape/peripheral/timer1.hpp **** //! @cond
 707:funsape/peripheral/timer1.hpp **** //!
 708:funsape/peripheral/timer1.hpp **** 
 709:funsape/peripheral/timer1.hpp **** //     /////////////////////    SINGLETON ACCESS    /////////////////////     //
 710:funsape/peripheral/timer1.hpp **** 
 711:funsape/peripheral/timer1.hpp **** Timer1 inlined &Timer1::getInstance(void)
 712:funsape/peripheral/timer1.hpp **** {
 713:funsape/peripheral/timer1.hpp ****     return Timer1::_instance;
GAS LISTING /tmp/ccUMk0PR.s 			page 51


 714:funsape/peripheral/timer1.hpp **** }
 715:funsape/peripheral/timer1.hpp **** 
 716:funsape/peripheral/timer1.hpp **** //     ///////////////////////     COMPARE A     ////////////////////////     //
 717:funsape/peripheral/timer1.hpp **** 
 718:funsape/peripheral/timer1.hpp **** void inlined Timer1::activateCompareAInterrupt(void) const
 719:funsape/peripheral/timer1.hpp **** {
 720:funsape/peripheral/timer1.hpp ****     setBit(MCU_TIMER1_ENABLE_REG, MCU_TIMER1_ENABLE_COMPA_BIT_OFFSET);
 721:funsape/peripheral/timer1.hpp ****     return;
 722:funsape/peripheral/timer1.hpp **** }
 723:funsape/peripheral/timer1.hpp **** 
 724:funsape/peripheral/timer1.hpp **** void inlined Timer1::clearCompareAInterruptRequest(void) const
 725:funsape/peripheral/timer1.hpp **** {
 726:funsape/peripheral/timer1.hpp ****     setBit(MCU_TIMER1_FLAG_REG, MCU_TIMER1_FLAG_COMPA_BIT_POS);
 727:funsape/peripheral/timer1.hpp ****     return;
 728:funsape/peripheral/timer1.hpp **** }
 729:funsape/peripheral/timer1.hpp **** 
 730:funsape/peripheral/timer1.hpp **** void inlined Timer1::deactivateCompareAInterrupt(void) const
 731:funsape/peripheral/timer1.hpp **** {
 732:funsape/peripheral/timer1.hpp ****     clrBit(MCU_TIMER1_ENABLE_REG, MCU_TIMER1_ENABLE_COMPA_BIT_OFFSET);
 733:funsape/peripheral/timer1.hpp ****     return;
 734:funsape/peripheral/timer1.hpp **** }
 735:funsape/peripheral/timer1.hpp **** 
 736:funsape/peripheral/timer1.hpp **** void inlined Timer1::forceCompareA(void) const
 737:funsape/peripheral/timer1.hpp **** {
 738:funsape/peripheral/timer1.hpp ****     setBit(MCU_TIMER1_CTRL_C_REG, MCU_TIMER1_FORCE_COMPA_BIT_OFFSET);
 739:funsape/peripheral/timer1.hpp ****     return;
 740:funsape/peripheral/timer1.hpp **** }
 741:funsape/peripheral/timer1.hpp **** 
 742:funsape/peripheral/timer1.hpp **** uint16_t inlined Timer1::getCompareAValue(void) const
 743:funsape/peripheral/timer1.hpp **** {
 744:funsape/peripheral/timer1.hpp ****     uint16_t aux16 = 0;
 745:funsape/peripheral/timer1.hpp **** 
 746:funsape/peripheral/timer1.hpp ****     ATOMIC_BLOCK(ATOMIC_RESTORESTATE) {
 747:funsape/peripheral/timer1.hpp ****         aux16 = MCU_TIMER1_OCR1A_REG;
 748:funsape/peripheral/timer1.hpp ****     }
 749:funsape/peripheral/timer1.hpp **** 
 750:funsape/peripheral/timer1.hpp ****     return aux16;
 751:funsape/peripheral/timer1.hpp **** }
 752:funsape/peripheral/timer1.hpp **** 
 753:funsape/peripheral/timer1.hpp **** void inlined Timer1::setCompareAValue(cuint16_t value_p) const
 754:funsape/peripheral/timer1.hpp **** {
 755:funsape/peripheral/timer1.hpp ****     ATOMIC_BLOCK(ATOMIC_RESTORESTATE) {
 756:funsape/peripheral/timer1.hpp ****         MCU_TIMER1_OCR1A_REG = value_p;
 757:funsape/peripheral/timer1.hpp ****     }
 758:funsape/peripheral/timer1.hpp **** 
 759:funsape/peripheral/timer1.hpp ****     return;
 760:funsape/peripheral/timer1.hpp **** }
 761:funsape/peripheral/timer1.hpp **** 
 762:funsape/peripheral/timer1.hpp **** //     ///////////////////////     COMPARE B     ////////////////////////     //
 763:funsape/peripheral/timer1.hpp **** 
 764:funsape/peripheral/timer1.hpp **** void inlined Timer1::activateCompareBInterrupt(void) const
 765:funsape/peripheral/timer1.hpp **** {
 766:funsape/peripheral/timer1.hpp ****     setBit(MCU_TIMER1_ENABLE_REG, MCU_TIMER1_ENABLE_COMPB_BIT_OFFSET);
 767:funsape/peripheral/timer1.hpp ****     return;
 768:funsape/peripheral/timer1.hpp **** }
 769:funsape/peripheral/timer1.hpp **** 
 770:funsape/peripheral/timer1.hpp **** void inlined Timer1::clearCompareBInterruptRequest(void) const
GAS LISTING /tmp/ccUMk0PR.s 			page 52


 771:funsape/peripheral/timer1.hpp **** {
 772:funsape/peripheral/timer1.hpp ****     setBit(MCU_TIMER1_FLAG_REG, MCU_TIMER1_FLAG_COMPB_BIT_POS);
 773:funsape/peripheral/timer1.hpp ****     return;
 774:funsape/peripheral/timer1.hpp **** }
 775:funsape/peripheral/timer1.hpp **** 
 776:funsape/peripheral/timer1.hpp **** void inlined Timer1::deactivateCompareBInterrupt(void) const
 777:funsape/peripheral/timer1.hpp **** {
 778:funsape/peripheral/timer1.hpp ****     clrBit(MCU_TIMER1_ENABLE_REG, MCU_TIMER1_ENABLE_COMPB_BIT_OFFSET);
 779:funsape/peripheral/timer1.hpp ****     return;
 780:funsape/peripheral/timer1.hpp **** }
 781:funsape/peripheral/timer1.hpp **** 
 782:funsape/peripheral/timer1.hpp **** void inlined Timer1::forceCompareB(void) const
 783:funsape/peripheral/timer1.hpp **** {
 784:funsape/peripheral/timer1.hpp ****     setBit(MCU_TIMER1_CTRL_C_REG, MCU_TIMER1_FORCE_COMPB_BIT_OFFSET);
 785:funsape/peripheral/timer1.hpp ****     return;
 786:funsape/peripheral/timer1.hpp **** }
 787:funsape/peripheral/timer1.hpp **** 
 788:funsape/peripheral/timer1.hpp **** uint16_t inlined Timer1::getCompareBValue(void) const
 789:funsape/peripheral/timer1.hpp **** {
 790:funsape/peripheral/timer1.hpp ****     uint16_t aux16 = 0;
 791:funsape/peripheral/timer1.hpp **** 
 792:funsape/peripheral/timer1.hpp ****     ATOMIC_BLOCK(ATOMIC_RESTORESTATE) {
 793:funsape/peripheral/timer1.hpp ****         aux16 = MCU_TIMER1_OCR1B_REG;
 794:funsape/peripheral/timer1.hpp ****     }
 795:funsape/peripheral/timer1.hpp **** 
 796:funsape/peripheral/timer1.hpp ****     return aux16;
 797:funsape/peripheral/timer1.hpp **** }
 798:funsape/peripheral/timer1.hpp **** 
 799:funsape/peripheral/timer1.hpp **** void inlined Timer1::setCompareBValue(cuint16_t value_p) const
 800:funsape/peripheral/timer1.hpp **** {
 801:funsape/peripheral/timer1.hpp ****     ATOMIC_BLOCK(ATOMIC_RESTORESTATE) {
 802:funsape/peripheral/timer1.hpp ****         MCU_TIMER1_OCR1B_REG = value_p;
 803:funsape/peripheral/timer1.hpp ****     }
 804:funsape/peripheral/timer1.hpp **** 
 805:funsape/peripheral/timer1.hpp ****     return;
 806:funsape/peripheral/timer1.hpp **** }
 807:funsape/peripheral/timer1.hpp **** 
 808:funsape/peripheral/timer1.hpp **** //     /////////////////////     INPUT CAPTURE     //////////////////////     //
 809:funsape/peripheral/timer1.hpp **** 
 810:funsape/peripheral/timer1.hpp **** void inlined Timer1::activateInputCaptureInterrupt(void) const
 811:funsape/peripheral/timer1.hpp **** {
 812:funsape/peripheral/timer1.hpp ****     setBit(MCU_TIMER1_ENABLE_REG, MCU_TIMER1_ENABLE_CAPT_BIT_OFFSET);
 813:funsape/peripheral/timer1.hpp ****     return;
 814:funsape/peripheral/timer1.hpp **** }
 815:funsape/peripheral/timer1.hpp **** 
 816:funsape/peripheral/timer1.hpp **** void inlined Timer1::clearInputCaptureInterruptRequest(void) const
 817:funsape/peripheral/timer1.hpp **** {
 818:funsape/peripheral/timer1.hpp ****     setBit(MCU_TIMER1_FLAG_REG, MCU_TIMER1_FLAG_CAPT_BIT_POS);
 819:funsape/peripheral/timer1.hpp ****     return;
 820:funsape/peripheral/timer1.hpp **** }
 821:funsape/peripheral/timer1.hpp **** 
 822:funsape/peripheral/timer1.hpp **** void inlined Timer1::deactivateInputCaptureInterrupt(void) const
 823:funsape/peripheral/timer1.hpp **** {
 824:funsape/peripheral/timer1.hpp ****     clrBit(MCU_TIMER1_ENABLE_REG, MCU_TIMER1_ENABLE_CAPT_BIT_OFFSET);
 825:funsape/peripheral/timer1.hpp ****     return;
 826:funsape/peripheral/timer1.hpp **** }
 827:funsape/peripheral/timer1.hpp **** 
GAS LISTING /tmp/ccUMk0PR.s 			page 53


 828:funsape/peripheral/timer1.hpp **** inlined uint16_t Timer1::getInputCaptureValue(void) const
 829:funsape/peripheral/timer1.hpp **** {
 830:funsape/peripheral/timer1.hpp ****     uint16_t aux16 = 0;
 831:funsape/peripheral/timer1.hpp **** 
 832:funsape/peripheral/timer1.hpp ****     ATOMIC_BLOCK(ATOMIC_RESTORESTATE) {
 833:funsape/peripheral/timer1.hpp ****         aux16 = MCU_TIMER1_CAPT_REG;
 834:funsape/peripheral/timer1.hpp ****     }
 835:funsape/peripheral/timer1.hpp **** 
 836:funsape/peripheral/timer1.hpp ****     return aux16;
 837:funsape/peripheral/timer1.hpp **** }
 838:funsape/peripheral/timer1.hpp **** 
 839:funsape/peripheral/timer1.hpp **** void inlined Timer1::setInputCaptureValue(cuint16_t value_p) const
 840:funsape/peripheral/timer1.hpp **** {
 841:funsape/peripheral/timer1.hpp ****     ATOMIC_BLOCK(ATOMIC_RESTORESTATE) {
 842:funsape/peripheral/timer1.hpp ****         MCU_TIMER1_CAPT_REG = value_p;
 843:funsape/peripheral/timer1.hpp ****     }
 844:funsape/peripheral/timer1.hpp **** 
 845:funsape/peripheral/timer1.hpp ****     return;
 846:funsape/peripheral/timer1.hpp **** }
 847:funsape/peripheral/timer1.hpp **** 
 848:funsape/peripheral/timer1.hpp **** //     ////////////////////////     OVERFLOW    /////////////////////////     //
 849:funsape/peripheral/timer1.hpp **** 
 850:funsape/peripheral/timer1.hpp **** void inlined Timer1::activateOverflowInterrupt(void) const
 851:funsape/peripheral/timer1.hpp **** {
 852:funsape/peripheral/timer1.hpp ****     setBit(MCU_TIMER1_ENABLE_REG, MCU_TIMER1_ENABLE_OVF_BIT_OFFSET);
 853:funsape/peripheral/timer1.hpp ****     return;
 854:funsape/peripheral/timer1.hpp **** }
 855:funsape/peripheral/timer1.hpp **** 
 856:funsape/peripheral/timer1.hpp **** void inlined Timer1::clearOverflowInterruptRequest(void) const
 857:funsape/peripheral/timer1.hpp **** {
 858:funsape/peripheral/timer1.hpp ****     setBit(MCU_TIMER1_FLAG_REG, MCU_TIMER1_FLAG_OVF_BIT_POS);
 859:funsape/peripheral/timer1.hpp ****     return;
 860:funsape/peripheral/timer1.hpp **** }
 861:funsape/peripheral/timer1.hpp **** 
 862:funsape/peripheral/timer1.hpp **** void inlined Timer1::deactivateOverflowInterrupt(void) const
 863:funsape/peripheral/timer1.hpp **** {
 864:funsape/peripheral/timer1.hpp ****     clrBit(MCU_TIMER1_ENABLE_REG, MCU_TIMER1_ENABLE_OVF_BIT_OFFSET);
 865:funsape/peripheral/timer1.hpp ****     return;
 866:funsape/peripheral/timer1.hpp **** }
 867:funsape/peripheral/timer1.hpp **** 
 868:funsape/peripheral/timer1.hpp **** uint16_t inlined Timer1::getCounterValue(void) const
 998               		.loc 3 868 18 view .LVU219
 999               	.LBB140:
 869:funsape/peripheral/timer1.hpp **** {
 870:funsape/peripheral/timer1.hpp ****     uint16_t aux16 = 0;
 1000               		.loc 3 870 5 view .LVU220
 871:funsape/peripheral/timer1.hpp **** 
 872:funsape/peripheral/timer1.hpp ****     ATOMIC_BLOCK(ATOMIC_RESTORESTATE) {
 1001               		.loc 3 872 5 view .LVU221
 1002               	.LBB141:
 1003 0012 2FB7      		in r18,__SREG__
 1004               	.LVL64:
 1005               	.LBB142:
 1006               	.LBI142:
 1007               		.file 4 "/usr/avr/include/util/atomic.h"
   1:/usr/avr/include/util/atomic.h **** /* Copyright (c) 2007 Dean Camera
   2:/usr/avr/include/util/atomic.h ****    All rights reserved.
GAS LISTING /tmp/ccUMk0PR.s 			page 54


   3:/usr/avr/include/util/atomic.h **** 
   4:/usr/avr/include/util/atomic.h ****    Redistribution and use in source and binary forms, with or without
   5:/usr/avr/include/util/atomic.h ****    modification, are permitted provided that the following conditions are met:
   6:/usr/avr/include/util/atomic.h **** 
   7:/usr/avr/include/util/atomic.h ****    * Redistributions of source code must retain the above copyright
   8:/usr/avr/include/util/atomic.h ****      notice, this list of conditions and the following disclaimer.
   9:/usr/avr/include/util/atomic.h **** 
  10:/usr/avr/include/util/atomic.h ****    * Redistributions in binary form must reproduce the above copyright
  11:/usr/avr/include/util/atomic.h ****      notice, this list of conditions and the following disclaimer in
  12:/usr/avr/include/util/atomic.h ****      the documentation and/or other materials provided with the
  13:/usr/avr/include/util/atomic.h ****      distribution.
  14:/usr/avr/include/util/atomic.h **** 
  15:/usr/avr/include/util/atomic.h ****    * Neither the name of the copyright holders nor the names of
  16:/usr/avr/include/util/atomic.h ****      contributors may be used to endorse or promote products derived
  17:/usr/avr/include/util/atomic.h ****      from this software without specific prior written permission.
  18:/usr/avr/include/util/atomic.h **** 
  19:/usr/avr/include/util/atomic.h ****   THIS SOFTWARE IS PROVIDED BY THE COPYRIGHT HOLDERS AND CONTRIBUTORS "AS IS"
  20:/usr/avr/include/util/atomic.h ****   AND ANY EXPRESS OR IMPLIED WARRANTIES, INCLUDING, BUT NOT LIMITED TO, THE
  21:/usr/avr/include/util/atomic.h ****   IMPLIED WARRANTIES OF MERCHANTABILITY AND FITNESS FOR A PARTICULAR PURPOSE
  22:/usr/avr/include/util/atomic.h ****   ARE DISCLAIMED. IN NO EVENT SHALL THE COPYRIGHT OWNER OR CONTRIBUTORS BE
  23:/usr/avr/include/util/atomic.h ****   LIABLE FOR ANY DIRECT, INDIRECT, INCIDENTAL, SPECIAL, EXEMPLARY, OR
  24:/usr/avr/include/util/atomic.h ****   CONSEQUENTIAL DAMAGES (INCLUDING, BUT NOT LIMITED TO, PROCUREMENT OF
  25:/usr/avr/include/util/atomic.h ****   SUBSTITUTE GOODS OR SERVICES; LOSS OF USE, DATA, OR PROFITS; OR BUSINESS
  26:/usr/avr/include/util/atomic.h ****   INTERRUPTION) HOWEVER CAUSED AND ON ANY THEORY OF LIABILITY, WHETHER IN
  27:/usr/avr/include/util/atomic.h ****   CONTRACT, STRICT LIABILITY, OR TORT (INCLUDING NEGLIGENCE OR OTHERWISE)
  28:/usr/avr/include/util/atomic.h ****   ARISING IN ANY WAY OUT OF THE USE OF THIS SOFTWARE, EVEN IF ADVISED OF THE
  29:/usr/avr/include/util/atomic.h ****   POSSIBILITY OF SUCH DAMAGE. */
  30:/usr/avr/include/util/atomic.h **** 
  31:/usr/avr/include/util/atomic.h **** #ifndef _UTIL_ATOMIC_H_
  32:/usr/avr/include/util/atomic.h **** #define _UTIL_ATOMIC_H_ 1
  33:/usr/avr/include/util/atomic.h **** 
  34:/usr/avr/include/util/atomic.h **** #include <avr/io.h>
  35:/usr/avr/include/util/atomic.h **** #include <avr/interrupt.h>
  36:/usr/avr/include/util/atomic.h **** #include <bits/attribs.h>
  37:/usr/avr/include/util/atomic.h **** 
  38:/usr/avr/include/util/atomic.h **** #if !defined(__DOXYGEN__)
  39:/usr/avr/include/util/atomic.h **** /* Internal helper functions. */
  40:/usr/avr/include/util/atomic.h **** static __ATTR_ALWAYS_INLINE__ uint8_t __iSeiRetVal(void)
  41:/usr/avr/include/util/atomic.h **** {
  42:/usr/avr/include/util/atomic.h ****     sei();
  43:/usr/avr/include/util/atomic.h ****     return 1;
  44:/usr/avr/include/util/atomic.h **** }
  45:/usr/avr/include/util/atomic.h **** 
  46:/usr/avr/include/util/atomic.h **** static __ATTR_ALWAYS_INLINE__ uint8_t __iCliRetVal(void)
 1008               		.loc 4 46 39 view .LVU222
 1009               	.LBB143:
  47:/usr/avr/include/util/atomic.h **** {
  48:/usr/avr/include/util/atomic.h ****     cli();
 1010               		.loc 4 48 5 view .LVU223
 1011               	/* #APP */
 1012               	 ;  48 "/usr/avr/include/util/atomic.h" 1
 1013 0014 F894      		cli ; [[len=1]]
 1014               	 ;  0 "" 2
  49:/usr/avr/include/util/atomic.h ****     return 1;
 1015               		.loc 4 49 5 view .LVU224
 1016               	.LVL65:
 1017               		.loc 4 49 5 is_stmt 0 view .LVU225
GAS LISTING /tmp/ccUMk0PR.s 			page 55


 1018               	/* #NOAPP */
 1019               	.LBE143:
 1020               	.LBE142:
 1021               		.loc 3 872 5 is_stmt 1 discriminator 3 view .LVU226
 873:funsape/peripheral/timer1.hpp ****         aux16 = MCU_TIMER1_COUNTER_REG;
 1022               		.loc 3 873 9 view .LVU227
 1023               		.loc 3 873 15 is_stmt 0 view .LVU228
 1024 0016 8091 8400 		lds r24,132
 1025 001a 9091 8500 		lds r25,132+1
 872:funsape/peripheral/timer1.hpp ****         aux16 = MCU_TIMER1_COUNTER_REG;
 1026               		.loc 3 872 5 is_stmt 1 discriminator 2 view .LVU229
 1027               	.LVL66:
 872:funsape/peripheral/timer1.hpp ****         aux16 = MCU_TIMER1_COUNTER_REG;
 1028               		.loc 3 872 5 discriminator 3 view .LVU230
 1029               	.LBB144:
 1030               	.LBI144:
  50:/usr/avr/include/util/atomic.h **** }
  51:/usr/avr/include/util/atomic.h **** 
  52:/usr/avr/include/util/atomic.h **** static __ATTR_ALWAYS_INLINE__ void __iSeiParam(const uint8_t *__s)
  53:/usr/avr/include/util/atomic.h **** {
  54:/usr/avr/include/util/atomic.h ****     sei();
  55:/usr/avr/include/util/atomic.h ****     (void)__s;
  56:/usr/avr/include/util/atomic.h **** }
  57:/usr/avr/include/util/atomic.h **** 
  58:/usr/avr/include/util/atomic.h **** static __ATTR_ALWAYS_INLINE__ void __iCliParam(const uint8_t *__s)
  59:/usr/avr/include/util/atomic.h **** {
  60:/usr/avr/include/util/atomic.h ****     cli();
  61:/usr/avr/include/util/atomic.h ****     (void)__s;
  62:/usr/avr/include/util/atomic.h **** }
  63:/usr/avr/include/util/atomic.h **** 
  64:/usr/avr/include/util/atomic.h **** static __ATTR_ALWAYS_INLINE__ void __iRestore(const  uint8_t *__s)
 1031               		.loc 4 64 36 view .LVU231
 1032               	.LBB145:
  65:/usr/avr/include/util/atomic.h **** {
  66:/usr/avr/include/util/atomic.h ****     SREG = *__s;
 1033               		.loc 4 66 5 view .LVU232
 1034               		.loc 4 66 10 is_stmt 0 view .LVU233
 1035 001e 2FBF      		out __SREG__,r18
  67:/usr/avr/include/util/atomic.h ****     __asm__ __volatile__ ("" ::: "memory");
 1036               		.loc 4 67 5 is_stmt 1 view .LVU234
 1037               	.LVL67:
 1038               		.loc 4 67 5 is_stmt 0 view .LVU235
 1039               	.LBE145:
 1040               	.LBE144:
 1041               	.LBE141:
 874:funsape/peripheral/timer1.hpp ****     }
 875:funsape/peripheral/timer1.hpp **** 
 876:funsape/peripheral/timer1.hpp ****     return aux16;
 1042               		.loc 3 876 5 is_stmt 1 view .LVU236
 1043               		.loc 3 876 5 is_stmt 0 view .LVU237
 1044               	.LBE140:
 1045               	.LBE139:
 444:main.cpp      ****     ticks = timer1.getCounterValue();;
 1046               		.loc 1 444 38 is_stmt 1 discriminator 2 view .LVU238
 447:main.cpp      ****     if ((TIFR1 & (1 << TOV1)) && (ticks < 65535)) {
 1047               		.loc 1 447 5 view .LVU239
 447:main.cpp      ****     if ((TIFR1 & (1 << TOV1)) && (ticks < 65535)) {
GAS LISTING /tmp/ccUMk0PR.s 			page 56


 1048               		.loc 1 447 31 is_stmt 0 view .LVU240
 1049 0020 B09B      		sbis 0x16,0
 1050 0022 00C0      		rjmp .L23
 447:main.cpp      ****     if ((TIFR1 & (1 << TOV1)) && (ticks < 65535)) {
 1051               		.loc 1 447 31 discriminator 1 view .LVU241
 1052 0024 8F3F      		cpi r24,-1
 1053 0026 9807      		cpc r25,r24
 1054 0028 01F0      		breq .L23
 448:main.cpp      ****         overflows++;
 1055               		.loc 1 448 9 is_stmt 1 view .LVU242
 448:main.cpp      ****         overflows++;
 1056               		.loc 1 448 18 is_stmt 0 view .LVU243
 1057 002a 4F5F      		subi r20,-1
 1058 002c 5F4F      		sbci r21,-1
 1059 002e 6F4F      		sbci r22,-1
 1060 0030 7F4F      		sbci r23,-1
 1061               	.LVL68:
 449:main.cpp      ****         ticks = timer1.getCounterValue(); // Re-read to guarantee accurate timing
 1062               		.loc 1 449 9 is_stmt 1 view .LVU244
 1063               	.LBB146:
 1064               	.LBI146:
 868:funsape/peripheral/timer1.hpp **** {
 1065               		.loc 3 868 18 view .LVU245
 1066               	.LBB147:
 870:funsape/peripheral/timer1.hpp **** 
 1067               		.loc 3 870 5 view .LVU246
 872:funsape/peripheral/timer1.hpp ****         aux16 = MCU_TIMER1_COUNTER_REG;
 1068               		.loc 3 872 5 view .LVU247
 1069               	.LBB148:
 1070 0032 2FB7      		in r18,__SREG__
 1071               	.LVL69:
 1072               	.LBB149:
 1073               	.LBI149:
  46:/usr/avr/include/util/atomic.h **** {
 1074               		.loc 4 46 39 view .LVU248
 1075               	.LBB150:
  48:/usr/avr/include/util/atomic.h ****     return 1;
 1076               		.loc 4 48 5 view .LVU249
 1077               	/* #APP */
 1078               	 ;  48 "/usr/avr/include/util/atomic.h" 1
 1079 0034 F894      		cli ; [[len=1]]
 1080               	 ;  0 "" 2
  49:/usr/avr/include/util/atomic.h **** }
 1081               		.loc 4 49 5 view .LVU250
 1082               	.LVL70:
  49:/usr/avr/include/util/atomic.h **** }
 1083               		.loc 4 49 5 is_stmt 0 view .LVU251
 1084               	/* #NOAPP */
 1085               	.LBE150:
 1086               	.LBE149:
 872:funsape/peripheral/timer1.hpp ****         aux16 = MCU_TIMER1_COUNTER_REG;
 1087               		.loc 3 872 5 is_stmt 1 discriminator 3 view .LVU252
 873:funsape/peripheral/timer1.hpp ****     }
 1088               		.loc 3 873 9 view .LVU253
 873:funsape/peripheral/timer1.hpp ****     }
 1089               		.loc 3 873 15 is_stmt 0 view .LVU254
 1090 0036 8091 8400 		lds r24,132
GAS LISTING /tmp/ccUMk0PR.s 			page 57


 1091 003a 9091 8500 		lds r25,132+1
 1092               	.LVL71:
 872:funsape/peripheral/timer1.hpp ****         aux16 = MCU_TIMER1_COUNTER_REG;
 1093               		.loc 3 872 5 is_stmt 1 discriminator 2 view .LVU255
 872:funsape/peripheral/timer1.hpp ****         aux16 = MCU_TIMER1_COUNTER_REG;
 1094               		.loc 3 872 5 discriminator 3 view .LVU256
 1095               	.LBB151:
 1096               	.LBI151:
  64:/usr/avr/include/util/atomic.h **** {
 1097               		.loc 4 64 36 view .LVU257
 1098               	.LBB152:
  66:/usr/avr/include/util/atomic.h ****     __asm__ __volatile__ ("" ::: "memory");
 1099               		.loc 4 66 5 view .LVU258
  66:/usr/avr/include/util/atomic.h ****     __asm__ __volatile__ ("" ::: "memory");
 1100               		.loc 4 66 10 is_stmt 0 view .LVU259
 1101 003e 2FBF      		out __SREG__,r18
 1102               		.loc 4 67 5 is_stmt 1 view .LVU260
 1103               	.LVL72:
 1104               		.loc 4 67 5 is_stmt 0 view .LVU261
 1105               	.LBE152:
 1106               	.LBE151:
 1107               	.LBE148:
 1108               		.loc 3 876 5 is_stmt 1 view .LVU262
 1109               	.L23:
 1110               		.loc 3 876 5 is_stmt 0 view .LVU263
 1111               	.LBE147:
 1112               	.LBE146:
 451:main.cpp      ****     sei();
 1113               		.loc 1 451 5 is_stmt 1 view .LVU264
 1114               	/* #APP */
 1115               	 ;  451 "main.cpp" 1
 1116 0040 7894      		sei ; [[len=1]]
 1117               	 ;  0 "" 2
 455:main.cpp      ****     return (overflows * 32768) + (ticks >> 1);
 1118               		.loc 1 455 5 view .LVU265
 455:main.cpp      ****     return (overflows * 32768) + (ticks >> 1);
 1119               		.loc 1 455 23 is_stmt 0 view .LVU266
 1120               	/* #NOAPP */
 1121 0042 6695      		lsr r22
 1122 0044 BA01      		movw r22,r20
 1123 0046 4427      		clr r20
 1124 0048 5527      		clr r21
 1125 004a 7795      		ror r23
 1126 004c 6795      		ror r22
 1127 004e 5795      		ror r21
 1128               	.LVL73:
 455:main.cpp      ****     return (overflows * 32768) + (ticks >> 1);
 1129               		.loc 1 455 41 view .LVU267
 1130 0050 9695      		lsr r25
 1131 0052 8795      		ror r24
 1132               	.LVL74:
 456:main.cpp      **** }
 1133               		.loc 1 456 1 view .LVU268
 1134 0054 480F      		add r20,r24
 1135 0056 591F      		adc r21,r25
 1136 0058 611D      		adc r22,__zero_reg__
 1137 005a 711D      		adc r23,__zero_reg__
GAS LISTING /tmp/ccUMk0PR.s 			page 58


 1138 005c CB01      		movw r24,r22
 1139 005e BA01      		movw r22,r20
 1140               	/* epilogue start */
 1141 0060 0895      		ret
 1142               		.cfi_endproc
 1143               	.LFE251:
 1145               		.section	.text._Z10get_millisv,"ax",@progbits
 1146               	.global	_Z10get_millisv
 1148               	_Z10get_millisv:
 1149               	.LFB252:
 458:main.cpp      **** uint32_t get_millis() {
 1150               		.loc 1 458 23 is_stmt 1 view -0
 1151               		.cfi_startproc
 1152               	/* prologue: function */
 1153               	/* frame size = 0 */
 1154               	/* stack size = 0 */
 1155               	.L__stack_usage = 0
 459:main.cpp      ****     uint32_t overflows;
 1156               		.loc 1 459 5 view .LVU270
 460:main.cpp      ****     uint16_t ticks;
 1157               		.loc 1 460 5 view .LVU271
 462:main.cpp      ****     cli();
 1158               		.loc 1 462 5 view .LVU272
 1159               	/* #APP */
 1160               	 ;  462 "main.cpp" 1
 1161 0000 F894      		cli ; [[len=1]]
 1162               	 ;  0 "" 2
 463:main.cpp      ****     overflows = timer1_overflows;
 1163               		.loc 1 463 5 view .LVU273
 463:main.cpp      ****     overflows = timer1_overflows;
 1164               		.loc 1 463 15 is_stmt 0 view .LVU274
 1165               	/* #NOAPP */
 1166 0002 4091 0000 		lds r20,timer1_overflows
 1167 0006 5091 0000 		lds r21,timer1_overflows+1
 1168 000a 6091 0000 		lds r22,timer1_overflows+2
 1169 000e 7091 0000 		lds r23,timer1_overflows+3
 1170               	.LVL75:
 464:main.cpp      ****     ticks = timer1.getCounterValue();
 1171               		.loc 1 464 5 is_stmt 1 view .LVU275
 1172               	.LBB153:
 1173               	.LBI153:
 868:funsape/peripheral/timer1.hpp **** {
 1174               		.loc 3 868 18 view .LVU276
 1175               	.LBB154:
 870:funsape/peripheral/timer1.hpp **** 
 1176               		.loc 3 870 5 view .LVU277
 872:funsape/peripheral/timer1.hpp ****         aux16 = MCU_TIMER1_COUNTER_REG;
 1177               		.loc 3 872 5 view .LVU278
 1178               	.LBB155:
 1179 0012 2FB7      		in r18,__SREG__
 1180               	.LVL76:
 1181               	.LBB156:
 1182               	.LBI156:
  46:/usr/avr/include/util/atomic.h **** {
 1183               		.loc 4 46 39 view .LVU279
 1184               	.LBB157:
  48:/usr/avr/include/util/atomic.h ****     return 1;
GAS LISTING /tmp/ccUMk0PR.s 			page 59


 1185               		.loc 4 48 5 view .LVU280
 1186               	/* #APP */
 1187               	 ;  48 "/usr/avr/include/util/atomic.h" 1
 1188 0014 F894      		cli ; [[len=1]]
 1189               	 ;  0 "" 2
  49:/usr/avr/include/util/atomic.h **** }
 1190               		.loc 4 49 5 view .LVU281
 1191               	.LVL77:
  49:/usr/avr/include/util/atomic.h **** }
 1192               		.loc 4 49 5 is_stmt 0 view .LVU282
 1193               	/* #NOAPP */
 1194               	.LBE157:
 1195               	.LBE156:
 872:funsape/peripheral/timer1.hpp ****         aux16 = MCU_TIMER1_COUNTER_REG;
 1196               		.loc 3 872 5 is_stmt 1 discriminator 3 view .LVU283
 873:funsape/peripheral/timer1.hpp ****     }
 1197               		.loc 3 873 9 view .LVU284
 873:funsape/peripheral/timer1.hpp ****     }
 1198               		.loc 3 873 15 is_stmt 0 view .LVU285
 1199 0016 8091 8400 		lds r24,132
 1200 001a 9091 8500 		lds r25,132+1
 872:funsape/peripheral/timer1.hpp ****         aux16 = MCU_TIMER1_COUNTER_REG;
 1201               		.loc 3 872 5 is_stmt 1 discriminator 2 view .LVU286
 1202               	.LVL78:
 872:funsape/peripheral/timer1.hpp ****         aux16 = MCU_TIMER1_COUNTER_REG;
 1203               		.loc 3 872 5 discriminator 3 view .LVU287
 1204               	.LBB158:
 1205               	.LBI158:
  64:/usr/avr/include/util/atomic.h **** {
 1206               		.loc 4 64 36 view .LVU288
 1207               	.LBB159:
  66:/usr/avr/include/util/atomic.h ****     __asm__ __volatile__ ("" ::: "memory");
 1208               		.loc 4 66 5 view .LVU289
  66:/usr/avr/include/util/atomic.h ****     __asm__ __volatile__ ("" ::: "memory");
 1209               		.loc 4 66 10 is_stmt 0 view .LVU290
 1210 001e 2FBF      		out __SREG__,r18
 1211               		.loc 4 67 5 is_stmt 1 view .LVU291
 1212               	.LVL79:
 1213               		.loc 4 67 5 is_stmt 0 view .LVU292
 1214               	.LBE159:
 1215               	.LBE158:
 1216               	.LBE155:
 1217               		.loc 3 876 5 is_stmt 1 view .LVU293
 1218               		.loc 3 876 5 is_stmt 0 view .LVU294
 1219               	.LBE154:
 1220               	.LBE153:
 465:main.cpp      ****     if ((TIFR1 & (1 << TOV1)) && (ticks < 65535)) {
 1221               		.loc 1 465 5 is_stmt 1 view .LVU295
 465:main.cpp      ****     if ((TIFR1 & (1 << TOV1)) && (ticks < 65535)) {
 1222               		.loc 1 465 31 is_stmt 0 view .LVU296
 1223 0020 B09B      		sbis 0x16,0
 1224 0022 00C0      		rjmp .L28
 465:main.cpp      ****     if ((TIFR1 & (1 << TOV1)) && (ticks < 65535)) {
 1225               		.loc 1 465 31 discriminator 1 view .LVU297
 1226 0024 8F3F      		cpi r24,-1
 1227 0026 9807      		cpc r25,r24
 1228 0028 01F0      		breq .L28
GAS LISTING /tmp/ccUMk0PR.s 			page 60


 466:main.cpp      ****         overflows++;
 1229               		.loc 1 466 9 is_stmt 1 view .LVU298
 466:main.cpp      ****         overflows++;
 1230               		.loc 1 466 18 is_stmt 0 view .LVU299
 1231 002a 4F5F      		subi r20,-1
 1232 002c 5F4F      		sbci r21,-1
 1233 002e 6F4F      		sbci r22,-1
 1234 0030 7F4F      		sbci r23,-1
 1235               	.LVL80:
 467:main.cpp      ****         ticks = timer1.getCounterValue();
 1236               		.loc 1 467 9 is_stmt 1 view .LVU300
 1237               	.LBB160:
 1238               	.LBI160:
 868:funsape/peripheral/timer1.hpp **** {
 1239               		.loc 3 868 18 view .LVU301
 1240               	.LBB161:
 870:funsape/peripheral/timer1.hpp **** 
 1241               		.loc 3 870 5 view .LVU302
 872:funsape/peripheral/timer1.hpp ****         aux16 = MCU_TIMER1_COUNTER_REG;
 1242               		.loc 3 872 5 view .LVU303
 1243               	.LBB162:
 1244 0032 2FB7      		in r18,__SREG__
 1245               	.LVL81:
 1246               	.LBB163:
 1247               	.LBI163:
  46:/usr/avr/include/util/atomic.h **** {
 1248               		.loc 4 46 39 view .LVU304
 1249               	.LBB164:
  48:/usr/avr/include/util/atomic.h ****     return 1;
 1250               		.loc 4 48 5 view .LVU305
 1251               	/* #APP */
 1252               	 ;  48 "/usr/avr/include/util/atomic.h" 1
 1253 0034 F894      		cli ; [[len=1]]
 1254               	 ;  0 "" 2
  49:/usr/avr/include/util/atomic.h **** }
 1255               		.loc 4 49 5 view .LVU306
 1256               	.LVL82:
  49:/usr/avr/include/util/atomic.h **** }
 1257               		.loc 4 49 5 is_stmt 0 view .LVU307
 1258               	/* #NOAPP */
 1259               	.LBE164:
 1260               	.LBE163:
 872:funsape/peripheral/timer1.hpp ****         aux16 = MCU_TIMER1_COUNTER_REG;
 1261               		.loc 3 872 5 is_stmt 1 discriminator 3 view .LVU308
 873:funsape/peripheral/timer1.hpp ****     }
 1262               		.loc 3 873 9 view .LVU309
 873:funsape/peripheral/timer1.hpp ****     }
 1263               		.loc 3 873 15 is_stmt 0 view .LVU310
 1264 0036 8091 8400 		lds r24,132
 1265 003a 9091 8500 		lds r25,132+1
 1266               	.LVL83:
 872:funsape/peripheral/timer1.hpp ****         aux16 = MCU_TIMER1_COUNTER_REG;
 1267               		.loc 3 872 5 is_stmt 1 discriminator 2 view .LVU311
 872:funsape/peripheral/timer1.hpp ****         aux16 = MCU_TIMER1_COUNTER_REG;
 1268               		.loc 3 872 5 discriminator 3 view .LVU312
 1269               	.LBB165:
 1270               	.LBI165:
GAS LISTING /tmp/ccUMk0PR.s 			page 61


  64:/usr/avr/include/util/atomic.h **** {
 1271               		.loc 4 64 36 view .LVU313
 1272               	.LBB166:
  66:/usr/avr/include/util/atomic.h ****     __asm__ __volatile__ ("" ::: "memory");
 1273               		.loc 4 66 5 view .LVU314
  66:/usr/avr/include/util/atomic.h ****     __asm__ __volatile__ ("" ::: "memory");
 1274               		.loc 4 66 10 is_stmt 0 view .LVU315
 1275 003e 2FBF      		out __SREG__,r18
 1276               		.loc 4 67 5 is_stmt 1 view .LVU316
 1277               	.LVL84:
 1278               		.loc 4 67 5 is_stmt 0 view .LVU317
 1279               	.LBE166:
 1280               	.LBE165:
 1281               	.LBE162:
 1282               		.loc 3 876 5 is_stmt 1 view .LVU318
 1283               	.L28:
 1284               		.loc 3 876 5 is_stmt 0 view .LVU319
 1285               	.LBE161:
 1286               	.LBE160:
 469:main.cpp      ****     sei();
 1287               		.loc 1 469 5 is_stmt 1 view .LVU320
 1288               	/* #APP */
 1289               	 ;  469 "main.cpp" 1
 1290 0040 7894      		sei ; [[len=1]]
 1291               	 ;  0 "" 2
 474:main.cpp      ****     return (overflows * 32) + (ticks >> 11);
 1292               		.loc 1 474 5 view .LVU321
 474:main.cpp      ****     return (overflows * 32) + (ticks >> 11);
 1293               		.loc 1 474 23 is_stmt 0 view .LVU322
 1294               	/* #NOAPP */
 1295 0042 7770      		andi r23,7
 1296 0044 7860      		ori r23,8
 1297               		1:
 1298 0046 440F      		lsl r20
 1299 0048 551F      		rol r21
 1300 004a 661F      		rol r22
 1301 004c 771F      		rol r23
 1302 004e 00F4      		brcc 1b
 1303               	.LVL85:
 474:main.cpp      ****     return (overflows * 32) + (ticks >> 11);
 1304               		.loc 1 474 38 view .LVU323
 1305 0050 892F      		mov r24,r25
 1306 0052 9927      		clr r25
 1307 0054 8695      		lsr r24
 1308 0056 8695      		lsr r24
 1309 0058 8695      		lsr r24
 1310               	.LVL86:
 475:main.cpp      **** }
 1311               		.loc 1 475 1 view .LVU324
 1312 005a 480F      		add r20,r24
 1313 005c 591F      		adc r21,r25
 1314 005e 611D      		adc r22,__zero_reg__
 1315 0060 711D      		adc r23,__zero_reg__
 1316 0062 CB01      		movw r24,r22
 1317 0064 BA01      		movw r22,r20
 1318               	/* epilogue start */
 1319 0066 0895      		ret
GAS LISTING /tmp/ccUMk0PR.s 			page 62


 1320               		.cfi_endproc
 1321               	.LFE252:
 1323               		.section	.rodata.main.str1.1,"aMS",@progbits,1
 1324               	.LC0:
 1325 0000 496E 6963 		.string	"Inicializando Atmega"
 1325      6961 6C69 
 1325      7A61 6E64 
 1325      6F20 4174 
 1325      6D65 6761 
 1326               	.LC1:
 1327 0015 5374 6174 		.string	"State: %u  Pitch:  %li  Roll: %li  Yaw: %li Accel_x: %d.%u SENDING: SCROLL: %d\r\n"
 1327      653A 2025 
 1327      7520 2050 
 1327      6974 6368 
 1327      3A20 2025 
 1328               		.section	.text.main,"ax",@progbits
 1329               	.global	main
 1331               	main:
 1332               	.LFB243:
  92:main.cpp      **** int main(){
 1333               		.loc 1 92 11 is_stmt 1 view -0
 1334               		.cfi_startproc
 1335 0000 CDB7      		in r28,__SP_L__
 1336 0002 DEB7      		in r29,__SP_H__
 1337               	.LCFI32:
 1338               		.cfi_def_cfa_register 28
 1339 0004 C056      		subi r28,96
 1340 0006 D040      		sbci r29,0
 1341               	.LCFI33:
 1342               		.cfi_def_cfa_offset 98
 1343 0008 0FB6      		in __tmp_reg__,__SREG__
 1344 000a F894      		cli
 1345 000c DEBF      		out __SP_H__,r29
 1346 000e 0FBE      		out __SREG__,__tmp_reg__
 1347 0010 CDBF      		out __SP_L__,r28
 1348               	/* prologue: function */
 1349               	/* frame size = 96 */
 1350               	/* stack size = 96 */
 1351               	.L__stack_usage = 96
  95:main.cpp      ****     {
 1352               		.loc 1 95 5 view .LVU326
  96:main.cpp      ****     pcint1.setPinMode(Pcint1::Pin::PIN_PCINT8 | Pcint1::Pin::PIN_PCINT9 | Pcint1::Pin::PIN_PCINT10,
 1353               		.loc 1 96 5 view .LVU327
 1354               	.LBB167:
 1355               	.LBI167:
 1356               		.file 5 "funsape/peripheral/pcint1.hpp"
   1:funsape/peripheral/pcint1.hpp **** //!
   2:funsape/peripheral/pcint1.hpp **** //! ****************************************************************************
   3:funsape/peripheral/pcint1.hpp **** //! @file           pcint1.hpp
   4:funsape/peripheral/pcint1.hpp **** //! @author         Leandro Schwarz (bladabuska+funsapeavr8lib@gmail.com)
   5:funsape/peripheral/pcint1.hpp **** //! @brief          Pin Change Interrupt 1 PCINT1 peripheral control.
   6:funsape/peripheral/pcint1.hpp **** //! @details        This file provides peripheral control for the PCINT1
   7:funsape/peripheral/pcint1.hpp **** //!                     peripheral control for the FunSAPE++ AVR8 Library.
   8:funsape/peripheral/pcint1.hpp **** //! @date           2026-04-03
   9:funsape/peripheral/pcint1.hpp **** //! @version        26.04
  10:funsape/peripheral/pcint1.hpp **** //! @copyright      MIT License
  11:funsape/peripheral/pcint1.hpp **** //! @note           No notes at this time.
GAS LISTING /tmp/ccUMk0PR.s 			page 63


  12:funsape/peripheral/pcint1.hpp **** //! @todo           No items in todo list yet.
  13:funsape/peripheral/pcint1.hpp **** //! @bug            No bugs detected yet.
  14:funsape/peripheral/pcint1.hpp **** //! ****************************************************************************
  15:funsape/peripheral/pcint1.hpp **** //! @attention
  16:funsape/peripheral/pcint1.hpp **** //!
  17:funsape/peripheral/pcint1.hpp **** //! MIT License
  18:funsape/peripheral/pcint1.hpp **** //!
  19:funsape/peripheral/pcint1.hpp **** //! Copyright (c) 2026 Leandro Schwarz
  20:funsape/peripheral/pcint1.hpp **** //!
  21:funsape/peripheral/pcint1.hpp **** //! Permission is hereby granted, free of charge, to any person obtaining a copy
  22:funsape/peripheral/pcint1.hpp **** //!     of this software and associated documentation files (the "Software"), to
  23:funsape/peripheral/pcint1.hpp **** //!     deal in the Software without restriction, including without limitation
  24:funsape/peripheral/pcint1.hpp **** //!     the rights to use, copy, modify, merge, publish, distribute, sublicense,
  25:funsape/peripheral/pcint1.hpp **** //!     and/or sell copies of the Software, and to permit persons to whom the
  26:funsape/peripheral/pcint1.hpp **** //!     Software is furnished to do so, subject to the following conditions:
  27:funsape/peripheral/pcint1.hpp **** //!
  28:funsape/peripheral/pcint1.hpp **** //! The above copyright notice and this permission notice shall be included in
  29:funsape/peripheral/pcint1.hpp **** //!     all copies or substantial portions of the Software.
  30:funsape/peripheral/pcint1.hpp **** //!
  31:funsape/peripheral/pcint1.hpp **** //! THE SOFTWARE IS PROVIDED "AS IS", WITHOUT WARRANTY OF ANY KIND, EXPRESS OR
  32:funsape/peripheral/pcint1.hpp **** //!     IMPLIED, INCLUDING BUT NOT LIMITED TO THE WARRANTIES OF MERCHANTABILITY,
  33:funsape/peripheral/pcint1.hpp **** //!     FITNESS FOR A PARTICULAR PURPOSE AND NONINFRINGEMENT. IN NO EVENT SHALL
  34:funsape/peripheral/pcint1.hpp **** //!     THE AUTHORS OR COPYRIGHT HOLDERS BE LIABLE FOR ANY CLAIM, DAMAGES OR
  35:funsape/peripheral/pcint1.hpp **** //!     OTHER LIABILITY, WHETHER IN AN ACTION OF CONTRACT, TORT OR OTHERWISE,
  36:funsape/peripheral/pcint1.hpp **** //!     ARISING FROM, OUT OF OR IN CONNECTION WITH THE SOFTWARE OR THE USE OR
  37:funsape/peripheral/pcint1.hpp **** //!     OTHER DEALINGS IN THE SOFTWARE.
  38:funsape/peripheral/pcint1.hpp **** //!
  39:funsape/peripheral/pcint1.hpp **** //! ****************************************************************************
  40:funsape/peripheral/pcint1.hpp **** //!
  41:funsape/peripheral/pcint1.hpp **** 
  42:funsape/peripheral/pcint1.hpp **** // =============================================================================
  43:funsape/peripheral/pcint1.hpp **** // Include guard (START)
  44:funsape/peripheral/pcint1.hpp **** // =============================================================================
  45:funsape/peripheral/pcint1.hpp **** 
  46:funsape/peripheral/pcint1.hpp **** #ifndef __PCINT1_HPP
  47:funsape/peripheral/pcint1.hpp **** #define __PCINT1_HPP                    2604
  48:funsape/peripheral/pcint1.hpp **** 
  49:funsape/peripheral/pcint1.hpp **** // =============================================================================
  50:funsape/peripheral/pcint1.hpp **** // Dependencies
  51:funsape/peripheral/pcint1.hpp **** // =============================================================================
  52:funsape/peripheral/pcint1.hpp **** 
  53:funsape/peripheral/pcint1.hpp **** //     /////////////////     GLOBAL DEFINITIONS FILE    /////////////////     //
  54:funsape/peripheral/pcint1.hpp **** 
  55:funsape/peripheral/pcint1.hpp **** #include "../globalDefines.hpp"
  56:funsape/peripheral/pcint1.hpp **** #if !defined(__GLOBAL_DEFINES_HPP)
  57:funsape/peripheral/pcint1.hpp **** #   error [pcint1.hpp] Error 1 - Header file (globalDefines.hpp) is missing or corrupted!
  58:funsape/peripheral/pcint1.hpp **** #elif __GLOBAL_DEFINES_HPP != __PCINT1_HPP
  59:funsape/peripheral/pcint1.hpp **** #   error [pcint1.hpp] Error 2 - Build mismatch between file (pcint1.hpp) and global definitions fi
  60:funsape/peripheral/pcint1.hpp **** #endif
  61:funsape/peripheral/pcint1.hpp **** 
  62:funsape/peripheral/pcint1.hpp **** //     //////////////////     LIBRARY DEPENDENCIES     //////////////////     //
  63:funsape/peripheral/pcint1.hpp **** 
  64:funsape/peripheral/pcint1.hpp **** #include "../util/debug.hpp"
  65:funsape/peripheral/pcint1.hpp **** #if !defined(__DEBUG_HPP)
  66:funsape/peripheral/pcint1.hpp **** #   error [pcint1.hpp] Error 1 - Header file (debug.hpp) is missing or corrupted!
  67:funsape/peripheral/pcint1.hpp **** #elif __DEBUG_HPP != __PCINT1_HPP
  68:funsape/peripheral/pcint1.hpp **** #   error [pcint1.hpp] Error 5 - Build mismatch between file (pcint1.hpp) and library dependency (d
GAS LISTING /tmp/ccUMk0PR.s 			page 64


  69:funsape/peripheral/pcint1.hpp **** #endif
  70:funsape/peripheral/pcint1.hpp **** 
  71:funsape/peripheral/pcint1.hpp **** //     ///////////////////     STANDARD C LIBRARY     ///////////////////     //
  72:funsape/peripheral/pcint1.hpp **** 
  73:funsape/peripheral/pcint1.hpp **** // NONE
  74:funsape/peripheral/pcint1.hpp **** 
  75:funsape/peripheral/pcint1.hpp **** //     ////////////////////    AVR LIBRARY FILES     ////////////////////     //
  76:funsape/peripheral/pcint1.hpp **** 
  77:funsape/peripheral/pcint1.hpp **** // NONE
  78:funsape/peripheral/pcint1.hpp **** 
  79:funsape/peripheral/pcint1.hpp **** // =============================================================================
  80:funsape/peripheral/pcint1.hpp **** // Checks peripheral existance
  81:funsape/peripheral/pcint1.hpp **** // =============================================================================
  82:funsape/peripheral/pcint1.hpp **** 
  83:funsape/peripheral/pcint1.hpp **** #if !defined(MCU_PCINT1_PERIPHERAL_EXISTS)
  84:funsape/peripheral/pcint1.hpp **** #   error [pcint1.hpp] Error X - Peripheral PCINT1 is not avalilable in selected device!
  85:funsape/peripheral/pcint1.hpp **** #endif
  86:funsape/peripheral/pcint1.hpp **** 
  87:funsape/peripheral/pcint1.hpp **** // +++++++++++++++++++++++++++++++++++++++++++++++++++++++++++++++++++++++++++++
  88:funsape/peripheral/pcint1.hpp **** // Doxygen: Start main group "Peripherals"
  89:funsape/peripheral/pcint1.hpp **** // +++++++++++++++++++++++++++++++++++++++++++++++++++++++++++++++++++++++++++++
  90:funsape/peripheral/pcint1.hpp **** 
  91:funsape/peripheral/pcint1.hpp **** //!
  92:funsape/peripheral/pcint1.hpp **** //! @addtogroup     Peripherals
  93:funsape/peripheral/pcint1.hpp **** //! @brief          Microcontroller peripherals.
  94:funsape/peripheral/pcint1.hpp **** //! @{
  95:funsape/peripheral/pcint1.hpp **** //!
  96:funsape/peripheral/pcint1.hpp **** 
  97:funsape/peripheral/pcint1.hpp **** // +++++++++++++++++++++++++++++++++++++++++++++++++++++++++++++++++++++++++++++
  98:funsape/peripheral/pcint1.hpp **** // Doxygen: Start subgroup "Pcint1" in "Peripherals"
  99:funsape/peripheral/pcint1.hpp **** // +++++++++++++++++++++++++++++++++++++++++++++++++++++++++++++++++++++++++++++
 100:funsape/peripheral/pcint1.hpp **** 
 101:funsape/peripheral/pcint1.hpp **** //!
 102:funsape/peripheral/pcint1.hpp **** //! @addtogroup     Pcint1
 103:funsape/peripheral/pcint1.hpp **** //! @brief          Pin Change Interrupt 1 (PCINT1) controller module.
 104:funsape/peripheral/pcint1.hpp **** //! @{
 105:funsape/peripheral/pcint1.hpp **** //!
 106:funsape/peripheral/pcint1.hpp **** 
 107:funsape/peripheral/pcint1.hpp **** // =============================================================================
 108:funsape/peripheral/pcint1.hpp **** // Undefining previous definitions
 109:funsape/peripheral/pcint1.hpp **** // =============================================================================
 110:funsape/peripheral/pcint1.hpp **** 
 111:funsape/peripheral/pcint1.hpp **** // NONE
 112:funsape/peripheral/pcint1.hpp **** 
 113:funsape/peripheral/pcint1.hpp **** // =============================================================================
 114:funsape/peripheral/pcint1.hpp **** // Constant definitions
 115:funsape/peripheral/pcint1.hpp **** // =============================================================================
 116:funsape/peripheral/pcint1.hpp **** 
 117:funsape/peripheral/pcint1.hpp **** // NONE
 118:funsape/peripheral/pcint1.hpp **** 
 119:funsape/peripheral/pcint1.hpp **** // =============================================================================
 120:funsape/peripheral/pcint1.hpp **** // New data types
 121:funsape/peripheral/pcint1.hpp **** // =============================================================================
 122:funsape/peripheral/pcint1.hpp **** 
 123:funsape/peripheral/pcint1.hpp **** // NONE
 124:funsape/peripheral/pcint1.hpp **** 
 125:funsape/peripheral/pcint1.hpp **** // =============================================================================
GAS LISTING /tmp/ccUMk0PR.s 			page 65


 126:funsape/peripheral/pcint1.hpp **** // Interrupt callback functions declarations
 127:funsape/peripheral/pcint1.hpp **** // =============================================================================
 128:funsape/peripheral/pcint1.hpp **** 
 129:funsape/peripheral/pcint1.hpp **** //!
 130:funsape/peripheral/pcint1.hpp **** //! @brief          PCINT1 interrupt callback function.
 131:funsape/peripheral/pcint1.hpp **** //! @details        This function is called when the PCINT1 interrupt is treated.
 132:funsape/peripheral/pcint1.hpp **** //!                     It is a weak function that can be overwritten by user
 133:funsape/peripheral/pcint1.hpp **** //!                     code.
 134:funsape/peripheral/pcint1.hpp **** //!
 135:funsape/peripheral/pcint1.hpp **** void pcint1InterruptCallback(void);
 136:funsape/peripheral/pcint1.hpp **** 
 137:funsape/peripheral/pcint1.hpp **** // =============================================================================
 138:funsape/peripheral/pcint1.hpp **** // Public functions declarations
 139:funsape/peripheral/pcint1.hpp **** // =============================================================================
 140:funsape/peripheral/pcint1.hpp **** 
 141:funsape/peripheral/pcint1.hpp **** // NONE
 142:funsape/peripheral/pcint1.hpp **** 
 143:funsape/peripheral/pcint1.hpp **** // =============================================================================
 144:funsape/peripheral/pcint1.hpp **** // Classes
 145:funsape/peripheral/pcint1.hpp **** // =============================================================================
 146:funsape/peripheral/pcint1.hpp **** 
 147:funsape/peripheral/pcint1.hpp **** //!
 148:funsape/peripheral/pcint1.hpp **** //! @brief          Pcint1 class
 149:funsape/peripheral/pcint1.hpp **** //! @details        This class manages the Pin Change Interrupt 1 (PCINT1)
 150:funsape/peripheral/pcint1.hpp **** //!                     peripheral.
 151:funsape/peripheral/pcint1.hpp **** //! @attention      The @ref pcint1 instance of this class is already defined as
 152:funsape/peripheral/pcint1.hpp **** //!                     a singleton global object.
 153:funsape/peripheral/pcint1.hpp **** //!
 154:funsape/peripheral/pcint1.hpp **** class Pcint1
 155:funsape/peripheral/pcint1.hpp **** {
 156:funsape/peripheral/pcint1.hpp ****     // -------------------------------------------------------------------------
 157:funsape/peripheral/pcint1.hpp ****     // New data types ----------------------------------------------------------
 158:funsape/peripheral/pcint1.hpp **** 
 159:funsape/peripheral/pcint1.hpp **** public:
 160:funsape/peripheral/pcint1.hpp ****     //!
 161:funsape/peripheral/pcint1.hpp ****     //! @enum       Pin
 162:funsape/peripheral/pcint1.hpp ****     //! @brief      Trigger Mode Pins enumeration.
 163:funsape/peripheral/pcint1.hpp ****     //! @details    Trigger Mode Pins associated with PCINT1.
 164:funsape/peripheral/pcint1.hpp ****     //! @warning    The value associate with the symbolic names may change
 165:funsape/peripheral/pcint1.hpp ****     //!                 between builds and might not reflect the register/bits
 166:funsape/peripheral/pcint1.hpp ****     //!                 real values. In order to ensure compatibility between
 167:funsape/peripheral/pcint1.hpp ****     //!                 builds, always refer to the SYMBOLIC NAME, instead of
 168:funsape/peripheral/pcint1.hpp ****     //!                 its VALUE.
 169:funsape/peripheral/pcint1.hpp ****     //!
 170:funsape/peripheral/pcint1.hpp ****     enum class Pin : uint8_t {
 171:funsape/peripheral/pcint1.hpp **** #if defined(MCU_PCINT1_PIN_8_EXISTS)
 172:funsape/peripheral/pcint1.hpp ****         PIN_PCINT8          = (1 << 0), //!< Enables trigger by PCINT8 pin.
 173:funsape/peripheral/pcint1.hpp **** #endif
 174:funsape/peripheral/pcint1.hpp **** #if defined(MCU_PCINT1_PIN_9_EXISTS)
 175:funsape/peripheral/pcint1.hpp ****         PIN_PCINT9          = (1 << 1), //!< Enables trigger by PCINT9 pin.
 176:funsape/peripheral/pcint1.hpp **** #endif
 177:funsape/peripheral/pcint1.hpp **** #if defined(MCU_PCINT1_PIN_10_EXISTS)
 178:funsape/peripheral/pcint1.hpp ****         PIN_PCINT10         = (1 << 2), //!< Enables trigger by PCINT10 pin.
 179:funsape/peripheral/pcint1.hpp **** #endif
 180:funsape/peripheral/pcint1.hpp **** #if defined(MCU_PCINT1_PIN_11_EXISTS)
 181:funsape/peripheral/pcint1.hpp ****         PIN_PCINT11         = (1 << 3), //!< Enables trigger by PCINT11 pin.
 182:funsape/peripheral/pcint1.hpp **** #endif
GAS LISTING /tmp/ccUMk0PR.s 			page 66


 183:funsape/peripheral/pcint1.hpp **** #if defined(MCU_PCINT1_PIN_12_EXISTS)
 184:funsape/peripheral/pcint1.hpp ****         PIN_PCINT12         = (1 << 4), //!< Enables trigger by PCINT12 pin.
 185:funsape/peripheral/pcint1.hpp **** #endif
 186:funsape/peripheral/pcint1.hpp **** #if defined(MCU_PCINT1_PIN_13_EXISTS)
 187:funsape/peripheral/pcint1.hpp ****         PIN_PCINT13         = (1 << 5), //!< Enables trigger by PCINT13 pin.
 188:funsape/peripheral/pcint1.hpp **** #endif
 189:funsape/peripheral/pcint1.hpp **** #if defined(MCU_PCINT1_PIN_14_EXISTS)
 190:funsape/peripheral/pcint1.hpp ****         PIN_PCINT14         = (1 << 6), //!< Enables trigger by PCINT14 pin.
 191:funsape/peripheral/pcint1.hpp **** #endif
 192:funsape/peripheral/pcint1.hpp **** #if defined(MCU_PCINT1_PIN_15_EXISTS)
 193:funsape/peripheral/pcint1.hpp ****         PIN_PCINT15         = (1 << 7), //!< Enables trigger by PCINT15 pin.
 194:funsape/peripheral/pcint1.hpp **** #endif
 195:funsape/peripheral/pcint1.hpp ****     };
 196:funsape/peripheral/pcint1.hpp **** 
 197:funsape/peripheral/pcint1.hpp **** private:
 198:funsape/peripheral/pcint1.hpp ****     // NONE
 199:funsape/peripheral/pcint1.hpp **** 
 200:funsape/peripheral/pcint1.hpp **** protected:
 201:funsape/peripheral/pcint1.hpp ****     // NONE
 202:funsape/peripheral/pcint1.hpp **** 
 203:funsape/peripheral/pcint1.hpp ****     // -------------------------------------------------------------------------
 204:funsape/peripheral/pcint1.hpp ****     // Constructors ------------------------------------------------------------
 205:funsape/peripheral/pcint1.hpp **** 
 206:funsape/peripheral/pcint1.hpp **** public:
 207:funsape/peripheral/pcint1.hpp ****     //!
 208:funsape/peripheral/pcint1.hpp ****     //! @brief      Pcint1 class destructor.
 209:funsape/peripheral/pcint1.hpp ****     //! @details    Destroys a Pcint1 object.
 210:funsape/peripheral/pcint1.hpp ****     //!
 211:funsape/peripheral/pcint1.hpp ****     ~Pcint1(
 212:funsape/peripheral/pcint1.hpp ****             void
 213:funsape/peripheral/pcint1.hpp ****     );
 214:funsape/peripheral/pcint1.hpp **** 
 215:funsape/peripheral/pcint1.hpp **** private:
 216:funsape/peripheral/pcint1.hpp ****     //!
 217:funsape/peripheral/pcint1.hpp ****     //! @brief      Pcint1 class constructor.
 218:funsape/peripheral/pcint1.hpp ****     //! @details    Creates a Pcint1 object. The object is loaded with the
 219:funsape/peripheral/pcint1.hpp ****     //!                 default register values (no pins enabled). The object
 220:funsape/peripheral/pcint1.hpp ****     //!                 still must be initialized before use
 221:funsape/peripheral/pcint1.hpp ****     //! @see        init(const Pcint1::Pin enablePins_p).
 222:funsape/peripheral/pcint1.hpp ****     //! @par Error codes:
 223:funsape/peripheral/pcint1.hpp ****     //!
 224:funsape/peripheral/pcint1.hpp ****     //! | Error code       | Meaning                           |
 225:funsape/peripheral/pcint1.hpp ****     //! |: ----------------|: ---------------------------------|
 226:funsape/peripheral/pcint1.hpp ****     //! | @ref Error::NONE | Success. No errors were detected. |
 227:funsape/peripheral/pcint1.hpp ****     //!
 228:funsape/peripheral/pcint1.hpp ****     Pcint1(
 229:funsape/peripheral/pcint1.hpp ****             void
 230:funsape/peripheral/pcint1.hpp ****     );
 231:funsape/peripheral/pcint1.hpp **** 
 232:funsape/peripheral/pcint1.hpp ****     //!
 233:funsape/peripheral/pcint1.hpp ****     //! @brief      Copy constructor (deleted).
 234:funsape/peripheral/pcint1.hpp ****     //! @details    Deleted to prevent cloning the Singleton instance.
 235:funsape/peripheral/pcint1.hpp ****     //!
 236:funsape/peripheral/pcint1.hpp ****     Pcint1(
 237:funsape/peripheral/pcint1.hpp ****             const Pcint1 &
 238:funsape/peripheral/pcint1.hpp ****     ) = delete;
 239:funsape/peripheral/pcint1.hpp **** 
GAS LISTING /tmp/ccUMk0PR.s 			page 67


 240:funsape/peripheral/pcint1.hpp ****     //!
 241:funsape/peripheral/pcint1.hpp ****     //! @brief      Copy assignment operator (deleted).
 242:funsape/peripheral/pcint1.hpp ****     //! @details    Deleted to prevent assignment of the Singleton instance.
 243:funsape/peripheral/pcint1.hpp ****     //!
 244:funsape/peripheral/pcint1.hpp ****     Pcint1 &operator=(
 245:funsape/peripheral/pcint1.hpp ****             const Pcint1 &
 246:funsape/peripheral/pcint1.hpp ****     ) = delete;
 247:funsape/peripheral/pcint1.hpp **** 
 248:funsape/peripheral/pcint1.hpp **** protected:
 249:funsape/peripheral/pcint1.hpp ****     // NONE
 250:funsape/peripheral/pcint1.hpp **** 
 251:funsape/peripheral/pcint1.hpp ****     // -------------------------------------------------------------------------
 252:funsape/peripheral/pcint1.hpp ****     // Methods - Inherited methods ---------------------------------------------
 253:funsape/peripheral/pcint1.hpp **** 
 254:funsape/peripheral/pcint1.hpp **** public:
 255:funsape/peripheral/pcint1.hpp ****     // NONE
 256:funsape/peripheral/pcint1.hpp **** 
 257:funsape/peripheral/pcint1.hpp **** protected:
 258:funsape/peripheral/pcint1.hpp ****     // NONE
 259:funsape/peripheral/pcint1.hpp **** 
 260:funsape/peripheral/pcint1.hpp ****     // -------------------------------------------------------------------------
 261:funsape/peripheral/pcint1.hpp ****     // Methods - class own methods ---------------------------------------------
 262:funsape/peripheral/pcint1.hpp **** 
 263:funsape/peripheral/pcint1.hpp **** public:
 264:funsape/peripheral/pcint1.hpp ****     //     ///////////////////    SINGLETON ACCESS    ///////////////////     //
 265:funsape/peripheral/pcint1.hpp **** 
 266:funsape/peripheral/pcint1.hpp ****     //!
 267:funsape/peripheral/pcint1.hpp ****     //! @brief      Returns the Singleton instance.
 268:funsape/peripheral/pcint1.hpp ****     //! @details    Provides global access to the single instance of the Pcint1
 269:funsape/peripheral/pcint1.hpp ****     //!                 class. This method is tightly inlined to ensure
 270:funsape/peripheral/pcint1.hpp ****     //!                 zero-overhead during execution.
 271:funsape/peripheral/pcint1.hpp ****     //! @return     Reference to the single Pcint1 instance.
 272:funsape/peripheral/pcint1.hpp ****     //!
 273:funsape/peripheral/pcint1.hpp ****     static inlined Pcint1 &getInstance(
 274:funsape/peripheral/pcint1.hpp ****             void
 275:funsape/peripheral/pcint1.hpp ****     );
 276:funsape/peripheral/pcint1.hpp **** 
 277:funsape/peripheral/pcint1.hpp ****     //     /////////////////     CONTROL AND STATUS     /////////////////     //
 278:funsape/peripheral/pcint1.hpp **** 
 279:funsape/peripheral/pcint1.hpp ****     //!
 280:funsape/peripheral/pcint1.hpp ****     //! @brief      Disables edge detection on pins.
 281:funsape/peripheral/pcint1.hpp ****     //! @details    Disables edge detection on pins to trigger the interrupt
 282:funsape/peripheral/pcint1.hpp ****     //!                 when a logical change event is detected.
 283:funsape/peripheral/pcint1.hpp ****     //! @param[in]  disablePins_p       Disable interrupt pins. Multiple pins
 284:funsape/peripheral/pcint1.hpp ****     //!                                     can be disabled at the same time by
 285:funsape/peripheral/pcint1.hpp ****     //!                                     using bitwise-OR (|) operations.
 286:funsape/peripheral/pcint1.hpp ****     //! @retval     true                if success.
 287:funsape/peripheral/pcint1.hpp ****     //! @retval     false               if an error occurred. Retrieve the error
 288:funsape/peripheral/pcint1.hpp ****     //!                                     by calling
 289:funsape/peripheral/pcint1.hpp ****     //!                                 @ref Pcint1::getLastError().
 290:funsape/peripheral/pcint1.hpp ****     //! @par Error codes:
 291:funsape/peripheral/pcint1.hpp ****     //!
 292:funsape/peripheral/pcint1.hpp ****     //! | Error code       | Meaning                          |
 293:funsape/peripheral/pcint1.hpp ****     //! |:-----------------|:---------------------------------|
 294:funsape/peripheral/pcint1.hpp ****     //! | @ref Error::NONE | Success. No erros were detected. |
 295:funsape/peripheral/pcint1.hpp ****     //!
 296:funsape/peripheral/pcint1.hpp ****     bool_t disablePins(
GAS LISTING /tmp/ccUMk0PR.s 			page 68


 297:funsape/peripheral/pcint1.hpp ****             const Pcint1::Pin disablePins_p
 298:funsape/peripheral/pcint1.hpp ****     );
 299:funsape/peripheral/pcint1.hpp **** 
 300:funsape/peripheral/pcint1.hpp ****     //!
 301:funsape/peripheral/pcint1.hpp ****     //! @brief      Enables edge detection on pins.
 302:funsape/peripheral/pcint1.hpp ****     //! @details    Configure pins that trigger the interrupt when a logical
 303:funsape/peripheral/pcint1.hpp ****     //!                 change event is detected.
 304:funsape/peripheral/pcint1.hpp ****     //! @param[in]  enablePins_p        Enable interrupt pins. Multiple pins can
 305:funsape/peripheral/pcint1.hpp ****     //!                                     be enabled at the same time by using
 306:funsape/peripheral/pcint1.hpp ****     //!                                     bitwise-OR (|) operations.
 307:funsape/peripheral/pcint1.hpp ****     //! @retval     true                if success.
 308:funsape/peripheral/pcint1.hpp ****     //! @retval     false               if an error occurred. Retrieve the error
 309:funsape/peripheral/pcint1.hpp ****     //!                                     by calling
 310:funsape/peripheral/pcint1.hpp ****     //!                                     @ref Pcint1::getLastError().
 311:funsape/peripheral/pcint1.hpp ****     //! @par Error codes:
 312:funsape/peripheral/pcint1.hpp ****     //!
 313:funsape/peripheral/pcint1.hpp ****     //! | Error code       | Meaning                          |
 314:funsape/peripheral/pcint1.hpp ****     //! |:-----------------|:---------------------------------|
 315:funsape/peripheral/pcint1.hpp ****     //! | @ref Error::NONE | Success. No erros were detected. |
 316:funsape/peripheral/pcint1.hpp ****     //!
 317:funsape/peripheral/pcint1.hpp ****     bool_t enablePins(
 318:funsape/peripheral/pcint1.hpp ****             const Pcint1::Pin enablePins_p
 319:funsape/peripheral/pcint1.hpp ****     );
 320:funsape/peripheral/pcint1.hpp **** 
 321:funsape/peripheral/pcint1.hpp ****     //!
 322:funsape/peripheral/pcint1.hpp ****     //! @brief      Returns the last error.
 323:funsape/peripheral/pcint1.hpp ****     //! @details    Returns the last error.
 324:funsape/peripheral/pcint1.hpp ****     //! @return     @ref Error          Error status of the last operation.
 325:funsape/peripheral/pcint1.hpp ****     //!
 326:funsape/peripheral/pcint1.hpp ****     Error inlined getLastError(
 327:funsape/peripheral/pcint1.hpp ****             void
 328:funsape/peripheral/pcint1.hpp ****     ) const;
 329:funsape/peripheral/pcint1.hpp **** 
 330:funsape/peripheral/pcint1.hpp ****     //!
 331:funsape/peripheral/pcint1.hpp ****     //! @brief      Initializes the Pcint1 module.
 332:funsape/peripheral/pcint1.hpp ****     //! @details    Initializes the PCINT1 module. The function also enables the
 333:funsape/peripheral/pcint1.hpp ****     //!                 pins that trigger the interrupt. The default parameter
 334:funsape/peripheral/pcint1.hpp ****     //!                 has no pins enabled.
 335:funsape/peripheral/pcint1.hpp ****     //! @param[in]  enablePins_p        Enable interrupt pins. Multiples pins
 336:funsape/peripheral/pcint1.hpp ****     //!                                     can be enabled at the same time by
 337:funsape/peripheral/pcint1.hpp ****     //!                                     using bitwise-OR (|) operations.
 338:funsape/peripheral/pcint1.hpp ****     //! @retval     true                if success.
 339:funsape/peripheral/pcint1.hpp ****     //! @retval     false               if an error occurred. Retrieve the error
 340:funsape/peripheral/pcint1.hpp ****     //!                                     by calling
 341:funsape/peripheral/pcint1.hpp ****     //!                                     @ref Pcint1::getLastError().
 342:funsape/peripheral/pcint1.hpp ****     //! @par Error codes:
 343:funsape/peripheral/pcint1.hpp ****     //!
 344:funsape/peripheral/pcint1.hpp ****     //! | Error code                    | Meaning                              |
 345:funsape/peripheral/pcint1.hpp ****     //! |:------------------------------|:-------------------------------------|
 346:funsape/peripheral/pcint1.hpp ****     //! | @ref Error::NONE              | Success. No erros were detected.     |
 347:funsape/peripheral/pcint1.hpp ****     //!
 348:funsape/peripheral/pcint1.hpp ****     bool_t init(
 349:funsape/peripheral/pcint1.hpp ****             const Pcint1::Pin enablePins_p = (Pcint1::Pin)0
 350:funsape/peripheral/pcint1.hpp ****     );
 351:funsape/peripheral/pcint1.hpp **** 
 352:funsape/peripheral/pcint1.hpp ****     //!
 353:funsape/peripheral/pcint1.hpp ****     //! @brief      Sets the @c PCINT1 pin operation mode.
GAS LISTING /tmp/ccUMk0PR.s 			page 69


 354:funsape/peripheral/pcint1.hpp ****     //! @details    This function sets the @c PCINT1 GPIO pin operation mode to
 355:funsape/peripheral/pcint1.hpp ****     //!                 the given @a mode_p.
 356:funsape/peripheral/pcint1.hpp ****     //! @param[in]  pinList_p           List of pins to be configured. Multiple
 357:funsape/peripheral/pcint1.hpp ****     //!                                     pins can be configured at the same
 358:funsape/peripheral/pcint1.hpp ****     //!                                     time by using bitwise-OR operations.
 359:funsape/peripheral/pcint1.hpp ****     //! @param[in]  mode_p              @ref Pcint1::PinMode operation mode.
 360:funsape/peripheral/pcint1.hpp ****     //! @retval     true                if success.
 361:funsape/peripheral/pcint1.hpp ****     //! @retval     false               if an error occurred. Retrieve the error
 362:funsape/peripheral/pcint1.hpp ****     //!                                     by calling
 363:funsape/peripheral/pcint1.hpp ****     //!                                     @ref Pcint1::getLastError().
 364:funsape/peripheral/pcint1.hpp ****     //! @par Error codes:
 365:funsape/peripheral/pcint1.hpp ****     //!
 366:funsape/peripheral/pcint1.hpp ****     //! | Error code       | Meaning                          |
 367:funsape/peripheral/pcint1.hpp ****     //! |:-----------------|:---------------------------------|
 368:funsape/peripheral/pcint1.hpp ****     //! | @ref Error::NONE | Success. No erros were detected. |
 369:funsape/peripheral/pcint1.hpp ****     //!
 370:funsape/peripheral/pcint1.hpp ****     bool_t setPinMode(
 371:funsape/peripheral/pcint1.hpp ****             const Pcint1::Pin pinList_p,
 372:funsape/peripheral/pcint1.hpp ****             const PinMode mode_p
 373:funsape/peripheral/pcint1.hpp ****     );
 374:funsape/peripheral/pcint1.hpp **** 
 375:funsape/peripheral/pcint1.hpp ****     //     //////////////////////    INTERRUPT     //////////////////////     //
 376:funsape/peripheral/pcint1.hpp **** 
 377:funsape/peripheral/pcint1.hpp ****     //!
 378:funsape/peripheral/pcint1.hpp ****     //! @brief      Activates interrupt.
 379:funsape/peripheral/pcint1.hpp ****     //! @details    Activates interrupt. If an interrupt request is pending, an
 380:funsape/peripheral/pcint1.hpp ****     //!                 interrupt will be triggered when activated. In most
 381:funsape/peripheral/pcint1.hpp ****     //!                 applications, it is recommended to ignore an old
 382:funsape/peripheral/pcint1.hpp ****     //!                 interrupt request prior to activate the interrupt. This
 383:funsape/peripheral/pcint1.hpp ****     //!                 can be done by calling
 384:funsape/peripheral/pcint1.hpp ****     //!                 @ref Pcint1::clearInterruptRequest() immediately before
 385:funsape/peripheral/pcint1.hpp ****     //!                 activating the interrupt.
 386:funsape/peripheral/pcint1.hpp ****     //!
 387:funsape/peripheral/pcint1.hpp ****     void inlined activateInterrupt(
 388:funsape/peripheral/pcint1.hpp ****             void
 389:funsape/peripheral/pcint1.hpp ****     ) const;
 390:funsape/peripheral/pcint1.hpp **** 
 391:funsape/peripheral/pcint1.hpp ****     //!
 392:funsape/peripheral/pcint1.hpp ****     //! @brief      Clears interrupt flag.
 393:funsape/peripheral/pcint1.hpp ****     //! @details    Clears interrupt flag, dismissing any pending interrupt
 394:funsape/peripheral/pcint1.hpp ****     //!                 request.
 395:funsape/peripheral/pcint1.hpp ****     //!
 396:funsape/peripheral/pcint1.hpp ****     void inlined clearInterruptRequest(
 397:funsape/peripheral/pcint1.hpp ****             void
 398:funsape/peripheral/pcint1.hpp ****     ) const;
 399:funsape/peripheral/pcint1.hpp **** 
 400:funsape/peripheral/pcint1.hpp ****     //!
 401:funsape/peripheral/pcint1.hpp ****     //! @brief      Deactivates interrupt.
 402:funsape/peripheral/pcint1.hpp ****     //! @details    Deactivates interrupt. This function does not clears any
 403:funsape/peripheral/pcint1.hpp ****     //!                 pending interrupt request.
 404:funsape/peripheral/pcint1.hpp ****     //!
 405:funsape/peripheral/pcint1.hpp ****     void inlined deactivateInterrupt(
 406:funsape/peripheral/pcint1.hpp ****             void
 407:funsape/peripheral/pcint1.hpp ****     ) const;
 408:funsape/peripheral/pcint1.hpp **** 
 409:funsape/peripheral/pcint1.hpp **** private:
 410:funsape/peripheral/pcint1.hpp ****     // NONE
GAS LISTING /tmp/ccUMk0PR.s 			page 70


 411:funsape/peripheral/pcint1.hpp **** 
 412:funsape/peripheral/pcint1.hpp **** protected:
 413:funsape/peripheral/pcint1.hpp ****     // NONE
 414:funsape/peripheral/pcint1.hpp **** 
 415:funsape/peripheral/pcint1.hpp ****     // -------------------------------------------------------------------------
 416:funsape/peripheral/pcint1.hpp ****     // Properties --------------------------------------------------------------
 417:funsape/peripheral/pcint1.hpp **** 
 418:funsape/peripheral/pcint1.hpp **** private:
 419:funsape/peripheral/pcint1.hpp ****     //     /////////////////    SINGLETON INSTANCE     //////////////////     //
 420:funsape/peripheral/pcint1.hpp ****     static Pcint1   _instance;                  //|< Static private instance
 421:funsape/peripheral/pcint1.hpp **** 
 422:funsape/peripheral/pcint1.hpp ****     //     /////////////////    CONTROL AND STATUS     //////////////////     //
 423:funsape/peripheral/pcint1.hpp ****     bool_t          _isInitialized      : 1;    //!< Initialization flag.
 424:funsape/peripheral/pcint1.hpp ****     Error           _lastError;                 //!< Last error.
 425:funsape/peripheral/pcint1.hpp **** 
 426:funsape/peripheral/pcint1.hpp ****     //     ////////////////////   CONFIGURATION     /////////////////////     //
 427:funsape/peripheral/pcint1.hpp ****     Pcint1::Pin     _enabledPins;               //!< Sense mode trigger.
 428:funsape/peripheral/pcint1.hpp **** 
 429:funsape/peripheral/pcint1.hpp **** protected:
 430:funsape/peripheral/pcint1.hpp ****     // NONE
 431:funsape/peripheral/pcint1.hpp **** 
 432:funsape/peripheral/pcint1.hpp **** }; // class Pcint1
 433:funsape/peripheral/pcint1.hpp **** 
 434:funsape/peripheral/pcint1.hpp **** // =============================================================================
 435:funsape/peripheral/pcint1.hpp **** // Inlined class functions
 436:funsape/peripheral/pcint1.hpp **** // =============================================================================
 437:funsape/peripheral/pcint1.hpp **** 
 438:funsape/peripheral/pcint1.hpp **** //!
 439:funsape/peripheral/pcint1.hpp **** //! @cond
 440:funsape/peripheral/pcint1.hpp **** //!
 441:funsape/peripheral/pcint1.hpp **** 
 442:funsape/peripheral/pcint1.hpp **** //     /////////////////////    SINGLETON ACCESS    /////////////////////     //
 443:funsape/peripheral/pcint1.hpp **** 
 444:funsape/peripheral/pcint1.hpp **** Pcint1 inlined &Pcint1::getInstance(void)
 1357               		.loc 5 444 17 view .LVU328
 445:funsape/peripheral/pcint1.hpp **** {
 446:funsape/peripheral/pcint1.hpp ****     return Pcint1::_instance;
 1358               		.loc 5 446 5 view .LVU329
 1359               	.LBE167:
  96:main.cpp      ****     pcint1.setPinMode(Pcint1::Pin::PIN_PCINT8 | Pcint1::Pin::PIN_PCINT9 | Pcint1::Pin::PIN_PCINT10,
 1360               		.loc 1 96 22 is_stmt 0 discriminator 3 view .LVU330
 1361 0012 41E0      		ldi r20,lo8(1)
 1362 0014 67E0      		ldi r22,lo8(7)
 1363 0016 80E0      		ldi r24,lo8(_ZN6Pcint19_instanceE)
 1364 0018 90E0      		ldi r25,hi8(_ZN6Pcint19_instanceE)
 1365 001a 0E94 0000 		call _ZN6Pcint110setPinModeENS_3PinE7PinMode
 1366               	.LVL87:
  97:main.cpp      ****     pcint1.init(Pcint1::Pin::PIN_PCINT8 | Pcint1::Pin::PIN_PCINT9 | Pcint1::Pin::PIN_PCINT10);
 1367               		.loc 1 97 5 is_stmt 1 view .LVU331
 1368               	.LBB168:
 1369               	.LBI168:
 444:funsape/peripheral/pcint1.hpp **** {
 1370               		.loc 5 444 17 view .LVU332
 1371               		.loc 5 446 5 view .LVU333
 1372               	.LBE168:
  97:main.cpp      ****     pcint1.init(Pcint1::Pin::PIN_PCINT8 | Pcint1::Pin::PIN_PCINT9 | Pcint1::Pin::PIN_PCINT10);
 1373               		.loc 1 97 16 is_stmt 0 discriminator 3 view .LVU334
GAS LISTING /tmp/ccUMk0PR.s 			page 71


 1374 001e 67E0      		ldi r22,lo8(7)
 1375 0020 80E0      		ldi r24,lo8(_ZN6Pcint19_instanceE)
 1376 0022 90E0      		ldi r25,hi8(_ZN6Pcint19_instanceE)
 1377 0024 0E94 0000 		call _ZN6Pcint14initENS_3PinE
 1378               	.LVL88:
  98:main.cpp      ****     pcint1.clearInterruptRequest();
 1379               		.loc 1 98 5 is_stmt 1 view .LVU335
 1380               	.LBB169:
 1381               	.LBI169:
 447:funsape/peripheral/pcint1.hpp **** }
 448:funsape/peripheral/pcint1.hpp **** 
 449:funsape/peripheral/pcint1.hpp **** //     /////////////////     CONTROL AND STATUS     /////////////////     //
 450:funsape/peripheral/pcint1.hpp **** 
 451:funsape/peripheral/pcint1.hpp **** Error inlined Pcint1::getLastError(void) const
 452:funsape/peripheral/pcint1.hpp **** {
 453:funsape/peripheral/pcint1.hpp ****     // Returns last error
 454:funsape/peripheral/pcint1.hpp ****     return this->_lastError;
 455:funsape/peripheral/pcint1.hpp **** }
 456:funsape/peripheral/pcint1.hpp **** 
 457:funsape/peripheral/pcint1.hpp **** //     ////////////////////////    INTERRUPT     ////////////////////////     //
 458:funsape/peripheral/pcint1.hpp **** 
 459:funsape/peripheral/pcint1.hpp **** void inlined Pcint1::activateInterrupt(void) const
 460:funsape/peripheral/pcint1.hpp **** {
 461:funsape/peripheral/pcint1.hpp ****     setBit(MCU_PCINT1_ENABLE_REG, MCU_PCINT1_ENABLE_BIT_POS);
 462:funsape/peripheral/pcint1.hpp ****     return;
 463:funsape/peripheral/pcint1.hpp **** }
 464:funsape/peripheral/pcint1.hpp **** 
 465:funsape/peripheral/pcint1.hpp **** void inlined Pcint1::clearInterruptRequest(void) const
 1382               		.loc 5 465 14 view .LVU336
 1383               	.LBB170:
 466:funsape/peripheral/pcint1.hpp **** {
 467:funsape/peripheral/pcint1.hpp ****     setBit(MCU_PCINT1_FLAG_REG, MCU_PCINT1_FLAG_BIT);
 1384               		.loc 5 467 5 view .LVU337
 1385               		.loc 5 467 5 view .LVU338
 1386 0028 8BB3      		in r24,0x1b
 1387 002a 8260      		ori r24,lo8(2)
 1388 002c 8BBB      		out 0x1b,r24
 1389               		.loc 5 467 5 view .LVU339
 468:funsape/peripheral/pcint1.hpp ****     return;
 1390               		.loc 5 468 5 view .LVU340
 1391               	.LVL89:
 1392               		.loc 5 468 5 is_stmt 0 view .LVU341
 1393               	.LBE170:
 1394               	.LBE169:
  99:main.cpp      ****     pcint1.activateInterrupt();
 1395               		.loc 1 99 5 is_stmt 1 view .LVU342
 1396               	.LBB171:
 1397               	.LBI171:
 459:funsape/peripheral/pcint1.hpp **** {
 1398               		.loc 5 459 14 view .LVU343
 1399               	.LBB172:
 461:funsape/peripheral/pcint1.hpp ****     return;
 1400               		.loc 5 461 5 view .LVU344
 461:funsape/peripheral/pcint1.hpp ****     return;
 1401               		.loc 5 461 5 view .LVU345
 1402 002e E8E6      		ldi r30,lo8(104)
 1403 0030 F0E0      		ldi r31,0
GAS LISTING /tmp/ccUMk0PR.s 			page 72


 1404 0032 8081      		ld r24,Z
 1405 0034 8260      		ori r24,lo8(2)
 1406 0036 8083      		st Z,r24
 461:funsape/peripheral/pcint1.hpp ****     return;
 1407               		.loc 5 461 5 view .LVU346
 462:funsape/peripheral/pcint1.hpp **** }
 1408               		.loc 5 462 5 view .LVU347
 1409               	.LVL90:
 462:funsape/peripheral/pcint1.hpp **** }
 1410               		.loc 5 462 5 is_stmt 0 view .LVU348
 1411               	.LBE172:
 1412               	.LBE171:
 103:main.cpp      ****     {
 1413               		.loc 1 103 5 is_stmt 1 view .LVU349
 107:main.cpp      ****     buttons.init(&PORTC, PinIndex::P0, 3);
 1414               		.loc 1 107 5 view .LVU350
 107:main.cpp      ****     buttons.init(&PORTC, PinIndex::P0, 3);
 1415               		.loc 1 107 17 is_stmt 0 view .LVU351
 1416 0038 23E0      		ldi r18,lo8(3)
 1417 003a 40E0      		ldi r20,0
 1418 003c 68E2      		ldi r22,lo8(40)
 1419 003e 70E0      		ldi r23,0
 1420 0040 80E0      		ldi r24,lo8(buttons)
 1421 0042 90E0      		ldi r25,hi8(buttons)
 1422 0044 0E94 0000 		call _ZN7GpioBus4initEPVh8PinIndexh
 1423               	.LVL91:
 108:main.cpp      ****     buttons.setMode(PinMode::INPUT_PULLED_UP);
 1424               		.loc 1 108 5 is_stmt 1 view .LVU352
 108:main.cpp      ****     buttons.setMode(PinMode::INPUT_PULLED_UP);
 1425               		.loc 1 108 20 is_stmt 0 view .LVU353
 1426 0048 61E0      		ldi r22,lo8(1)
 1427 004a 80E0      		ldi r24,lo8(buttons)
 1428 004c 90E0      		ldi r25,hi8(buttons)
 1429 004e 0E94 0000 		call _ZN7GpioBus7setModeE7PinMode
 1430               	.LVL92:
 110:main.cpp      ****     slave_select_esp.init(&PORTB, PinIndex::P1);
 1431               		.loc 1 110 5 is_stmt 1 view .LVU354
 110:main.cpp      ****     slave_select_esp.init(&PORTB, PinIndex::P1);
 1432               		.loc 1 110 26 is_stmt 0 view .LVU355
 1433 0052 41E0      		ldi r20,lo8(1)
 1434 0054 65E2      		ldi r22,lo8(37)
 1435 0056 70E0      		ldi r23,0
 1436 0058 80E0      		ldi r24,lo8(slave_select_esp)
 1437 005a 90E0      		ldi r25,hi8(slave_select_esp)
 1438 005c 0E94 0000 		call _ZN7GpioPin4initEPVh8PinIndex
 1439               	.LVL93:
 111:main.cpp      ****     slave_select_esp.setMode(PinMode::OUTPUT_PUSH_PULL);
 1440               		.loc 1 111 5 is_stmt 1 view .LVU356
 111:main.cpp      ****     slave_select_esp.setMode(PinMode::OUTPUT_PUSH_PULL);
 1441               		.loc 1 111 29 is_stmt 0 view .LVU357
 1442 0060 62E0      		ldi r22,lo8(2)
 1443 0062 80E0      		ldi r24,lo8(slave_select_esp)
 1444 0064 90E0      		ldi r25,hi8(slave_select_esp)
 1445 0066 0E94 0000 		call _ZN7GpioPin7setModeE7PinMode
 1446               	.LVL94:
 115:main.cpp      ****     {
 1447               		.loc 1 115 5 is_stmt 1 view .LVU358
GAS LISTING /tmp/ccUMk0PR.s 			page 73


 117:main.cpp      ****     clrBit(PRR, PRSPI);
 1448               		.loc 1 117 5 view .LVU359
 117:main.cpp      ****     clrBit(PRR, PRSPI);
 1449               		.loc 1 117 5 view .LVU360
 1450 006a E4E6      		ldi r30,lo8(100)
 1451 006c F0E0      		ldi r31,0
 1452 006e 8081      		ld r24,Z
 1453 0070 8B7F      		andi r24,lo8(-5)
 1454 0072 8083      		st Z,r24
 117:main.cpp      ****     clrBit(PRR, PRSPI);
 1455               		.loc 1 117 5 view .LVU361
 119:main.cpp      ****     setBit(DDRB, (uint8_t)PinIndex::P2); // SS
 1456               		.loc 1 119 5 view .LVU362
 119:main.cpp      ****     setBit(DDRB, (uint8_t)PinIndex::P2); // SS
 1457               		.loc 1 119 5 view .LVU363
 1458 0074 84B1      		in r24,0x4
 1459 0076 8460      		ori r24,lo8(4)
 1460 0078 84B9      		out 0x4,r24
 119:main.cpp      ****     setBit(DDRB, (uint8_t)PinIndex::P2); // SS
 1461               		.loc 1 119 5 view .LVU364
 120:main.cpp      ****     setBit(DDRB, (uint8_t)PinIndex::P3); // MOSI
 1462               		.loc 1 120 5 view .LVU365
 120:main.cpp      ****     setBit(DDRB, (uint8_t)PinIndex::P3); // MOSI
 1463               		.loc 1 120 5 view .LVU366
 1464 007a 84B1      		in r24,0x4
 1465 007c 8860      		ori r24,lo8(8)
 1466 007e 84B9      		out 0x4,r24
 120:main.cpp      ****     setBit(DDRB, (uint8_t)PinIndex::P3); // MOSI
 1467               		.loc 1 120 5 view .LVU367
 121:main.cpp      ****     clrBit(DDRB, (uint8_t)PinIndex::P4); // MISO
 1468               		.loc 1 121 5 view .LVU368
 121:main.cpp      ****     clrBit(DDRB, (uint8_t)PinIndex::P4); // MISO
 1469               		.loc 1 121 5 view .LVU369
 1470 0080 84B1      		in r24,0x4
 1471 0082 8F7E      		andi r24,lo8(-17)
 1472 0084 84B9      		out 0x4,r24
 121:main.cpp      ****     clrBit(DDRB, (uint8_t)PinIndex::P4); // MISO
 1473               		.loc 1 121 5 view .LVU370
 122:main.cpp      ****     setBit(DDRB, (uint8_t)PinIndex::P5); // SCK
 1474               		.loc 1 122 5 view .LVU371
 122:main.cpp      ****     setBit(DDRB, (uint8_t)PinIndex::P5); // SCK
 1475               		.loc 1 122 5 view .LVU372
 1476 0086 84B1      		in r24,0x4
 1477 0088 8062      		ori r24,lo8(32)
 1478 008a 84B9      		out 0x4,r24
 122:main.cpp      ****     setBit(DDRB, (uint8_t)PinIndex::P5); // SCK
 1479               		.loc 1 122 5 view .LVU373
 133:main.cpp      ****     SPCR = 0b1010001;
 1480               		.loc 1 133 5 view .LVU374
 133:main.cpp      ****     SPCR = 0b1010001;
 1481               		.loc 1 133 10 is_stmt 0 view .LVU375
 1482 008c 81E5      		ldi r24,lo8(81)
 1483 008e 8CBD      		out 0x2c,r24
 137:main.cpp      ****     {
 1484               		.loc 1 137 5 is_stmt 1 view .LVU376
 138:main.cpp      ****     timer0.init(Timer0::Mode::NORMAL, //Colocamos quantos ciclos pra chegar na interrupção
 1485               		.loc 1 138 5 view .LVU377
GAS LISTING /tmp/ccUMk0PR.s 			page 74


 1486               	.LBB173:
 1487               	.LBI173:
 1488               		.file 6 "funsape/peripheral/timer0.hpp"
   1:funsape/peripheral/timer0.hpp **** //!
   2:funsape/peripheral/timer0.hpp **** //! ****************************************************************************
   3:funsape/peripheral/timer0.hpp **** //! @file           timer0.hpp
   4:funsape/peripheral/timer0.hpp **** //! @author         Leandro Schwarz (bladabuska+funsapeavr8lib@gmail.com)
   5:funsape/peripheral/timer0.hpp **** //! @brief          TIMER0 peripheral control.
   6:funsape/peripheral/timer0.hpp **** //! @details        This file provides peripheral control for the TIMER0 module
   7:funsape/peripheral/timer0.hpp **** //!                     for the FunSAPE++ AVR8 Library.
   8:funsape/peripheral/timer0.hpp **** //! @date           2026-04-03
   9:funsape/peripheral/timer0.hpp **** //! @version        26.04
  10:funsape/peripheral/timer0.hpp **** //! @copyright      MIT License
  11:funsape/peripheral/timer0.hpp **** //! @note           No notes at this time.
  12:funsape/peripheral/timer0.hpp **** //! @todo           No items in todo list yet.
  13:funsape/peripheral/timer0.hpp **** //! @bug            No bugs detected yet.
  14:funsape/peripheral/timer0.hpp **** //! ****************************************************************************
  15:funsape/peripheral/timer0.hpp **** //! @attention
  16:funsape/peripheral/timer0.hpp **** //!
  17:funsape/peripheral/timer0.hpp **** //! MIT License
  18:funsape/peripheral/timer0.hpp **** //!
  19:funsape/peripheral/timer0.hpp **** //! Copyright (c) 2026 Leandro Schwarz
  20:funsape/peripheral/timer0.hpp **** //!
  21:funsape/peripheral/timer0.hpp **** //! Permission is hereby granted, free of charge, to any person obtaining a copy
  22:funsape/peripheral/timer0.hpp **** //!     of this software and associated documentation files (the "Software"), to
  23:funsape/peripheral/timer0.hpp **** //!     deal in the Software without restriction, including without limitation
  24:funsape/peripheral/timer0.hpp **** //!     the rights to use, copy, modify, merge, publish, distribute, sublicense,
  25:funsape/peripheral/timer0.hpp **** //!     and/or sell copies of the Software, and to permit persons to whom the
  26:funsape/peripheral/timer0.hpp **** //!     Software is furnished to do so, subject to the following conditions:
  27:funsape/peripheral/timer0.hpp **** //!
  28:funsape/peripheral/timer0.hpp **** //! The above copyright notice and this permission notice shall be included in
  29:funsape/peripheral/timer0.hpp **** //!     all copies or substantial portions of the Software.
  30:funsape/peripheral/timer0.hpp **** //!
  31:funsape/peripheral/timer0.hpp **** //! THE SOFTWARE IS PROVIDED "AS IS", WITHOUT WARRANTY OF ANY KIND, EXPRESS OR
  32:funsape/peripheral/timer0.hpp **** //!     IMPLIED, INCLUDING BUT NOT LIMITED TO THE WARRANTIES OF MERCHANTABILITY,
  33:funsape/peripheral/timer0.hpp **** //!     FITNESS FOR A PARTICULAR PURPOSE AND NONINFRINGEMENT. IN NO EVENT SHALL
  34:funsape/peripheral/timer0.hpp **** //!     THE AUTHORS OR COPYRIGHT HOLDERS BE LIABLE FOR ANY CLAIM, DAMAGES OR
  35:funsape/peripheral/timer0.hpp **** //!     OTHER LIABILITY, WHETHER IN AN ACTION OF CONTRACT, TORT OR OTHERWISE,
  36:funsape/peripheral/timer0.hpp **** //!     ARISING FROM, OUT OF OR IN CONNECTION WITH THE SOFTWARE OR THE USE OR
  37:funsape/peripheral/timer0.hpp **** //!     OTHER DEALINGS IN THE SOFTWARE.
  38:funsape/peripheral/timer0.hpp **** //!
  39:funsape/peripheral/timer0.hpp **** //! ****************************************************************************
  40:funsape/peripheral/timer0.hpp **** //!
  41:funsape/peripheral/timer0.hpp **** 
  42:funsape/peripheral/timer0.hpp **** // =============================================================================
  43:funsape/peripheral/timer0.hpp **** // Include guard (START)
  44:funsape/peripheral/timer0.hpp **** // =============================================================================
  45:funsape/peripheral/timer0.hpp **** 
  46:funsape/peripheral/timer0.hpp **** #ifndef __TIMER0_HPP
  47:funsape/peripheral/timer0.hpp **** #define __TIMER0_HPP                    2604
  48:funsape/peripheral/timer0.hpp **** 
  49:funsape/peripheral/timer0.hpp **** // =============================================================================
  50:funsape/peripheral/timer0.hpp **** // Dependencies
  51:funsape/peripheral/timer0.hpp **** // =============================================================================
  52:funsape/peripheral/timer0.hpp **** 
  53:funsape/peripheral/timer0.hpp **** //     /////////////////     GLOBAL DEFINITIONS FILE    /////////////////     //
  54:funsape/peripheral/timer0.hpp **** 
GAS LISTING /tmp/ccUMk0PR.s 			page 75


  55:funsape/peripheral/timer0.hpp **** #include "../globalDefines.hpp"
  56:funsape/peripheral/timer0.hpp **** #if !defined(__GLOBAL_DEFINES_HPP)
  57:funsape/peripheral/timer0.hpp **** #   error [timer0.hpp] Error 1 - Header file (globalDefines.hpp) is missing or corrupted!
  58:funsape/peripheral/timer0.hpp **** #elif __GLOBAL_DEFINES_HPP != __TIMER0_HPP
  59:funsape/peripheral/timer0.hpp **** #   error [timer0.hpp] Error 2 - Build mismatch between file (timer0.hpp) and global definitions fi
  60:funsape/peripheral/timer0.hpp **** #endif
  61:funsape/peripheral/timer0.hpp **** 
  62:funsape/peripheral/timer0.hpp **** //     //////////////////     LIBRARY DEPENDENCIES     //////////////////     //
  63:funsape/peripheral/timer0.hpp **** 
  64:funsape/peripheral/timer0.hpp **** #include "../util/debug.hpp"
  65:funsape/peripheral/timer0.hpp **** #if !defined(__DEBUG_HPP)
  66:funsape/peripheral/timer0.hpp **** #   error [timer0.hpp] Error 1 - Header file (debug.hpp) is missing or corrupted!
  67:funsape/peripheral/timer0.hpp **** #elif __DEBUG_HPP != __TIMER0_HPP
  68:funsape/peripheral/timer0.hpp **** #   error [timer0.hpp] Error 5 - Build mismatch between file (timer0.hpp) and library dependency (d
  69:funsape/peripheral/timer0.hpp **** #endif
  70:funsape/peripheral/timer0.hpp **** 
  71:funsape/peripheral/timer0.hpp **** //     ///////////////////     STANDARD C LIBRARY     ///////////////////     //
  72:funsape/peripheral/timer0.hpp **** 
  73:funsape/peripheral/timer0.hpp **** // NONE
  74:funsape/peripheral/timer0.hpp **** 
  75:funsape/peripheral/timer0.hpp **** //     ////////////////////    AVR LIBRARY FILES     ////////////////////     //
  76:funsape/peripheral/timer0.hpp **** 
  77:funsape/peripheral/timer0.hpp **** // NONE
  78:funsape/peripheral/timer0.hpp **** 
  79:funsape/peripheral/timer0.hpp **** // =============================================================================
  80:funsape/peripheral/timer0.hpp **** // Checks peripheral existance
  81:funsape/peripheral/timer0.hpp **** // =============================================================================
  82:funsape/peripheral/timer0.hpp **** 
  83:funsape/peripheral/timer0.hpp **** #if !defined(MCU_TIMER0_PERIPHERAL_EXISTS)
  84:funsape/peripheral/timer0.hpp **** #   error [timer0.hpp] Error X - Peripheral TIMER0 is not avalilable in selected device!
  85:funsape/peripheral/timer0.hpp **** #endif
  86:funsape/peripheral/timer0.hpp **** 
  87:funsape/peripheral/timer0.hpp **** // +++++++++++++++++++++++++++++++++++++++++++++++++++++++++++++++++++++++++++++
  88:funsape/peripheral/timer0.hpp **** // Doxygen: Start main group "Peripherals"
  89:funsape/peripheral/timer0.hpp **** // +++++++++++++++++++++++++++++++++++++++++++++++++++++++++++++++++++++++++++++
  90:funsape/peripheral/timer0.hpp **** 
  91:funsape/peripheral/timer0.hpp **** //!
  92:funsape/peripheral/timer0.hpp **** //! @addtogroup     Peripherals
  93:funsape/peripheral/timer0.hpp **** //! @brief          Microcontroller peripherals.
  94:funsape/peripheral/timer0.hpp **** //! @{
  95:funsape/peripheral/timer0.hpp **** //!
  96:funsape/peripheral/timer0.hpp **** 
  97:funsape/peripheral/timer0.hpp **** // +++++++++++++++++++++++++++++++++++++++++++++++++++++++++++++++++++++++++++++
  98:funsape/peripheral/timer0.hpp **** // Doxygen: Start subgroup "Timer0" in "Peripherals"
  99:funsape/peripheral/timer0.hpp **** // +++++++++++++++++++++++++++++++++++++++++++++++++++++++++++++++++++++++++++++
 100:funsape/peripheral/timer0.hpp **** 
 101:funsape/peripheral/timer0.hpp **** //!
 102:funsape/peripheral/timer0.hpp **** //! @addtogroup     Timer0
 103:funsape/peripheral/timer0.hpp **** //! @brief          Timer/Counter 0 (TIMER0) controller module.
 104:funsape/peripheral/timer0.hpp **** //! @{
 105:funsape/peripheral/timer0.hpp **** //!
 106:funsape/peripheral/timer0.hpp **** 
 107:funsape/peripheral/timer0.hpp **** // =============================================================================
 108:funsape/peripheral/timer0.hpp **** // Undefining previous definitions
 109:funsape/peripheral/timer0.hpp **** // =============================================================================
 110:funsape/peripheral/timer0.hpp **** 
 111:funsape/peripheral/timer0.hpp **** // NONE
GAS LISTING /tmp/ccUMk0PR.s 			page 76


 112:funsape/peripheral/timer0.hpp **** 
 113:funsape/peripheral/timer0.hpp **** // =============================================================================
 114:funsape/peripheral/timer0.hpp **** // Constant definitions
 115:funsape/peripheral/timer0.hpp **** // =============================================================================
 116:funsape/peripheral/timer0.hpp **** 
 117:funsape/peripheral/timer0.hpp **** // NONE
 118:funsape/peripheral/timer0.hpp **** 
 119:funsape/peripheral/timer0.hpp **** // =============================================================================
 120:funsape/peripheral/timer0.hpp **** // New data types
 121:funsape/peripheral/timer0.hpp **** // =============================================================================
 122:funsape/peripheral/timer0.hpp **** 
 123:funsape/peripheral/timer0.hpp **** // NONE
 124:funsape/peripheral/timer0.hpp **** 
 125:funsape/peripheral/timer0.hpp **** // =============================================================================
 126:funsape/peripheral/timer0.hpp **** // Interrupt callback functions declarations
 127:funsape/peripheral/timer0.hpp **** // =============================================================================
 128:funsape/peripheral/timer0.hpp **** 
 129:funsape/peripheral/timer0.hpp **** //!
 130:funsape/peripheral/timer0.hpp **** //! @brief          TIMER0 compare A match interrupt callback function.
 131:funsape/peripheral/timer0.hpp **** //! @details        This function is called when the TIMER0 compare A match
 132:funsape/peripheral/timer0.hpp **** //!                     interrupt is treated. It is a weak function that can be
 133:funsape/peripheral/timer0.hpp **** //!                     overwritten by user code.
 134:funsape/peripheral/timer0.hpp **** //!
 135:funsape/peripheral/timer0.hpp **** void timer0CompareACallback(void);
 136:funsape/peripheral/timer0.hpp **** 
 137:funsape/peripheral/timer0.hpp **** //!
 138:funsape/peripheral/timer0.hpp **** //! @brief          TIMER0 compare B match interrupt callback function.
 139:funsape/peripheral/timer0.hpp **** //! @details        This function is called when the TIMER0 compare B match
 140:funsape/peripheral/timer0.hpp **** //!                     interrupt is treated. It is a weak function that can be
 141:funsape/peripheral/timer0.hpp **** //!                     overwritten by user code.
 142:funsape/peripheral/timer0.hpp **** //!
 143:funsape/peripheral/timer0.hpp **** void timer0CompareBCallback(void);
 144:funsape/peripheral/timer0.hpp **** 
 145:funsape/peripheral/timer0.hpp **** //!
 146:funsape/peripheral/timer0.hpp **** //! @brief          TIMER0 overflow interrupt callback function.
 147:funsape/peripheral/timer0.hpp **** //! @details        This function is called when the TIMER0 overflow interrupt
 148:funsape/peripheral/timer0.hpp **** //!                     is treated. It is a weak function that can be
 149:funsape/peripheral/timer0.hpp **** //!                     overwritten by user code.
 150:funsape/peripheral/timer0.hpp **** //!
 151:funsape/peripheral/timer0.hpp **** void timer0OverflowCallback(void);
 152:funsape/peripheral/timer0.hpp **** 
 153:funsape/peripheral/timer0.hpp **** // =============================================================================
 154:funsape/peripheral/timer0.hpp **** // Public functions declarations
 155:funsape/peripheral/timer0.hpp **** // =============================================================================
 156:funsape/peripheral/timer0.hpp **** 
 157:funsape/peripheral/timer0.hpp **** // NONE
 158:funsape/peripheral/timer0.hpp **** 
 159:funsape/peripheral/timer0.hpp **** // =============================================================================
 160:funsape/peripheral/timer0.hpp **** // Classes
 161:funsape/peripheral/timer0.hpp **** // =============================================================================
 162:funsape/peripheral/timer0.hpp **** 
 163:funsape/peripheral/timer0.hpp **** //!
 164:funsape/peripheral/timer0.hpp **** //! @brief          Timer0 class
 165:funsape/peripheral/timer0.hpp **** //! @details        This class manages the Timer/Counter 0 (TIMER0) peripheral.
 166:funsape/peripheral/timer0.hpp **** //! @attention      The @ref timer0 instance of this class is already defined as
 167:funsape/peripheral/timer0.hpp **** //!                     a singleton global object.
 168:funsape/peripheral/timer0.hpp **** //!
GAS LISTING /tmp/ccUMk0PR.s 			page 77


 169:funsape/peripheral/timer0.hpp **** class Timer0
 170:funsape/peripheral/timer0.hpp **** {
 171:funsape/peripheral/timer0.hpp ****     // -------------------------------------------------------------------------
 172:funsape/peripheral/timer0.hpp ****     // New data types ----------------------------------------------------------
 173:funsape/peripheral/timer0.hpp **** 
 174:funsape/peripheral/timer0.hpp **** public:
 175:funsape/peripheral/timer0.hpp ****     //!
 176:funsape/peripheral/timer0.hpp ****     //! @enum       ClockSource
 177:funsape/peripheral/timer0.hpp ****     //! @brief      Clock prescaler enumeration.
 178:funsape/peripheral/timer0.hpp ****     //! @details    Clock prescaler options associated with TIMER0.
 179:funsape/peripheral/timer0.hpp ****     //! @warning    The value associate with the symbolic names may change
 180:funsape/peripheral/timer0.hpp ****     //!                 between builds and might not reflect the register/bits
 181:funsape/peripheral/timer0.hpp ****     //!                 real values. In order to ensure compatibility between
 182:funsape/peripheral/timer0.hpp ****     //!                 builds, always refer to the SYMBOLIC NAME, instead of
 183:funsape/peripheral/timer0.hpp ****     //!                 its VALUE.
 184:funsape/peripheral/timer0.hpp ****     //!
 185:funsape/peripheral/timer0.hpp ****     enum class ClockSource : uint8_t {
 186:funsape/peripheral/timer0.hpp ****         DISABLED = 0,           //!< Disables clock, timer is off.
 187:funsape/peripheral/timer0.hpp ****         PRESCALER_1 = 1,        //!< Disables prescaler, timer clock frequency will be equal to CPU
 188:funsape/peripheral/timer0.hpp ****         PRESCALER_8 = 2,        //!< Timer clock frequency will be CPU clock divided by 8.
 189:funsape/peripheral/timer0.hpp ****         PRESCALER_64 = 3,       //!< Timer clock frequency will be CPU clock divided by 64.
 190:funsape/peripheral/timer0.hpp ****         PRESCALER_256 = 4,      //!< Timer clock frequency will be CPU clock divided by 256.
 191:funsape/peripheral/timer0.hpp ****         PRESCALER_1024 = 5,     //!< Timer clock frequency will be CPU clock divided by 1024.
 192:funsape/peripheral/timer0.hpp ****         T0_FALLING_EDGE = 6,    //!< Timer clock will be based on the falling edge of a signal plac
 193:funsape/peripheral/timer0.hpp ****         T0_RISING_EDGE = 7      //!< Timer clock will be based on the rising edge of a signal place
 194:funsape/peripheral/timer0.hpp ****     };
 195:funsape/peripheral/timer0.hpp **** 
 196:funsape/peripheral/timer0.hpp ****     //!
 197:funsape/peripheral/timer0.hpp ****     //! @enum       Mode
 198:funsape/peripheral/timer0.hpp ****     //! @brief      Operation mode enumeration.
 199:funsape/peripheral/timer0.hpp ****     //! @details    Operation mode options associated with TIMER0.
 200:funsape/peripheral/timer0.hpp ****     //! @warning    The value associate with the symbolic names may change
 201:funsape/peripheral/timer0.hpp ****     //!                 between builds and might not reflect the register/bits
 202:funsape/peripheral/timer0.hpp ****     //!                 real values. In order to ensure compatibility between
 203:funsape/peripheral/timer0.hpp ****     //!                 builds, always refer to the SYMBOLIC NAME, instead of
 204:funsape/peripheral/timer0.hpp ****     //!                 its VALUE.
 205:funsape/peripheral/timer0.hpp ****     //!
 206:funsape/peripheral/timer0.hpp ****     enum class Mode : uint8_t {
 207:funsape/peripheral/timer0.hpp ****         NORMAL = 0,                     //!< Normal mode (direction = UP / TOP = 0xFF / UPDATE OCR0
 208:funsape/peripheral/timer0.hpp ****         PWM_PHASE_CORRECTED_MAX = 1,    //!< PWM mode with phase correction (direction = DOWN then 
 209:funsape/peripheral/timer0.hpp ****         CTC_OCRA = 2,                   //!< CTC mode (direction = UP / TOP = MCU_TIMER0_OCR0A_REG 
 210:funsape/peripheral/timer0.hpp ****         PWM_FAST_MAX = 3,               //!< PWM mode fast (direction = UP / TOP = 0xFF / UPDATE OC
 211:funsape/peripheral/timer0.hpp ****         // RESERVED                     = 4,
 212:funsape/peripheral/timer0.hpp ****         PWM_PHASE_CORRECTED_OCRA = 5,   //!< PWM mode fast (direction = UP / TOP = MCU_TIMER0_OCR0A
 213:funsape/peripheral/timer0.hpp ****         // RESERVED                     = 6,
 214:funsape/peripheral/timer0.hpp ****         PWM_FAST_OCRA = 7,              //!< PWM mode with phase correction (direction = DOWN then 
 215:funsape/peripheral/timer0.hpp ****     };
 216:funsape/peripheral/timer0.hpp **** 
 217:funsape/peripheral/timer0.hpp ****     //!
 218:funsape/peripheral/timer0.hpp ****     //! @enum       OutputMode
 219:funsape/peripheral/timer0.hpp ****     //! @brief      Output mode enumeration.
 220:funsape/peripheral/timer0.hpp ****     //! @details    Output Mmode options associated with TIMER0.
 221:funsape/peripheral/timer0.hpp ****     //! @warning    The value associate with the symbolic names may change
 222:funsape/peripheral/timer0.hpp ****     //!                 between builds and might not reflect the register/bits
 223:funsape/peripheral/timer0.hpp ****     //!                 real values. In order to ensure compatibility between
 224:funsape/peripheral/timer0.hpp ****     //!                 builds, always refer to the SYMBOLIC NAME, instead of
 225:funsape/peripheral/timer0.hpp ****     //!                 its VALUE.
GAS LISTING /tmp/ccUMk0PR.s 			page 78


 226:funsape/peripheral/timer0.hpp ****     //!
 227:funsape/peripheral/timer0.hpp ****     enum class OutputMode : uint8_t {
 228:funsape/peripheral/timer0.hpp ****         NORMAL_GPIO_OPERATION = 0,      //!< OC0x disabled. Normal GPIO port operation.
 229:funsape/peripheral/timer0.hpp ****         TOGGLE_ON_COMPARE = 1,          //!< OC0x will toggle on OCR0x compare match.
 230:funsape/peripheral/timer0.hpp ****         CLEAR_ON_COMPARE = 2,           //!< OC0x will clear on OCR0x compare match.
 231:funsape/peripheral/timer0.hpp ****         SET_ON_COMPARE = 3,             //!< OC0x will set on OCR0x compare match.
 232:funsape/peripheral/timer0.hpp ****         NON_INVERTING_MODE = 2,         //!< OC0x will produce a non-inverted PWM signal.
 233:funsape/peripheral/timer0.hpp ****         INVERTING_MODE = 3,             //!< OC0x will produce a inverted PWM signal.
 234:funsape/peripheral/timer0.hpp ****     };
 235:funsape/peripheral/timer0.hpp **** 
 236:funsape/peripheral/timer0.hpp **** private:
 237:funsape/peripheral/timer0.hpp ****     // NONE
 238:funsape/peripheral/timer0.hpp **** 
 239:funsape/peripheral/timer0.hpp **** protected:
 240:funsape/peripheral/timer0.hpp ****     // NONE
 241:funsape/peripheral/timer0.hpp **** 
 242:funsape/peripheral/timer0.hpp **** // -------------------------------------------------------------------------
 243:funsape/peripheral/timer0.hpp **** // Constructors ------------------------------------------------------------
 244:funsape/peripheral/timer0.hpp **** 
 245:funsape/peripheral/timer0.hpp **** public:
 246:funsape/peripheral/timer0.hpp ****     //!
 247:funsape/peripheral/timer0.hpp ****     //! @brief      Timer0 class destructor.
 248:funsape/peripheral/timer0.hpp ****     //! @details    Destroys a Timer0 object.
 249:funsape/peripheral/timer0.hpp ****     //!
 250:funsape/peripheral/timer0.hpp ****     ~Timer0(
 251:funsape/peripheral/timer0.hpp ****             void
 252:funsape/peripheral/timer0.hpp ****     );
 253:funsape/peripheral/timer0.hpp **** 
 254:funsape/peripheral/timer0.hpp **** private:
 255:funsape/peripheral/timer0.hpp ****     //!
 256:funsape/peripheral/timer0.hpp ****     //! @brief      Timer0 class constructor.
 257:funsape/peripheral/timer0.hpp ****     //! @details    Creates a Timer0 object. The object is loaded with the
 258:funsape/peripheral/timer0.hpp ****     //!                 default register values:
 259:funsape/peripheral/timer0.hpp ****     //!                 @ref Timer0::ClockSource::DISABLED and
 260:funsape/peripheral/timer0.hpp ****     //!                 @ref Timer0::Mode::NORMAL. The object still must be
 261:funsape/peripheral/timer0.hpp ****     //!                 initialized before use.
 262:funsape/peripheral/timer0.hpp ****     //! @see        init(const Timer0::Mode mode_p, const Timer0::ClockSource clockSource_p).
 263:funsape/peripheral/timer0.hpp ****     //! @par Error codes:
 264:funsape/peripheral/timer0.hpp ****     //!
 265:funsape/peripheral/timer0.hpp ****     //! | Error code       | Meaning                           |
 266:funsape/peripheral/timer0.hpp ****     //! |: ----------------|: ---------------------------------|
 267:funsape/peripheral/timer0.hpp ****     //! | @ref Error::NONE | Success. No errors were detected. |
 268:funsape/peripheral/timer0.hpp ****     //!
 269:funsape/peripheral/timer0.hpp ****     Timer0(
 270:funsape/peripheral/timer0.hpp ****             void
 271:funsape/peripheral/timer0.hpp ****     );
 272:funsape/peripheral/timer0.hpp **** 
 273:funsape/peripheral/timer0.hpp ****     //!
 274:funsape/peripheral/timer0.hpp ****     //! @brief      Copy constructor (deleted).
 275:funsape/peripheral/timer0.hpp ****     //! @details    Deleted to prevent cloning the Singleton instance.
 276:funsape/peripheral/timer0.hpp ****     //!
 277:funsape/peripheral/timer0.hpp ****     Timer0(
 278:funsape/peripheral/timer0.hpp ****             const Timer0 &
 279:funsape/peripheral/timer0.hpp ****     ) = delete;
 280:funsape/peripheral/timer0.hpp **** 
 281:funsape/peripheral/timer0.hpp ****     //!
 282:funsape/peripheral/timer0.hpp ****     //! @brief      Copy assignment operator (deleted).
GAS LISTING /tmp/ccUMk0PR.s 			page 79


 283:funsape/peripheral/timer0.hpp ****     //! @details    Deleted to prevent assignment of the Singleton instance.
 284:funsape/peripheral/timer0.hpp ****     //!
 285:funsape/peripheral/timer0.hpp ****     Timer0 &operator=(
 286:funsape/peripheral/timer0.hpp ****             const Timer0 &
 287:funsape/peripheral/timer0.hpp ****     ) = delete;
 288:funsape/peripheral/timer0.hpp **** 
 289:funsape/peripheral/timer0.hpp **** protected:
 290:funsape/peripheral/timer0.hpp ****     // NONE
 291:funsape/peripheral/timer0.hpp **** 
 292:funsape/peripheral/timer0.hpp ****     // -------------------------------------------------------------------------
 293:funsape/peripheral/timer0.hpp ****     // Methods - Inherited methods ---------------------------------------------
 294:funsape/peripheral/timer0.hpp **** 
 295:funsape/peripheral/timer0.hpp **** public:
 296:funsape/peripheral/timer0.hpp ****     // NONE
 297:funsape/peripheral/timer0.hpp **** 
 298:funsape/peripheral/timer0.hpp **** protected:
 299:funsape/peripheral/timer0.hpp ****     // NONE
 300:funsape/peripheral/timer0.hpp **** 
 301:funsape/peripheral/timer0.hpp ****     // -------------------------------------------------------------------------
 302:funsape/peripheral/timer0.hpp ****     // Methods - class own methods ---------------------------------------------
 303:funsape/peripheral/timer0.hpp **** 
 304:funsape/peripheral/timer0.hpp **** public:
 305:funsape/peripheral/timer0.hpp ****     //     ///////////////////    SINGLETON ACCESS    ///////////////////     //
 306:funsape/peripheral/timer0.hpp **** 
 307:funsape/peripheral/timer0.hpp ****     //!
 308:funsape/peripheral/timer0.hpp ****     //! @brief      Returns the Singleton instance.
 309:funsape/peripheral/timer0.hpp ****     //! @details    Provides global access to the single instance of the Timer0
 310:funsape/peripheral/timer0.hpp ****     //!                 class. This method is tightly inlined to ensure
 311:funsape/peripheral/timer0.hpp ****     //!                 zero-overhead during execution.
 312:funsape/peripheral/timer0.hpp ****     //! @return     Reference to the single Timer0 instance.
 313:funsape/peripheral/timer0.hpp ****     //!
 314:funsape/peripheral/timer0.hpp ****     static inlined Timer0 &getInstance(
 315:funsape/peripheral/timer0.hpp ****             void
 316:funsape/peripheral/timer0.hpp ****     );
 317:funsape/peripheral/timer0.hpp **** 
 318:funsape/peripheral/timer0.hpp ****     //     /////////////////     CONTROL AND STATUS     /////////////////     //
 319:funsape/peripheral/timer0.hpp **** 
 320:funsape/peripheral/timer0.hpp ****     //!
 321:funsape/peripheral/timer0.hpp ****     //! @brief      Returns the last error.
 322:funsape/peripheral/timer0.hpp ****     //! @details    Returns the last error.
 323:funsape/peripheral/timer0.hpp ****     //! @return     @ref Error          Error status of the last operation.
 324:funsape/peripheral/timer0.hpp ****     //!
 325:funsape/peripheral/timer0.hpp ****     Error inlined getLastError(
 326:funsape/peripheral/timer0.hpp ****             void
 327:funsape/peripheral/timer0.hpp ****     ) const;
 328:funsape/peripheral/timer0.hpp **** 
 329:funsape/peripheral/timer0.hpp ****     //!
 330:funsape/peripheral/timer0.hpp ****     //! @brief      Initializes the Timer0 module.
 331:funsape/peripheral/timer0.hpp ****     //! @details    Initializes the Timer0 module.
 332:funsape/peripheral/timer0.hpp ****     //! @param[in]  mode_p              Operation mode.
 333:funsape/peripheral/timer0.hpp ****     //! @param[in]  clockSource_p       Clock source and prescaler.
 334:funsape/peripheral/timer0.hpp ****     //! @retval     true                if success.
 335:funsape/peripheral/timer0.hpp ****     //! @retval     false               if an error occurred. Retrieve the error
 336:funsape/peripheral/timer0.hpp ****     //!                                     by calling
 337:funsape/peripheral/timer0.hpp ****     //!                                     @ref Timer0::getLastError().
 338:funsape/peripheral/timer0.hpp ****     //! @par Error codes:
 339:funsape/peripheral/timer0.hpp ****     //!
GAS LISTING /tmp/ccUMk0PR.s 			page 80


 340:funsape/peripheral/timer0.hpp ****     //! | Error code       | Meaning                          |
 341:funsape/peripheral/timer0.hpp ****     //! |:-----------------|:---------------------------------|
 342:funsape/peripheral/timer0.hpp ****     //! | @ref Error::NONE | Success. No erros were detected. |
 343:funsape/peripheral/timer0.hpp ****     //!
 344:funsape/peripheral/timer0.hpp ****     bool_t init(
 345:funsape/peripheral/timer0.hpp ****             const Timer0::Mode mode_p,
 346:funsape/peripheral/timer0.hpp ****             const Timer0::ClockSource clockSource_p
 347:funsape/peripheral/timer0.hpp ****     );
 348:funsape/peripheral/timer0.hpp **** 
 349:funsape/peripheral/timer0.hpp ****     //!
 350:funsape/peripheral/timer0.hpp ****     //! @brief       Configures the clock source and prescaler.
 351:funsape/peripheral/timer0.hpp ****     //! @details     Configures the clock source and prescaler.
 352:funsape/peripheral/timer0.hpp ****     //! @param[in]   clockSource_p       Clock source and prescaler.
 353:funsape/peripheral/timer0.hpp ****     //! @retval      true                if success.
 354:funsape/peripheral/timer0.hpp ****     //! @retval      false               if an error occurred. Retrieve the error
 355:funsape/peripheral/timer0.hpp ****     //!                                      by calling
 356:funsape/peripheral/timer0.hpp ****     //!                                     @ref Timer0::getLastError().
 357:funsape/peripheral/timer0.hpp ****     //! @par Error codes:
 358:funsape/peripheral/timer0.hpp ****     //!
 359:funsape/peripheral/timer0.hpp ****     //! | Error code       | Meaning                          |
 360:funsape/peripheral/timer0.hpp ****     //! |:-----------------|:---------------------------------|
 361:funsape/peripheral/timer0.hpp ****     //! | @ref Error::NONE | Success. No erros were detected. |
 362:funsape/peripheral/timer0.hpp ****     //!
 363:funsape/peripheral/timer0.hpp ****     bool_t setClockSource(
 364:funsape/peripheral/timer0.hpp ****             const Timer0::ClockSource clockSource_p
 365:funsape/peripheral/timer0.hpp ****     );
 366:funsape/peripheral/timer0.hpp **** 
 367:funsape/peripheral/timer0.hpp ****     //!
 368:funsape/peripheral/timer0.hpp ****     //! @brief      Configures the operation mode.
 369:funsape/peripheral/timer0.hpp ****     //! @details    Configures the operation mode.
 370:funsape/peripheral/timer0.hpp ****     //! @param[in]  mode_p              Operation mode.
 371:funsape/peripheral/timer0.hpp ****     //! @retval     true                if success.
 372:funsape/peripheral/timer0.hpp ****     //! @retval     false               if an error occurred. Retrieve the error
 373:funsape/peripheral/timer0.hpp ****     //!                                     by calling
 374:funsape/peripheral/timer0.hpp ****     //!                                     @ref Timer0::getLastError().
 375:funsape/peripheral/timer0.hpp ****     //! @par Error codes:
 376:funsape/peripheral/timer0.hpp ****     //!
 377:funsape/peripheral/timer0.hpp ****     //! | Error code       | Meaning                          |
 378:funsape/peripheral/timer0.hpp ****     //! |:-----------------|:---------------------------------|
 379:funsape/peripheral/timer0.hpp ****     //! | @ref Error::NONE | Success. No erros were detected. |
 380:funsape/peripheral/timer0.hpp ****     //!
 381:funsape/peripheral/timer0.hpp ****     bool_t setMode(
 382:funsape/peripheral/timer0.hpp ****             const Timer0::Mode mode_p
 383:funsape/peripheral/timer0.hpp ****     );
 384:funsape/peripheral/timer0.hpp **** 
 385:funsape/peripheral/timer0.hpp ****     //!
 386:funsape/peripheral/timer0.hpp ****     //! @brief      Configures the output compare pins mode.
 387:funsape/peripheral/timer0.hpp ****     //! @details    Configures the desired behavior of @c OC0x pins during
 388:funsape/peripheral/timer0.hpp ****     //!                 compare match.
 389:funsape/peripheral/timer0.hpp ****     //! @param[in]  compA_p             Behavior of @c OC0A pin during a compare
 390:funsape/peripheral/timer0.hpp ****     //!                                     A match.
 391:funsape/peripheral/timer0.hpp ****     //! @param[in]  compB_p             Behavior of @c OC0B pin during a compare
 392:funsape/peripheral/timer0.hpp ****     //!                                     B match.
 393:funsape/peripheral/timer0.hpp ****     //! @retval     true                if success.
 394:funsape/peripheral/timer0.hpp ****     //! @retval     false               if an error occurred. Retrieve the error
 395:funsape/peripheral/timer0.hpp ****     //!                                     by calling
 396:funsape/peripheral/timer0.hpp ****     //!                                     @ref Timer0::getLastError().
GAS LISTING /tmp/ccUMk0PR.s 			page 81


 397:funsape/peripheral/timer0.hpp ****     //! @par Error codes:
 398:funsape/peripheral/timer0.hpp ****     //!
 399:funsape/peripheral/timer0.hpp ****     //! | Error code       | Meaning                          |
 400:funsape/peripheral/timer0.hpp ****     //! |:-----------------|:---------------------------------|
 401:funsape/peripheral/timer0.hpp ****     //! | @ref Error::NONE | Success. No erros were detected. |
 402:funsape/peripheral/timer0.hpp ****     //!
 403:funsape/peripheral/timer0.hpp ****     bool_t setOutputMode(
 404:funsape/peripheral/timer0.hpp ****             const Timer0::OutputMode compA_p,
 405:funsape/peripheral/timer0.hpp ****             const Timer0::OutputMode compB_p
 406:funsape/peripheral/timer0.hpp ****     );
 407:funsape/peripheral/timer0.hpp **** 
 408:funsape/peripheral/timer0.hpp ****     //     /////////////////////     COMPARE A     //////////////////////     //
 409:funsape/peripheral/timer0.hpp **** 
 410:funsape/peripheral/timer0.hpp ****     //!
 411:funsape/peripheral/timer0.hpp ****     //! @brief      Activates Compare A Match interrupt.
 412:funsape/peripheral/timer0.hpp ****     //! @details    Activates Compare A Match interrupt. If an interrupt request
 413:funsape/peripheral/timer0.hpp ****     //!                 is pending, an interrupt will be triggered when
 414:funsape/peripheral/timer0.hpp ****     //!                 activated. In most applications, it is recommended to
 415:funsape/peripheral/timer0.hpp ****     //!                 ignore an old interrupt request prior to activate the
 416:funsape/peripheral/timer0.hpp ****     //!                 interrupt. This can be done by calling
 417:funsape/peripheral/timer0.hpp ****     //!                 @ref Timer0::clearCompareAInterruptRequest() function
 418:funsape/peripheral/timer0.hpp ****     //!                 imediatelly before activating the interrupt.
 419:funsape/peripheral/timer0.hpp ****     //!
 420:funsape/peripheral/timer0.hpp ****     void inlined activateCompareAInterrupt(
 421:funsape/peripheral/timer0.hpp ****             void
 422:funsape/peripheral/timer0.hpp ****     ) const;
 423:funsape/peripheral/timer0.hpp **** 
 424:funsape/peripheral/timer0.hpp ****     //!
 425:funsape/peripheral/timer0.hpp ****     //! @brief      Clears Compare A Match interrupt flag.
 426:funsape/peripheral/timer0.hpp ****     //! @details    Clears Compare A Match interrupt flag, dismissing any
 427:funsape/peripheral/timer0.hpp ****     //!                 pending interrupt request.
 428:funsape/peripheral/timer0.hpp ****     //!
 429:funsape/peripheral/timer0.hpp ****     void inlined clearCompareAInterruptRequest(
 430:funsape/peripheral/timer0.hpp ****             void
 431:funsape/peripheral/timer0.hpp ****     ) const;
 432:funsape/peripheral/timer0.hpp **** 
 433:funsape/peripheral/timer0.hpp ****     //!
 434:funsape/peripheral/timer0.hpp ****     //! @brief      Deactivates Compare A Match interrupt.
 435:funsape/peripheral/timer0.hpp ****     //! @details    Deactivates Compare A Match interrupt. This function does
 436:funsape/peripheral/timer0.hpp ****     //!                 not clears any pending interrupt request.
 437:funsape/peripheral/timer0.hpp ****     //!
 438:funsape/peripheral/timer0.hpp ****     void inlined deactivateCompareAInterrupt(
 439:funsape/peripheral/timer0.hpp ****             void
 440:funsape/peripheral/timer0.hpp ****     ) const;
 441:funsape/peripheral/timer0.hpp **** 
 442:funsape/peripheral/timer0.hpp ****     //!
 443:funsape/peripheral/timer0.hpp ****     //! @brief      Forces a Compare A Match condition on output pin.
 444:funsape/peripheral/timer0.hpp ****     //! @details    Forces a Compare A Match condition on output pin. No
 445:funsape/peripheral/timer0.hpp ****     //!                 interrupt will be generated.
 446:funsape/peripheral/timer0.hpp ****     //!
 447:funsape/peripheral/timer0.hpp ****     void inlined forceCompareA(
 448:funsape/peripheral/timer0.hpp ****             void
 449:funsape/peripheral/timer0.hpp ****     ) const;
 450:funsape/peripheral/timer0.hpp **** 
 451:funsape/peripheral/timer0.hpp ****     //!
 452:funsape/peripheral/timer0.hpp ****     //! @brief      Returns the Compare A Match value.
 453:funsape/peripheral/timer0.hpp ****     //! @details    Returns the Compare A Match value at @c OCR0A register.
GAS LISTING /tmp/ccUMk0PR.s 			page 82


 454:funsape/peripheral/timer0.hpp ****     //! @return     the value of the Compare A Match, i.e. the value of @c OCR0A
 455:funsape/peripheral/timer0.hpp ****     //!                 register.
 456:funsape/peripheral/timer0.hpp ****     //!
 457:funsape/peripheral/timer0.hpp ****     uint8_t inlined getCompareAValue(
 458:funsape/peripheral/timer0.hpp ****             void
 459:funsape/peripheral/timer0.hpp ****     ) const;
 460:funsape/peripheral/timer0.hpp **** 
 461:funsape/peripheral/timer0.hpp ****     //!
 462:funsape/peripheral/timer0.hpp ****     //! @brief      Sets the Compare A Match value.
 463:funsape/peripheral/timer0.hpp ****     //! @details    Sets the Compare A Match value at @c OCR0A register.
 464:funsape/peripheral/timer0.hpp ****     //! @param[in]  value_p             Compare A Match value.
 465:funsape/peripheral/timer0.hpp ****     //!
 466:funsape/peripheral/timer0.hpp ****     void inlined setCompareAValue(
 467:funsape/peripheral/timer0.hpp ****             cuint8_t value_p
 468:funsape/peripheral/timer0.hpp ****     ) const;
 469:funsape/peripheral/timer0.hpp **** 
 470:funsape/peripheral/timer0.hpp ****     //     /////////////////////     COMPARE B     //////////////////////     //
 471:funsape/peripheral/timer0.hpp **** 
 472:funsape/peripheral/timer0.hpp ****     //!
 473:funsape/peripheral/timer0.hpp ****     //! @brief      Activates Compare B Match interrupt.
 474:funsape/peripheral/timer0.hpp ****     //! @details    Activates Compare B Match interrupt. If an interrupt request
 475:funsape/peripheral/timer0.hpp ****     //!                 is pending, an interrupt will be triggered when
 476:funsape/peripheral/timer0.hpp ****     //!                 activated. In most applications, it is recommended to
 477:funsape/peripheral/timer0.hpp ****     //!                 ignore an old interrupt request prior to activate the
 478:funsape/peripheral/timer0.hpp ****     //!                 interrupt. This can be done by calling
 479:funsape/peripheral/timer0.hpp ****     //!                 @ref Timer0::clearCompareBInterruptRequest() function
 480:funsape/peripheral/timer0.hpp ****     //!                 imediatelly before activating the interrupt.
 481:funsape/peripheral/timer0.hpp ****     //!
 482:funsape/peripheral/timer0.hpp ****     void inlined activateCompareBInterrupt(
 483:funsape/peripheral/timer0.hpp ****             void
 484:funsape/peripheral/timer0.hpp ****     ) const;
 485:funsape/peripheral/timer0.hpp **** 
 486:funsape/peripheral/timer0.hpp ****     //!
 487:funsape/peripheral/timer0.hpp ****     //! @brief      Clears Compare B Match interrupt flag.
 488:funsape/peripheral/timer0.hpp ****     //! @details    Clears Compare B Match interrupt flag, dismissing any
 489:funsape/peripheral/timer0.hpp ****     //!                 pending interrupt request.
 490:funsape/peripheral/timer0.hpp ****     //!
 491:funsape/peripheral/timer0.hpp ****     void inlined clearCompareBInterruptRequest(
 492:funsape/peripheral/timer0.hpp ****             void
 493:funsape/peripheral/timer0.hpp ****     ) const;
 494:funsape/peripheral/timer0.hpp **** 
 495:funsape/peripheral/timer0.hpp ****     //!
 496:funsape/peripheral/timer0.hpp ****     //! @brief      Deactivates Compare B Match interrupt.
 497:funsape/peripheral/timer0.hpp ****     //! @details    Deactivates Compare B Match interrupt. This function does
 498:funsape/peripheral/timer0.hpp ****     //!                 not clears any pending interrupt request.
 499:funsape/peripheral/timer0.hpp ****     //!
 500:funsape/peripheral/timer0.hpp ****     void inlined deactivateCompareBInterrupt(
 501:funsape/peripheral/timer0.hpp ****             void
 502:funsape/peripheral/timer0.hpp ****     ) const;
 503:funsape/peripheral/timer0.hpp **** 
 504:funsape/peripheral/timer0.hpp ****     //!
 505:funsape/peripheral/timer0.hpp ****     //! @brief      Forces a Compare B Match condition on output pin.
 506:funsape/peripheral/timer0.hpp ****     //! @details    Forces a Compare B Match condition on output pin. No
 507:funsape/peripheral/timer0.hpp ****     //!                 interrupt will be generated.
 508:funsape/peripheral/timer0.hpp ****     //!
 509:funsape/peripheral/timer0.hpp ****     void inlined forceCompareB(
 510:funsape/peripheral/timer0.hpp ****             void
GAS LISTING /tmp/ccUMk0PR.s 			page 83


 511:funsape/peripheral/timer0.hpp ****     ) const;
 512:funsape/peripheral/timer0.hpp **** 
 513:funsape/peripheral/timer0.hpp ****     //!
 514:funsape/peripheral/timer0.hpp ****     //! @brief      Returns the Compare B Match value.
 515:funsape/peripheral/timer0.hpp ****     //! @details    Returns the Compare B Match value at @c OCR0B register.
 516:funsape/peripheral/timer0.hpp ****     //! @return     the value of the Compare B Match, i.e. the value of @c OCR0B
 517:funsape/peripheral/timer0.hpp ****     //!                 register.
 518:funsape/peripheral/timer0.hpp ****     //!
 519:funsape/peripheral/timer0.hpp ****     uint8_t inlined getCompareBValue(
 520:funsape/peripheral/timer0.hpp ****             void
 521:funsape/peripheral/timer0.hpp ****     ) const;
 522:funsape/peripheral/timer0.hpp **** 
 523:funsape/peripheral/timer0.hpp ****     //!
 524:funsape/peripheral/timer0.hpp ****     //! @brief      Sets the Compare B Match value.
 525:funsape/peripheral/timer0.hpp ****     //! @details    Sets the Compare B Match value at @c OCR0B register.
 526:funsape/peripheral/timer0.hpp ****     //! @param[in]  value_p             Compare B Match value.
 527:funsape/peripheral/timer0.hpp ****     //!
 528:funsape/peripheral/timer0.hpp ****     void inlined setCompareBValue(
 529:funsape/peripheral/timer0.hpp ****             cuint8_t value_p
 530:funsape/peripheral/timer0.hpp ****     ) const;
 531:funsape/peripheral/timer0.hpp **** 
 532:funsape/peripheral/timer0.hpp ****     //     //////////////////////     OVERFLOW    ///////////////////////     //
 533:funsape/peripheral/timer0.hpp **** 
 534:funsape/peripheral/timer0.hpp ****     //!
 535:funsape/peripheral/timer0.hpp ****     //! @brief      Activates Timer Overflow interrupt.
 536:funsape/peripheral/timer0.hpp ****     //! @details    Activates Timer Overflow interrupt. If an interrupt request
 537:funsape/peripheral/timer0.hpp ****     //!                 is pending, an interrupt will be triggered when
 538:funsape/peripheral/timer0.hpp ****     //!                 activated. In most applications, it is recommended to
 539:funsape/peripheral/timer0.hpp ****     //!                 ignore an old interrupt request prior to activate the
 540:funsape/peripheral/timer0.hpp ****     //!                 interrupt. This can be done by calling
 541:funsape/peripheral/timer0.hpp ****     //!                 @ref Timer0::clearOverflowInterruptRequest() function
 542:funsape/peripheral/timer0.hpp ****     //!                 imediatelly before activating the interrupt.
 543:funsape/peripheral/timer0.hpp ****     //!
 544:funsape/peripheral/timer0.hpp ****     void inlined activateOverflowInterrupt(
 545:funsape/peripheral/timer0.hpp ****             void
 546:funsape/peripheral/timer0.hpp ****     ) const;
 547:funsape/peripheral/timer0.hpp **** 
 548:funsape/peripheral/timer0.hpp ****     //!
 549:funsape/peripheral/timer0.hpp ****     //! @brief      Clears Timer Overflow interrupt flag.
 550:funsape/peripheral/timer0.hpp ****     //! @details    Clears Timer Overflow interrupt flag, dismissing any
 551:funsape/peripheral/timer0.hpp ****     //!                 pending interrupt request.
 552:funsape/peripheral/timer0.hpp ****     //!
 553:funsape/peripheral/timer0.hpp ****     void inlined clearOverflowInterruptRequest(
 554:funsape/peripheral/timer0.hpp ****             void
 555:funsape/peripheral/timer0.hpp ****     ) const;
 556:funsape/peripheral/timer0.hpp **** 
 557:funsape/peripheral/timer0.hpp ****     //!
 558:funsape/peripheral/timer0.hpp ****     //! @brief      Deactivates Timer Overflow interrupt.
 559:funsape/peripheral/timer0.hpp ****     //! @details    Deactivates Timer Overflow interrupt. This function does not
 560:funsape/peripheral/timer0.hpp ****     //!                 clears any pending interrupt request.
 561:funsape/peripheral/timer0.hpp ****     //!
 562:funsape/peripheral/timer0.hpp ****     void inlined deactivateOverflowInterrupt(
 563:funsape/peripheral/timer0.hpp ****             void
 564:funsape/peripheral/timer0.hpp ****     ) const;
 565:funsape/peripheral/timer0.hpp **** 
 566:funsape/peripheral/timer0.hpp ****     //!
 567:funsape/peripheral/timer0.hpp ****     //! @brief      Returns the Timer Counter value.
GAS LISTING /tmp/ccUMk0PR.s 			page 84


 568:funsape/peripheral/timer0.hpp ****     //! @details    Returns the Timer Counter value at @c TCNT0 register.
 569:funsape/peripheral/timer0.hpp ****     //! @return     the value of the Timer Counter, i.e. the value of @c TCNT0
 570:funsape/peripheral/timer0.hpp ****     //!                 register.
 571:funsape/peripheral/timer0.hpp ****     //!
 572:funsape/peripheral/timer0.hpp ****     uint8_t inlined getCounterValue(
 573:funsape/peripheral/timer0.hpp ****             void
 574:funsape/peripheral/timer0.hpp ****     ) const;
 575:funsape/peripheral/timer0.hpp **** 
 576:funsape/peripheral/timer0.hpp ****     //!
 577:funsape/peripheral/timer0.hpp ****     //! @brief      Sets the Timer Counter value.
 578:funsape/peripheral/timer0.hpp ****     //! @details    Sets the Timer Counter value at @c TCNT0 register.
 579:funsape/peripheral/timer0.hpp ****     //! @param[in]  value_p             Timer Counter value.
 580:funsape/peripheral/timer0.hpp ****     //!
 581:funsape/peripheral/timer0.hpp ****     void inlined setCounterValue(
 582:funsape/peripheral/timer0.hpp ****             cuint8_t value_p
 583:funsape/peripheral/timer0.hpp ****     ) const;
 584:funsape/peripheral/timer0.hpp **** 
 585:funsape/peripheral/timer0.hpp **** private:
 586:funsape/peripheral/timer0.hpp ****     // NONE
 587:funsape/peripheral/timer0.hpp **** 
 588:funsape/peripheral/timer0.hpp **** protected:
 589:funsape/peripheral/timer0.hpp ****     // NONE
 590:funsape/peripheral/timer0.hpp **** 
 591:funsape/peripheral/timer0.hpp **** // -------------------------------------------------------------------------
 592:funsape/peripheral/timer0.hpp **** // Properties --------------------------------------------------------------
 593:funsape/peripheral/timer0.hpp **** 
 594:funsape/peripheral/timer0.hpp **** private:
 595:funsape/peripheral/timer0.hpp ****     //     /////////////////    SINGLETON INSTANCE     //////////////////     //
 596:funsape/peripheral/timer0.hpp ****     static Timer0   _instance;                  //|< Static private instance
 597:funsape/peripheral/timer0.hpp **** 
 598:funsape/peripheral/timer0.hpp ****     //     /////////////////    CONTROL AND STATUS     //////////////////     //
 599:funsape/peripheral/timer0.hpp ****     bool_t          _isInitialized      : 1;    //!< Initialization flag.
 600:funsape/peripheral/timer0.hpp ****     Error           _lastError;                 //!< Last error.
 601:funsape/peripheral/timer0.hpp **** 
 602:funsape/peripheral/timer0.hpp ****     //     ////////////////////   CONFIGURATION     /////////////////////     //
 603:funsape/peripheral/timer0.hpp ****     Timer0::ClockSource     _clockSource;       //!< Clock source and prescaler.
 604:funsape/peripheral/timer0.hpp ****     Timer0::Mode            _mode;              //!< Operation mode.
 605:funsape/peripheral/timer0.hpp **** 
 606:funsape/peripheral/timer0.hpp **** protected:
 607:funsape/peripheral/timer0.hpp ****     // NONE
 608:funsape/peripheral/timer0.hpp **** 
 609:funsape/peripheral/timer0.hpp **** }; // class Timer0
 610:funsape/peripheral/timer0.hpp **** 
 611:funsape/peripheral/timer0.hpp **** // =============================================================================
 612:funsape/peripheral/timer0.hpp **** // Inlined class functions
 613:funsape/peripheral/timer0.hpp **** // =============================================================================
 614:funsape/peripheral/timer0.hpp **** 
 615:funsape/peripheral/timer0.hpp **** //!
 616:funsape/peripheral/timer0.hpp **** //! @cond
 617:funsape/peripheral/timer0.hpp **** //!
 618:funsape/peripheral/timer0.hpp **** 
 619:funsape/peripheral/timer0.hpp **** //     /////////////////////    SINGLETON ACCESS    /////////////////////     //
 620:funsape/peripheral/timer0.hpp **** 
 621:funsape/peripheral/timer0.hpp **** Timer0 inlined &Timer0::getInstance(void)
 1489               		.loc 6 621 17 view .LVU378
 622:funsape/peripheral/timer0.hpp **** {
 623:funsape/peripheral/timer0.hpp ****     return Timer0::_instance;
GAS LISTING /tmp/ccUMk0PR.s 			page 85


 1490               		.loc 6 623 5 view .LVU379
 1491               	.LBE173:
 138:main.cpp      ****     timer0.init(Timer0::Mode::NORMAL, //Colocamos quantos ciclos pra chegar na interrupção
 1492               		.loc 1 138 16 is_stmt 0 discriminator 1 view .LVU380
 1493 0090 45E0      		ldi r20,lo8(5)
 1494 0092 60E0      		ldi r22,0
 1495 0094 80E0      		ldi r24,lo8(_ZN6Timer09_instanceE)
 1496 0096 90E0      		ldi r25,hi8(_ZN6Timer09_instanceE)
 1497 0098 0E94 0000 		call _ZN6Timer04initENS_4ModeENS_11ClockSourceE
 1498               	.LVL95:
 140:main.cpp      ****     timer0.setCompareAValue(155); //Fala quantos ticks precisam para chegar a 10ms
 1499               		.loc 1 140 5 is_stmt 1 view .LVU381
 1500               	.LBB174:
 1501               	.LBI174:
 624:funsape/peripheral/timer0.hpp **** }
 625:funsape/peripheral/timer0.hpp **** 
 626:funsape/peripheral/timer0.hpp **** //     ///////////////////////     COMPARE A     ////////////////////////     //
 627:funsape/peripheral/timer0.hpp **** 
 628:funsape/peripheral/timer0.hpp **** void inlined Timer0::activateCompareAInterrupt(void) const
 629:funsape/peripheral/timer0.hpp **** {
 630:funsape/peripheral/timer0.hpp ****     setBit(MCU_TIMER0_ENABLE_REG, MCU_TIMER0_ENABLE_COMPA_BIT_OFFSET);
 631:funsape/peripheral/timer0.hpp ****     return;
 632:funsape/peripheral/timer0.hpp **** }
 633:funsape/peripheral/timer0.hpp **** 
 634:funsape/peripheral/timer0.hpp **** void inlined Timer0::clearCompareAInterruptRequest(void) const
 635:funsape/peripheral/timer0.hpp **** {
 636:funsape/peripheral/timer0.hpp ****     setBit(MCU_TIMER0_FLAG_REG, MCU_TIMER0_FLAG_COMPA_BIT_POS);
 637:funsape/peripheral/timer0.hpp ****     return;
 638:funsape/peripheral/timer0.hpp **** }
 639:funsape/peripheral/timer0.hpp **** 
 640:funsape/peripheral/timer0.hpp **** void inlined Timer0::deactivateCompareAInterrupt(void) const
 641:funsape/peripheral/timer0.hpp **** {
 642:funsape/peripheral/timer0.hpp ****     clrBit(MCU_TIMER0_ENABLE_REG, MCU_TIMER0_ENABLE_COMPA_BIT_OFFSET);
 643:funsape/peripheral/timer0.hpp ****     return;
 644:funsape/peripheral/timer0.hpp **** }
 645:funsape/peripheral/timer0.hpp **** 
 646:funsape/peripheral/timer0.hpp **** void inlined Timer0::forceCompareA(void) const
 647:funsape/peripheral/timer0.hpp **** {
 648:funsape/peripheral/timer0.hpp ****     setBit(MCU_TIMER0_CTRL_B_REG, MCU_TIMER0_FORCE_COMPA_BIT_OFFSET);
 649:funsape/peripheral/timer0.hpp ****     return;
 650:funsape/peripheral/timer0.hpp **** }
 651:funsape/peripheral/timer0.hpp **** 
 652:funsape/peripheral/timer0.hpp **** uint8_t inlined Timer0::getCompareAValue(void) const
 653:funsape/peripheral/timer0.hpp **** {
 654:funsape/peripheral/timer0.hpp ****     return MCU_TIMER0_OCR0A_REG;
 655:funsape/peripheral/timer0.hpp **** }
 656:funsape/peripheral/timer0.hpp **** 
 657:funsape/peripheral/timer0.hpp **** void inlined Timer0::setCompareAValue(cuint8_t value_p) const
 1502               		.loc 6 657 14 view .LVU382
 1503               	.LBB175:
 658:funsape/peripheral/timer0.hpp **** {
 659:funsape/peripheral/timer0.hpp ****     MCU_TIMER0_OCR0A_REG = value_p;
 1504               		.loc 6 659 5 view .LVU383
 1505               		.loc 6 659 26 is_stmt 0 view .LVU384
 1506 009c 8BE9      		ldi r24,lo8(-101)
 1507 009e 87BD      		out 0x27,r24
 660:funsape/peripheral/timer0.hpp ****     return;
GAS LISTING /tmp/ccUMk0PR.s 			page 86


 1508               		.loc 6 660 5 is_stmt 1 view .LVU385
 1509               	.LVL96:
 1510               		.loc 6 660 5 is_stmt 0 view .LVU386
 1511               	.LBE175:
 1512               	.LBE174:
 141:main.cpp      ****     timer0.clearCompareAInterruptRequest(); //Limpar o pre interrupt
 1513               		.loc 1 141 5 is_stmt 1 view .LVU387
 1514               	.LBB176:
 1515               	.LBI176:
 634:funsape/peripheral/timer0.hpp **** {
 1516               		.loc 6 634 14 view .LVU388
 1517               	.LBB177:
 636:funsape/peripheral/timer0.hpp ****     return;
 1518               		.loc 6 636 5 view .LVU389
 636:funsape/peripheral/timer0.hpp ****     return;
 1519               		.loc 6 636 5 view .LVU390
 1520 00a0 85B3      		in r24,0x15
 1521 00a2 8260      		ori r24,lo8(2)
 1522 00a4 85BB      		out 0x15,r24
 636:funsape/peripheral/timer0.hpp ****     return;
 1523               		.loc 6 636 5 view .LVU391
 637:funsape/peripheral/timer0.hpp **** }
 1524               		.loc 6 637 5 view .LVU392
 1525               	.LVL97:
 637:funsape/peripheral/timer0.hpp **** }
 1526               		.loc 6 637 5 is_stmt 0 view .LVU393
 1527               	.LBE177:
 1528               	.LBE176:
 142:main.cpp      ****     timer0.activateCompareAInterrupt();
 1529               		.loc 1 142 5 is_stmt 1 view .LVU394
 1530               	.LBB178:
 1531               	.LBI178:
 628:funsape/peripheral/timer0.hpp **** {
 1532               		.loc 6 628 14 view .LVU395
 1533               	.LBB179:
 630:funsape/peripheral/timer0.hpp ****     return;
 1534               		.loc 6 630 5 view .LVU396
 630:funsape/peripheral/timer0.hpp ****     return;
 1535               		.loc 6 630 5 view .LVU397
 1536 00a6 EEE6      		ldi r30,lo8(110)
 1537 00a8 F0E0      		ldi r31,0
 1538 00aa 8081      		ld r24,Z
 1539 00ac 8260      		ori r24,lo8(2)
 1540 00ae 8083      		st Z,r24
 630:funsape/peripheral/timer0.hpp ****     return;
 1541               		.loc 6 630 5 view .LVU398
 631:funsape/peripheral/timer0.hpp **** }
 1542               		.loc 6 631 5 view .LVU399
 1543               	.LVL98:
 631:funsape/peripheral/timer0.hpp **** }
 1544               		.loc 6 631 5 is_stmt 0 view .LVU400
 1545               	.LBE179:
 1546               	.LBE178:
 146:main.cpp      ****     {
 1547               		.loc 1 146 5 is_stmt 1 view .LVU401
 147:main.cpp      ****     timer1.init(Timer1::Mode::NORMAL, //Colocamos quantos ciclos pra chegar na interrupção
 1548               		.loc 1 147 5 view .LVU402
GAS LISTING /tmp/ccUMk0PR.s 			page 87


 1549               	.LBB180:
 1550               	.LBI180:
 711:funsape/peripheral/timer1.hpp **** {
 1551               		.loc 3 711 17 view .LVU403
 713:funsape/peripheral/timer1.hpp **** }
 1552               		.loc 3 713 5 view .LVU404
 1553               	.LBE180:
 147:main.cpp      ****     timer1.init(Timer1::Mode::NORMAL, //Colocamos quantos ciclos pra chegar na interrupção
 1554               		.loc 1 147 16 is_stmt 0 discriminator 1 view .LVU405
 1555 00b0 42E0      		ldi r20,lo8(2)
 1556 00b2 60E0      		ldi r22,0
 1557 00b4 80E0      		ldi r24,lo8(_ZN6Timer19_instanceE)
 1558 00b6 90E0      		ldi r25,hi8(_ZN6Timer19_instanceE)
 1559 00b8 0E94 0000 		call _ZN6Timer14initENS_4ModeENS_11ClockSourceE
 1560               	.LVL99:
 150:main.cpp      ****     timer1.clearOverflowInterruptRequest(); //Limpar o pre interrupt
 1561               		.loc 1 150 5 is_stmt 1 view .LVU406
 1562               	.LBB181:
 1563               	.LBI181:
 856:funsape/peripheral/timer1.hpp **** {
 1564               		.loc 3 856 14 view .LVU407
 1565               	.LBB182:
 858:funsape/peripheral/timer1.hpp ****     return;
 1566               		.loc 3 858 5 view .LVU408
 858:funsape/peripheral/timer1.hpp ****     return;
 1567               		.loc 3 858 5 view .LVU409
 1568 00bc 86B3      		in r24,0x16
 1569 00be 8160      		ori r24,lo8(1)
 1570 00c0 86BB      		out 0x16,r24
 858:funsape/peripheral/timer1.hpp ****     return;
 1571               		.loc 3 858 5 view .LVU410
 859:funsape/peripheral/timer1.hpp **** }
 1572               		.loc 3 859 5 view .LVU411
 1573               	.LVL100:
 859:funsape/peripheral/timer1.hpp **** }
 1574               		.loc 3 859 5 is_stmt 0 view .LVU412
 1575               	.LBE182:
 1576               	.LBE181:
 151:main.cpp      ****     timer1.activateOverflowInterrupt();
 1577               		.loc 1 151 5 is_stmt 1 view .LVU413
 1578               	.LBB183:
 1579               	.LBI183:
 850:funsape/peripheral/timer1.hpp **** {
 1580               		.loc 3 850 14 view .LVU414
 1581               	.LBB184:
 852:funsape/peripheral/timer1.hpp ****     return;
 1582               		.loc 3 852 5 view .LVU415
 852:funsape/peripheral/timer1.hpp ****     return;
 1583               		.loc 3 852 5 view .LVU416
 1584 00c2 EFE6      		ldi r30,lo8(111)
 1585 00c4 F0E0      		ldi r31,0
 1586 00c6 8081      		ld r24,Z
 1587 00c8 8160      		ori r24,lo8(1)
 1588 00ca 8083      		st Z,r24
 852:funsape/peripheral/timer1.hpp ****     return;
 1589               		.loc 3 852 5 view .LVU417
 853:funsape/peripheral/timer1.hpp **** }
GAS LISTING /tmp/ccUMk0PR.s 			page 88


 1590               		.loc 3 853 5 view .LVU418
 1591               	.LVL101:
 853:funsape/peripheral/timer1.hpp **** }
 1592               		.loc 3 853 5 is_stmt 0 view .LVU419
 1593               	.LBE184:
 1594               	.LBE183:
 155:main.cpp      ****     {
 1595               		.loc 1 155 5 is_stmt 1 view .LVU420
 156:main.cpp      ****     usart0.init();
 1596               		.loc 1 156 5 view .LVU421
 156:main.cpp      ****     usart0.init();
 1597               		.loc 1 156 16 is_stmt 0 view .LVU422
 1598 00cc 80E0      		ldi r24,lo8(usart0)
 1599 00ce 90E0      		ldi r25,hi8(usart0)
 1600 00d0 0E94 0000 		call _ZN6Usart04initEv
 1601               	.LVL102:
 157:main.cpp      ****     usart0.setBaudRate(Usart0::BaudRate::BAUD_RATE_115200);
 1602               		.loc 1 157 5 is_stmt 1 view .LVU423
 157:main.cpp      ****     usart0.setBaudRate(Usart0::BaudRate::BAUD_RATE_115200);
 1603               		.loc 1 157 23 is_stmt 0 view .LVU424
 1604 00d4 40E0      		ldi r20,0
 1605 00d6 52EC      		ldi r21,lo8(-62)
 1606 00d8 61E0      		ldi r22,lo8(1)
 1607 00da 70E0      		ldi r23,0
 1608 00dc 80E0      		ldi r24,lo8(usart0)
 1609 00de 90E0      		ldi r25,hi8(usart0)
 1610 00e0 0E94 0000 		call _ZN6Usart011setBaudRateENS_8BaudRateE
 1611               	.LVL103:
 158:main.cpp      ****     usart0.setFrameFormat(Usart0::FrameFormat::FRAME_FORMAT_8_E_1);
 1612               		.loc 1 158 5 is_stmt 1 view .LVU425
 158:main.cpp      ****     usart0.setFrameFormat(Usart0::FrameFormat::FRAME_FORMAT_8_E_1);
 1613               		.loc 1 158 26 is_stmt 0 view .LVU426
 1614 00e4 69E8      		ldi r22,lo8(-119)
 1615 00e6 80E0      		ldi r24,lo8(usart0)
 1616 00e8 90E0      		ldi r25,hi8(usart0)
 1617 00ea 0E94 0000 		call _ZN6Usart014setFrameFormatENS_11FrameFormatE
 1618               	.LVL104:
 159:main.cpp      ****     usart0.enableTransmitter();
 1619               		.loc 1 159 5 is_stmt 1 view .LVU427
 1620               	.LBB185:
 1621               	.LBI185:
 1622               		.file 7 "funsape/peripheral/usart0.hpp"
   1:funsape/peripheral/usart0.hpp **** //!
   2:funsape/peripheral/usart0.hpp **** //! \file           usart0.hpp
   3:funsape/peripheral/usart0.hpp **** //! \brief          UART/USART communication peripheral control for the FunSAPE AVR8 Library
   4:funsape/peripheral/usart0.hpp **** //! \author         Leandro Schwarz (bladabuska+funsapeavr8lib@gmail.com)
   5:funsape/peripheral/usart0.hpp **** //! \date           2024-05-08
   6:funsape/peripheral/usart0.hpp **** //! \version        24.05
   7:funsape/peripheral/usart0.hpp **** //! \copyright      license
   8:funsape/peripheral/usart0.hpp **** //! \details        UART/USART communication peripheral control for the FunSAPE AVR8 Library
   9:funsape/peripheral/usart0.hpp **** //! \todo           USART and USART in SPI mode
  10:funsape/peripheral/usart0.hpp **** //!
  11:funsape/peripheral/usart0.hpp **** 
  12:funsape/peripheral/usart0.hpp **** // =============================================================================
  13:funsape/peripheral/usart0.hpp **** // Include guard (START)
  14:funsape/peripheral/usart0.hpp **** // =============================================================================
  15:funsape/peripheral/usart0.hpp **** 
GAS LISTING /tmp/ccUMk0PR.s 			page 89


  16:funsape/peripheral/usart0.hpp **** #ifndef __USART0_HPP
  17:funsape/peripheral/usart0.hpp **** #define __USART0_HPP                2604
  18:funsape/peripheral/usart0.hpp **** 
  19:funsape/peripheral/usart0.hpp **** // =============================================================================
  20:funsape/peripheral/usart0.hpp **** // Dependencies
  21:funsape/peripheral/usart0.hpp **** // =============================================================================
  22:funsape/peripheral/usart0.hpp **** 
  23:funsape/peripheral/usart0.hpp **** //     /////////////////     GLOBAL DEFINITIONS FILE    /////////////////     //
  24:funsape/peripheral/usart0.hpp **** #include "../globalDefines.hpp"
  25:funsape/peripheral/usart0.hpp **** #if !defined(__GLOBAL_DEFINES_HPP)
  26:funsape/peripheral/usart0.hpp **** #    error "Global definitions file is corrupted!"
  27:funsape/peripheral/usart0.hpp **** #elif __GLOBAL_DEFINES_HPP != __USART0_HPP
  28:funsape/peripheral/usart0.hpp **** #    error "Version mismatch between file header and global definitions file!"
  29:funsape/peripheral/usart0.hpp **** #endif
  30:funsape/peripheral/usart0.hpp **** 
  31:funsape/peripheral/usart0.hpp **** //     //////////////////     LIBRARY DEPENDENCIES     //////////////////     //
  32:funsape/peripheral/usart0.hpp **** #include "../util/debug.hpp"
  33:funsape/peripheral/usart0.hpp **** #if !defined(__DEBUG_HPP)
  34:funsape/peripheral/usart0.hpp **** #   error "Header file (debug.hpp) is corrupted!"
  35:funsape/peripheral/usart0.hpp **** #elif __DEBUG_HPP != __USART0_HPP
  36:funsape/peripheral/usart0.hpp **** #   error "Version mismatch between header file and library dependency (debug.hpp)!"
  37:funsape/peripheral/usart0.hpp **** #endif
  38:funsape/peripheral/usart0.hpp **** 
  39:funsape/peripheral/usart0.hpp **** #include "../util/systemStatus.hpp"
  40:funsape/peripheral/usart0.hpp **** #if !defined(__SYSTEM_STATUS_HPP)
  41:funsape/peripheral/usart0.hpp **** #   error "Header file (systemStatus.hpp) is corrupted!"
  42:funsape/peripheral/usart0.hpp **** #elif __SYSTEM_STATUS_HPP != __USART0_HPP
  43:funsape/peripheral/usart0.hpp **** #   error "Version mismatch between header file and library dependency (systemStatus.hpp)!"
  44:funsape/peripheral/usart0.hpp **** #endif
  45:funsape/peripheral/usart0.hpp **** 
  46:funsape/peripheral/usart0.hpp **** // +++++++++++++++++++++++++++++++++++++++++++++++++++++++++++++++++++++++++++++
  47:funsape/peripheral/usart0.hpp **** // Doxygen: Start main group "Peripherals"
  48:funsape/peripheral/usart0.hpp **** // +++++++++++++++++++++++++++++++++++++++++++++++++++++++++++++++++++++++++++++
  49:funsape/peripheral/usart0.hpp **** //!
  50:funsape/peripheral/usart0.hpp **** //! \addtogroup     Peripherals
  51:funsape/peripheral/usart0.hpp **** //! \brief          Microcontroller peripherals.
  52:funsape/peripheral/usart0.hpp **** //! \{
  53:funsape/peripheral/usart0.hpp **** //!
  54:funsape/peripheral/usart0.hpp **** 
  55:funsape/peripheral/usart0.hpp **** // +++++++++++++++++++++++++++++++++++++++++++++++++++++++++++++++++++++++++++++
  56:funsape/peripheral/usart0.hpp **** // Doxygen: Start subgroup "Peripherals/Usart0"
  57:funsape/peripheral/usart0.hpp **** // +++++++++++++++++++++++++++++++++++++++++++++++++++++++++++++++++++++++++++++
  58:funsape/peripheral/usart0.hpp **** //!
  59:funsape/peripheral/usart0.hpp **** //! \addtogroup     Usart0
  60:funsape/peripheral/usart0.hpp **** //! \brief          Universal Synchronous/Asynchronous Receiver/Transmitter 0
  61:funsape/peripheral/usart0.hpp **** //!                     (USART0) controller module.
  62:funsape/peripheral/usart0.hpp **** //! \{
  63:funsape/peripheral/usart0.hpp **** //!
  64:funsape/peripheral/usart0.hpp **** 
  65:funsape/peripheral/usart0.hpp **** // =============================================================================
  66:funsape/peripheral/usart0.hpp **** // External global variables
  67:funsape/peripheral/usart0.hpp **** // =============================================================================
  68:funsape/peripheral/usart0.hpp **** 
  69:funsape/peripheral/usart0.hpp **** //!
  70:funsape/peripheral/usart0.hpp **** //! \cond
  71:funsape/peripheral/usart0.hpp **** //!
  72:funsape/peripheral/usart0.hpp **** 
GAS LISTING /tmp/ccUMk0PR.s 			page 90


  73:funsape/peripheral/usart0.hpp **** extern FILE usartStream;
  74:funsape/peripheral/usart0.hpp **** 
  75:funsape/peripheral/usart0.hpp **** //!
  76:funsape/peripheral/usart0.hpp **** //! \endcond
  77:funsape/peripheral/usart0.hpp **** //!
  78:funsape/peripheral/usart0.hpp **** 
  79:funsape/peripheral/usart0.hpp **** // =============================================================================
  80:funsape/peripheral/usart0.hpp **** // Undefining previous definitions
  81:funsape/peripheral/usart0.hpp **** // =============================================================================
  82:funsape/peripheral/usart0.hpp **** 
  83:funsape/peripheral/usart0.hpp **** // NONE
  84:funsape/peripheral/usart0.hpp **** 
  85:funsape/peripheral/usart0.hpp **** // =============================================================================
  86:funsape/peripheral/usart0.hpp **** // Constant definitions
  87:funsape/peripheral/usart0.hpp **** // =============================================================================
  88:funsape/peripheral/usart0.hpp **** 
  89:funsape/peripheral/usart0.hpp **** // NONE
  90:funsape/peripheral/usart0.hpp **** 
  91:funsape/peripheral/usart0.hpp **** // =============================================================================
  92:funsape/peripheral/usart0.hpp **** // New data types
  93:funsape/peripheral/usart0.hpp **** // =============================================================================
  94:funsape/peripheral/usart0.hpp **** 
  95:funsape/peripheral/usart0.hpp **** // NONE
  96:funsape/peripheral/usart0.hpp **** 
  97:funsape/peripheral/usart0.hpp **** // =============================================================================
  98:funsape/peripheral/usart0.hpp **** // Interrupt callback functions
  99:funsape/peripheral/usart0.hpp **** // =============================================================================
 100:funsape/peripheral/usart0.hpp **** 
 101:funsape/peripheral/usart0.hpp **** //!
 102:funsape/peripheral/usart0.hpp **** //! \brief          USART Reception Complete interrupt callback function.
 103:funsape/peripheral/usart0.hpp **** //! \details        This function is called when the USART Reception Complete
 104:funsape/peripheral/usart0.hpp **** //!                     interrupt is treated. It is a weak function that can be
 105:funsape/peripheral/usart0.hpp **** //!                     overwritten by user code.
 106:funsape/peripheral/usart0.hpp **** //!
 107:funsape/peripheral/usart0.hpp **** void usartReceptionCompleteCallback(void);
 108:funsape/peripheral/usart0.hpp **** 
 109:funsape/peripheral/usart0.hpp **** //!
 110:funsape/peripheral/usart0.hpp **** //! \brief          USART Transmission Buffer Empty interrupt callback function.
 111:funsape/peripheral/usart0.hpp **** //! \details        This function is called when the USART Transmission Buffer
 112:funsape/peripheral/usart0.hpp **** //!                     Empty interrupt is treated. It is a weak function that
 113:funsape/peripheral/usart0.hpp **** //!                     can be overwritten by user code.
 114:funsape/peripheral/usart0.hpp **** //!
 115:funsape/peripheral/usart0.hpp **** void usartTransmissionBufferEmptyCallback(void);
 116:funsape/peripheral/usart0.hpp **** 
 117:funsape/peripheral/usart0.hpp **** //!
 118:funsape/peripheral/usart0.hpp **** //! \brief          USART Transmission Complete interrupt callback function.
 119:funsape/peripheral/usart0.hpp **** //! \details        This function is called when the USART Transmission Complete
 120:funsape/peripheral/usart0.hpp **** //!                     interrupt is treated. It is a weak function that can be
 121:funsape/peripheral/usart0.hpp **** //!                     overwritten by user code.
 122:funsape/peripheral/usart0.hpp **** //!
 123:funsape/peripheral/usart0.hpp **** void usartTransmissionCompleteCallback(void);
 124:funsape/peripheral/usart0.hpp **** 
 125:funsape/peripheral/usart0.hpp **** // =============================================================================
 126:funsape/peripheral/usart0.hpp **** // Usart Class
 127:funsape/peripheral/usart0.hpp **** // =============================================================================
 128:funsape/peripheral/usart0.hpp **** 
 129:funsape/peripheral/usart0.hpp **** //!
GAS LISTING /tmp/ccUMk0PR.s 			page 91


 130:funsape/peripheral/usart0.hpp **** //! \brief          Usart0 class.
 131:funsape/peripheral/usart0.hpp **** //! \details        This class manages the Universal Synchronous/Asynchronous
 132:funsape/peripheral/usart0.hpp **** //!                     Receiver/Transmitter 0 (USART0) peripheral.
 133:funsape/peripheral/usart0.hpp **** //! \warning        An instance of this class is already defined as a global
 134:funsape/peripheral/usart0.hpp **** //!                     object. Therefore, there is not necessary, neither
 135:funsape/peripheral/usart0.hpp **** //!                     recommended to create another object of this class.
 136:funsape/peripheral/usart0.hpp **** //!
 137:funsape/peripheral/usart0.hpp **** class Usart0
 138:funsape/peripheral/usart0.hpp **** {
 139:funsape/peripheral/usart0.hpp ****     // -------------------------------------------------------------------------
 140:funsape/peripheral/usart0.hpp ****     // New data types ----------------------------------------------------------
 141:funsape/peripheral/usart0.hpp **** public:
 142:funsape/peripheral/usart0.hpp **** 
 143:funsape/peripheral/usart0.hpp ****     //     ///////////////     USART0 Operation Mode     ////////////////     //
 144:funsape/peripheral/usart0.hpp ****     //!
 145:funsape/peripheral/usart0.hpp ****     //! \brief      USART0 Operation Mode enumeration.
 146:funsape/peripheral/usart0.hpp ****     //! \details    Operation mode associated with the USART0.
 147:funsape/peripheral/usart0.hpp ****     //! \warning    The value associate with the symbolic names may change
 148:funsape/peripheral/usart0.hpp ****     //!                 between builds and might not reflect the register/bits
 149:funsape/peripheral/usart0.hpp ****     //!                 real values. In order to ensure compatibility between
 150:funsape/peripheral/usart0.hpp ****     //!                 builds, always refer to the SYMBOLIC NAME, instead of
 151:funsape/peripheral/usart0.hpp ****     //!                 the VALUE.
 152:funsape/peripheral/usart0.hpp ****     //!
 153:funsape/peripheral/usart0.hpp ****     enum class Mode : uint8_t {
 154:funsape/peripheral/usart0.hpp ****         ASYNCHRONOUS                            = 0,    //!< Peripheral in UART without double spee
 155:funsape/peripheral/usart0.hpp ****         ASYNCHRONOUS_DOUBLE_SPEED               = 1,    //!< Peripheral in UART with double speed m
 156:funsape/peripheral/usart0.hpp ****         SYNCHRONOUS_TX_RISING_RX_FALLING        = 2,    //!< Peripheral in USART mode on falling ed
 157:funsape/peripheral/usart0.hpp ****         SYNCHRONOUS_TX_FALLING_RX_RISING        = 3,    //!< Peripheral in USART mode on rising edg
 158:funsape/peripheral/usart0.hpp ****         MASTER_SPI_MODE_0                       = 4,    //!< Peripheral in master SPI mode 0.
 159:funsape/peripheral/usart0.hpp ****         MASTER_SPI_MODE_1                       = 5,    //!< Peripheral in master SPI mode 1.
 160:funsape/peripheral/usart0.hpp ****         MASTER_SPI_MODE_2                       = 6,    //!< Peripheral in master SPI mode 2.
 161:funsape/peripheral/usart0.hpp ****         MASTER_SPI_MODE_3                       = 7,    //!< Peripheral in master SPI mode 3.
 162:funsape/peripheral/usart0.hpp ****     };
 163:funsape/peripheral/usart0.hpp **** 
 164:funsape/peripheral/usart0.hpp ****     //     ///////////////    USART0 Reception Error     ////////////////     //
 165:funsape/peripheral/usart0.hpp ****     //!
 166:funsape/peripheral/usart0.hpp ****     //! \brief      USART0 Reception Error enumeration.
 167:funsape/peripheral/usart0.hpp ****     //! \details    Reception error associated with the USART0.
 168:funsape/peripheral/usart0.hpp ****     //! \warning    The value associate with the symbolic names may change
 169:funsape/peripheral/usart0.hpp ****     //!                 between builds and might not reflect the register/bits
 170:funsape/peripheral/usart0.hpp ****     //!                 real values. In order to ensure compatibility between
 171:funsape/peripheral/usart0.hpp ****     //!                 builds, always refer to the SYMBOLIC NAME, instead of
 172:funsape/peripheral/usart0.hpp ****     //!                 the VALUE.
 173:funsape/peripheral/usart0.hpp ****     //!
 174:funsape/peripheral/usart0.hpp ****     enum class ReceptionError : uint8_t {
 175:funsape/peripheral/usart0.hpp ****         NONE                            = 0,            //!< No reception errors occurred.
 176:funsape/peripheral/usart0.hpp ****         FRAME_ERROR                     = (1 << 0),     //!< Frame format invalid.
 177:funsape/peripheral/usart0.hpp ****         PARITY_ERROR                    = (1 << 1),     //!< Parity check failed.
 178:funsape/peripheral/usart0.hpp ****         DATA_OVERRUN_ERROR              = (1 << 2),     //!< Data lost.
 179:funsape/peripheral/usart0.hpp ****         ALL                             = (1 << 0) | (1 << 1) | (1 << 2) //!< All errors
 180:funsape/peripheral/usart0.hpp ****     };
 181:funsape/peripheral/usart0.hpp **** 
 182:funsape/peripheral/usart0.hpp ****     // friend inlined ReceptionError operator|(ReceptionError a, ReceptionError b);
 183:funsape/peripheral/usart0.hpp ****     // friend inlined ReceptionError &operator|=(ReceptionError &a, ReceptionError b);
 184:funsape/peripheral/usart0.hpp ****     // friend inlined ReceptionError operator&(ReceptionError a, ReceptionError b);
 185:funsape/peripheral/usart0.hpp ****     // friend inlined ReceptionError &operator&=(ReceptionError &a, ReceptionError b);
 186:funsape/peripheral/usart0.hpp ****     // friend inlined ReceptionError operator~(ReceptionError a);
GAS LISTING /tmp/ccUMk0PR.s 			page 92


 187:funsape/peripheral/usart0.hpp **** 
 188:funsape/peripheral/usart0.hpp ****     //     /////////////////    USART0 Parity Mode     //////////////////     //
 189:funsape/peripheral/usart0.hpp ****     //!
 190:funsape/peripheral/usart0.hpp ****     //! \brief      USART0 Parity Mode enumeration.
 191:funsape/peripheral/usart0.hpp ****     //! \details    Parity mode associated with the USART0.
 192:funsape/peripheral/usart0.hpp ****     //! \warning    The value associate with the symbolic names may change
 193:funsape/peripheral/usart0.hpp ****     //!                 between builds and might not reflect the register/bits
 194:funsape/peripheral/usart0.hpp ****     //!                 real values. In order to ensure compatibility between
 195:funsape/peripheral/usart0.hpp ****     //!                 builds, always refer to the SYMBOLIC NAME, instead of
 196:funsape/peripheral/usart0.hpp ****     //!                 the VALUE.
 197:funsape/peripheral/usart0.hpp ****     //!
 198:funsape/peripheral/usart0.hpp ****     enum class ParityMode : uint8_t {
 199:funsape/peripheral/usart0.hpp ****         NONE                            = 0,    //!< No parity.
 200:funsape/peripheral/usart0.hpp ****         ODD                             = 1,    //!< Odd parity.
 201:funsape/peripheral/usart0.hpp ****         EVEN                            = 2     //!< Even parity.
 202:funsape/peripheral/usart0.hpp ****     };
 203:funsape/peripheral/usart0.hpp **** 
 204:funsape/peripheral/usart0.hpp ****     //     //////////////////     USART0 StopBits     ///////////////////     //
 205:funsape/peripheral/usart0.hpp ****     //!
 206:funsape/peripheral/usart0.hpp ****     //! \brief      USART0 StopBits enumeration.
 207:funsape/peripheral/usart0.hpp ****     //! \details    Number of stop bits associated with the USART0.
 208:funsape/peripheral/usart0.hpp ****     //! \warning    The value associate with the symbolic names may change
 209:funsape/peripheral/usart0.hpp ****     //!                 between builds and might not reflect the register/bits
 210:funsape/peripheral/usart0.hpp ****     //!                 real values. In order to ensure compatibility between
 211:funsape/peripheral/usart0.hpp ****     //!                 builds, always refer to the SYMBOLIC NAME, instead of
 212:funsape/peripheral/usart0.hpp ****     //!                 the VALUE.
 213:funsape/peripheral/usart0.hpp ****     //!
 214:funsape/peripheral/usart0.hpp ****     enum class StopBits : uint8_t {
 215:funsape/peripheral/usart0.hpp ****         SINGLE                          = 0,    //!< One stop bit.
 216:funsape/peripheral/usart0.hpp ****         DOUBLE                          = 1     //|< Two stop bits.
 217:funsape/peripheral/usart0.hpp ****     };
 218:funsape/peripheral/usart0.hpp **** 
 219:funsape/peripheral/usart0.hpp ****     //     //////////////////     USART0 DataSize     ///////////////////     //
 220:funsape/peripheral/usart0.hpp ****     //!
 221:funsape/peripheral/usart0.hpp ****     //! \brief      USART0 DataSize enumeration.
 222:funsape/peripheral/usart0.hpp ****     //! \details    Data size associated with the USART0.
 223:funsape/peripheral/usart0.hpp ****     //! \warning    The value associate with the symbolic names may change
 224:funsape/peripheral/usart0.hpp ****     //!                 between builds and might not reflect the register/bits
 225:funsape/peripheral/usart0.hpp ****     //!                 real values. In order to ensure compatibility between
 226:funsape/peripheral/usart0.hpp ****     //!                 builds, always refer to the SYMBOLIC NAME, instead of
 227:funsape/peripheral/usart0.hpp ****     //!                 the VALUE.
 228:funsape/peripheral/usart0.hpp ****     //!
 229:funsape/peripheral/usart0.hpp ****     enum class DataSize : uint8_t {
 230:funsape/peripheral/usart0.hpp ****         DATA_5_BITS                     = 0,    //!< 5 data bits.
 231:funsape/peripheral/usart0.hpp ****         DATA_6_BITS                     = 1,    //!< 6 data bits.
 232:funsape/peripheral/usart0.hpp ****         DATA_7_BITS                     = 2,    //!< 7 data bits.
 233:funsape/peripheral/usart0.hpp ****         DATA_8_BITS                     = 3,    //!< 8 data bits.
 234:funsape/peripheral/usart0.hpp ****         DATA_9_BITS                     = 7,    //!< 9 data bits.
 235:funsape/peripheral/usart0.hpp ****     };
 236:funsape/peripheral/usart0.hpp **** 
 237:funsape/peripheral/usart0.hpp ****     //     /////////////////    USART0 FrameFormat     //////////////////     //
 238:funsape/peripheral/usart0.hpp ****     //!
 239:funsape/peripheral/usart0.hpp ****     //! \brief      USART0 FrameFormat enumeration.
 240:funsape/peripheral/usart0.hpp ****     //! \details    Frame format mode associated with the USART0.
 241:funsape/peripheral/usart0.hpp ****     //! \warning    The value associate with the symbolic names may change
 242:funsape/peripheral/usart0.hpp ****     //!                 between builds and might not reflect the register/bits
 243:funsape/peripheral/usart0.hpp ****     //!                 real values. In order to ensure compatibility between
GAS LISTING /tmp/ccUMk0PR.s 			page 93


 244:funsape/peripheral/usart0.hpp ****     //!                 builds, always refer to the SYMBOLIC NAME, instead of
 245:funsape/peripheral/usart0.hpp ****     //!                 the VALUE.
 246:funsape/peripheral/usart0.hpp ****     //!
 247:funsape/peripheral/usart0.hpp ****     enum class FrameFormat : uint8_t {
 248:funsape/peripheral/usart0.hpp ****         //                      = 0bDDDDPPSS
 249:funsape/peripheral/usart0.hpp ****         // DDDD -> Number of data bits (5-8)
 250:funsape/peripheral/usart0.hpp ****         // PP   -> Parity (NONE / ODD / EVEN)
 251:funsape/peripheral/usart0.hpp ****         // SS   -> Number of stop bits (1-2)
 252:funsape/peripheral/usart0.hpp ****         FRAME_FORMAT_8_N_1        = 0b10000001,    //!< 8 data bits / Parity NONE / 1 stop bit.
 253:funsape/peripheral/usart0.hpp ****         FRAME_FORMAT_8_O_1        = 0b10000101,    //!< 8 data bits / Parity ODD / 1 stop bit.
 254:funsape/peripheral/usart0.hpp ****         FRAME_FORMAT_8_E_1        = 0b10001001,    //!< 8 data bits / Parity EVEN / 1 stop bit.
 255:funsape/peripheral/usart0.hpp ****         FRAME_FORMAT_8_N_2        = 0b10000010,    //!< 8 data bits / Parity NONE / 2 stop bit.
 256:funsape/peripheral/usart0.hpp ****         FRAME_FORMAT_8_O_2        = 0b10000110,    //!< 8 data bits / Parity ODD / 2 stop bit.
 257:funsape/peripheral/usart0.hpp ****         FRAME_FORMAT_8_E_2        = 0b10001010,    //!< 8 data bits / Parity EVEN / 2 stop bit.
 258:funsape/peripheral/usart0.hpp ****         FRAME_FORMAT_9_N_1        = 0b10010001,    //!< 9 data bits / Parity NONE / 1 stop bit.
 259:funsape/peripheral/usart0.hpp ****         FRAME_FORMAT_9_O_1        = 0b10010101,    //!< 9 data bits / Parity ODD / 1 stop bit.
 260:funsape/peripheral/usart0.hpp ****         FRAME_FORMAT_9_E_1        = 0b10011001,    //!< 9 data bits / Parity EVEN / 1 stop bit.
 261:funsape/peripheral/usart0.hpp ****         FRAME_FORMAT_9_N_2        = 0b10010010,    //!< 9 data bits / Parity NONE / 2 stop bit.
 262:funsape/peripheral/usart0.hpp ****         FRAME_FORMAT_9_O_2        = 0b10010110,    //!< 9 data bits / Parity ODD / 2 stop bit.
 263:funsape/peripheral/usart0.hpp ****         FRAME_FORMAT_9_E_2        = 0b10011010,    //!< 9 data bits / Parity EVEN / 2 stop bit.
 264:funsape/peripheral/usart0.hpp ****         FRAME_FORMAT_5_N_1        = 0b01010001,    //!< 5 data bits / Parity NONE / 1 stop bit.
 265:funsape/peripheral/usart0.hpp ****         FRAME_FORMAT_5_O_1        = 0b01010101,    //!< 5 data bits / Parity ODD / 1 stop bit.
 266:funsape/peripheral/usart0.hpp ****         FRAME_FORMAT_5_E_1        = 0b01011001,    //!< 5 data bits / Parity EVEN / 1 stop bit.
 267:funsape/peripheral/usart0.hpp ****         FRAME_FORMAT_5_N_2        = 0b01010010,    //!< 5 data bits / Parity NONE / 2 stop bit.
 268:funsape/peripheral/usart0.hpp ****         FRAME_FORMAT_5_O_2        = 0b01010110,    //!< 5 data bits / Parity ODD / 2 stop bit.
 269:funsape/peripheral/usart0.hpp ****         FRAME_FORMAT_5_E_2        = 0b01011010,    //!< 5 data bits / Parity EVEN / 2 stop bit.
 270:funsape/peripheral/usart0.hpp ****         FRAME_FORMAT_6_N_1        = 0b01100001,    //!< 7 data bits / Parity NONE / 1 stop bit.
 271:funsape/peripheral/usart0.hpp ****         FRAME_FORMAT_6_O_1        = 0b01100101,    //!< 7 data bits / Parity ODD / 1 stop bit.
 272:funsape/peripheral/usart0.hpp ****         FRAME_FORMAT_6_E_1        = 0b01101001,    //!< 7 data bits / Parity EVEN / 1 stop bit.
 273:funsape/peripheral/usart0.hpp ****         FRAME_FORMAT_6_N_2        = 0b01100010,    //!< 7 data bits / Parity NONE / 2 stop bit.
 274:funsape/peripheral/usart0.hpp ****         FRAME_FORMAT_6_O_2        = 0b01100110,    //!< 7 data bits / Parity ODD / 2 stop bit.
 275:funsape/peripheral/usart0.hpp ****         FRAME_FORMAT_6_E_2        = 0b01101010,    //!< 7 data bits / Parity EVEN / 2 stop bit.
 276:funsape/peripheral/usart0.hpp ****         FRAME_FORMAT_7_N_1        = 0b01110001,    //!< 7 data bits / Parity NONE / 1 stop bit.
 277:funsape/peripheral/usart0.hpp ****         FRAME_FORMAT_7_O_1        = 0b01110101,    //!< 7 data bits / Parity ODD / 1 stop bit.
 278:funsape/peripheral/usart0.hpp ****         FRAME_FORMAT_7_E_1        = 0b01111001,    //!< 7 data bits / Parity EVEN / 1 stop bit.
 279:funsape/peripheral/usart0.hpp ****         FRAME_FORMAT_7_N_2        = 0b01110010,    //!< 7 data bits / Parity NONE / 2 stop bit.
 280:funsape/peripheral/usart0.hpp ****         FRAME_FORMAT_7_O_2        = 0b01110110,    //!< 7 data bits / Parity ODD / 2 stop bit.
 281:funsape/peripheral/usart0.hpp ****         FRAME_FORMAT_7_E_2        = 0b01111010,    //!< 7 data bits / Parity EVEN / 2 stop bit.
 282:funsape/peripheral/usart0.hpp ****     };
 283:funsape/peripheral/usart0.hpp **** 
 284:funsape/peripheral/usart0.hpp ****     //     //////////////////    USART0 Baud Rate     ///////////////////     //
 285:funsape/peripheral/usart0.hpp ****     //!
 286:funsape/peripheral/usart0.hpp ****     //! \brief      USART0 Baud Rate enumeration.
 287:funsape/peripheral/usart0.hpp ****     //! \details    Baud rate speed associated with the USART0.
 288:funsape/peripheral/usart0.hpp ****     //! \warning    The value associate with the symbolic names may change
 289:funsape/peripheral/usart0.hpp ****     //!                 between builds and might not reflect the register/bits
 290:funsape/peripheral/usart0.hpp ****     //!                 real values. In order to ensure compatibility between
 291:funsape/peripheral/usart0.hpp ****     //!                 builds, always refer to the SYMBOLIC NAME, instead of
 292:funsape/peripheral/usart0.hpp ****     //!                 the VALUE.
 293:funsape/peripheral/usart0.hpp ****     //!
 294:funsape/peripheral/usart0.hpp ****     enum class BaudRate : uint32_t {
 295:funsape/peripheral/usart0.hpp ****         BAUD_RATE_600                   = 600UL,        //!< Baud rate = 600 bps.
 296:funsape/peripheral/usart0.hpp ****         BAUD_RATE_1200                  = 1200UL,       //!< Baud rate = 1,200 bps.
 297:funsape/peripheral/usart0.hpp ****         BAUD_RATE_1800                  = 1800UL,       //!< Baud rate = 1,800 bps.
 298:funsape/peripheral/usart0.hpp ****         BAUD_RATE_2400                  = 2400UL,       //!< Baud rate = 2,400 bps.
 299:funsape/peripheral/usart0.hpp ****         BAUD_RATE_4800                  = 4800UL,       //!< Baud rate = 4,800 bps.
 300:funsape/peripheral/usart0.hpp ****         BAUD_RATE_9600                  = 9600UL,       //!< Baud rate = 9,600 bps.
GAS LISTING /tmp/ccUMk0PR.s 			page 94


 301:funsape/peripheral/usart0.hpp ****         BAUD_RATE_14400                 = 14400UL,      //!< Baud rate = 14,400 bps.
 302:funsape/peripheral/usart0.hpp ****         BAUD_RATE_19200                 = 19200UL,      //!< Baud rate = 19,200 bps.
 303:funsape/peripheral/usart0.hpp ****         BAUD_RATE_28800                 = 28800UL,      //!< Baud rate = 28,800 bps.
 304:funsape/peripheral/usart0.hpp ****         BAUD_RATE_38400                 = 38400UL,      //!< Baud rate = 38,400 bps.
 305:funsape/peripheral/usart0.hpp ****         BAUD_RATE_56000                 = 56000UL,      //!< Baud rate = 56,000 bps.
 306:funsape/peripheral/usart0.hpp ****         BAUD_RATE_57600                 = 57600UL,      //!< Baud rate = 57,600 bps.
 307:funsape/peripheral/usart0.hpp ****         BAUD_RATE_115200                = 115200UL,     //!< Baud rate = 115,200 bps.
 308:funsape/peripheral/usart0.hpp ****         BAUD_RATE_128000                = 128000UL,     //!< Baud rate = 128,000 bps.
 309:funsape/peripheral/usart0.hpp ****         BAUD_RATE_230400                = 230400UL,     //!< Baud rate = 230,400 bps.
 310:funsape/peripheral/usart0.hpp ****         BAUD_RATE_256000                = 256000UL      //!< Baud rate = 256,000 bps.
 311:funsape/peripheral/usart0.hpp ****     };
 312:funsape/peripheral/usart0.hpp ****     // -------------------------------------------------------------------------
 313:funsape/peripheral/usart0.hpp ****     // Constructors ------------------------------------------------------------
 314:funsape/peripheral/usart0.hpp **** public:
 315:funsape/peripheral/usart0.hpp ****     //!
 316:funsape/peripheral/usart0.hpp ****     //! \brief      Usart0 class constructor.
 317:funsape/peripheral/usart0.hpp ****     //! \details    Creates an Usart0 object. The object is loaded with the
 318:funsape/peripheral/usart0.hpp ****     //!                 default register values (BaudRate::BAUD_RATE_9600,
 319:funsape/peripheral/usart0.hpp ****     //!                 Mode::ASYNCHRONOUS and FrameFormat::FRAME_FORMAT_8_N_1).
 320:funsape/peripheral/usart0.hpp ****     //!                 The object still must be initialized before use.
 321:funsape/peripheral/usart0.hpp ****     //! \see        init(void).
 322:funsape/peripheral/usart0.hpp ****     //!
 323:funsape/peripheral/usart0.hpp ****     Usart0(
 324:funsape/peripheral/usart0.hpp ****             BaudRate baudRate_p = BaudRate::BAUD_RATE_9600,
 325:funsape/peripheral/usart0.hpp ****             Mode mode_p = Mode::ASYNCHRONOUS,
 326:funsape/peripheral/usart0.hpp ****             FrameFormat format = FrameFormat::FRAME_FORMAT_8_N_1
 327:funsape/peripheral/usart0.hpp ****     );
 328:funsape/peripheral/usart0.hpp **** 
 329:funsape/peripheral/usart0.hpp ****     //!
 330:funsape/peripheral/usart0.hpp ****     //! \brief      Usart0 class destructor.
 331:funsape/peripheral/usart0.hpp ****     //! \details    Destroys an Usart0 object.
 332:funsape/peripheral/usart0.hpp ****     //!
 333:funsape/peripheral/usart0.hpp ****     ~Usart0(
 334:funsape/peripheral/usart0.hpp ****             void
 335:funsape/peripheral/usart0.hpp ****     );
 336:funsape/peripheral/usart0.hpp **** 
 337:funsape/peripheral/usart0.hpp ****     // -------------------------------------------------------------------------
 338:funsape/peripheral/usart0.hpp ****     // Methods -----------------------------------------------------------------
 339:funsape/peripheral/usart0.hpp **** public:
 340:funsape/peripheral/usart0.hpp ****     //     ///////////////////     CONFIGURATION     ////////////////////     //
 341:funsape/peripheral/usart0.hpp **** 
 342:funsape/peripheral/usart0.hpp ****     //!
 343:funsape/peripheral/usart0.hpp ****     //! \brief      Initializes the USART0 module
 344:funsape/peripheral/usart0.hpp ****     //! \details    Initializes the USART0 module.
 345:funsape/peripheral/usart0.hpp ****     //! \retval     true                Success.
 346:funsape/peripheral/usart0.hpp ****     //! \retval     false               Retrieve the error using the \ref
 347:funsape/peripheral/usart0.hpp ****     //!                                     getLastError() function.
 348:funsape/peripheral/usart0.hpp ****     //!
 349:funsape/peripheral/usart0.hpp ****     bool_t init(
 350:funsape/peripheral/usart0.hpp ****             void
 351:funsape/peripheral/usart0.hpp ****     );
 352:funsape/peripheral/usart0.hpp **** 
 353:funsape/peripheral/usart0.hpp ****     //!
 354:funsape/peripheral/usart0.hpp ****     //! \brief      Disables the USART receiver.
 355:funsape/peripheral/usart0.hpp ****     //! \details    Disables the USART receiver.
 356:funsape/peripheral/usart0.hpp ****     //!
 357:funsape/peripheral/usart0.hpp ****     void inlined disableReceiver(
GAS LISTING /tmp/ccUMk0PR.s 			page 95


 358:funsape/peripheral/usart0.hpp ****             void
 359:funsape/peripheral/usart0.hpp ****     );
 360:funsape/peripheral/usart0.hpp **** 
 361:funsape/peripheral/usart0.hpp ****     //!
 362:funsape/peripheral/usart0.hpp ****     //! \brief      Disables the USART transmitter.
 363:funsape/peripheral/usart0.hpp ****     //! \details    Disables the USART transmitter.
 364:funsape/peripheral/usart0.hpp ****     //!
 365:funsape/peripheral/usart0.hpp ****     void inlined disableTransmitter(
 366:funsape/peripheral/usart0.hpp ****             void
 367:funsape/peripheral/usart0.hpp ****     );
 368:funsape/peripheral/usart0.hpp **** 
 369:funsape/peripheral/usart0.hpp ****     //!
 370:funsape/peripheral/usart0.hpp ****     //! \brief      Enables the USART receiver.
 371:funsape/peripheral/usart0.hpp ****     //! \details    Enables the USART receiver.
 372:funsape/peripheral/usart0.hpp ****     //!
 373:funsape/peripheral/usart0.hpp ****     void inlined enableReceiver(
 374:funsape/peripheral/usart0.hpp ****             void
 375:funsape/peripheral/usart0.hpp ****     );
 376:funsape/peripheral/usart0.hpp **** 
 377:funsape/peripheral/usart0.hpp ****     //!
 378:funsape/peripheral/usart0.hpp ****     //! \brief      Enables the USART transmitter.
 379:funsape/peripheral/usart0.hpp ****     //! \details    Enables the USART transmitter.
 380:funsape/peripheral/usart0.hpp ****     //!
 381:funsape/peripheral/usart0.hpp ****     void inlined enableTransmitter(
 382:funsape/peripheral/usart0.hpp ****             void
 383:funsape/peripheral/usart0.hpp ****     );
 384:funsape/peripheral/usart0.hpp **** 
 385:funsape/peripheral/usart0.hpp ****     //!
 386:funsape/peripheral/usart0.hpp ****     //! \brief      Sets data size.
 387:funsape/peripheral/usart0.hpp ****     //! \details    Sets data size.
 388:funsape/peripheral/usart0.hpp ****     //! \param[in]  dataSize_p      Data size.
 389:funsape/peripheral/usart0.hpp ****     //! \retval     true                Success.
 390:funsape/peripheral/usart0.hpp ****     //! \retval     false               Retrieve the error using the \ref
 391:funsape/peripheral/usart0.hpp ****     //!                                     getLastError() function.
 392:funsape/peripheral/usart0.hpp ****     //!
 393:funsape/peripheral/usart0.hpp ****     bool_t setDataSize(
 394:funsape/peripheral/usart0.hpp ****             const DataSize dataSize_p
 395:funsape/peripheral/usart0.hpp ****     );
 396:funsape/peripheral/usart0.hpp **** 
 397:funsape/peripheral/usart0.hpp ****     //!
 398:funsape/peripheral/usart0.hpp ****     //! \brief      Sets operation mode.
 399:funsape/peripheral/usart0.hpp ****     //! \details    Sets operation mode.
 400:funsape/peripheral/usart0.hpp ****     //! \param[in]  operationMode_p     Operation mode.
 401:funsape/peripheral/usart0.hpp ****     //! \retval     true                Success.
 402:funsape/peripheral/usart0.hpp ****     //! \retval     false               Retrieve the error using the \ref
 403:funsape/peripheral/usart0.hpp ****     //!                                     getLastError() function.
 404:funsape/peripheral/usart0.hpp ****     //!
 405:funsape/peripheral/usart0.hpp ****     bool_t setMode(
 406:funsape/peripheral/usart0.hpp ****             const Mode operationMode_p
 407:funsape/peripheral/usart0.hpp ****     );
 408:funsape/peripheral/usart0.hpp **** 
 409:funsape/peripheral/usart0.hpp ****     //!
 410:funsape/peripheral/usart0.hpp ****     //! \brief      Sets number of stop bits.
 411:funsape/peripheral/usart0.hpp ****     //! \details    Sets number of stop bits.
 412:funsape/peripheral/usart0.hpp ****     //! \param[in]  stopBits_p          Number of stop bits.
 413:funsape/peripheral/usart0.hpp ****     //! \retval     true                Success.
 414:funsape/peripheral/usart0.hpp ****     //! \retval     false               Retrieve the error using the \ref
GAS LISTING /tmp/ccUMk0PR.s 			page 96


 415:funsape/peripheral/usart0.hpp ****     //!                                     getLastError() function.
 416:funsape/peripheral/usart0.hpp ****     //!
 417:funsape/peripheral/usart0.hpp ****     bool_t setStopBits(
 418:funsape/peripheral/usart0.hpp ****             const StopBits stopBits_p
 419:funsape/peripheral/usart0.hpp ****     );
 420:funsape/peripheral/usart0.hpp **** 
 421:funsape/peripheral/usart0.hpp ****     //!
 422:funsape/peripheral/usart0.hpp ****     //! \brief      Sets the parity mode.
 423:funsape/peripheral/usart0.hpp ****     //! \details    Sets the parity mode.
 424:funsape/peripheral/usart0.hpp ****     //! \param[in]  parityMode_p        Parity mode.
 425:funsape/peripheral/usart0.hpp ****     //! \retval     true                Success.
 426:funsape/peripheral/usart0.hpp ****     //! \retval     false               Retrieve the error using the \ref
 427:funsape/peripheral/usart0.hpp ****     //!                                     getLastError() function.
 428:funsape/peripheral/usart0.hpp ****     //!
 429:funsape/peripheral/usart0.hpp ****     bool_t setParityMode(
 430:funsape/peripheral/usart0.hpp ****             const ParityMode parityMode_p
 431:funsape/peripheral/usart0.hpp ****     );
 432:funsape/peripheral/usart0.hpp **** 
 433:funsape/peripheral/usart0.hpp ****     //!
 434:funsape/peripheral/usart0.hpp ****     //! \brief      Sets the communication baud rate.
 435:funsape/peripheral/usart0.hpp ****     //! \details    Sets the communication baud rate.
 436:funsape/peripheral/usart0.hpp ****     //! \param[in]  baudRate_p          Communication baud rate.
 437:funsape/peripheral/usart0.hpp ****     //! \retval     true                Success.
 438:funsape/peripheral/usart0.hpp ****     //! \retval     false               Retrieve the error using the \ref
 439:funsape/peripheral/usart0.hpp ****     //!                                     getLastError() function.
 440:funsape/peripheral/usart0.hpp ****     //!
 441:funsape/peripheral/usart0.hpp ****     bool_t setBaudRate(
 442:funsape/peripheral/usart0.hpp ****             const BaudRate baudRate_p
 443:funsape/peripheral/usart0.hpp ****     );
 444:funsape/peripheral/usart0.hpp **** 
 445:funsape/peripheral/usart0.hpp ****     //!
 446:funsape/peripheral/usart0.hpp ****     //! \brief      Sets the Frame format.
 447:funsape/peripheral/usart0.hpp ****     //! \details    Sets the Frame format.
 448:funsape/peripheral/usart0.hpp ****     //! \param[in]  frameFormat_p       Frame format.
 449:funsape/peripheral/usart0.hpp ****     //! \retval     true                Success.
 450:funsape/peripheral/usart0.hpp ****     //! \retval     false               Retrieve the error using the \ref
 451:funsape/peripheral/usart0.hpp ****     //!                                     getLastError() function.
 452:funsape/peripheral/usart0.hpp ****     //!
 453:funsape/peripheral/usart0.hpp ****     bool_t setFrameFormat(
 454:funsape/peripheral/usart0.hpp ****             const FrameFormat frameFormat_p
 455:funsape/peripheral/usart0.hpp ****     );
 456:funsape/peripheral/usart0.hpp **** 
 457:funsape/peripheral/usart0.hpp ****     //     ///////////////////////     STATUS    ////////////////////////     //
 458:funsape/peripheral/usart0.hpp **** 
 459:funsape/peripheral/usart0.hpp ****     //!
 460:funsape/peripheral/usart0.hpp ****     //! \brief      Verifies the reception status.
 461:funsape/peripheral/usart0.hpp ****     //! \details    Verifies the reception status.
 462:funsape/peripheral/usart0.hpp ****     //! \retval     true                Success.
 463:funsape/peripheral/usart0.hpp ****     //! \retval     false               Retrieve the error using the \ref
 464:funsape/peripheral/usart0.hpp ****     //!                                     getLastError() function.
 465:funsape/peripheral/usart0.hpp ****     //!
 466:funsape/peripheral/usart0.hpp ****     bool_t inlined isReceptionComplete(void);
 467:funsape/peripheral/usart0.hpp **** 
 468:funsape/peripheral/usart0.hpp ****     //!
 469:funsape/peripheral/usart0.hpp ****     //! \brief      Verifies the transmission buffer status.
 470:funsape/peripheral/usart0.hpp ****     //! \details    Verifies the transmission buffer status.
 471:funsape/peripheral/usart0.hpp ****     //! \retval     true                Success.
GAS LISTING /tmp/ccUMk0PR.s 			page 97


 472:funsape/peripheral/usart0.hpp ****     //! \retval     false               Retrieve the error using the \ref
 473:funsape/peripheral/usart0.hpp ****     //!                                     getLastError() function.
 474:funsape/peripheral/usart0.hpp ****     //!
 475:funsape/peripheral/usart0.hpp ****     bool_t inlined isTransmissionBufferEmpty(void);
 476:funsape/peripheral/usart0.hpp **** 
 477:funsape/peripheral/usart0.hpp ****     //!
 478:funsape/peripheral/usart0.hpp ****     //! \brief      Verifies the transmission status.
 479:funsape/peripheral/usart0.hpp ****     //! \details    Verifies the transmission status.
 480:funsape/peripheral/usart0.hpp ****     //! \retval     true                Success.
 481:funsape/peripheral/usart0.hpp ****     //! \retval     false               Retrieve the error using the \ref
 482:funsape/peripheral/usart0.hpp ****     //!                                     getLastError() function.
 483:funsape/peripheral/usart0.hpp ****     //!
 484:funsape/peripheral/usart0.hpp ****     bool_t inlined isTransmissionComplete(void);
 485:funsape/peripheral/usart0.hpp **** 
 486:funsape/peripheral/usart0.hpp ****     //!
 487:funsape/peripheral/usart0.hpp ****     //! \brief      Gets the errors of the last reception.
 488:funsape/peripheral/usart0.hpp ****     //! \details    Gets the errors of the last reception.
 489:funsape/peripheral/usart0.hpp ****     //! \param[out] errorCode_p         Pointer to store the reception error code.
 490:funsape/peripheral/usart0.hpp ****     //! \retval     true                Success.
 491:funsape/peripheral/usart0.hpp ****     //! \retval     false               Retrieve the error using the \ref
 492:funsape/peripheral/usart0.hpp ****     //!                                     getLastError() function.
 493:funsape/peripheral/usart0.hpp ****     //!
 494:funsape/peripheral/usart0.hpp ****     bool_t getReceptionErrors(
 495:funsape/peripheral/usart0.hpp ****             ReceptionError *errorCode_p
 496:funsape/peripheral/usart0.hpp ****     );
 497:funsape/peripheral/usart0.hpp **** 
 498:funsape/peripheral/usart0.hpp ****     //     /////////////////////     INTERRUPTS    //////////////////////     //
 499:funsape/peripheral/usart0.hpp **** 
 500:funsape/peripheral/usart0.hpp ****     //!
 501:funsape/peripheral/usart0.hpp ****     //! \brief      Activates the Reception Complete interrupt.
 502:funsape/peripheral/usart0.hpp ****     //! \details    Activates the Reception Complete interrupt.
 503:funsape/peripheral/usart0.hpp ****     //!
 504:funsape/peripheral/usart0.hpp ****     void inlined activateReceptionCompleteInterrupt(void);
 505:funsape/peripheral/usart0.hpp **** 
 506:funsape/peripheral/usart0.hpp ****     //!
 507:funsape/peripheral/usart0.hpp ****     //! \brief      Activates the Transmission Buffer Empty interrupt.
 508:funsape/peripheral/usart0.hpp ****     //! \details    Activates the Transmission Buffer Empty interrupt.
 509:funsape/peripheral/usart0.hpp ****     //!
 510:funsape/peripheral/usart0.hpp ****     void inlined activateTransmissionBufferEmptyInterrupt(void);
 511:funsape/peripheral/usart0.hpp **** 
 512:funsape/peripheral/usart0.hpp ****     //!
 513:funsape/peripheral/usart0.hpp ****     //! \brief      Activates the Transmission Complete interrupt.
 514:funsape/peripheral/usart0.hpp ****     //! \details    Activates the Transmission Complete interrupt.
 515:funsape/peripheral/usart0.hpp ****     //!
 516:funsape/peripheral/usart0.hpp ****     void inlined activateTransmissionCompleteInterrupt(void);
 517:funsape/peripheral/usart0.hpp **** 
 518:funsape/peripheral/usart0.hpp ****     //!
 519:funsape/peripheral/usart0.hpp ****     //! \brief      Deactivates the Reception Complete interrupt.
 520:funsape/peripheral/usart0.hpp ****     //! \details    Deactivates the Reception Complete interrupt
 521:funsape/peripheral/usart0.hpp ****     //!
 522:funsape/peripheral/usart0.hpp ****     void inlined deactivateReceptionCompleteInterrupt(void);
 523:funsape/peripheral/usart0.hpp **** 
 524:funsape/peripheral/usart0.hpp ****     //!
 525:funsape/peripheral/usart0.hpp ****     //! \brief      Deactivates the Transmission Buffer Empty interrupt.
 526:funsape/peripheral/usart0.hpp ****     //! \details    Deactivates the Transmission Buffer Empty interrupt.
 527:funsape/peripheral/usart0.hpp ****     //!
 528:funsape/peripheral/usart0.hpp ****     void inlined deactivateTransmissionBufferEmptyInterrupt(void);
GAS LISTING /tmp/ccUMk0PR.s 			page 98


 529:funsape/peripheral/usart0.hpp **** 
 530:funsape/peripheral/usart0.hpp ****     //!
 531:funsape/peripheral/usart0.hpp ****     //! \brief      Deactivates the Transmission Complete interrupt.
 532:funsape/peripheral/usart0.hpp ****     //! \details    Deactivates the Transmission Complete interrupt.
 533:funsape/peripheral/usart0.hpp ****     //!
 534:funsape/peripheral/usart0.hpp ****     void inlined deactivateTransmissionCompleteInterrupt(void);
 535:funsape/peripheral/usart0.hpp **** 
 536:funsape/peripheral/usart0.hpp ****     //!
 537:funsape/peripheral/usart0.hpp ****     //! \brief      Redirects the standard I/O streams.
 538:funsape/peripheral/usart0.hpp ****     //! \details    Redirects the standard I/O streams.
 539:funsape/peripheral/usart0.hpp ****     //!
 540:funsape/peripheral/usart0.hpp ****     void inlined stdio(void);
 541:funsape/peripheral/usart0.hpp **** 
 542:funsape/peripheral/usart0.hpp ****     // UCSRA    U2X0
 543:funsape/peripheral/usart0.hpp ****     // UCSRA    MPCM0
 544:funsape/peripheral/usart0.hpp **** 
 545:funsape/peripheral/usart0.hpp ****     //!
 546:funsape/peripheral/usart0.hpp ****     //! \brief      Sends a frame through the transmitter.
 547:funsape/peripheral/usart0.hpp ****     //! \details    Sends a frame through the transmitter.
 548:funsape/peripheral/usart0.hpp ****     //! \param[out] data_p         Data to be transmitted.
 549:funsape/peripheral/usart0.hpp ****     //! \retval     true                Success.
 550:funsape/peripheral/usart0.hpp ****     //! \retval     false               Retrieve the error using the \ref
 551:funsape/peripheral/usart0.hpp ****     //!                                     getLastError() function.
 552:funsape/peripheral/usart0.hpp ****     //!
 553:funsape/peripheral/usart0.hpp ****     bool_t sendData(cuint16_t data_p);
 554:funsape/peripheral/usart0.hpp **** 
 555:funsape/peripheral/usart0.hpp ****     //!
 556:funsape/peripheral/usart0.hpp ****     //! \brief      Gets the received data.
 557:funsape/peripheral/usart0.hpp ****     //! \details    Gets the received data.
 558:funsape/peripheral/usart0.hpp ****     //! \param[out] data_p              Pointer to store the received data.
 559:funsape/peripheral/usart0.hpp ****     //! \retval     true                Success.
 560:funsape/peripheral/usart0.hpp ****     //! \retval     false               Retrieve the error using the \ref
 561:funsape/peripheral/usart0.hpp ****     //!                                     getLastError() function.
 562:funsape/peripheral/usart0.hpp ****     //!
 563:funsape/peripheral/usart0.hpp ****     bool_t receiveData(uint16_t *data_p);
 564:funsape/peripheral/usart0.hpp **** 
 565:funsape/peripheral/usart0.hpp ****     //!
 566:funsape/peripheral/usart0.hpp ****     //! \brief      Flushes the reception buffer.
 567:funsape/peripheral/usart0.hpp ****     //! \details    Flushes the reception buffer.
 568:funsape/peripheral/usart0.hpp ****     //!
 569:funsape/peripheral/usart0.hpp ****     void flushReceptionBuffer(void);
 570:funsape/peripheral/usart0.hpp **** 
 571:funsape/peripheral/usart0.hpp ****     //!
 572:funsape/peripheral/usart0.hpp ****     //! \brief      Receives data via standard data stream.
 573:funsape/peripheral/usart0.hpp ****     //! \details    Receives data via standard data stream.
 574:funsape/peripheral/usart0.hpp ****     //! \param[out] stream_p            Pointer to data stream.
 575:funsape/peripheral/usart0.hpp ****     //! \return     char                Character received.
 576:funsape/peripheral/usart0.hpp ****     //!
 577:funsape/peripheral/usart0.hpp ****     char receiveDataStd(FILE *stream_p);
 578:funsape/peripheral/usart0.hpp **** 
 579:funsape/peripheral/usart0.hpp ****     //!
 580:funsape/peripheral/usart0.hpp ****     //! \brief      Sends data via standard data stream.
 581:funsape/peripheral/usart0.hpp ****     //! \details    Sends data via standard data stream.
 582:funsape/peripheral/usart0.hpp ****     //! \param[in]  data_p              Data to be transmitted.
 583:funsape/peripheral/usart0.hpp ****     //! \param[out] stream_p            Pointer to data stream.
 584:funsape/peripheral/usart0.hpp ****     //! \return     int16_t             Always returns 0.
 585:funsape/peripheral/usart0.hpp ****     //!
GAS LISTING /tmp/ccUMk0PR.s 			page 99


 586:funsape/peripheral/usart0.hpp ****     int16_t sendDataStd(char data_p, FILE *stream_p);
 587:funsape/peripheral/usart0.hpp **** 
 588:funsape/peripheral/usart0.hpp ****     //     /////////////////     CONTROL AND STATUS    //////////////////     //
 589:funsape/peripheral/usart0.hpp ****     //!
 590:funsape/peripheral/usart0.hpp ****     //! \brief      Returns the last error.
 591:funsape/peripheral/usart0.hpp ****     //! \details    Returns the last error.
 592:funsape/peripheral/usart0.hpp ****     //! \return     Error               Error status of the last operation.
 593:funsape/peripheral/usart0.hpp ****     //!
 594:funsape/peripheral/usart0.hpp ****     Error           getLastError(
 595:funsape/peripheral/usart0.hpp ****             void
 596:funsape/peripheral/usart0.hpp ****     );
 597:funsape/peripheral/usart0.hpp **** 
 598:funsape/peripheral/usart0.hpp **** private:
 599:funsape/peripheral/usart0.hpp ****     char _receiveDataStd(FILE *stream_p);
 600:funsape/peripheral/usart0.hpp ****     void _clearDataOverrunError(void);
 601:funsape/peripheral/usart0.hpp ****     void _clearFrameError(void);
 602:funsape/peripheral/usart0.hpp ****     void _clearParityError(void);
 603:funsape/peripheral/usart0.hpp **** 
 604:funsape/peripheral/usart0.hpp ****     // -------------------------------------------------------------------------
 605:funsape/peripheral/usart0.hpp ****     // Properties --------------------------------------------------------------
 606:funsape/peripheral/usart0.hpp **** private:
 607:funsape/peripheral/usart0.hpp ****     //     ////////////////     RECEPTION ERROR FLAGS    ////////////////     //
 608:funsape/peripheral/usart0.hpp ****     bool_t  _isDataOverrunError                         : 1;
 609:funsape/peripheral/usart0.hpp ****     bool_t  _isFrameError                               : 1;
 610:funsape/peripheral/usart0.hpp ****     bool_t  _isParityError                              : 1;
 611:funsape/peripheral/usart0.hpp **** 
 612:funsape/peripheral/usart0.hpp ****     //     /////////////////     CONTROL AND STATUS     /////////////////     //
 613:funsape/peripheral/usart0.hpp ****     bool_t  _isInitialized                              : 1;
 614:funsape/peripheral/usart0.hpp ****     bool_t  _isReceiverEnabled                          : 1;
 615:funsape/peripheral/usart0.hpp ****     bool_t  _isReceptionCompleteInterruptEnabled        : 1;
 616:funsape/peripheral/usart0.hpp ****     bool_t  _isTransmissionBufferEmptyInterruptEnabled  : 1;
 617:funsape/peripheral/usart0.hpp ****     bool_t  _isTransmissionCompleteInterruptEnabled     : 1;
 618:funsape/peripheral/usart0.hpp ****     bool_t  _isTransmitterEnabled                       : 1;
 619:funsape/peripheral/usart0.hpp ****     Error   _lastError;
 620:funsape/peripheral/usart0.hpp **** 
 621:funsape/peripheral/usart0.hpp ****     //     ////////////////////     CONFIGURATION    ////////////////////     //
 622:funsape/peripheral/usart0.hpp ****     DataSize        _dataSize;
 623:funsape/peripheral/usart0.hpp ****     Mode            _mode;
 624:funsape/peripheral/usart0.hpp ****     BaudRate        _baudRate;
 625:funsape/peripheral/usart0.hpp ****     ParityMode      _parityMode;
 626:funsape/peripheral/usart0.hpp ****     StopBits        _stopBits;
 627:funsape/peripheral/usart0.hpp **** }; // class Usart0
 628:funsape/peripheral/usart0.hpp **** 
 629:funsape/peripheral/usart0.hpp **** // =============================================================================
 630:funsape/peripheral/usart0.hpp **** // Class inlined functions
 631:funsape/peripheral/usart0.hpp **** // =============================================================================
 632:funsape/peripheral/usart0.hpp **** 
 633:funsape/peripheral/usart0.hpp **** //!
 634:funsape/peripheral/usart0.hpp **** //! \cond
 635:funsape/peripheral/usart0.hpp **** //!
 636:funsape/peripheral/usart0.hpp **** 
 637:funsape/peripheral/usart0.hpp **** void inlined Usart0::disableReceiver(void)
 638:funsape/peripheral/usart0.hpp **** {
 639:funsape/peripheral/usart0.hpp ****     clrBit(UCSR0B, RXEN0);
 640:funsape/peripheral/usart0.hpp ****     return;
 641:funsape/peripheral/usart0.hpp **** }
 642:funsape/peripheral/usart0.hpp **** 
GAS LISTING /tmp/ccUMk0PR.s 			page 100


 643:funsape/peripheral/usart0.hpp **** void inlined Usart0::disableTransmitter(void)
 644:funsape/peripheral/usart0.hpp **** {
 645:funsape/peripheral/usart0.hpp ****     clrBit(UCSR0B, TXEN0);
 646:funsape/peripheral/usart0.hpp ****     return;
 647:funsape/peripheral/usart0.hpp **** }
 648:funsape/peripheral/usart0.hpp **** 
 649:funsape/peripheral/usart0.hpp **** void inlined Usart0::enableReceiver(void)
 650:funsape/peripheral/usart0.hpp **** {
 651:funsape/peripheral/usart0.hpp ****     setBit(UCSR0B, RXEN0);
 652:funsape/peripheral/usart0.hpp ****     return;
 653:funsape/peripheral/usart0.hpp **** }
 654:funsape/peripheral/usart0.hpp **** 
 655:funsape/peripheral/usart0.hpp **** void inlined Usart0::enableTransmitter(void)
 1623               		.loc 7 655 14 view .LVU428
 1624               	.LBB186:
 656:funsape/peripheral/usart0.hpp **** {
 657:funsape/peripheral/usart0.hpp ****     setBit(UCSR0B, TXEN0);
 1625               		.loc 7 657 5 view .LVU429
 1626               		.loc 7 657 5 view .LVU430
 1627 00ee E1EC      		ldi r30,lo8(-63)
 1628 00f0 F0E0      		ldi r31,0
 1629 00f2 8081      		ld r24,Z
 1630 00f4 8860      		ori r24,lo8(8)
 1631 00f6 8083      		st Z,r24
 1632               		.loc 7 657 5 view .LVU431
 658:funsape/peripheral/usart0.hpp ****     return;
 1633               		.loc 7 658 5 view .LVU432
 1634               	.LBE186:
 1635               	.LBE185:
 160:main.cpp      ****     usart0.enableReceiver();
 1636               		.loc 1 160 5 view .LVU433
 1637               	.LVL105:
 1638               	.LBB187:
 1639               	.LBI187:
 649:funsape/peripheral/usart0.hpp **** {
 1640               		.loc 7 649 14 view .LVU434
 1641               	.LBB188:
 651:funsape/peripheral/usart0.hpp ****     return;
 1642               		.loc 7 651 5 view .LVU435
 651:funsape/peripheral/usart0.hpp ****     return;
 1643               		.loc 7 651 5 view .LVU436
 1644 00f8 8081      		ld r24,Z
 1645 00fa 8061      		ori r24,lo8(16)
 1646 00fc 8083      		st Z,r24
 651:funsape/peripheral/usart0.hpp ****     return;
 1647               		.loc 7 651 5 view .LVU437
 652:funsape/peripheral/usart0.hpp **** }
 1648               		.loc 7 652 5 view .LVU438
 1649               	.LBE188:
 1650               	.LBE187:
 161:main.cpp      ****     usart0.stdio();
 1651               		.loc 1 161 5 view .LVU439
 1652               	.LVL106:
 1653               	.LBB189:
 1654               	.LBI189:
 659:funsape/peripheral/usart0.hpp **** }
 660:funsape/peripheral/usart0.hpp **** 
GAS LISTING /tmp/ccUMk0PR.s 			page 101


 661:funsape/peripheral/usart0.hpp **** bool_t inlined Usart0::isReceptionComplete(void)
 662:funsape/peripheral/usart0.hpp **** {
 663:funsape/peripheral/usart0.hpp ****     return isBitSet(UCSR0A, RXC0);
 664:funsape/peripheral/usart0.hpp **** }
 665:funsape/peripheral/usart0.hpp **** 
 666:funsape/peripheral/usart0.hpp **** bool_t inlined Usart0::isTransmissionBufferEmpty(void)
 667:funsape/peripheral/usart0.hpp **** {
 668:funsape/peripheral/usart0.hpp ****     return isBitSet(UCSR0A, UDRE0);
 669:funsape/peripheral/usart0.hpp **** }
 670:funsape/peripheral/usart0.hpp **** 
 671:funsape/peripheral/usart0.hpp **** bool_t inlined Usart0::isTransmissionComplete(void)
 672:funsape/peripheral/usart0.hpp **** {
 673:funsape/peripheral/usart0.hpp ****     return isBitSet(UCSR0A, TXC0);
 674:funsape/peripheral/usart0.hpp **** }
 675:funsape/peripheral/usart0.hpp **** 
 676:funsape/peripheral/usart0.hpp **** void inlined Usart0::activateReceptionCompleteInterrupt(void)
 677:funsape/peripheral/usart0.hpp **** {
 678:funsape/peripheral/usart0.hpp ****     setBit(UCSR0B, RXCIE0);
 679:funsape/peripheral/usart0.hpp ****     return;
 680:funsape/peripheral/usart0.hpp **** }
 681:funsape/peripheral/usart0.hpp **** 
 682:funsape/peripheral/usart0.hpp **** void inlined Usart0::activateTransmissionBufferEmptyInterrupt(void)
 683:funsape/peripheral/usart0.hpp **** {
 684:funsape/peripheral/usart0.hpp ****     setBit(UCSR0B, UDRIE0);
 685:funsape/peripheral/usart0.hpp ****     return;
 686:funsape/peripheral/usart0.hpp **** }
 687:funsape/peripheral/usart0.hpp **** 
 688:funsape/peripheral/usart0.hpp **** void inlined Usart0::activateTransmissionCompleteInterrupt(void)
 689:funsape/peripheral/usart0.hpp **** {
 690:funsape/peripheral/usart0.hpp ****     setBit(UCSR0B, TXCIE0);
 691:funsape/peripheral/usart0.hpp ****     return;
 692:funsape/peripheral/usart0.hpp **** }
 693:funsape/peripheral/usart0.hpp **** 
 694:funsape/peripheral/usart0.hpp **** void inlined Usart0::deactivateReceptionCompleteInterrupt(void)
 695:funsape/peripheral/usart0.hpp **** {
 696:funsape/peripheral/usart0.hpp ****     clrBit(UCSR0B, RXCIE0);
 697:funsape/peripheral/usart0.hpp ****     return;
 698:funsape/peripheral/usart0.hpp **** }
 699:funsape/peripheral/usart0.hpp **** 
 700:funsape/peripheral/usart0.hpp **** void inlined Usart0::deactivateTransmissionBufferEmptyInterrupt(void)
 701:funsape/peripheral/usart0.hpp **** {
 702:funsape/peripheral/usart0.hpp ****     clrBit(UCSR0B, UDRIE0);
 703:funsape/peripheral/usart0.hpp ****     return;
 704:funsape/peripheral/usart0.hpp **** }
 705:funsape/peripheral/usart0.hpp **** 
 706:funsape/peripheral/usart0.hpp **** void inlined Usart0::deactivateTransmissionCompleteInterrupt(void)
 707:funsape/peripheral/usart0.hpp **** {
 708:funsape/peripheral/usart0.hpp ****     clrBit(UCSR0B, TXCIE0);
 709:funsape/peripheral/usart0.hpp ****     return;
 710:funsape/peripheral/usart0.hpp **** }
 711:funsape/peripheral/usart0.hpp **** 
 712:funsape/peripheral/usart0.hpp **** void inlined Usart0::stdio(void)
 1655               		.loc 7 712 14 view .LVU440
 1656               	.LBB190:
 713:funsape/peripheral/usart0.hpp **** {
 714:funsape/peripheral/usart0.hpp ****     stdin = stdout = stderr = &usartStream;
 1657               		.loc 7 714 5 view .LVU441
GAS LISTING /tmp/ccUMk0PR.s 			page 102


 1658               		.loc 7 714 29 is_stmt 0 view .LVU442
 1659 00fe E0E0      		ldi r30,lo8(__iob)
 1660 0100 F0E0      		ldi r31,hi8(__iob)
 1661 0102 80E0      		ldi r24,lo8(usartStream)
 1662 0104 90E0      		ldi r25,hi8(usartStream)
 1663 0106 9583      		std Z+5,r25
 1664 0108 8483      		std Z+4,r24
 1665               		.loc 7 714 20 view .LVU443
 1666 010a 9383      		std Z+3,r25
 1667 010c 8283      		std Z+2,r24
 1668               		.loc 7 714 11 view .LVU444
 1669 010e 9183      		std Z+1,r25
 1670 0110 8083      		st Z,r24
 715:funsape/peripheral/usart0.hpp ****     return;
 1671               		.loc 7 715 5 is_stmt 1 view .LVU445
 1672               	.LBE190:
 1673               	.LBE189:
 165:main.cpp      ****     sei();
 1674               		.loc 1 165 5 view .LVU446
 1675               	/* #APP */
 1676               	 ;  165 "main.cpp" 1
 1677 0112 7894      		sei ; [[len=1]]
 1678               	 ;  0 "" 2
 169:main.cpp      ****     {
 1679               		.loc 1 169 5 view .LVU447
 170:main.cpp      ****     twi.init(400000, 64);
 1680               		.loc 1 170 5 view .LVU448
 170:main.cpp      ****     twi.init(400000, 64);
 1681               		.loc 1 170 13 is_stmt 0 view .LVU449
 1682               	/* #NOAPP */
 1683 0114 20E4      		ldi r18,lo8(64)
 1684 0116 40E8      		ldi r20,lo8(-128)
 1685 0118 5AE1      		ldi r21,lo8(26)
 1686 011a 66E0      		ldi r22,lo8(6)
 1687 011c 70E0      		ldi r23,0
 1688 011e 80E0      		ldi r24,lo8(twi)
 1689 0120 90E0      		ldi r25,hi8(twi)
 1690 0122 0E94 0000 		call _ZN3Twi4initEmh
 1691               	.LVL107:
 172:main.cpp      ****     display.init(&twi, Ssd1306::Size::SSD1306_128X64, 0x3C, oledBuffer);
 1692               		.loc 1 172 5 is_stmt 1 view .LVU450
 172:main.cpp      ****     display.init(&twi, Ssd1306::Size::SSD1306_128X64, 0x3C, oledBuffer);
 1693               		.loc 1 172 17 is_stmt 0 view .LVU451
 1694 0126 00E0      		ldi r16,lo8(oledBuffer)
 1695 0128 10E0      		ldi r17,hi8(oledBuffer)
 1696 012a 2CE3      		ldi r18,lo8(60)
 1697 012c 40E0      		ldi r20,0
 1698 012e 60E0      		ldi r22,lo8(twi)
 1699 0130 70E0      		ldi r23,hi8(twi)
 1700 0132 80E0      		ldi r24,lo8(display)
 1701 0134 90E0      		ldi r25,hi8(display)
 1702 0136 0E94 0000 		call _ZN7Ssd13064initEP3BusNS_4SizeEhPh
 1703               	.LVL108:
 174:main.cpp      ****     display.setUpsideDown(true);
 1704               		.loc 1 174 5 is_stmt 1 view .LVU452
 174:main.cpp      ****     display.setUpsideDown(true);
 1705               		.loc 1 174 26 is_stmt 0 view .LVU453
GAS LISTING /tmp/ccUMk0PR.s 			page 103


 1706 013a 61E0      		ldi r22,lo8(1)
 1707 013c 80E0      		ldi r24,lo8(display)
 1708 013e 90E0      		ldi r25,hi8(display)
 1709 0140 0E94 0000 		call _ZN7Ssd130613setUpsideDownEb
 1710               	.LVL109:
 175:main.cpp      ****     display.clearScreen();
 1711               		.loc 1 175 5 is_stmt 1 view .LVU454
 175:main.cpp      ****     display.clearScreen();
 1712               		.loc 1 175 24 is_stmt 0 view .LVU455
 1713 0144 80E0      		ldi r24,lo8(display)
 1714 0146 90E0      		ldi r25,hi8(display)
 1715 0148 0E94 0000 		call _ZN7Ssd130611clearScreenEv
 1716               	.LVL110:
 184:main.cpp      ****     uint16_t x {0}, y {0};
 1717               		.loc 1 184 5 is_stmt 1 view .LVU456
 185:main.cpp      ****     uint8_t packet[PACKET_SIZE], recv_packet[PACKET_SIZE];
 1718               		.loc 1 185 5 view .LVU457
 186:main.cpp      ****     int32_t pitch {0}, roll {0}, yaw {0};
 1719               		.loc 1 186 5 view .LVU458
 186:main.cpp      ****     int32_t pitch {0}, roll {0}, yaw {0};
 1720               		.loc 1 186 13 is_stmt 0 view .LVU459
 1721 014c 19A2      		std Y+33,__zero_reg__
 1722 014e 1AA2      		std Y+34,__zero_reg__
 1723 0150 1BA2      		std Y+35,__zero_reg__
 1724 0152 1CA2      		std Y+36,__zero_reg__
 186:main.cpp      ****     int32_t pitch {0}, roll {0}, yaw {0};
 1725               		.loc 1 186 24 view .LVU460
 1726 0154 1DA2      		std Y+37,__zero_reg__
 1727 0156 1EA2      		std Y+38,__zero_reg__
 1728 0158 1FA2      		std Y+39,__zero_reg__
 1729 015a 18A6      		std Y+40,__zero_reg__
 186:main.cpp      ****     int32_t pitch {0}, roll {0}, yaw {0};
 1730               		.loc 1 186 34 view .LVU461
 1731 015c 19A6      		std Y+41,__zero_reg__
 1732 015e 1AA6      		std Y+42,__zero_reg__
 1733 0160 1BA6      		std Y+43,__zero_reg__
 1734 0162 1CA6      		std Y+44,__zero_reg__
 187:main.cpp      ****     int16_t accel_x {0};
 1735               		.loc 1 187 5 is_stmt 1 view .LVU462
 187:main.cpp      ****     int16_t accel_x {0};
 1736               		.loc 1 187 13 is_stmt 0 view .LVU463
 1737 0164 1EA6      		std Y+46,__zero_reg__
 1738 0166 1DA6      		std Y+45,__zero_reg__
 188:main.cpp      ****     uint8_t sense_x {20}, sense_y{20}; 
 1739               		.loc 1 188 5 is_stmt 1 view .LVU464
 1740               	.LVL111:
 190:main.cpp      ****     BT_STATE ble_state = BT_DISCONNECTED;
 1741               		.loc 1 190 5 view .LVU465
 190:main.cpp      ****     BT_STATE ble_state = BT_DISCONNECTED;
 1742               		.loc 1 190 14 is_stmt 0 view .LVU466
 1743 0168 81E0      		ldi r24,lo8(1)
 1744 016a 90E0      		ldi r25,0
 1745 016c 98AB      		std Y+48,r25
 1746 016e 8FA7      		std Y+47,r24
 191:main.cpp      ****     uint8_t last_debounced_buttons = 0;
 1747               		.loc 1 191 5 is_stmt 1 view .LVU467
 1748               	.LVL112:
GAS LISTING /tmp/ccUMk0PR.s 			page 104


 193:main.cpp      ****     uint8_t idle_count = 0;
 1749               		.loc 1 193 5 view .LVU468
 195:main.cpp      ****     uint32_t last_mouse_button_pressed {0};
 1750               		.loc 1 195 5 view .LVU469
 197:main.cpp      ****     printf("Inicializando Atmega\n");
 1751               		.loc 1 197 5 view .LVU470
 197:main.cpp      ****     printf("Inicializando Atmega\n");
 1752               		.loc 1 197 11 is_stmt 0 view .LVU471
 1753 0170 80E0      		ldi r24,lo8(.LC0)
 1754 0172 90E0      		ldi r25,hi8(.LC0)
 1755 0174 0E94 0000 		call puts
 1756               	.LVL113:
 195:main.cpp      ****     uint32_t last_mouse_button_pressed {0};
 1757               		.loc 1 195 14 view .LVU472
 1758 0178 A096      		adiw r28,92-60
 1759 017a 1CAE      		std Y+60,__zero_reg__
 1760 017c 1DAE      		std Y+61,__zero_reg__
 1761 017e 1EAE      		std Y+62,__zero_reg__
 1762 0180 1FAE      		std Y+63,__zero_reg__
 1763 0182 A097      		sbiw r28,92-60
 193:main.cpp      ****     uint8_t idle_count = 0;
 1764               		.loc 1 193 13 view .LVU473
 1765 0184 812C      		mov r8,__zero_reg__
 191:main.cpp      ****     uint8_t last_debounced_buttons = 0;
 1766               		.loc 1 191 13 view .LVU474
 1767 0186 F12C      		mov r15,__zero_reg__
 188:main.cpp      ****     uint8_t sense_x {20}, sense_y{20}; 
 1768               		.loc 1 188 27 view .LVU475
 1769 0188 0F2E      		mov __tmp_reg__,r31
 1770 018a F4E1      		ldi r31,lo8(20)
 1771 018c AF2E      		mov r10,r31
 1772 018e F02D      		mov r31,__tmp_reg__
 188:main.cpp      ****     uint8_t sense_x {20}, sense_y{20}; 
 1773               		.loc 1 188 13 view .LVU476
 1774 0190 0F2E      		mov __tmp_reg__,r31
 1775 0192 F4E1      		ldi r31,lo8(20)
 1776 0194 BF2E      		mov r11,r31
 1777 0196 F02D      		mov r31,__tmp_reg__
 184:main.cpp      ****     uint16_t x {0}, y {0};
 1778               		.loc 1 184 21 view .LVU477
 1779 0198 312C      		mov r3,__zero_reg__
 1780 019a 912C      		mov r9,__zero_reg__
 184:main.cpp      ****     uint16_t x {0}, y {0};
 1781               		.loc 1 184 14 view .LVU478
 1782 019c 212C      		mov r2,__zero_reg__
 1783 019e A196      		adiw r28,96-63
 1784 01a0 1FAE      		std Y+63,__zero_reg__
 1785 01a2 A197      		sbiw r28,96-63
 1786 01a4 00C0      		rjmp .L72
 1787               	.LVL114:
 1788               	.L93:
 1789               	.LBB191:
 1790               	.LBB192:
 1791               	.LBB193:
 202:main.cpp      ****             button_pending_change = false;
 1792               		.loc 1 202 13 is_stmt 1 view .LVU479
 202:main.cpp      ****             button_pending_change = false;
GAS LISTING /tmp/ccUMk0PR.s 			page 105


 1793               		.loc 1 202 35 is_stmt 0 view .LVU480
 1794 01a6 1092 0000 		sts button_pending_change,__zero_reg__
 204:main.cpp      ****             uint32_t current_milis = get_millis();
 1795               		.loc 1 204 13 is_stmt 1 view .LVU481
 204:main.cpp      ****             uint32_t current_milis = get_millis();
 1796               		.loc 1 204 48 is_stmt 0 view .LVU482
 1797 01aa 0E94 0000 		call _Z10get_millisv
 1798               	.LVL115:
 1799 01ae 2B01      		movw r4,r22
 1800 01b0 3C01      		movw r6,r24
 1801               	.LVL116:
 205:main.cpp      ****             for(uint8_t i = 0; i < 3; i++)
 1802               		.loc 1 205 13 is_stmt 1 view .LVU483
 1803               	.LBB194:
 205:main.cpp      ****             for(uint8_t i = 0; i < 3; i++)
 1804               		.loc 1 205 25 is_stmt 0 view .LVU484
 1805 01b2 90E0      		ldi r25,0
 205:main.cpp      ****             for(uint8_t i = 0; i < 3; i++)
 1806               		.loc 1 205 13 view .LVU485
 1807 01b4 00C0      		rjmp .L33
 1808               	.LVL117:
 1809               	.L35:
 207:main.cpp      ****                     debounced_buttons = defineBit(debounced_buttons, i, !(bool)(button_data & (1 <<
 1810               		.loc 1 207 41 discriminator 2 view .LVU486
 1811 01b6 9601      		movw r18,r12
 1812 01b8 3327      		clr r19
 1813 01ba 092E      		mov r0,r25
 1814 01bc 00C0      		rjmp 2f
 1815               		1:
 1816 01be 3595      		asr r19
 1817 01c0 2795      		ror r18
 1818               		2:
 1819 01c2 0A94      		dec r0
 1820 01c4 02F4      		brpl 1b
 1821 01c6 2095      		com r18
 1822 01c8 3095      		com r19
 1823 01ca 2170      		andi r18,1
 1824 01cc 3327      		clr r19
 1825 01ce 092E      		mov r0,r25
 1826 01d0 00C0      		rjmp 2f
 1827               		1:
 1828 01d2 220F      		lsl r18
 1829 01d4 331F      		rol r19
 1830               		2:
 1831 01d6 0A94      		dec r0
 1832 01d8 02F4      		brpl 1b
 1833 01da A901      		movw r20,r18
 1834 01dc 2091 0000 		lds r18,debounced_buttons
 207:main.cpp      ****                     debounced_buttons = defineBit(debounced_buttons, i, !(bool)(button_data & (1 <<
 1835               		.loc 1 207 39 discriminator 2 view .LVU487
 1836 01e0 242B      		or r18,r20
 1837               	.L36:
 207:main.cpp      ****                     debounced_buttons = defineBit(debounced_buttons, i, !(bool)(button_data & (1 <<
 1838               		.loc 1 207 39 discriminator 3 view .LVU488
 1839 01e2 2093 0000 		sts debounced_buttons,r18
 1840               	.L37:
 205:main.cpp      ****             for(uint8_t i = 0; i < 3; i++)
GAS LISTING /tmp/ccUMk0PR.s 			page 106


 1841               		.loc 1 205 13 is_stmt 1 discriminator 1 view .LVU489
 1842 01e6 9F5F      		subi r25,lo8(-(1))
 1843               	.LVL118:
 1844               	.L33:
 205:main.cpp      ****             for(uint8_t i = 0; i < 3; i++)
 1845               		.loc 1 205 34 discriminator 2 view .LVU490
 1846 01e8 9330      		cpi r25,lo8(3)
 1847 01ea 00F0      		brlo .+2
 1848 01ec 00C0      		rjmp .L32
 206:main.cpp      ****                 if((current_milis - button_last_changed[i]) > 15){
 1849               		.loc 1 206 17 view .LVU491
 206:main.cpp      ****                 if((current_milis - button_last_changed[i]) > 15){
 1850               		.loc 1 206 57 is_stmt 0 view .LVU492
 1851 01ee A92F      		mov r26,r25
 1852 01f0 B0E0      		ldi r27,0
 206:main.cpp      ****                 if((current_milis - button_last_changed[i]) > 15){
 1853               		.loc 1 206 58 view .LVU493
 1854 01f2 FD01      		movw r30,r26
 1855 01f4 EE0F      		lsl r30
 1856 01f6 FF1F      		rol r31
 1857 01f8 EE0F      		lsl r30
 1858 01fa FF1F      		rol r31
 1859 01fc E050      		subi r30,lo8(-(button_last_changed))
 1860 01fe F040      		sbci r31,hi8(-(button_last_changed))
 1861 0200 4081      		ld r20,Z
 1862 0202 5181      		ldd r21,Z+1
 1863 0204 6281      		ldd r22,Z+2
 1864 0206 7381      		ldd r23,Z+3
 206:main.cpp      ****                 if((current_milis - button_last_changed[i]) > 15){
 1865               		.loc 1 206 35 view .LVU494
 1866 0208 9301      		movw r18,r6
 1867 020a 8201      		movw r16,r4
 1868 020c 041B      		sub r16,r20
 1869 020e 150B      		sbc r17,r21
 1870 0210 260B      		sbc r18,r22
 1871 0212 370B      		sbc r19,r23
 206:main.cpp      ****                 if((current_milis - button_last_changed[i]) > 15){
 1872               		.loc 1 206 17 view .LVU495
 1873 0214 0031      		cpi r16,16
 1874 0216 1040      		sbci r17,0
 1875 0218 2040      		sbci r18,0
 1876 021a 3040      		sbci r19,0
 1877 021c 00F0      		brlo .L34
 207:main.cpp      ****                     debounced_buttons = defineBit(debounced_buttons, i, !(bool)(button_data & (1 <<
 1878               		.loc 1 207 21 is_stmt 1 view .LVU496
 207:main.cpp      ****                     debounced_buttons = defineBit(debounced_buttons, i, !(bool)(button_data & (1 <<
 1879               		.loc 1 207 41 is_stmt 0 view .LVU497
 1880 021e 2091 0000 		lds r18,debounced_buttons
 1881 0222 30E0      		ldi r19,0
 1882 0224 092E      		mov r0,r25
 1883 0226 00C0      		rjmp 2f
 1884               		1:
 1885 0228 3595      		asr r19
 1886 022a 2795      		ror r18
 1887               		2:
 1888 022c 0A94      		dec r0
 1889 022e 02F4      		brpl 1b
GAS LISTING /tmp/ccUMk0PR.s 			page 107


 207:main.cpp      ****                     debounced_buttons = defineBit(debounced_buttons, i, !(bool)(button_data & (1 <<
 1890               		.loc 1 207 39 view .LVU498
 1891 0230 20FF      		sbrs r18,0
 1892 0232 00C0      		rjmp .L35
 207:main.cpp      ****                     debounced_buttons = defineBit(debounced_buttons, i, !(bool)(button_data & (1 <<
 1893               		.loc 1 207 41 discriminator 1 view .LVU499
 1894 0234 9601      		movw r18,r12
 1895 0236 3327      		clr r19
 1896 0238 092E      		mov r0,r25
 1897 023a 00C0      		rjmp 2f
 1898               		1:
 1899 023c 3595      		asr r19
 1900 023e 2795      		ror r18
 1901               		2:
 1902 0240 0A94      		dec r0
 1903 0242 02F4      		brpl 1b
 1904 0244 2170      		andi r18,1
 1905 0246 3327      		clr r19
 1906 0248 092E      		mov r0,r25
 1907 024a 00C0      		rjmp 2f
 1908               		1:
 1909 024c 220F      		lsl r18
 1910 024e 331F      		rol r19
 1911               		2:
 1912 0250 0A94      		dec r0
 1913 0252 02F4      		brpl 1b
 1914 0254 2095      		com r18
 1915 0256 8091 0000 		lds r24,debounced_buttons
 207:main.cpp      ****                     debounced_buttons = defineBit(debounced_buttons, i, !(bool)(button_data & (1 <<
 1916               		.loc 1 207 39 discriminator 1 view .LVU500
 1917 025a 2823      		and r18,r24
 1918 025c 00C0      		rjmp .L36
 1919               	.L34:
 209:main.cpp      ****                     button_pending_change = true;
 1920               		.loc 1 209 21 is_stmt 1 view .LVU501
 209:main.cpp      ****                     button_pending_change = true;
 1921               		.loc 1 209 43 is_stmt 0 view .LVU502
 1922 025e 81E0      		ldi r24,lo8(1)
 1923 0260 8093 0000 		sts button_pending_change,r24
 1924 0264 00C0      		rjmp .L37
 1925               	.LVL119:
 1926               	.L94:
 209:main.cpp      ****                     button_pending_change = true;
 1927               		.loc 1 209 43 view .LVU503
 1928               	.LBE194:
 1929               	.LBE193:
 1930               	.LBE192:
 215:main.cpp      ****         if((debounced_buttons & ENABLE_BUTTON) && (get_millis()-button_last_changed[ENABLE_BUTTON] 
 1931               		.loc 1 215 62 discriminator 1 view .LVU504
 1932 0266 0E94 0000 		call _Z10get_millisv
 1933               	.LVL120:
 215:main.cpp      ****         if((debounced_buttons & ENABLE_BUTTON) && (get_millis()-button_last_changed[ENABLE_BUTTON] 
 1934               		.loc 1 215 98 discriminator 2 view .LVU505
 1935 026a 0091 0000 		lds r16,button_last_changed+4
 1936 026e 1091 0000 		lds r17,button_last_changed+4+1
 1937 0272 2091 0000 		lds r18,button_last_changed+4+2
 1938 0276 3091 0000 		lds r19,button_last_changed+4+3
GAS LISTING /tmp/ccUMk0PR.s 			page 108


 215:main.cpp      ****         if((debounced_buttons & ENABLE_BUTTON) && (get_millis()-button_last_changed[ENABLE_BUTTON] 
 1939               		.loc 1 215 64 discriminator 2 view .LVU506
 1940 027a DC01      		movw r26,r24
 1941 027c CB01      		movw r24,r22
 1942 027e 801B      		sub r24,r16
 1943 0280 910B      		sbc r25,r17
 1944 0282 A20B      		sbc r26,r18
 1945 0284 B30B      		sbc r27,r19
 215:main.cpp      ****         if((debounced_buttons & ENABLE_BUTTON) && (get_millis()-button_last_changed[ENABLE_BUTTON] 
 1946               		.loc 1 215 48 discriminator 2 view .LVU507
 1947 0286 813D      		cpi r24,-47
 1948 0288 9740      		sbci r25,7
 1949 028a A040      		sbci r26,0
 1950 028c B040      		sbci r27,0
 1951 028e 00F4      		brsh .+2
 1952 0290 00C0      		rjmp .L39
 216:main.cpp      ****             current_state = CALIBRATION_MODE;
 1953               		.loc 1 216 13 is_stmt 1 view .LVU508
 216:main.cpp      ****             current_state = CALIBRATION_MODE;
 1954               		.loc 1 216 27 is_stmt 0 view .LVU509
 1955 0292 83E0      		ldi r24,lo8(3)
 1956 0294 90E0      		ldi r25,0
 1957 0296 9093 0000 		sts current_state+1,r25
 1958 029a 8093 0000 		sts current_state,r24
 1959 029e 00C0      		rjmp .L39
 1960               	.L73:
 220:main.cpp      ****             current_state = (current_state == IDLE_MODE) ? CURSOR_MODE : IDLE_MODE;
 1961               		.loc 1 220 58 discriminator 2 view .LVU510
 1962 02a0 80E0      		ldi r24,0
 1963 02a2 90E0      		ldi r25,0
 1964               	.L41:
 220:main.cpp      ****             current_state = (current_state == IDLE_MODE) ? CURSOR_MODE : IDLE_MODE;
 1965               		.loc 1 220 27 discriminator 3 view .LVU511
 1966 02a4 9093 0000 		sts current_state+1,r25
 1967 02a8 8093 0000 		sts current_state,r24
 1968               	.L40:
 222:main.cpp      ****         if((pressed_buttons & (RIGHT_BUTTON | LEFT_BUTTON)) && (debounced_buttons & (RIGHT_BUTTON |
 1969               		.loc 1 222 9 is_stmt 1 view .LVU512
 222:main.cpp      ****         if((pressed_buttons & (RIGHT_BUTTON | LEFT_BUTTON)) && (debounced_buttons & (RIGHT_BUTTON |
 1970               		.loc 1 222 61 is_stmt 0 view .LVU513
 1971 02ac 8F2D      		mov r24,r15
 1972 02ae 8670      		andi r24,lo8(6)
 1973 02b0 8030      		cpi r24,lo8(0)
 1974 02b2 01F0      		breq .L43
 222:main.cpp      ****         if((pressed_buttons & (RIGHT_BUTTON | LEFT_BUTTON)) && (debounced_buttons & (RIGHT_BUTTON |
 1975               		.loc 1 222 65 discriminator 1 view .LVU514
 1976 02b4 8091 0000 		lds r24,debounced_buttons
 222:main.cpp      ****         if((pressed_buttons & (RIGHT_BUTTON | LEFT_BUTTON)) && (debounced_buttons & (RIGHT_BUTTON |
 1977               		.loc 1 222 61 discriminator 1 view .LVU515
 1978 02b8 8670      		andi r24,lo8(6)
 1979 02ba 8111      		cpse r24,__zero_reg__
 1980 02bc 00C0      		rjmp .L91
 1981               	.LVL121:
 1982               	.L43:
 227:main.cpp      ****         if(update_display_flag){
 1983               		.loc 1 227 9 is_stmt 1 view .LVU516
 1984               	.LBB195:
GAS LISTING /tmp/ccUMk0PR.s 			page 109


 227:main.cpp      ****         if(update_display_flag){
 1985               		.loc 1 227 12 is_stmt 0 view .LVU517
 1986 02be 8091 0000 		lds r24,update_display_flag
 227:main.cpp      ****         if(update_display_flag){
 1987               		.loc 1 227 9 view .LVU518
 1988 02c2 8111      		cpse r24,__zero_reg__
 1989 02c4 00C0      		rjmp .L92
 1990               	.LVL122:
 1991               	.L45:
 227:main.cpp      ****         if(update_display_flag){
 1992               		.loc 1 227 9 view .LVU519
 1993               	.LBE195:
 261:main.cpp      ****         switch (current_state){
 1994               		.loc 1 261 9 is_stmt 1 view .LVU520
 1995               	.LBB201:
 261:main.cpp      ****         switch (current_state){
 1996               		.loc 1 261 17 is_stmt 0 view .LVU521
 1997 02c6 0091 0000 		lds r16,current_state
 1998 02ca 1091 0000 		lds r17,current_state+1
 261:main.cpp      ****         switch (current_state){
 1999               		.loc 1 261 9 view .LVU522
 2000 02ce 0230      		cpi r16,2
 2001 02d0 1105      		cpc r17,__zero_reg__
 2002 02d2 01F4      		brne .+2
 2003 02d4 00C0      		rjmp .L54
 2004 02d6 00F0      		brlo .+2
 2005 02d8 00C0      		rjmp .L55
 2006 02da 0130      		cpi r16,1
 2007 02dc 1105      		cpc r17,__zero_reg__
 2008 02de 00F4      		brsh .+2
 2009 02e0 00C0      		rjmp .L56
 2010 02e2 01F4      		brne .L58
 2011               	.LBB202:
 279:main.cpp      ****             case CURSOR_MODE:
 2012               		.loc 1 279 13 is_stmt 1 view .LVU523
 280:main.cpp      ****                 if (pitch > 60000){current_state = SCROLL_MODE; break;}
 2013               		.loc 1 280 17 view .LVU524
 280:main.cpp      ****                 if (pitch > 60000){current_state = SCROLL_MODE; break;}
 2014               		.loc 1 280 27 is_stmt 0 view .LVU525
 2015 02e4 89A1      		ldd r24,Y+33
 2016 02e6 9AA1      		ldd r25,Y+34
 2017 02e8 ABA1      		ldd r26,Y+35
 2018 02ea BCA1      		ldd r27,Y+36
 280:main.cpp      ****                 if (pitch > 60000){current_state = SCROLL_MODE; break;}
 2019               		.loc 1 280 17 view .LVU526
 2020 02ec 8136      		cpi r24,97
 2021 02ee 9A4E      		sbci r25,-22
 2022 02f0 A040      		sbci r26,0
 2023 02f2 B040      		sbci r27,0
 2024 02f4 04F4      		brge .+2
 2025 02f6 00C0      		rjmp .L60
 280:main.cpp      ****                 if (pitch > 60000){current_state = SCROLL_MODE; break;}
 2026               		.loc 1 280 36 is_stmt 1 discriminator 1 view .LVU527
 280:main.cpp      ****                 if (pitch > 60000){current_state = SCROLL_MODE; break;}
 2027               		.loc 1 280 50 is_stmt 0 discriminator 1 view .LVU528
 2028 02f8 82E0      		ldi r24,lo8(2)
 2029 02fa 90E0      		ldi r25,0
GAS LISTING /tmp/ccUMk0PR.s 			page 110


 2030 02fc 9093 0000 		sts current_state+1,r25
 2031 0300 8093 0000 		sts current_state,r24
 280:main.cpp      ****                 if (pitch > 60000){current_state = SCROLL_MODE; break;}
 2032               		.loc 1 280 65 is_stmt 1 discriminator 1 view .LVU529
 2033               	.LVL123:
 2034               	.L58:
 341:main.cpp      ****             default:
 2035               		.loc 1 341 13 view .LVU530
 342:main.cpp      ****                 ;
 2036               		.loc 1 342 17 view .LVU531
 2037               	.LBE202:
 2038               	.LBE201:
 346:main.cpp      ****             last_debounced_buttons = debounced_buttons;
 2039               		.loc 1 346 13 view .LVU532
 346:main.cpp      ****             last_debounced_buttons = debounced_buttons;
 2040               		.loc 1 346 36 is_stmt 0 view .LVU533
 2041 0304 F090 0000 		lds r15,debounced_buttons
 2042               	.LVL124:
 346:main.cpp      ****             last_debounced_buttons = debounced_buttons;
 2043               		.loc 1 346 36 view .LVU534
 2044               	.LBE191:
 199:main.cpp      ****     while (true){
 2045               		.loc 1 199 5 is_stmt 1 discriminator 1 view .LVU535
 2046               	.L72:
 199:main.cpp      ****     while (true){
 2047               		.loc 1 199 5 view .LVU536
 2048               	.LBB215:
 200:main.cpp      ****         uint8_t button_data = buttons.read();
 2049               		.loc 1 200 9 view .LVU537
 2050               	.LBB210:
 2051               	.LBI210:
 2052               		.file 8 "funsape/peripheral/gpioBus.hpp"
   1:funsape/peripheral/gpioBus.hpp **** //!
   2:funsape/peripheral/gpioBus.hpp **** //! ****************************************************************************
   3:funsape/peripheral/gpioBus.hpp **** //! @file           gpioBus.hpp
   4:funsape/peripheral/gpioBus.hpp **** //! @author         Leandro Schwarz (bladabuska+funsapeavr8lib@gmail.com)
   5:funsape/peripheral/gpioBus.hpp **** //! @brief          GPIO bus peripheral control.
   6:funsape/peripheral/gpioBus.hpp **** //! @details        This file provides driver interface with the GPIO module to
   7:funsape/peripheral/gpioBus.hpp **** //!                     multiple sequential pins for the FunSAPE++ AVR8
   8:funsape/peripheral/gpioBus.hpp **** //!                     Library.
   9:funsape/peripheral/gpioBus.hpp **** //! @date           2026-04-01
  10:funsape/peripheral/gpioBus.hpp **** //! @version        26.04
  11:funsape/peripheral/gpioBus.hpp **** //! @copyright      MIT License
  12:funsape/peripheral/gpioBus.hpp **** //! @note           No notes at this time.
  13:funsape/peripheral/gpioBus.hpp **** //! @todo           No items in todo list yet.
  14:funsape/peripheral/gpioBus.hpp **** //! @warning        When the user calls GpioBus::clr(), GpioBus::cpl(),
  15:funsape/peripheral/gpioBus.hpp **** //!                     GpioBus::set(), GpioBus::low(), GpioBus::high(),
  16:funsape/peripheral/gpioBus.hpp **** //!                     GpioBus::toggle() or GpioBus::write() and the bus is in
  17:funsape/peripheral/gpioBus.hpp **** //!                     PinMode::INPUT_FLOATING mode or in
  18:funsape/peripheral/gpioBus.hpp **** //!                     PinMode::INPUT_PULLED_UP mode, the mode is changed which
  19:funsape/peripheral/gpioBus.hpp **** //!                     could lead to some undefined behavior.
  20:funsape/peripheral/gpioBus.hpp **** //! ****************************************************************************
  21:funsape/peripheral/gpioBus.hpp **** //! @attention
  22:funsape/peripheral/gpioBus.hpp **** //!
  23:funsape/peripheral/gpioBus.hpp **** //! MIT License
  24:funsape/peripheral/gpioBus.hpp **** //!
  25:funsape/peripheral/gpioBus.hpp **** //! Copyright (c) 2026 Leandro Schwarz
GAS LISTING /tmp/ccUMk0PR.s 			page 111


  26:funsape/peripheral/gpioBus.hpp **** //!
  27:funsape/peripheral/gpioBus.hpp **** //! Permission is hereby granted, free of charge, to any person obtaining a copy
  28:funsape/peripheral/gpioBus.hpp **** //!     of this software and associated documentation files (the "Software"), to
  29:funsape/peripheral/gpioBus.hpp **** //!     deal in the Software without restriction, including without limitation
  30:funsape/peripheral/gpioBus.hpp **** //!     the rights to use, copy, modify, merge, publish, distribute, sublicense,
  31:funsape/peripheral/gpioBus.hpp **** //!     and/or sell copies of the Software, and to permit persons to whom the
  32:funsape/peripheral/gpioBus.hpp **** //!     Software is furnished to do so, subject to the following conditions:
  33:funsape/peripheral/gpioBus.hpp **** //!
  34:funsape/peripheral/gpioBus.hpp **** //! The above copyright notice and this permission notice shall be included in
  35:funsape/peripheral/gpioBus.hpp **** //!     all copies or substantial portions of the Software.
  36:funsape/peripheral/gpioBus.hpp **** //!
  37:funsape/peripheral/gpioBus.hpp **** //! THE SOFTWARE IS PROVIDED "AS IS", WITHOUT WARRANTY OF ANY KIND, EXPRESS OR
  38:funsape/peripheral/gpioBus.hpp **** //!     IMPLIED, INCLUDING BUT NOT LIMITED TO THE WARRANTIES OF MERCHANTABILITY,
  39:funsape/peripheral/gpioBus.hpp **** //!     FITNESS FOR A PARTICULAR PURPOSE AND NONINFRINGEMENT. IN NO EVENT SHALL
  40:funsape/peripheral/gpioBus.hpp **** //!     THE AUTHORS OR COPYRIGHT HOLDERS BE LIABLE FOR ANY CLAIM, DAMAGES OR
  41:funsape/peripheral/gpioBus.hpp **** //!     OTHER LIABILITY, WHETHER IN AN ACTION OF CONTRACT, TORT OR OTHERWISE,
  42:funsape/peripheral/gpioBus.hpp **** //!     ARISING FROM, OUT OF OR IN CONNECTION WITH THE SOFTWARE OR THE USE OR
  43:funsape/peripheral/gpioBus.hpp **** //!     OTHER DEALINGS IN THE SOFTWARE.
  44:funsape/peripheral/gpioBus.hpp **** //!
  45:funsape/peripheral/gpioBus.hpp **** //! ****************************************************************************
  46:funsape/peripheral/gpioBus.hpp **** //!
  47:funsape/peripheral/gpioBus.hpp **** 
  48:funsape/peripheral/gpioBus.hpp **** // =============================================================================
  49:funsape/peripheral/gpioBus.hpp **** // Include guard (START)
  50:funsape/peripheral/gpioBus.hpp **** // =============================================================================
  51:funsape/peripheral/gpioBus.hpp **** 
  52:funsape/peripheral/gpioBus.hpp **** #ifndef __GPIO_BUS_HPP
  53:funsape/peripheral/gpioBus.hpp **** #define __GPIO_BUS_HPP                  2604
  54:funsape/peripheral/gpioBus.hpp **** 
  55:funsape/peripheral/gpioBus.hpp **** // =============================================================================
  56:funsape/peripheral/gpioBus.hpp **** // Dependencies
  57:funsape/peripheral/gpioBus.hpp **** // =============================================================================
  58:funsape/peripheral/gpioBus.hpp **** 
  59:funsape/peripheral/gpioBus.hpp **** //     /////////////////     GLOBAL DEFINITIONS FILE    /////////////////     //
  60:funsape/peripheral/gpioBus.hpp **** 
  61:funsape/peripheral/gpioBus.hpp **** #include "../globalDefines.hpp"
  62:funsape/peripheral/gpioBus.hpp **** #if !defined(__GLOBAL_DEFINES_HPP)
  63:funsape/peripheral/gpioBus.hpp **** #   error [gpioBus.hpp] Error 1 - Header file (globalDefines.hpp) is missing or corrupted!
  64:funsape/peripheral/gpioBus.hpp **** #elif __GLOBAL_DEFINES_HPP != __GPIO_BUS_HPP
  65:funsape/peripheral/gpioBus.hpp **** #   error [gpioBus.hpp] Error 2 - Build mismatch between file (gpioBus.hpp) and global definitions 
  66:funsape/peripheral/gpioBus.hpp **** #endif
  67:funsape/peripheral/gpioBus.hpp **** 
  68:funsape/peripheral/gpioBus.hpp **** //     //////////////////     LIBRARY DEPENDENCIES     //////////////////     //
  69:funsape/peripheral/gpioBus.hpp **** 
  70:funsape/peripheral/gpioBus.hpp **** #include "../util/debug.hpp"
  71:funsape/peripheral/gpioBus.hpp **** #if !defined(__DEBUG_HPP)
  72:funsape/peripheral/gpioBus.hpp **** #   error [gpioBus.hpp] Error 1 - Header file (debug.hpp) is missing or corrupted!
  73:funsape/peripheral/gpioBus.hpp **** #elif __DEBUG_HPP != __GPIO_BUS_HPP
  74:funsape/peripheral/gpioBus.hpp **** #   error [gpioBus.hpp] Error 5 - Build mismatch between file (gpioBus.hpp) and library dependency 
  75:funsape/peripheral/gpioBus.hpp **** #endif
  76:funsape/peripheral/gpioBus.hpp **** 
  77:funsape/peripheral/gpioBus.hpp **** //     ///////////////////     STANDARD C LIBRARY     ///////////////////     //
  78:funsape/peripheral/gpioBus.hpp **** 
  79:funsape/peripheral/gpioBus.hpp **** // NONE
  80:funsape/peripheral/gpioBus.hpp **** 
  81:funsape/peripheral/gpioBus.hpp **** //     ////////////////////    AVR LIBRARY FILES     ////////////////////     //
  82:funsape/peripheral/gpioBus.hpp **** 
GAS LISTING /tmp/ccUMk0PR.s 			page 112


  83:funsape/peripheral/gpioBus.hpp **** // NONE
  84:funsape/peripheral/gpioBus.hpp **** 
  85:funsape/peripheral/gpioBus.hpp **** // +++++++++++++++++++++++++++++++++++++++++++++++++++++++++++++++++++++++++++++
  86:funsape/peripheral/gpioBus.hpp **** // Doxygen: Start main group "Peripherals"
  87:funsape/peripheral/gpioBus.hpp **** // +++++++++++++++++++++++++++++++++++++++++++++++++++++++++++++++++++++++++++++
  88:funsape/peripheral/gpioBus.hpp **** 
  89:funsape/peripheral/gpioBus.hpp **** //!
  90:funsape/peripheral/gpioBus.hpp **** //! @addtogroup     Peripherals
  91:funsape/peripheral/gpioBus.hpp **** //! @brief          Microcontroller peripherals.
  92:funsape/peripheral/gpioBus.hpp **** //! @{
  93:funsape/peripheral/gpioBus.hpp **** //!
  94:funsape/peripheral/gpioBus.hpp **** 
  95:funsape/peripheral/gpioBus.hpp **** // +++++++++++++++++++++++++++++++++++++++++++++++++++++++++++++++++++++++++++++
  96:funsape/peripheral/gpioBus.hpp **** // Doxygen: Start subgroup "Gpio" in "Peripherals"
  97:funsape/peripheral/gpioBus.hpp **** // +++++++++++++++++++++++++++++++++++++++++++++++++++++++++++++++++++++++++++++
  98:funsape/peripheral/gpioBus.hpp **** 
  99:funsape/peripheral/gpioBus.hpp **** //!
 100:funsape/peripheral/gpioBus.hpp **** //! @addtogroup     Gpio
 101:funsape/peripheral/gpioBus.hpp **** //! @brief          General Purpose Input/Output (GPIO) controller module.
 102:funsape/peripheral/gpioBus.hpp **** //! @{
 103:funsape/peripheral/gpioBus.hpp **** //!
 104:funsape/peripheral/gpioBus.hpp **** 
 105:funsape/peripheral/gpioBus.hpp **** // =============================================================================
 106:funsape/peripheral/gpioBus.hpp **** // Undefining previous definitions
 107:funsape/peripheral/gpioBus.hpp **** // =============================================================================
 108:funsape/peripheral/gpioBus.hpp **** 
 109:funsape/peripheral/gpioBus.hpp **** // NONE
 110:funsape/peripheral/gpioBus.hpp **** 
 111:funsape/peripheral/gpioBus.hpp **** // =============================================================================
 112:funsape/peripheral/gpioBus.hpp **** // Constant definitions
 113:funsape/peripheral/gpioBus.hpp **** // =============================================================================
 114:funsape/peripheral/gpioBus.hpp **** 
 115:funsape/peripheral/gpioBus.hpp **** // NONE
 116:funsape/peripheral/gpioBus.hpp **** 
 117:funsape/peripheral/gpioBus.hpp **** // =============================================================================
 118:funsape/peripheral/gpioBus.hpp **** // New data types
 119:funsape/peripheral/gpioBus.hpp **** // =============================================================================
 120:funsape/peripheral/gpioBus.hpp **** 
 121:funsape/peripheral/gpioBus.hpp **** // NONE
 122:funsape/peripheral/gpioBus.hpp **** 
 123:funsape/peripheral/gpioBus.hpp **** // =============================================================================
 124:funsape/peripheral/gpioBus.hpp **** // Interrupt callback functions declarations
 125:funsape/peripheral/gpioBus.hpp **** // =============================================================================
 126:funsape/peripheral/gpioBus.hpp **** 
 127:funsape/peripheral/gpioBus.hpp **** // NONE
 128:funsape/peripheral/gpioBus.hpp **** 
 129:funsape/peripheral/gpioBus.hpp **** // =============================================================================
 130:funsape/peripheral/gpioBus.hpp **** // Public functions declarations
 131:funsape/peripheral/gpioBus.hpp **** // =============================================================================
 132:funsape/peripheral/gpioBus.hpp **** 
 133:funsape/peripheral/gpioBus.hpp **** // NONE
 134:funsape/peripheral/gpioBus.hpp **** 
 135:funsape/peripheral/gpioBus.hpp **** // =============================================================================
 136:funsape/peripheral/gpioBus.hpp **** // Classes
 137:funsape/peripheral/gpioBus.hpp **** // =============================================================================
 138:funsape/peripheral/gpioBus.hpp **** 
 139:funsape/peripheral/gpioBus.hpp **** //!
GAS LISTING /tmp/ccUMk0PR.s 			page 113


 140:funsape/peripheral/gpioBus.hpp **** //! @brief          GpioBus class
 141:funsape/peripheral/gpioBus.hpp **** //! @details        This class manages the General Purpose Input-Output (GPIO)
 142:funsape/peripheral/gpioBus.hpp **** //!                     peripheral in bus mode.
 143:funsape/peripheral/gpioBus.hpp **** //! @attention      This class is not instantiated by default. The user may
 144:funsape/peripheral/gpioBus.hpp **** //!                     create as many instances as necessary.
 145:funsape/peripheral/gpioBus.hpp **** //!
 146:funsape/peripheral/gpioBus.hpp **** class GpioBus
 147:funsape/peripheral/gpioBus.hpp **** {
 148:funsape/peripheral/gpioBus.hpp ****     // -------------------------------------------------------------------------
 149:funsape/peripheral/gpioBus.hpp ****     // New data types ----------------------------------------------------------
 150:funsape/peripheral/gpioBus.hpp **** 
 151:funsape/peripheral/gpioBus.hpp **** public:
 152:funsape/peripheral/gpioBus.hpp ****     // NONE
 153:funsape/peripheral/gpioBus.hpp **** 
 154:funsape/peripheral/gpioBus.hpp **** private:
 155:funsape/peripheral/gpioBus.hpp ****     // NONE
 156:funsape/peripheral/gpioBus.hpp **** 
 157:funsape/peripheral/gpioBus.hpp **** protected:
 158:funsape/peripheral/gpioBus.hpp ****     // NONE
 159:funsape/peripheral/gpioBus.hpp **** 
 160:funsape/peripheral/gpioBus.hpp **** // -------------------------------------------------------------------------
 161:funsape/peripheral/gpioBus.hpp **** // Constructors ------------------------------------------------------------
 162:funsape/peripheral/gpioBus.hpp **** 
 163:funsape/peripheral/gpioBus.hpp **** public:
 164:funsape/peripheral/gpioBus.hpp ****     //!
 165:funsape/peripheral/gpioBus.hpp ****     //! @brief      GpioBus class constructor.
 166:funsape/peripheral/gpioBus.hpp ****     //! @details    Creates a GpioBus object. The object must be initialized
 167:funsape/peripheral/gpioBus.hpp ****     //!                 before use.
 168:funsape/peripheral/gpioBus.hpp ****     //! @see        init(ioRegAddress_t gpioPort_p, PinIndex gpioBusIndex_p,
 169:funsape/peripheral/gpioBus.hpp ****     //!                 cuint8_t gpioBusSize_p).
 170:funsape/peripheral/gpioBus.hpp ****     //! @par Error codes:
 171:funsape/peripheral/gpioBus.hpp ****     //!
 172:funsape/peripheral/gpioBus.hpp ****     //! | Error code       | Meaning                          |
 173:funsape/peripheral/gpioBus.hpp ****     //! |: ----------------|: --------------------------------|
 174:funsape/peripheral/gpioBus.hpp ****     //! | @ref Error::NONE | Success. No erros were detected. |
 175:funsape/peripheral/gpioBus.hpp ****     //!
 176:funsape/peripheral/gpioBus.hpp ****     GpioBus(
 177:funsape/peripheral/gpioBus.hpp ****             void
 178:funsape/peripheral/gpioBus.hpp ****     );
 179:funsape/peripheral/gpioBus.hpp **** 
 180:funsape/peripheral/gpioBus.hpp ****     //!
 181:funsape/peripheral/gpioBus.hpp ****     //! @brief      GpioBus class destructor.
 182:funsape/peripheral/gpioBus.hpp ****     //! @details    Destroys a GpioBus object.
 183:funsape/peripheral/gpioBus.hpp ****     //!
 184:funsape/peripheral/gpioBus.hpp ****     ~GpioBus(
 185:funsape/peripheral/gpioBus.hpp ****             void
 186:funsape/peripheral/gpioBus.hpp ****     );
 187:funsape/peripheral/gpioBus.hpp **** 
 188:funsape/peripheral/gpioBus.hpp **** private:
 189:funsape/peripheral/gpioBus.hpp ****     // NONE
 190:funsape/peripheral/gpioBus.hpp **** 
 191:funsape/peripheral/gpioBus.hpp **** protected:
 192:funsape/peripheral/gpioBus.hpp ****     // NONE
 193:funsape/peripheral/gpioBus.hpp **** 
 194:funsape/peripheral/gpioBus.hpp ****     // -------------------------------------------------------------------------
 195:funsape/peripheral/gpioBus.hpp ****     // Methods - Inherited methods ---------------------------------------------
 196:funsape/peripheral/gpioBus.hpp **** 
GAS LISTING /tmp/ccUMk0PR.s 			page 114


 197:funsape/peripheral/gpioBus.hpp **** public:
 198:funsape/peripheral/gpioBus.hpp ****     // NONE
 199:funsape/peripheral/gpioBus.hpp **** 
 200:funsape/peripheral/gpioBus.hpp **** protected:
 201:funsape/peripheral/gpioBus.hpp ****     // NONE
 202:funsape/peripheral/gpioBus.hpp **** 
 203:funsape/peripheral/gpioBus.hpp ****     // -------------------------------------------------------------------------
 204:funsape/peripheral/gpioBus.hpp ****     // Methods - class own methods ---------------------------------------------
 205:funsape/peripheral/gpioBus.hpp **** 
 206:funsape/peripheral/gpioBus.hpp **** public:
 207:funsape/peripheral/gpioBus.hpp ****     //     /////////////////     CONTROL AND STATUS     /////////////////     //
 208:funsape/peripheral/gpioBus.hpp **** 
 209:funsape/peripheral/gpioBus.hpp ****     //!
 210:funsape/peripheral/gpioBus.hpp ****     //! @brief      Returns the last error.
 211:funsape/peripheral/gpioBus.hpp ****     //! @details    Returns the last error.
 212:funsape/peripheral/gpioBus.hpp ****     //! @return     @ref Error          Error status of the last operation.
 213:funsape/peripheral/gpioBus.hpp ****     //!
 214:funsape/peripheral/gpioBus.hpp ****     Error inlined getLastError(
 215:funsape/peripheral/gpioBus.hpp ****             void
 216:funsape/peripheral/gpioBus.hpp ****     ) const;
 217:funsape/peripheral/gpioBus.hpp **** 
 218:funsape/peripheral/gpioBus.hpp ****     //!
 219:funsape/peripheral/gpioBus.hpp ****     //! @brief      Initializes the GpioBus module.
 220:funsape/peripheral/gpioBus.hpp ****     //! @details    Initializes the GpioBus module.
 221:funsape/peripheral/gpioBus.hpp ****     //! @param[in]  gpioPortAddress_p   Register address of the GPIO port.
 222:funsape/peripheral/gpioBus.hpp ****     //! @param[in]  gpioBusIndex_p      @ref PinIndex pin position of the first
 223:funsape/peripheral/gpioBus.hpp ****     //!                                     pin of the bus.
 224:funsape/peripheral/gpioBus.hpp ****     //! @param[in]  gpioBusSize_p       Bus size in bits.
 225:funsape/peripheral/gpioBus.hpp ****     //! @retval     true                if success.
 226:funsape/peripheral/gpioBus.hpp ****     //! @retval     false               if an error occurred. Retrieve the error
 227:funsape/peripheral/gpioBus.hpp ****     //!                                     by calling @ref getLastError().
 228:funsape/peripheral/gpioBus.hpp ****     //! @par Error codes:
 229:funsape/peripheral/gpioBus.hpp ****     //!
 230:funsape/peripheral/gpioBus.hpp ****     //! | Error code                             | Meaning                                         
 231:funsape/peripheral/gpioBus.hpp ****     //! |:---------------------------------------|:------------------------------------------------
 232:funsape/peripheral/gpioBus.hpp ****     //! | @ref Error::NONE                       | Success. No erros were detected.                
 233:funsape/peripheral/gpioBus.hpp ****     //! | @ref Error::GPIO_PORT_INVALID          | The given GPIO address is not valid.            
 234:funsape/peripheral/gpioBus.hpp ****     //! | @ref Error::GPIO_BUS_SIZE_INVALID      | The bus size is greater than 8 or lower than 0. 
 235:funsape/peripheral/gpioBus.hpp ****     //! | @ref Error::GPIO_PIN_OUT_OF_BOUNDARIES | The sum of the bus size and pin index must be lo
 236:funsape/peripheral/gpioBus.hpp ****     //!
 237:funsape/peripheral/gpioBus.hpp ****     bool_t init(
 238:funsape/peripheral/gpioBus.hpp ****             ioRegAddress_t gpioPortAddress_p,
 239:funsape/peripheral/gpioBus.hpp ****             const PinIndex gpioBusIndex_p,
 240:funsape/peripheral/gpioBus.hpp ****             cuint8_t gpioBusSize_p
 241:funsape/peripheral/gpioBus.hpp ****     );
 242:funsape/peripheral/gpioBus.hpp **** 
 243:funsape/peripheral/gpioBus.hpp ****     //     /////////////////    PIN RELATED METHODS     /////////////////     //
 244:funsape/peripheral/gpioBus.hpp **** 
 245:funsape/peripheral/gpioBus.hpp ****     //!
 246:funsape/peripheral/gpioBus.hpp ****     //! @brief      Clears the GpioBus pins.
 247:funsape/peripheral/gpioBus.hpp ****     //! @details    This function clears all the pins of the bus in the output
 248:funsape/peripheral/gpioBus.hpp ****     //!                 @c PORTx register. If the bus mode is set to
 249:funsape/peripheral/gpioBus.hpp ****     //!                 @ref PinMode::OUTPUT_PUSH_PULL, the pin outputs
 250:funsape/peripheral/gpioBus.hpp ****     //!                 will be set to @ref LogicLevel::LOW.
 251:funsape/peripheral/gpioBus.hpp ****     //! @warning    It is recommended to use this function only when the bus
 252:funsape/peripheral/gpioBus.hpp ****     //!                 mode is set to @ref PinMode::OUTPUT_PUSH_PULL,
 253:funsape/peripheral/gpioBus.hpp ****     //!                 otherwise, the bus mode will be changed to
GAS LISTING /tmp/ccUMk0PR.s 			page 115


 254:funsape/peripheral/gpioBus.hpp ****     //!                 @ref PinMode::INPUT_FLOATING.
 255:funsape/peripheral/gpioBus.hpp ****     //!
 256:funsape/peripheral/gpioBus.hpp ****     void inlined clr(
 257:funsape/peripheral/gpioBus.hpp ****             void
 258:funsape/peripheral/gpioBus.hpp ****     ) const;
 259:funsape/peripheral/gpioBus.hpp **** 
 260:funsape/peripheral/gpioBus.hpp ****     //!
 261:funsape/peripheral/gpioBus.hpp ****     //! @brief      Clears one pin of the GpioBus.
 262:funsape/peripheral/gpioBus.hpp ****     //! @details    This function clears only one pin of the bus in the output
 263:funsape/peripheral/gpioBus.hpp ****     //!                 @c PORTx register, given by @a bitIndex_p. The provided
 264:funsape/peripheral/gpioBus.hpp ****     //!                 bit index @c 0 is relative to the bus first pin. If the
 265:funsape/peripheral/gpioBus.hpp ****     //!                 bus mode is set to @ref PinMode::OUTPUT_PUSH_PULL,
 266:funsape/peripheral/gpioBus.hpp ****     //!                 the selected pin output will be set to
 267:funsape/peripheral/gpioBus.hpp ****     //!                 @ref LogicLevel::LOW.
 268:funsape/peripheral/gpioBus.hpp ****     //! @warning    It is recommended to use this function only when the bus
 269:funsape/peripheral/gpioBus.hpp ****     //!                 mode is set to @ref PinMode::OUTPUT_PUSH_PULL,
 270:funsape/peripheral/gpioBus.hpp ****     //!                 otherwise, the mode of the selected pin will be changed
 271:funsape/peripheral/gpioBus.hpp ****     //!                 to @ref PinMode::INPUT_FLOATING.
 272:funsape/peripheral/gpioBus.hpp ****     //! @param[in]  bitIndex_p          position of the bit in the bus.
 273:funsape/peripheral/gpioBus.hpp ****     //!
 274:funsape/peripheral/gpioBus.hpp ****     void inlined clr(
 275:funsape/peripheral/gpioBus.hpp ****             cuint8_t bitIndex_p
 276:funsape/peripheral/gpioBus.hpp ****     ) const;
 277:funsape/peripheral/gpioBus.hpp **** 
 278:funsape/peripheral/gpioBus.hpp ****     //!
 279:funsape/peripheral/gpioBus.hpp ****     //! @brief      Complements (inverts) all the GpioBus pins.
 280:funsape/peripheral/gpioBus.hpp ****     //! @details    This function toggles all the pins in the output @c PORTx
 281:funsape/peripheral/gpioBus.hpp ****     //!                 register. If the bus mode is set to
 282:funsape/peripheral/gpioBus.hpp ****     //!                 @ref PinMode::OUTPUT_PUSH_PULL, the pins output
 283:funsape/peripheral/gpioBus.hpp ****     //!                 will be toggled between @ref LogicLevel::LOW and
 284:funsape/peripheral/gpioBus.hpp ****     //!                 @ref LogicLevel::HIGH.
 285:funsape/peripheral/gpioBus.hpp ****     //! @warning    It is recommended to use this function only when the bus
 286:funsape/peripheral/gpioBus.hpp ****     //!                 mode is set to @ref PinMode::OUTPUT_PUSH_PULL,
 287:funsape/peripheral/gpioBus.hpp ****     //!                 otherwise, the bus mode will be toggled between
 288:funsape/peripheral/gpioBus.hpp ****     //!                 @ref PinMode::INPUT_FLOATING and
 289:funsape/peripheral/gpioBus.hpp ****     //!                 @ref PinMode::INPUT_PULLED_UP.
 290:funsape/peripheral/gpioBus.hpp ****     //!
 291:funsape/peripheral/gpioBus.hpp ****     void inlined cpl(
 292:funsape/peripheral/gpioBus.hpp ****             void
 293:funsape/peripheral/gpioBus.hpp ****     ) const;
 294:funsape/peripheral/gpioBus.hpp **** 
 295:funsape/peripheral/gpioBus.hpp ****     //!
 296:funsape/peripheral/gpioBus.hpp ****     //! @brief      Complements (inverts) one pin of the GpioBus pins.
 297:funsape/peripheral/gpioBus.hpp ****     //! @details    This function toggles only one pin of the bus in the output
 298:funsape/peripheral/gpioBus.hpp ****     //!                 @c PORTx register, given by @a bitIndex_p. The provided
 299:funsape/peripheral/gpioBus.hpp ****     //!                 bit index @c 0 is relative to the bus first pin. If the
 300:funsape/peripheral/gpioBus.hpp ****     //!                 bus mode is set to @ref PinMode::OUTPUT_PUSH_PULL,
 301:funsape/peripheral/gpioBus.hpp ****     //!                 the selected pin output will be toggled between
 302:funsape/peripheral/gpioBus.hpp ****     //!                 @ref LogicLevel::LOW and @ref LogicLevel::HIGH.
 303:funsape/peripheral/gpioBus.hpp ****     //! @warning    It is recommended to use this function only when the bus
 304:funsape/peripheral/gpioBus.hpp ****     //!                 mode is set to @ref PinMode::OUTPUT_PUSH_PULL,
 305:funsape/peripheral/gpioBus.hpp ****     //!                 otherwise, the mode of the selected pin will be toggled
 306:funsape/peripheral/gpioBus.hpp ****     //!                 between @ref PinMode::INPUT_FLOATING and
 307:funsape/peripheral/gpioBus.hpp ****     //!                 @ref PinMode::INPUT_PULLED_UP.
 308:funsape/peripheral/gpioBus.hpp ****     //! @param[in]  bitIndex_p          position of the bit in the bus.
 309:funsape/peripheral/gpioBus.hpp ****     //!
 310:funsape/peripheral/gpioBus.hpp ****     void inlined cpl(
GAS LISTING /tmp/ccUMk0PR.s 			page 116


 311:funsape/peripheral/gpioBus.hpp ****             cuint8_t bitIndex_p
 312:funsape/peripheral/gpioBus.hpp ****     ) const;
 313:funsape/peripheral/gpioBus.hpp **** 
 314:funsape/peripheral/gpioBus.hpp ****     //!
 315:funsape/peripheral/gpioBus.hpp ****     //! @brief      Returns the GpioBus bus size.
 316:funsape/peripheral/gpioBus.hpp ****     //! @details    This function returns the GpioBus bus size in bits. If the
 317:funsape/peripheral/gpioBus.hpp ****     //!                 bus is was initialized, the function returns 0.
 318:funsape/peripheral/gpioBus.hpp ****     //! @return     the bus size in bits, or @c 0 if the bus was not
 319:funsape/peripheral/gpioBus.hpp ****     //!                 initialized.
 320:funsape/peripheral/gpioBus.hpp ****     //!
 321:funsape/peripheral/gpioBus.hpp ****     uint8_t inlined getBusSize(
 322:funsape/peripheral/gpioBus.hpp ****             void
 323:funsape/peripheral/gpioBus.hpp ****     ) const;
 324:funsape/peripheral/gpioBus.hpp **** 
 325:funsape/peripheral/gpioBus.hpp ****     //!
 326:funsape/peripheral/gpioBus.hpp ****     //! @brief      Sets all the GpioBus pins.
 327:funsape/peripheral/gpioBus.hpp ****     //! @details    This function is an alias for @ref GpioBus::set().
 328:funsape/peripheral/gpioBus.hpp ****     //!
 329:funsape/peripheral/gpioBus.hpp ****     void inlined high(
 330:funsape/peripheral/gpioBus.hpp ****             void
 331:funsape/peripheral/gpioBus.hpp ****     ) const;
 332:funsape/peripheral/gpioBus.hpp **** 
 333:funsape/peripheral/gpioBus.hpp ****     //!
 334:funsape/peripheral/gpioBus.hpp ****     //! @brief      Sets one pin of the GpioBus pins.
 335:funsape/peripheral/gpioBus.hpp ****     //! @details    This function is an alias of
 336:funsape/peripheral/gpioBus.hpp ****     //!                 @ref GpioBus::set(uint8_t bitIndex_p).
 337:funsape/peripheral/gpioBus.hpp ****     //! @param[in]  bitIndex_p          position of the bit in the bus.
 338:funsape/peripheral/gpioBus.hpp ****     //!
 339:funsape/peripheral/gpioBus.hpp ****     void inlined high(
 340:funsape/peripheral/gpioBus.hpp ****             cuint8_t bitIndex_p
 341:funsape/peripheral/gpioBus.hpp ****     ) const;
 342:funsape/peripheral/gpioBus.hpp **** 
 343:funsape/peripheral/gpioBus.hpp ****     //!
 344:funsape/peripheral/gpioBus.hpp ****     //! @brief      Checks if the GpioBus is initialized.
 345:funsape/peripheral/gpioBus.hpp ****     //! @details    This function checks if the GpioBus object was successfully
 346:funsape/peripheral/gpioBus.hpp ****     //!                 initialized.
 347:funsape/peripheral/gpioBus.hpp ****     //! @retval     true                if the object is initialized.
 348:funsape/peripheral/gpioBus.hpp ****     //! @retval     false               if the object is not initialized.
 349:funsape/peripheral/gpioBus.hpp ****     //!
 350:funsape/peripheral/gpioBus.hpp ****     bool_t inlined isInitialized(
 351:funsape/peripheral/gpioBus.hpp ****             void
 352:funsape/peripheral/gpioBus.hpp ****     ) const;
 353:funsape/peripheral/gpioBus.hpp **** 
 354:funsape/peripheral/gpioBus.hpp ****     //!
 355:funsape/peripheral/gpioBus.hpp ****     //! @brief      Clears all the GpioBus pins.
 356:funsape/peripheral/gpioBus.hpp ****     //! @details    This function is an alias for @ref GpioBus::clr().
 357:funsape/peripheral/gpioBus.hpp ****     //!
 358:funsape/peripheral/gpioBus.hpp ****     void inlined low(
 359:funsape/peripheral/gpioBus.hpp ****             void
 360:funsape/peripheral/gpioBus.hpp ****     ) const;
 361:funsape/peripheral/gpioBus.hpp **** 
 362:funsape/peripheral/gpioBus.hpp ****     //!
 363:funsape/peripheral/gpioBus.hpp ****     //! @brief      Clears one pin of the GpioBus pins.
 364:funsape/peripheral/gpioBus.hpp ****     //! @details    This function is an alias of
 365:funsape/peripheral/gpioBus.hpp ****     //!                 @ref GpioBus::clr(uint8_t bitIndex_p).
 366:funsape/peripheral/gpioBus.hpp ****     //! @param[in]  bitIndex_p          position of the bit in the bus.
 367:funsape/peripheral/gpioBus.hpp ****     //!
GAS LISTING /tmp/ccUMk0PR.s 			page 117


 368:funsape/peripheral/gpioBus.hpp ****     void inlined low(
 369:funsape/peripheral/gpioBus.hpp ****             cuint8_t bitIndex_p
 370:funsape/peripheral/gpioBus.hpp ****     ) const;
 371:funsape/peripheral/gpioBus.hpp **** 
 372:funsape/peripheral/gpioBus.hpp ****     //!
 373:funsape/peripheral/gpioBus.hpp ****     //! @brief       Reads the GpioBus value.
 374:funsape/peripheral/gpioBus.hpp ****     //! @details     This function returns the logic level of all the pins of the
 375:funsape/peripheral/gpioBus.hpp ****     //!                  bus. Since it returns the value of the input @c PINx
 376:funsape/peripheral/gpioBus.hpp ****     //!                  register, this function can be used with any
 377:funsape/peripheral/gpioBus.hpp ****     //!                  @ref PinMode selection.
 378:funsape/peripheral/gpioBus.hpp ****     //! @return      the logic values in the bus pins, shiftted to bit position
 379:funsape/peripheral/gpioBus.hpp ****     //!                  0.
 380:funsape/peripheral/gpioBus.hpp ****     //!
 381:funsape/peripheral/gpioBus.hpp ****     uint8_t inlined read(
 382:funsape/peripheral/gpioBus.hpp ****             void
 383:funsape/peripheral/gpioBus.hpp ****     ) const;
 384:funsape/peripheral/gpioBus.hpp **** 
 385:funsape/peripheral/gpioBus.hpp ****     //!
 386:funsape/peripheral/gpioBus.hpp ****     //! @brief      Sets all the GpioBus pins.
 387:funsape/peripheral/gpioBus.hpp ****     //! @details    This function sets all the pins of the bus in the output
 388:funsape/peripheral/gpioBus.hpp ****     //!                 @c PORTx register. If the bus mode is set to
 389:funsape/peripheral/gpioBus.hpp ****     //!                 @ref PinMode::OUTPUT_PUSH_PULL, the pin outputs
 390:funsape/peripheral/gpioBus.hpp ****     //!                 will be set to @ref LogicLevel::HIGH.
 391:funsape/peripheral/gpioBus.hpp ****     //! @warning    It is recommended to use this function only when the bus
 392:funsape/peripheral/gpioBus.hpp ****     //!                 mode is set to @ref PinMode::OUTPUT_PUSH_PULL,
 393:funsape/peripheral/gpioBus.hpp ****     //!                 otherwise, the bus mode will be changed to
 394:funsape/peripheral/gpioBus.hpp ****     //!                 @ref PinMode::INPUT_PULLED_UP.
 395:funsape/peripheral/gpioBus.hpp ****     //!
 396:funsape/peripheral/gpioBus.hpp ****     void inlined set(
 397:funsape/peripheral/gpioBus.hpp ****             void
 398:funsape/peripheral/gpioBus.hpp ****     ) const;
 399:funsape/peripheral/gpioBus.hpp **** 
 400:funsape/peripheral/gpioBus.hpp **** 
 401:funsape/peripheral/gpioBus.hpp ****     //!
 402:funsape/peripheral/gpioBus.hpp ****     //! @brief      Sets one pin of the GpioBus pins.
 403:funsape/peripheral/gpioBus.hpp ****     //! @details    This function sets only one pin of the bus in the output
 404:funsape/peripheral/gpioBus.hpp ****     //!                 @c PORTx register, given by @a bitIndex_p. The provided
 405:funsape/peripheral/gpioBus.hpp ****     //!                 bit index @c 0 is relative to the bus first pin. If the
 406:funsape/peripheral/gpioBus.hpp ****     //!                 bus mode is set to @ref PinMode::OUTPUT_PUSH_PULL,
 407:funsape/peripheral/gpioBus.hpp ****     //!                 the selected pin output will be set to
 408:funsape/peripheral/gpioBus.hpp ****     //!                 @ref LogicLevel::HIGH.
 409:funsape/peripheral/gpioBus.hpp ****     //! @warning    It is recommended to use this function only when the bus
 410:funsape/peripheral/gpioBus.hpp ****     //!                 mode is set to @ref PinMode::OUTPUT_PUSH_PULL,
 411:funsape/peripheral/gpioBus.hpp ****     //!                 otherwise, the mode of the selected pin will be changed
 412:funsape/peripheral/gpioBus.hpp ****     //!                 to @ref PinMode::INPUT_PULLED_UP.
 413:funsape/peripheral/gpioBus.hpp ****     //! @param[in]  bitIndex_p          position of the bit in the bus.
 414:funsape/peripheral/gpioBus.hpp ****     //!
 415:funsape/peripheral/gpioBus.hpp ****     void inlined set(
 416:funsape/peripheral/gpioBus.hpp ****             cuint8_t bitIndex_p
 417:funsape/peripheral/gpioBus.hpp ****     ) const;
 418:funsape/peripheral/gpioBus.hpp **** 
 419:funsape/peripheral/gpioBus.hpp ****     //!
 420:funsape/peripheral/gpioBus.hpp ****     //! @brief      Sets the GpioBus operation mode.
 421:funsape/peripheral/gpioBus.hpp ****     //! @details    This function sets the GPIO bus operation mode to the given
 422:funsape/peripheral/gpioBus.hpp ****     //!                 @a mode_p.
 423:funsape/peripheral/gpioBus.hpp ****     //! @note       When the operation mode is changed to
 424:funsape/peripheral/gpioBus.hpp ****     //!                 @ref PinMode::INPUT_FLOATING or to
GAS LISTING /tmp/ccUMk0PR.s 			page 118


 425:funsape/peripheral/gpioBus.hpp ****     //!                 @ref PinMode::INPUT_PULLED_UP, both output @c PORTx
 426:funsape/peripheral/gpioBus.hpp ****     //!                 and direction @c DDRx registers are changed. However,
 427:funsape/peripheral/gpioBus.hpp ****     //!                 when the mode is changed to
 428:funsape/peripheral/gpioBus.hpp ****     //!                 @ref PinMode::OUTPUT_PUSH_PULL, only the direction
 429:funsape/peripheral/gpioBus.hpp ****     //!                 @c DDRx register is changed, therefore, if a specific
 430:funsape/peripheral/gpioBus.hpp ****     //!                 output logic level is desired on the bus pins, the user
 431:funsape/peripheral/gpioBus.hpp ****     //!                 must call the @ref clr(), @ref set() or @ref write().
 432:funsape/peripheral/gpioBus.hpp ****     //! @param[in]  mode_p              @ref PinMode operation mode.
 433:funsape/peripheral/gpioBus.hpp ****     //! @retval     true                if success.
 434:funsape/peripheral/gpioBus.hpp ****     //! @retval     false               if an error occurred. Retrieve the error
 435:funsape/peripheral/gpioBus.hpp ****     //!                                     by calling @ref getLastError().
 436:funsape/peripheral/gpioBus.hpp ****     //! @par Error codes:
 437:funsape/peripheral/gpioBus.hpp ****     //!
 438:funsape/peripheral/gpioBus.hpp ****     //! | Error code                  | Meaning                          |
 439:funsape/peripheral/gpioBus.hpp ****     //! |:----------------------------|:---------------------------------|
 440:funsape/peripheral/gpioBus.hpp ****     //! | @ref Error::NONE            | Success. No erros were detected. |
 441:funsape/peripheral/gpioBus.hpp ****     //! | @ref Error::NOT_INITIALIZED | The bus is not initialized.      |
 442:funsape/peripheral/gpioBus.hpp ****     //!
 443:funsape/peripheral/gpioBus.hpp ****     //!
 444:funsape/peripheral/gpioBus.hpp ****     bool_t setMode(
 445:funsape/peripheral/gpioBus.hpp ****             const PinMode mode_p
 446:funsape/peripheral/gpioBus.hpp ****     );
 447:funsape/peripheral/gpioBus.hpp **** 
 448:funsape/peripheral/gpioBus.hpp ****     //!
 449:funsape/peripheral/gpioBus.hpp ****     //! @brief      Complements (inverts) all the GpioBus pins.
 450:funsape/peripheral/gpioBus.hpp ****     //! @details    This function is an alias for @ref GpioBus::cpl().
 451:funsape/peripheral/gpioBus.hpp ****     //!
 452:funsape/peripheral/gpioBus.hpp ****     void inlined toggle(
 453:funsape/peripheral/gpioBus.hpp ****             void
 454:funsape/peripheral/gpioBus.hpp ****     ) const;
 455:funsape/peripheral/gpioBus.hpp **** 
 456:funsape/peripheral/gpioBus.hpp ****     //!
 457:funsape/peripheral/gpioBus.hpp ****     //! @brief      Complements (inverts) one pin of the GpioBus pins.
 458:funsape/peripheral/gpioBus.hpp ****     //! @details    This function is an alias of
 459:funsape/peripheral/gpioBus.hpp ****     //!                 @ref GpioBus::cpl(uint8_t bitIndex_p).
 460:funsape/peripheral/gpioBus.hpp ****     //! @param[in]  bitIndex_p          position of the bit in the bus.
 461:funsape/peripheral/gpioBus.hpp ****     //!
 462:funsape/peripheral/gpioBus.hpp ****     void inlined toggle(
 463:funsape/peripheral/gpioBus.hpp ****             cuint8_t bitIndex_p
 464:funsape/peripheral/gpioBus.hpp ****     ) const;
 465:funsape/peripheral/gpioBus.hpp **** 
 466:funsape/peripheral/gpioBus.hpp **** 
 467:funsape/peripheral/gpioBus.hpp ****     //!
 468:funsape/peripheral/gpioBus.hpp ****     //! @brief      Writes data at the GpioBus pins.
 469:funsape/peripheral/gpioBus.hpp ****     //! @details    This function writes the logic levels given by @a data_p at
 470:funsape/peripheral/gpioBus.hpp ****     //!                 the of bus pins. The provided @a data_p must be relative
 471:funsape/peripheral/gpioBus.hpp ****     //!                 to the bus first pin. If the bus mode is set to
 472:funsape/peripheral/gpioBus.hpp ****     //!                 @ref PinMode::OUTPUT_PUSH_PULL, the pin outputs
 473:funsape/peripheral/gpioBus.hpp ****     //!                 will be set to @ref LogicLevel::LOW or
 474:funsape/peripheral/gpioBus.hpp ****     //!                 @ref LogicLevel::HIGH according to the bit value in
 475:funsape/peripheral/gpioBus.hpp ****     //!                 @a data_p.
 476:funsape/peripheral/gpioBus.hpp ****     //! @warning    It is recommended to use this function only when the bus
 477:funsape/peripheral/gpioBus.hpp ****     //!                 mode is set to @ref PinMode::OUTPUT_PUSH_PULL,
 478:funsape/peripheral/gpioBus.hpp ****     //!                 otherwise, the mode of some pins will be changed to
 479:funsape/peripheral/gpioBus.hpp ****     //!                 @ref PinMode::INPUT_FLOATING and the some will be
 480:funsape/peripheral/gpioBus.hpp ****     //!                 changed to @ref PinMode::INPUT_PULLED_UP.
 481:funsape/peripheral/gpioBus.hpp ****     //! @param[in]  data_p              values to be written at the bus.
GAS LISTING /tmp/ccUMk0PR.s 			page 119


 482:funsape/peripheral/gpioBus.hpp ****     //! @retval     true                if success.
 483:funsape/peripheral/gpioBus.hpp ****     //! @retval     false               if an error occurred. Retrieve the error
 484:funsape/peripheral/gpioBus.hpp ****     //!                                     by calling @ref getLastError().
 485:funsape/peripheral/gpioBus.hpp ****     //! @par Error codes:
 486:funsape/peripheral/gpioBus.hpp ****     //!
 487:funsape/peripheral/gpioBus.hpp ****     //! | Error code                  | Meaning                          |
 488:funsape/peripheral/gpioBus.hpp ****     //! |:----------------------------|:---------------------------------|
 489:funsape/peripheral/gpioBus.hpp ****     //! | @ref Error::NONE            | Success. No erros were detected. |
 490:funsape/peripheral/gpioBus.hpp ****     //! | @ref Error::NOT_INITIALIZED | The bus is not initialized.      |
 491:funsape/peripheral/gpioBus.hpp ****     //!
 492:funsape/peripheral/gpioBus.hpp ****     bool_t write(
 493:funsape/peripheral/gpioBus.hpp ****             cuint8_t data_p
 494:funsape/peripheral/gpioBus.hpp ****     );
 495:funsape/peripheral/gpioBus.hpp **** 
 496:funsape/peripheral/gpioBus.hpp **** private:
 497:funsape/peripheral/gpioBus.hpp ****     // NONE
 498:funsape/peripheral/gpioBus.hpp **** 
 499:funsape/peripheral/gpioBus.hpp **** protected:
 500:funsape/peripheral/gpioBus.hpp ****     // NONE
 501:funsape/peripheral/gpioBus.hpp **** 
 502:funsape/peripheral/gpioBus.hpp **** // -------------------------------------------------------------------------
 503:funsape/peripheral/gpioBus.hpp **** // Properties --------------------------------------------------------------
 504:funsape/peripheral/gpioBus.hpp **** 
 505:funsape/peripheral/gpioBus.hpp **** private:
 506:funsape/peripheral/gpioBus.hpp ****     //     //////////////////    HARDWARE LINKAGE     ///////////////////     //
 507:funsape/peripheral/gpioBus.hpp **** 
 508:funsape/peripheral/gpioBus.hpp ****     ioRegAddress_t  _regDir;                    //!< Address to the direction @c DDRx register.
 509:funsape/peripheral/gpioBus.hpp ****     ioRegAddress_t  _regOut;                    //!< Address to the output @c PORTx register.
 510:funsape/peripheral/gpioBus.hpp ****     ioRegAddress_t  _regIn;                     //!< Address to the input @c PINx register.
 511:funsape/peripheral/gpioBus.hpp ****     ioPinMask_t     _pinMask;                   //!< Pin mask.
 512:funsape/peripheral/gpioBus.hpp ****     ioPinIndex_t    _pinIndex;                  //!< Pin index.
 513:funsape/peripheral/gpioBus.hpp **** 
 514:funsape/peripheral/gpioBus.hpp ****     //     ////////////////////   CONFIGURATION     /////////////////////     //
 515:funsape/peripheral/gpioBus.hpp **** 
 516:funsape/peripheral/gpioBus.hpp ****     uint8_t         _busSize            : 4;    //!< Bus size in bits.
 517:funsape/peripheral/gpioBus.hpp **** 
 518:funsape/peripheral/gpioBus.hpp ****     //     /////////////////    CONTROL AND STATUS     //////////////////     //
 519:funsape/peripheral/gpioBus.hpp **** 
 520:funsape/peripheral/gpioBus.hpp ****     bool_t          _isInitialized      : 1;    //!< Initialization flag.
 521:funsape/peripheral/gpioBus.hpp ****     Error           _lastError;                 //!< Last error.
 522:funsape/peripheral/gpioBus.hpp **** 
 523:funsape/peripheral/gpioBus.hpp **** protected:
 524:funsape/peripheral/gpioBus.hpp ****     // NONE
 525:funsape/peripheral/gpioBus.hpp **** 
 526:funsape/peripheral/gpioBus.hpp **** }; // class GpioBus
 527:funsape/peripheral/gpioBus.hpp **** 
 528:funsape/peripheral/gpioBus.hpp **** // =============================================================================
 529:funsape/peripheral/gpioBus.hpp **** // Inlined class functions
 530:funsape/peripheral/gpioBus.hpp **** // =============================================================================
 531:funsape/peripheral/gpioBus.hpp **** 
 532:funsape/peripheral/gpioBus.hpp **** //!
 533:funsape/peripheral/gpioBus.hpp **** //! @cond
 534:funsape/peripheral/gpioBus.hpp **** //!
 535:funsape/peripheral/gpioBus.hpp **** 
 536:funsape/peripheral/gpioBus.hpp **** //     /////////////////     CONTROL AND STATUS     /////////////////     //
 537:funsape/peripheral/gpioBus.hpp **** 
 538:funsape/peripheral/gpioBus.hpp **** Error inlined GpioBus::getLastError(void) const
GAS LISTING /tmp/ccUMk0PR.s 			page 120


 539:funsape/peripheral/gpioBus.hpp **** {
 540:funsape/peripheral/gpioBus.hpp ****     // Returns last error
 541:funsape/peripheral/gpioBus.hpp ****     return this->_lastError;
 542:funsape/peripheral/gpioBus.hpp **** }
 543:funsape/peripheral/gpioBus.hpp **** 
 544:funsape/peripheral/gpioBus.hpp **** //     /////////////////    PIN RELATED METHODS     /////////////////     //
 545:funsape/peripheral/gpioBus.hpp **** 
 546:funsape/peripheral/gpioBus.hpp **** void inlined GpioBus::clr(void) const
 547:funsape/peripheral/gpioBus.hpp **** {
 548:funsape/peripheral/gpioBus.hpp ****     // Clear pin
 549:funsape/peripheral/gpioBus.hpp ****     clrMask(*(this->_regOut), (uint8_t)this->_pinMask);
 550:funsape/peripheral/gpioBus.hpp **** 
 551:funsape/peripheral/gpioBus.hpp ****     // Returns
 552:funsape/peripheral/gpioBus.hpp ****     return;
 553:funsape/peripheral/gpioBus.hpp **** }
 554:funsape/peripheral/gpioBus.hpp **** 
 555:funsape/peripheral/gpioBus.hpp **** void inlined GpioBus::clr(cuint8_t bitIndex_p) const
 556:funsape/peripheral/gpioBus.hpp **** {
 557:funsape/peripheral/gpioBus.hpp ****     // Clear pin
 558:funsape/peripheral/gpioBus.hpp ****     clrBit(*(this->_regOut), (bitIndex_p + (uint8_t)this->_pinIndex));
 559:funsape/peripheral/gpioBus.hpp **** 
 560:funsape/peripheral/gpioBus.hpp ****     // Returns
 561:funsape/peripheral/gpioBus.hpp ****     return;
 562:funsape/peripheral/gpioBus.hpp **** }
 563:funsape/peripheral/gpioBus.hpp **** 
 564:funsape/peripheral/gpioBus.hpp **** void inlined GpioBus::cpl(void) const
 565:funsape/peripheral/gpioBus.hpp **** {
 566:funsape/peripheral/gpioBus.hpp ****     // Toggle pin
 567:funsape/peripheral/gpioBus.hpp ****     cplMask(*(this->_regOut), (uint8_t)this->_pinMask);
 568:funsape/peripheral/gpioBus.hpp **** 
 569:funsape/peripheral/gpioBus.hpp ****     // Returns
 570:funsape/peripheral/gpioBus.hpp ****     return;
 571:funsape/peripheral/gpioBus.hpp **** }
 572:funsape/peripheral/gpioBus.hpp **** 
 573:funsape/peripheral/gpioBus.hpp **** void inlined GpioBus::cpl(cuint8_t bitIndex_p) const
 574:funsape/peripheral/gpioBus.hpp **** {
 575:funsape/peripheral/gpioBus.hpp ****     // Clear pin
 576:funsape/peripheral/gpioBus.hpp ****     cplBit(*(this->_regOut), (bitIndex_p + (uint8_t)this->_pinIndex));
 577:funsape/peripheral/gpioBus.hpp **** 
 578:funsape/peripheral/gpioBus.hpp ****     // Returns
 579:funsape/peripheral/gpioBus.hpp ****     return;
 580:funsape/peripheral/gpioBus.hpp **** }
 581:funsape/peripheral/gpioBus.hpp **** 
 582:funsape/peripheral/gpioBus.hpp **** uint8_t inlined GpioBus::getBusSize(void) const
 583:funsape/peripheral/gpioBus.hpp **** {
 584:funsape/peripheral/gpioBus.hpp ****     // Returns value
 585:funsape/peripheral/gpioBus.hpp ****     return ((this->_isInitialized) ? (this->_busSize) : (0));
 586:funsape/peripheral/gpioBus.hpp **** }
 587:funsape/peripheral/gpioBus.hpp **** 
 588:funsape/peripheral/gpioBus.hpp **** void inlined GpioBus::high(void) const
 589:funsape/peripheral/gpioBus.hpp **** {
 590:funsape/peripheral/gpioBus.hpp ****     this->set();
 591:funsape/peripheral/gpioBus.hpp **** 
 592:funsape/peripheral/gpioBus.hpp ****     return;
 593:funsape/peripheral/gpioBus.hpp **** }
 594:funsape/peripheral/gpioBus.hpp **** 
 595:funsape/peripheral/gpioBus.hpp **** void inlined GpioBus::high(cuint8_t bitIndex_p) const
GAS LISTING /tmp/ccUMk0PR.s 			page 121


 596:funsape/peripheral/gpioBus.hpp **** {
 597:funsape/peripheral/gpioBus.hpp ****     this->set(bitIndex_p);
 598:funsape/peripheral/gpioBus.hpp **** 
 599:funsape/peripheral/gpioBus.hpp ****     return;
 600:funsape/peripheral/gpioBus.hpp **** }
 601:funsape/peripheral/gpioBus.hpp **** 
 602:funsape/peripheral/gpioBus.hpp **** bool_t inlined GpioBus::isInitialized(void) const
 603:funsape/peripheral/gpioBus.hpp **** {
 604:funsape/peripheral/gpioBus.hpp ****     return this->_isInitialized;
 605:funsape/peripheral/gpioBus.hpp **** }
 606:funsape/peripheral/gpioBus.hpp **** 
 607:funsape/peripheral/gpioBus.hpp **** void inlined GpioBus::low(void) const
 608:funsape/peripheral/gpioBus.hpp **** {
 609:funsape/peripheral/gpioBus.hpp ****     this->clr();
 610:funsape/peripheral/gpioBus.hpp **** 
 611:funsape/peripheral/gpioBus.hpp ****     return;
 612:funsape/peripheral/gpioBus.hpp **** }
 613:funsape/peripheral/gpioBus.hpp **** 
 614:funsape/peripheral/gpioBus.hpp **** void inlined GpioBus::low(cuint8_t bitIndex_p) const
 615:funsape/peripheral/gpioBus.hpp **** {
 616:funsape/peripheral/gpioBus.hpp ****     this->clr(bitIndex_p);
 617:funsape/peripheral/gpioBus.hpp **** 
 618:funsape/peripheral/gpioBus.hpp ****     return;
 619:funsape/peripheral/gpioBus.hpp **** }
 620:funsape/peripheral/gpioBus.hpp **** 
 621:funsape/peripheral/gpioBus.hpp **** uint8_t inlined GpioBus::read(void) const
 2053               		.loc 8 621 17 view .LVU538
 2054               	.LBB211:
 622:funsape/peripheral/gpioBus.hpp **** {
 623:funsape/peripheral/gpioBus.hpp ****     return (uint8_t)((*(this->_regIn) & (uint8_t)this->_pinMask) >> (uint8_t)this->_pinIndex);
 2055               		.loc 8 623 5 view .LVU539
 2056               		.loc 8 623 31 is_stmt 0 view .LVU540
 2057 0308 E0E0      		ldi r30,lo8(buttons)
 2058 030a F0E0      		ldi r31,hi8(buttons)
 2059 030c A481      		ldd r26,Z+4
 2060 030e B581      		ldd r27,Z+5
 2061               		.loc 8 623 23 view .LVU541
 2062 0310 0C91      		ld r16,X
 2063               		.loc 8 623 56 view .LVU542
 2064 0312 8681      		ldd r24,Z+6
 2065               		.loc 8 623 39 view .LVU543
 2066 0314 0823      		and r16,r24
 2067 0316 10E0      		ldi r17,0
 2068               		.loc 8 623 84 view .LVU544
 2069 0318 8781      		ldd r24,Z+7
 2070               		.loc 8 623 66 view .LVU545
 2071 031a 00C0      		rjmp 2f
 2072               		1:
 2073 031c 1595      		asr r17
 2074 031e 0795      		ror r16
 2075               		2:
 2076 0320 8A95      		dec r24
 2077 0322 02F4      		brpl 1b
 2078 0324 6801      		movw r12,r16
 2079               	.LVL125:
 2080               		.loc 8 623 66 view .LVU546
 2081               	.LBE211:
GAS LISTING /tmp/ccUMk0PR.s 			page 122


 2082               	.LBE210:
 201:main.cpp      ****         if(button_pending_change){
 2083               		.loc 1 201 9 is_stmt 1 view .LVU547
 2084               	.LBB212:
 201:main.cpp      ****         if(button_pending_change){
 2085               		.loc 1 201 12 is_stmt 0 view .LVU548
 2086 0326 8091 0000 		lds r24,button_pending_change
 201:main.cpp      ****         if(button_pending_change){
 2087               		.loc 1 201 9 view .LVU549
 2088 032a 8111      		cpse r24,__zero_reg__
 2089 032c 00C0      		rjmp .L93
 2090               	.L32:
 2091               	.LBE212:
 213:main.cpp      ****         uint8_t pressed_buttons = (debounced_buttons ^ last_debounced_buttons) & debounced_buttons;
 2092               		.loc 1 213 9 is_stmt 1 view .LVU550
 213:main.cpp      ****         uint8_t pressed_buttons = (debounced_buttons ^ last_debounced_buttons) & debounced_buttons;
 2093               		.loc 1 213 54 is_stmt 0 view .LVU551
 2094 032e 8091 0000 		lds r24,debounced_buttons
 2095 0332 F826      		eor r15,r24
 2096               	.LVL126:
 213:main.cpp      ****         uint8_t pressed_buttons = (debounced_buttons ^ last_debounced_buttons) & debounced_buttons;
 2097               		.loc 1 213 80 view .LVU552
 2098 0334 8091 0000 		lds r24,debounced_buttons
 213:main.cpp      ****         uint8_t pressed_buttons = (debounced_buttons ^ last_debounced_buttons) & debounced_buttons;
 2099               		.loc 1 213 82 view .LVU553
 2100 0338 F822      		and r15,r24
 2101               	.LVL127:
 215:main.cpp      ****         if((debounced_buttons & ENABLE_BUTTON) && (get_millis()-button_last_changed[ENABLE_BUTTON] 
 2102               		.loc 1 215 9 is_stmt 1 view .LVU554
 215:main.cpp      ****         if((debounced_buttons & ENABLE_BUTTON) && (get_millis()-button_last_changed[ENABLE_BUTTON] 
 2103               		.loc 1 215 31 is_stmt 0 view .LVU555
 2104 033a 8091 0000 		lds r24,debounced_buttons
 215:main.cpp      ****         if((debounced_buttons & ENABLE_BUTTON) && (get_millis()-button_last_changed[ENABLE_BUTTON] 
 2105               		.loc 1 215 48 view .LVU556
 2106 033e 80FD      		sbrc r24,0
 2107 0340 00C0      		rjmp .L94
 2108               	.L39:
 219:main.cpp      ****         if((pressed_buttons & ENABLE_BUTTON) && (debounced_buttons & ENABLE_BUTTON)){
 2109               		.loc 1 219 9 is_stmt 1 view .LVU557
 219:main.cpp      ****         if((pressed_buttons & ENABLE_BUTTON) && (debounced_buttons & ENABLE_BUTTON)){
 2110               		.loc 1 219 46 is_stmt 0 view .LVU558
 2111 0342 F0FE      		sbrs r15,0
 2112 0344 00C0      		rjmp .L40
 219:main.cpp      ****         if((pressed_buttons & ENABLE_BUTTON) && (debounced_buttons & ENABLE_BUTTON)){
 2113               		.loc 1 219 68 discriminator 1 view .LVU559
 2114 0346 8091 0000 		lds r24,debounced_buttons
 219:main.cpp      ****         if((pressed_buttons & ENABLE_BUTTON) && (debounced_buttons & ENABLE_BUTTON)){
 2115               		.loc 1 219 46 discriminator 1 view .LVU560
 2116 034a 80FF      		sbrs r24,0
 2117 034c 00C0      		rjmp .L40
 220:main.cpp      ****             current_state = (current_state == IDLE_MODE) ? CURSOR_MODE : IDLE_MODE;
 2118               		.loc 1 220 13 is_stmt 1 view .LVU561
 220:main.cpp      ****             current_state = (current_state == IDLE_MODE) ? CURSOR_MODE : IDLE_MODE;
 2119               		.loc 1 220 44 is_stmt 0 view .LVU562
 2120 034e 8091 0000 		lds r24,current_state
 2121 0352 9091 0000 		lds r25,current_state+1
 220:main.cpp      ****             current_state = (current_state == IDLE_MODE) ? CURSOR_MODE : IDLE_MODE;
GAS LISTING /tmp/ccUMk0PR.s 			page 123


 2122               		.loc 1 220 58 view .LVU563
 2123 0356 892B      		or r24,r25
 2124 0358 01F0      		breq .+2
 2125 035a 00C0      		rjmp .L73
 220:main.cpp      ****             current_state = (current_state == IDLE_MODE) ? CURSOR_MODE : IDLE_MODE;
 2126               		.loc 1 220 58 discriminator 1 view .LVU564
 2127 035c 81E0      		ldi r24,lo8(1)
 2128 035e 90E0      		ldi r25,0
 2129 0360 00C0      		rjmp .L41
 2130               	.L91:
 223:main.cpp      ****             last_mouse_button_pressed = get_millis();
 2131               		.loc 1 223 13 is_stmt 1 view .LVU565
 223:main.cpp      ****             last_mouse_button_pressed = get_millis();
 2132               		.loc 1 223 51 is_stmt 0 view .LVU566
 2133 0362 0E94 0000 		call _Z10get_millisv
 2134               	.LVL128:
 2135 0366 6D96      		adiw r28,92-63
 2136 0368 6FAF      		std Y+63,r22
 2137 036a 6D97      		sbiw r28,92-63
 2138               	.LVL129:
 223:main.cpp      ****             last_mouse_button_pressed = get_millis();
 2139               		.loc 1 223 51 view .LVU567
 2140 036c 6E96      		adiw r28,93-63
 2141 036e 7FAF      		std Y+63,r23
 2142 0370 6E97      		sbiw r28,93-63
 2143 0372 6F96      		adiw r28,94-63
 2144 0374 8FAF      		std Y+63,r24
 2145 0376 6F97      		sbiw r28,94-63
 2146 0378 A096      		adiw r28,95-63
 2147 037a 9FAF      		std Y+63,r25
 2148 037c A097      		sbiw r28,95-63
 2149 037e 00C0      		rjmp .L43
 2150               	.LVL130:
 2151               	.L92:
 2152               	.LBB213:
 2153               	.LBB196:
 228:main.cpp      ****             display.clearScreen();
 2154               		.loc 1 228 13 is_stmt 1 view .LVU568
 228:main.cpp      ****             display.clearScreen();
 2155               		.loc 1 228 32 is_stmt 0 view .LVU569
 2156 0380 80E0      		ldi r24,lo8(display)
 2157 0382 90E0      		ldi r25,hi8(display)
 2158 0384 0E94 0000 		call _ZN7Ssd130611clearScreenEv
 2159               	.LVL131:
 229:main.cpp      ****             display.setCursor(0, 7);
 2160               		.loc 1 229 13 is_stmt 1 view .LVU570
 229:main.cpp      ****             display.setCursor(0, 7);
 2161               		.loc 1 229 30 is_stmt 0 view .LVU571
 2162 0388 47E0      		ldi r20,lo8(7)
 2163 038a 60E0      		ldi r22,0
 2164 038c 80E0      		ldi r24,lo8(display)
 2165 038e 90E0      		ldi r25,hi8(display)
 2166 0390 0E94 0000 		call _ZN7Ssd13069setCursorEhh
 2167               	.LVL132:
 230:main.cpp      ****             display.setTextSize(1);
 2168               		.loc 1 230 13 is_stmt 1 view .LVU572
 230:main.cpp      ****             display.setTextSize(1);
GAS LISTING /tmp/ccUMk0PR.s 			page 124


 2169               		.loc 1 230 32 is_stmt 0 view .LVU573
 2170 0394 61E0      		ldi r22,lo8(1)
 2171 0396 80E0      		ldi r24,lo8(display)
 2172 0398 90E0      		ldi r25,hi8(display)
 2173 039a 0E94 0000 		call _ZN7Ssd130611setTextSizeEh
 2174               	.LVL133:
 231:main.cpp      ****             char formatted_state[22];
 2175               		.loc 1 231 13 is_stmt 1 view .LVU574
 232:main.cpp      ****             sprintf_P(formatted_state, PSTR("State: %S|BLE: %S"), 
 2176               		.loc 1 232 13 view .LVU575
 236:main.cpp      ****                 (ble_state == BT_CONNECTED) ? PSTR("OK") : PSTR("NO"));
 2177               		.loc 1 236 28 is_stmt 0 view .LVU576
 2178 039e 8FA5      		ldd r24,Y+47
 2179 03a0 98A9      		ldd r25,Y+48
 232:main.cpp      ****             sprintf_P(formatted_state, PSTR("State: %S|BLE: %S"), 
 2180               		.loc 1 232 22 view .LVU577
 2181 03a2 892B      		or r24,r25
 2182 03a4 01F0      		breq .+2
 2183 03a6 00C0      		rjmp .L74
 2184               	.LBB197:
 232:main.cpp      ****             sprintf_P(formatted_state, PSTR("State: %S|BLE: %S"), 
 2185               		.loc 1 232 22 discriminator 1 view .LVU578
 2186 03a8 20E0      		ldi r18,lo8(_ZZ4mainE3__c_4)
 2187 03aa 30E0      		ldi r19,hi8(_ZZ4mainE3__c_4)
 2188               	.L46:
 2189               	.LBE197:
 233:main.cpp      ****                 (current_state == IDLE_MODE) ? PSTR("IDLE") : 
 2190               		.loc 1 233 32 view .LVU579
 2191 03ac 8091 0000 		lds r24,current_state
 2192 03b0 9091 0000 		lds r25,current_state+1
 2193 03b4 8130      		cpi r24,1
 2194 03b6 9105      		cpc r25,__zero_reg__
 2195 03b8 01F4      		brne .+2
 2196 03ba 00C0      		rjmp .L75
 2197 03bc 8230      		cpi r24,2
 2198 03be 9105      		cpc r25,__zero_reg__
 2199 03c0 01F4      		brne .+2
 2200 03c2 00C0      		rjmp .L76
 2201 03c4 892B      		or r24,r25
 2202 03c6 01F0      		breq .+2
 2203 03c8 00C0      		rjmp .L77
 2204 03ca 80E0      		ldi r24,lo8(_ZZ4mainE3__c_0)
 2205 03cc 90E0      		ldi r25,hi8(_ZZ4mainE3__c_0)
 2206               	.L47:
 2207               	.LBB198:
 232:main.cpp      ****             sprintf_P(formatted_state, PSTR("State: %S|BLE: %S"), 
 2208               		.loc 1 232 40 is_stmt 1 discriminator 8 view .LVU580
 232:main.cpp      ****             sprintf_P(formatted_state, PSTR("State: %S|BLE: %S"), 
 2209               		.loc 1 232 40 discriminator 8 view .LVU581
 2210               	.LBE198:
 232:main.cpp      ****             sprintf_P(formatted_state, PSTR("State: %S|BLE: %S"), 
 2211               		.loc 1 232 22 is_stmt 0 discriminator 8 view .LVU582
 2212 03ce 3F93      		push r19
 2213               	.LVL134:
 232:main.cpp      ****             sprintf_P(formatted_state, PSTR("State: %S|BLE: %S"), 
 2214               		.loc 1 232 22 discriminator 8 view .LVU583
 2215 03d0 2F93      		push r18
GAS LISTING /tmp/ccUMk0PR.s 			page 125


 2216 03d2 9F93      		push r25
 2217 03d4 8F93      		push r24
 2218 03d6 80E0      		ldi r24,lo8(_ZZ4mainE3__c)
 2219 03d8 90E0      		ldi r25,hi8(_ZZ4mainE3__c)
 2220 03da 9F93      		push r25
 2221 03dc 8F93      		push r24
 2222 03de 8E01      		movw r16,r28
 2223 03e0 0F5C      		subi r16,-49
 2224 03e2 1F4F      		sbci r17,-1
 2225 03e4 1F93      		push r17
 2226 03e6 0F93      		push r16
 2227 03e8 0E94 0000 		call sprintf_P
 2228               	.LVL135:
 237:main.cpp      ****             display.print(formatted_state);
 2229               		.loc 1 237 13 is_stmt 1 view .LVU584
 237:main.cpp      ****             display.print(formatted_state);
 2230               		.loc 1 237 26 is_stmt 0 view .LVU585
 2231 03ec B801      		movw r22,r16
 2232 03ee 80E0      		ldi r24,lo8(display)
 2233 03f0 90E0      		ldi r25,hi8(display)
 2234 03f2 0E94 0000 		call _ZN7Ssd13065printEPKc
 2235               	.LVL136:
 239:main.cpp      ****             int8_t bar_roll = MIN(MAX((roll/1410), -63), 63);
 2236               		.loc 1 239 13 is_stmt 1 view .LVU586
 239:main.cpp      ****             int8_t bar_roll = MIN(MAX((roll/1410), -63), 63);
 2237               		.loc 1 239 31 is_stmt 0 view .LVU587
 2238 03f6 8DA1      		ldd r24,Y+37
 2239 03f8 9EA1      		ldd r25,Y+38
 2240 03fa AFA1      		ldd r26,Y+39
 2241 03fc B8A5      		ldd r27,Y+40
 239:main.cpp      ****             int8_t bar_roll = MIN(MAX((roll/1410), -63), 63);
 2242               		.loc 1 239 20 view .LVU588
 2243 03fe 0FB6      		in __tmp_reg__,__SREG__
 2244 0400 F894      		cli
 2245 0402 DEBF      		out __SP_H__,r29
 2246 0404 0FBE      		out __SREG__,__tmp_reg__
 2247 0406 CDBF      		out __SP_L__,r28
 2248 0408 8E3F      		cpi r24,-2
 2249 040a 2AE5      		ldi r18,90
 2250 040c 9207      		cpc r25,r18
 2251 040e 21E0      		ldi r18,1
 2252 0410 A207      		cpc r26,r18
 2253 0412 B105      		cpc r27,__zero_reg__
 2254 0414 04F4      		brge .L78
 239:main.cpp      ****             int8_t bar_roll = MIN(MAX((roll/1410), -63), 63);
 2255               		.loc 1 239 20 discriminator 1 view .LVU589
 2256 0416 8330      		cpi r24,3
 2257 0418 25EA      		ldi r18,-91
 2258 041a 9207      		cpc r25,r18
 2259 041c 2EEF      		ldi r18,-2
 2260 041e A207      		cpc r26,r18
 2261 0420 2FEF      		ldi r18,-1
 2262 0422 B207      		cpc r27,r18
 2263 0424 04F4      		brge .+2
 2264 0426 00C0      		rjmp .L79
 239:main.cpp      ****             int8_t bar_roll = MIN(MAX((roll/1410), -63), 63);
 2265               		.loc 1 239 31 discriminator 2 view .LVU590
GAS LISTING /tmp/ccUMk0PR.s 			page 126


 2266 0428 BC01      		movw r22,r24
 2267 042a CD01      		movw r24,r26
 2268 042c 22E8      		ldi r18,lo8(-126)
 2269 042e 35E0      		ldi r19,lo8(5)
 2270 0430 40E0      		ldi r20,0
 2271 0432 50E0      		ldi r21,0
 2272 0434 0E94 0000 		call __divmodsi4
 239:main.cpp      ****             int8_t bar_roll = MIN(MAX((roll/1410), -63), 63);
 2273               		.loc 1 239 20 discriminator 2 view .LVU591
 2274 0438 622F      		mov r22,r18
 2275               	.LVL137:
 239:main.cpp      ****             int8_t bar_roll = MIN(MAX((roll/1410), -63), 63);
 2276               		.loc 1 239 20 discriminator 2 view .LVU592
 2277 043a 00C0      		rjmp .L48
 2278               	.LVL138:
 2279               	.L74:
 2280               	.LBB199:
 232:main.cpp      ****             sprintf_P(formatted_state, PSTR("State: %S|BLE: %S"), 
 2281               		.loc 1 232 22 discriminator 2 view .LVU593
 2282 043c 20E0      		ldi r18,lo8(_ZZ4mainE3__c_5)
 2283 043e 30E0      		ldi r19,hi8(_ZZ4mainE3__c_5)
 2284 0440 00C0      		rjmp .L46
 2285               	.L75:
 2286               	.LBE199:
 233:main.cpp      ****                 (current_state == IDLE_MODE) ? PSTR("IDLE") : 
 2287               		.loc 1 233 32 view .LVU594
 2288 0442 80E0      		ldi r24,lo8(_ZZ4mainE3__c_1)
 2289 0444 90E0      		ldi r25,hi8(_ZZ4mainE3__c_1)
 2290 0446 00C0      		rjmp .L47
 2291               	.L76:
 2292 0448 80E0      		ldi r24,lo8(_ZZ4mainE3__c_2)
 2293 044a 90E0      		ldi r25,hi8(_ZZ4mainE3__c_2)
 2294 044c 00C0      		rjmp .L47
 2295               	.L77:
 2296 044e 80E0      		ldi r24,lo8(_ZZ4mainE3__c_3)
 2297 0450 90E0      		ldi r25,hi8(_ZZ4mainE3__c_3)
 2298 0452 00C0      		rjmp .L47
 2299               	.LVL139:
 2300               	.L78:
 239:main.cpp      ****             int8_t bar_roll = MIN(MAX((roll/1410), -63), 63);
 2301               		.loc 1 239 20 discriminator 4 view .LVU595
 2302 0454 6FE3      		ldi r22,lo8(63)
 2303               	.L48:
 2304               	.LVL140:
 240:main.cpp      ****             display.fillRect(63+MIN(0, bar_roll), 0, (cuint8_t)ABS(bar_roll), 1, true);            
 2305               		.loc 1 240 13 is_stmt 1 view .LVU596
 240:main.cpp      ****             display.fillRect(63+MIN(0, bar_roll), 0, (cuint8_t)ABS(bar_roll), 1, true);            
 2306               		.loc 1 240 64 is_stmt 0 view .LVU597
 2307 0456 262F      		mov r18,r22
 2308 0458 27FD      		sbrc r18,7
 2309 045a 2195      		neg r18
 240:main.cpp      ****             display.fillRect(63+MIN(0, bar_roll), 0, (cuint8_t)ABS(bar_roll), 1, true);            
 2310               		.loc 1 240 33 view .LVU598
 2311 045c 6030      		cpi r22,lo8(0)
 2312 045e 01F0      		breq .L49
 2313 0460 04F0      		brlt .L49
 2314 0462 60E0      		ldi r22,0
GAS LISTING /tmp/ccUMk0PR.s 			page 127


 2315               	.LVL141:
 2316               	.L49:
 240:main.cpp      ****             display.fillRect(63+MIN(0, bar_roll), 0, (cuint8_t)ABS(bar_roll), 1, true);            
 2317               		.loc 1 240 29 view .LVU599
 2318 0464 615C      		subi r22,lo8(-(63))
 2319 0466 EE24      		clr r14
 2320 0468 E394      		inc r14
 2321 046a 01E0      		ldi r16,lo8(1)
 2322 046c 40E0      		ldi r20,0
 2323 046e 80E0      		ldi r24,lo8(display)
 2324 0470 90E0      		ldi r25,hi8(display)
 2325 0472 0E94 0000 		call _ZN7Ssd13068fillRectEhhhhb
 2326               	.LVL142:
 242:main.cpp      ****             int8_t bar_pitch = MIN(MAX((pitch/1410), -63), 63);
 2327               		.loc 1 242 13 is_stmt 1 view .LVU600
 242:main.cpp      ****             int8_t bar_pitch = MIN(MAX((pitch/1410), -63), 63);
 2328               		.loc 1 242 32 is_stmt 0 view .LVU601
 2329 0476 89A1      		ldd r24,Y+33
 2330 0478 9AA1      		ldd r25,Y+34
 2331 047a ABA1      		ldd r26,Y+35
 2332 047c BCA1      		ldd r27,Y+36
 242:main.cpp      ****             int8_t bar_pitch = MIN(MAX((pitch/1410), -63), 63);
 2333               		.loc 1 242 20 view .LVU602
 2334 047e 8E3F      		cpi r24,-2
 2335 0480 2AE5      		ldi r18,90
 2336 0482 9207      		cpc r25,r18
 2337 0484 21E0      		ldi r18,1
 2338 0486 A207      		cpc r26,r18
 2339 0488 B105      		cpc r27,__zero_reg__
 2340 048a 04F4      		brge .L80
 242:main.cpp      ****             int8_t bar_pitch = MIN(MAX((pitch/1410), -63), 63);
 2341               		.loc 1 242 20 discriminator 1 view .LVU603
 2342 048c 8330      		cpi r24,3
 2343 048e 25EA      		ldi r18,-91
 2344 0490 9207      		cpc r25,r18
 2345 0492 2EEF      		ldi r18,-2
 2346 0494 A207      		cpc r26,r18
 2347 0496 2FEF      		ldi r18,-1
 2348 0498 B207      		cpc r27,r18
 2349 049a 04F0      		brlt .L81
 242:main.cpp      ****             int8_t bar_pitch = MIN(MAX((pitch/1410), -63), 63);
 2350               		.loc 1 242 32 discriminator 2 view .LVU604
 2351 049c BC01      		movw r22,r24
 2352 049e CD01      		movw r24,r26
 2353 04a0 22E8      		ldi r18,lo8(-126)
 2354 04a2 35E0      		ldi r19,lo8(5)
 2355 04a4 40E0      		ldi r20,0
 2356 04a6 50E0      		ldi r21,0
 2357 04a8 0E94 0000 		call __divmodsi4
 242:main.cpp      ****             int8_t bar_pitch = MIN(MAX((pitch/1410), -63), 63);
 2358               		.loc 1 242 20 discriminator 2 view .LVU605
 2359 04ac 622F      		mov r22,r18
 2360               	.LVL143:
 242:main.cpp      ****             int8_t bar_pitch = MIN(MAX((pitch/1410), -63), 63);
 2361               		.loc 1 242 20 discriminator 2 view .LVU606
 2362 04ae 00C0      		rjmp .L50
 2363               	.LVL144:
GAS LISTING /tmp/ccUMk0PR.s 			page 128


 2364               	.L79:
 239:main.cpp      ****             int8_t bar_roll = MIN(MAX((roll/1410), -63), 63);
 2365               		.loc 1 239 20 discriminator 3 view .LVU607
 2366 04b0 61EC      		ldi r22,lo8(-63)
 2367 04b2 00C0      		rjmp .L48
 2368               	.LVL145:
 2369               	.L80:
 242:main.cpp      ****             int8_t bar_pitch = MIN(MAX((pitch/1410), -63), 63);
 2370               		.loc 1 242 20 discriminator 4 view .LVU608
 2371 04b4 6FE3      		ldi r22,lo8(63)
 2372               	.L50:
 2373               	.LVL146:
 243:main.cpp      ****             display.fillRect(63+MIN(0, bar_pitch), 1, (cuint8_t)ABS(bar_pitch), 1, true);          
 2374               		.loc 1 243 13 is_stmt 1 view .LVU609
 243:main.cpp      ****             display.fillRect(63+MIN(0, bar_pitch), 1, (cuint8_t)ABS(bar_pitch), 1, true);          
 2375               		.loc 1 243 65 is_stmt 0 view .LVU610
 2376 04b6 262F      		mov r18,r22
 2377 04b8 27FD      		sbrc r18,7
 2378 04ba 2195      		neg r18
 243:main.cpp      ****             display.fillRect(63+MIN(0, bar_pitch), 1, (cuint8_t)ABS(bar_pitch), 1, true);          
 2379               		.loc 1 243 33 view .LVU611
 2380 04bc 6030      		cpi r22,lo8(0)
 2381 04be 01F0      		breq .L51
 2382 04c0 04F0      		brlt .L51
 2383 04c2 60E0      		ldi r22,0
 2384               	.LVL147:
 2385               	.L51:
 243:main.cpp      ****             display.fillRect(63+MIN(0, bar_pitch), 1, (cuint8_t)ABS(bar_pitch), 1, true);          
 2386               		.loc 1 243 29 view .LVU612
 2387 04c4 615C      		subi r22,lo8(-(63))
 2388 04c6 EE24      		clr r14
 2389 04c8 E394      		inc r14
 2390 04ca 01E0      		ldi r16,lo8(1)
 2391 04cc 41E0      		ldi r20,lo8(1)
 2392 04ce 80E0      		ldi r24,lo8(display)
 2393 04d0 90E0      		ldi r25,hi8(display)
 2394 04d2 0E94 0000 		call _ZN7Ssd13068fillRectEhhhhb
 2395               	.LVL148:
 245:main.cpp      ****             int8_t bar_yaw = MIN(MAX((yaw/1410), -63), 63);
 2396               		.loc 1 245 13 is_stmt 1 view .LVU613
 245:main.cpp      ****             int8_t bar_yaw = MIN(MAX((yaw/1410), -63), 63);
 2397               		.loc 1 245 30 is_stmt 0 view .LVU614
 2398 04d6 89A5      		ldd r24,Y+41
 2399 04d8 9AA5      		ldd r25,Y+42
 2400 04da ABA5      		ldd r26,Y+43
 2401 04dc BCA5      		ldd r27,Y+44
 245:main.cpp      ****             int8_t bar_yaw = MIN(MAX((yaw/1410), -63), 63);
 2402               		.loc 1 245 20 view .LVU615
 2403 04de 8E3F      		cpi r24,-2
 2404 04e0 2AE5      		ldi r18,90
 2405 04e2 9207      		cpc r25,r18
 2406 04e4 21E0      		ldi r18,1
 2407 04e6 A207      		cpc r26,r18
 2408 04e8 B105      		cpc r27,__zero_reg__
 2409 04ea 04F4      		brge .L82
 245:main.cpp      ****             int8_t bar_yaw = MIN(MAX((yaw/1410), -63), 63);
 2410               		.loc 1 245 20 discriminator 1 view .LVU616
GAS LISTING /tmp/ccUMk0PR.s 			page 129


 2411 04ec 8330      		cpi r24,3
 2412 04ee 25EA      		ldi r18,-91
 2413 04f0 9207      		cpc r25,r18
 2414 04f2 2EEF      		ldi r18,-2
 2415 04f4 A207      		cpc r26,r18
 2416 04f6 2FEF      		ldi r18,-1
 2417 04f8 B207      		cpc r27,r18
 2418 04fa 04F4      		brge .+2
 2419 04fc 00C0      		rjmp .L83
 245:main.cpp      ****             int8_t bar_yaw = MIN(MAX((yaw/1410), -63), 63);
 2420               		.loc 1 245 30 discriminator 2 view .LVU617
 2421 04fe BC01      		movw r22,r24
 2422 0500 CD01      		movw r24,r26
 2423 0502 22E8      		ldi r18,lo8(-126)
 2424 0504 35E0      		ldi r19,lo8(5)
 2425 0506 40E0      		ldi r20,0
 2426 0508 50E0      		ldi r21,0
 2427 050a 0E94 0000 		call __divmodsi4
 245:main.cpp      ****             int8_t bar_yaw = MIN(MAX((yaw/1410), -63), 63);
 2428               		.loc 1 245 20 discriminator 2 view .LVU618
 2429 050e 622F      		mov r22,r18
 2430               	.LVL149:
 245:main.cpp      ****             int8_t bar_yaw = MIN(MAX((yaw/1410), -63), 63);
 2431               		.loc 1 245 20 discriminator 2 view .LVU619
 2432 0510 00C0      		rjmp .L52
 2433               	.LVL150:
 2434               	.L81:
 242:main.cpp      ****             int8_t bar_pitch = MIN(MAX((pitch/1410), -63), 63);
 2435               		.loc 1 242 20 discriminator 3 view .LVU620
 2436 0512 61EC      		ldi r22,lo8(-63)
 2437 0514 00C0      		rjmp .L50
 2438               	.LVL151:
 2439               	.L82:
 245:main.cpp      ****             int8_t bar_yaw = MIN(MAX((yaw/1410), -63), 63);
 2440               		.loc 1 245 20 discriminator 4 view .LVU621
 2441 0516 6FE3      		ldi r22,lo8(63)
 2442               	.L52:
 2443               	.LVL152:
 246:main.cpp      ****             display.fillRect(63+MIN(0, bar_yaw), 2, (cuint8_t)ABS(bar_yaw), 1, true);              
 2444               		.loc 1 246 13 is_stmt 1 view .LVU622
 246:main.cpp      ****             display.fillRect(63+MIN(0, bar_yaw), 2, (cuint8_t)ABS(bar_yaw), 1, true);              
 2445               		.loc 1 246 63 is_stmt 0 view .LVU623
 2446 0518 262F      		mov r18,r22
 2447 051a 27FD      		sbrc r18,7
 2448 051c 2195      		neg r18
 246:main.cpp      ****             display.fillRect(63+MIN(0, bar_yaw), 2, (cuint8_t)ABS(bar_yaw), 1, true);              
 2449               		.loc 1 246 33 view .LVU624
 2450 051e 6030      		cpi r22,lo8(0)
 2451 0520 01F0      		breq .L53
 2452 0522 04F0      		brlt .L53
 2453 0524 60E0      		ldi r22,0
 2454               	.LVL153:
 2455               	.L53:
 246:main.cpp      ****             display.fillRect(63+MIN(0, bar_yaw), 2, (cuint8_t)ABS(bar_yaw), 1, true);              
 2456               		.loc 1 246 29 view .LVU625
 2457 0526 615C      		subi r22,lo8(-(63))
 2458 0528 EE24      		clr r14
GAS LISTING /tmp/ccUMk0PR.s 			page 130


 2459 052a E394      		inc r14
 2460 052c 01E0      		ldi r16,lo8(1)
 2461 052e 42E0      		ldi r20,lo8(2)
 2462 0530 80E0      		ldi r24,lo8(display)
 2463 0532 90E0      		ldi r25,hi8(display)
 2464 0534 0E94 0000 		call _ZN7Ssd13068fillRectEhhhhb
 2465               	.LVL154:
 248:main.cpp      ****             display.drawPixel(x>>8, y>>9);
 2466               		.loc 1 248 13 is_stmt 1 view .LVU626
 248:main.cpp      ****             display.drawPixel(x>>8, y>>9);
 2467               		.loc 1 248 30 is_stmt 0 view .LVU627
 2468 0538 21E0      		ldi r18,lo8(1)
 2469 053a 492D      		mov r20,r9
 2470 053c 4695      		lsr r20
 2471 053e A196      		adiw r28,96-63
 2472 0540 6FAD      		ldd r22,Y+63
 2473 0542 A197      		sbiw r28,96-63
 2474 0544 80E0      		ldi r24,lo8(display)
 2475 0546 90E0      		ldi r25,hi8(display)
 2476 0548 0E94 0000 		call _ZN7Ssd13069drawPixelEhhb
 2477               	.LVL155:
 250:main.cpp      ****             display.setCursor(10,5);
 2478               		.loc 1 250 13 is_stmt 1 view .LVU628
 250:main.cpp      ****             display.setCursor(10,5);
 2479               		.loc 1 250 30 is_stmt 0 view .LVU629
 2480 054c 45E0      		ldi r20,lo8(5)
 2481 054e 6AE0      		ldi r22,lo8(10)
 2482 0550 80E0      		ldi r24,lo8(display)
 2483 0552 90E0      		ldi r25,hi8(display)
 2484 0554 0E94 0000 		call _ZN7Ssd13069setCursorEhh
 2485               	.LVL156:
 252:main.cpp      ****             char formatted_sense[21];
 2486               		.loc 1 252 13 is_stmt 1 view .LVU630
 253:main.cpp      ****             sprintf_P(formatted_sense, PSTR("SENSE X: %u.%ux Y: %u.%ux"), sense_x/10, sense_x%10, s
 2487               		.loc 1 253 13 view .LVU631
 253:main.cpp      ****             sprintf_P(formatted_sense, PSTR("SENSE X: %u.%ux Y: %u.%ux"), sense_x/10, sense_x%10, s
 2488               		.loc 1 253 118 is_stmt 0 view .LVU632
 2489 0558 8DEC      		ldi r24,lo8(-51)
 2490 055a A89E      		mul r10,r24
 2491 055c 412D      		mov r20,r1
 2492 055e 1124      		clr __zero_reg__
 2493 0560 642F      		mov r22,r20
 2494 0562 6695      		lsr r22
 2495 0564 6695      		lsr r22
 2496 0566 6695      		lsr r22
 2497 0568 962F      		mov r25,r22
 2498 056a 990F      		lsl r25
 2499 056c 990F      		lsl r25
 2500 056e 960F      		add r25,r22
 2501 0570 990F      		lsl r25
 2502 0572 6A2D      		mov r22,r10
 2503 0574 691B      		sub r22,r25
 253:main.cpp      ****             sprintf_P(formatted_sense, PSTR("SENSE X: %u.%ux Y: %u.%ux"), sense_x/10, sense_x%10, s
 2504               		.loc 1 253 106 view .LVU633
 2505 0576 4695      		lsr r20
 2506 0578 4695      		lsr r20
 2507 057a 4695      		lsr r20
GAS LISTING /tmp/ccUMk0PR.s 			page 131


 253:main.cpp      ****             sprintf_P(formatted_sense, PSTR("SENSE X: %u.%ux Y: %u.%ux"), sense_x/10, sense_x%10, s
 2508               		.loc 1 253 94 view .LVU634
 2509 057c B89E      		mul r11,r24
 2510 057e 812D      		mov r24,r1
 2511 0580 1124      		clr __zero_reg__
 2512 0582 282F      		mov r18,r24
 2513 0584 2695      		lsr r18
 2514 0586 2695      		lsr r18
 2515 0588 2695      		lsr r18
 2516 058a 922F      		mov r25,r18
 2517 058c 990F      		lsl r25
 2518 058e 990F      		lsl r25
 2519 0590 920F      		add r25,r18
 2520 0592 990F      		lsl r25
 2521 0594 2B2D      		mov r18,r11
 2522 0596 291B      		sub r18,r25
 253:main.cpp      ****             sprintf_P(formatted_sense, PSTR("SENSE X: %u.%ux Y: %u.%ux"), sense_x/10, sense_x%10, s
 2523               		.loc 1 253 82 view .LVU635
 2524 0598 8695      		lsr r24
 2525 059a 8695      		lsr r24
 2526 059c 8695      		lsr r24
 2527               	.LBB200:
 253:main.cpp      ****             sprintf_P(formatted_sense, PSTR("SENSE X: %u.%ux Y: %u.%ux"), sense_x/10, sense_x%10, s
 2528               		.loc 1 253 40 is_stmt 1 view .LVU636
 253:main.cpp      ****             sprintf_P(formatted_sense, PSTR("SENSE X: %u.%ux Y: %u.%ux"), sense_x/10, sense_x%10, s
 2529               		.loc 1 253 40 view .LVU637
 2530               	.LBE200:
 253:main.cpp      ****             sprintf_P(formatted_sense, PSTR("SENSE X: %u.%ux Y: %u.%ux"), sense_x/10, sense_x%10, s
 2531               		.loc 1 253 22 is_stmt 0 view .LVU638
 2532 059e 70E0      		ldi r23,0
 2533 05a0 7F93      		push r23
 2534 05a2 6F93      		push r22
 2535 05a4 50E0      		ldi r21,0
 2536 05a6 5F93      		push r21
 2537 05a8 4F93      		push r20
 2538 05aa 30E0      		ldi r19,0
 2539 05ac 3F93      		push r19
 2540 05ae 2F93      		push r18
 2541 05b0 90E0      		ldi r25,0
 2542 05b2 9F93      		push r25
 2543 05b4 8F93      		push r24
 2544 05b6 80E0      		ldi r24,lo8(_ZZ4mainE3__c_6)
 2545 05b8 90E0      		ldi r25,hi8(_ZZ4mainE3__c_6)
 2546 05ba 9F93      		push r25
 2547 05bc 8F93      		push r24
 2548 05be 8E01      		movw r16,r28
 2549 05c0 095B      		subi r16,-71
 2550 05c2 1F4F      		sbci r17,-1
 2551 05c4 1F93      		push r17
 2552 05c6 0F93      		push r16
 2553 05c8 0E94 0000 		call sprintf_P
 2554               	.LVL157:
 254:main.cpp      ****             display.setCursor(0,5);            
 2555               		.loc 1 254 13 is_stmt 1 view .LVU639
 254:main.cpp      ****             display.setCursor(0,5);            
 2556               		.loc 1 254 30 is_stmt 0 view .LVU640
 2557 05cc 45E0      		ldi r20,lo8(5)
GAS LISTING /tmp/ccUMk0PR.s 			page 132


 2558 05ce 60E0      		ldi r22,0
 2559 05d0 80E0      		ldi r24,lo8(display)
 2560 05d2 90E0      		ldi r25,hi8(display)
 2561 05d4 0E94 0000 		call _ZN7Ssd13069setCursorEhh
 2562               	.LVL158:
 255:main.cpp      ****             display.print(formatted_sense);
 2563               		.loc 1 255 13 is_stmt 1 view .LVU641
 255:main.cpp      ****             display.print(formatted_sense);
 2564               		.loc 1 255 26 is_stmt 0 view .LVU642
 2565 05d8 B801      		movw r22,r16
 2566 05da 80E0      		ldi r24,lo8(display)
 2567 05dc 90E0      		ldi r25,hi8(display)
 2568 05de 0E94 0000 		call _ZN7Ssd13065printEPKc
 2569               	.LVL159:
 257:main.cpp      ****             display.display();
 2570               		.loc 1 257 13 is_stmt 1 view .LVU643
 257:main.cpp      ****             display.display();
 2571               		.loc 1 257 28 is_stmt 0 view .LVU644
 2572 05e2 80E0      		ldi r24,lo8(display)
 2573 05e4 90E0      		ldi r25,hi8(display)
 2574 05e6 0E94 0000 		call _ZN7Ssd13067displayEv
 2575               	.LVL160:
 258:main.cpp      ****             update_display_flag = false;
 2576               		.loc 1 258 13 is_stmt 1 view .LVU645
 258:main.cpp      ****             update_display_flag = false;
 2577               		.loc 1 258 33 is_stmt 0 view .LVU646
 2578 05ea 1092 0000 		sts update_display_flag,__zero_reg__
 2579 05ee 0FB6      		in __tmp_reg__,__SREG__
 2580 05f0 F894      		cli
 2581 05f2 DEBF      		out __SP_H__,r29
 2582 05f4 0FBE      		out __SREG__,__tmp_reg__
 2583 05f6 CDBF      		out __SP_L__,r28
 2584 05f8 00C0      		rjmp .L45
 2585               	.LVL161:
 2586               	.L83:
 245:main.cpp      ****             int8_t bar_yaw = MIN(MAX((yaw/1410), -63), 63);
 2587               		.loc 1 245 20 discriminator 3 view .LVU647
 2588 05fa 61EC      		ldi r22,lo8(-63)
 2589 05fc 00C0      		rjmp .L52
 2590               	.LVL162:
 2591               	.L55:
 245:main.cpp      ****             int8_t bar_yaw = MIN(MAX((yaw/1410), -63), 63);
 2592               		.loc 1 245 20 discriminator 3 view .LVU648
 2593               	.LBE196:
 2594               	.LBE213:
 2595               	.LBB214:
 261:main.cpp      ****         switch (current_state){
 2596               		.loc 1 261 9 view .LVU649
 2597 05fe 0330      		cpi r16,3
 2598 0600 1105      		cpc r17,__zero_reg__
 2599 0602 01F0      		breq .+2
 2600 0604 00C0      		rjmp .L58
 2601               	.LBB209:
 325:main.cpp      ****             case CALIBRATION_MODE:
 2602               		.loc 1 325 13 is_stmt 1 view .LVU650
 326:main.cpp      ****                 if(pressed_buttons & LEFT_BUTTON){
 2603               		.loc 1 326 17 view .LVU651
GAS LISTING /tmp/ccUMk0PR.s 			page 133


 2604 0606 F2FE      		sbrs r15,2
 2605 0608 00C0      		rjmp .L70
 327:main.cpp      ****                     sense_x = (sense_x+5)%45;
 2606               		.loc 1 327 21 view .LVU652
 327:main.cpp      ****                     sense_x = (sense_x+5)%45;
 2607               		.loc 1 327 32 is_stmt 0 view .LVU653
 2608 060a 8B2D      		mov r24,r11
 2609 060c 90E0      		ldi r25,0
 327:main.cpp      ****                     sense_x = (sense_x+5)%45;
 2610               		.loc 1 327 39 view .LVU654
 2611 060e 0596      		adiw r24,5
 327:main.cpp      ****                     sense_x = (sense_x+5)%45;
 2612               		.loc 1 327 42 view .LVU655
 2613 0610 6DE2      		ldi r22,lo8(45)
 2614 0612 70E0      		ldi r23,0
 2615 0614 0E94 0000 		call __divmodhi4
 327:main.cpp      ****                     sense_x = (sense_x+5)%45;
 2616               		.loc 1 327 29 view .LVU656
 2617 0618 B82E      		mov r11,r24
 2618               	.LVL163:
 2619               	.L70:
 329:main.cpp      ****                 if(pressed_buttons & RIGHT_BUTTON){
 2620               		.loc 1 329 17 is_stmt 1 view .LVU657
 2621 061a F1FE      		sbrs r15,1
 2622 061c 00C0      		rjmp .L71
 330:main.cpp      ****                     sense_y = (sense_y+5)%45;
 2623               		.loc 1 330 21 view .LVU658
 330:main.cpp      ****                     sense_y = (sense_y+5)%45;
 2624               		.loc 1 330 32 is_stmt 0 view .LVU659
 2625 061e 8A2D      		mov r24,r10
 2626 0620 90E0      		ldi r25,0
 330:main.cpp      ****                     sense_y = (sense_y+5)%45;
 2627               		.loc 1 330 39 view .LVU660
 2628 0622 0596      		adiw r24,5
 330:main.cpp      ****                     sense_y = (sense_y+5)%45;
 2629               		.loc 1 330 42 view .LVU661
 2630 0624 6DE2      		ldi r22,lo8(45)
 2631 0626 70E0      		ldi r23,0
 2632 0628 0E94 0000 		call __divmodhi4
 330:main.cpp      ****                     sense_y = (sense_y+5)%45;
 2633               		.loc 1 330 29 view .LVU662
 2634 062c A82E      		mov r10,r24
 2635               	.LVL164:
 2636               	.L71:
 333:main.cpp      ****                 if(spi_flag){
 2637               		.loc 1 333 17 is_stmt 1 view .LVU663
 333:main.cpp      ****                 if(spi_flag){
 2638               		.loc 1 333 20 is_stmt 0 view .LVU664
 2639 062e 8091 0000 		lds r24,spi_flag
 333:main.cpp      ****                 if(spi_flag){
 2640               		.loc 1 333 17 view .LVU665
 2641 0632 8030      		cpi r24,lo8(0)
 2642 0634 01F4      		brne .+2
 2643 0636 00C0      		rjmp .L58
 334:main.cpp      ****                         format_packet(x, y, 0, 0, current_state, packet);
 2644               		.loc 1 334 25 is_stmt 1 view .LVU666
 334:main.cpp      ****                         format_packet(x, y, 0, 0, current_state, packet);
GAS LISTING /tmp/ccUMk0PR.s 			page 134


 2645               		.loc 1 334 38 is_stmt 0 view .LVU667
 2646 0638 6E01      		movw r12,r28
 2647               	.LVL165:
 334:main.cpp      ****                         format_packet(x, y, 0, 0, current_state, packet);
 2648               		.loc 1 334 38 view .LVU668
 2649 063a 8FEF      		ldi r24,-1
 2650 063c C81A      		sub r12,r24
 2651 063e D80A      		sbc r13,r24
 2652 0640 7601      		movw r14,r12
 2653 0642 20E0      		ldi r18,0
 2654 0644 30E0      		ldi r19,0
 2655 0646 40E0      		ldi r20,0
 2656 0648 632D      		mov r22,r3
 2657 064a 792D      		mov r23,r9
 2658 064c 822D      		mov r24,r2
 2659 064e A196      		adiw r28,96-63
 2660 0650 9FAD      		ldd r25,Y+63
 2661 0652 A197      		sbiw r28,96-63
 2662 0654 0E94 0000 		call _Z13format_packetjjhi7OP_MODEPh
 2663               	.LVL166:
 335:main.cpp      ****                         transcieve_packets(packet, recv_packet, PACKET_SIZE);
 2664               		.loc 1 335 25 is_stmt 1 view .LVU669
 335:main.cpp      ****                         transcieve_packets(packet, recv_packet, PACKET_SIZE);
 2665               		.loc 1 335 43 is_stmt 0 view .LVU670
 2666 0658 80E1      		ldi r24,16
 2667 065a E80E      		add r14,r24
 2668 065c F11C      		adc r15,__zero_reg__
 2669 065e 40E1      		ldi r20,lo8(16)
 2670 0660 50E0      		ldi r21,0
 2671 0662 B701      		movw r22,r14
 2672 0664 C601      		movw r24,r12
 2673 0666 0E94 0000 		call _Z18transcieve_packetsPhS_j
 2674               	.LVL167:
 336:main.cpp      ****                         convert_recieved(&roll, &pitch, &yaw, &accel_x, &ble_state, recv_packet);
 2675               		.loc 1 336 25 is_stmt 1 view .LVU671
 336:main.cpp      ****                         convert_recieved(&roll, &pitch, &yaw, &accel_x, &ble_state, recv_packet);
 2676               		.loc 1 336 41 is_stmt 0 view .LVU672
 2677 066a 8E01      		movw r16,r28
 2678 066c 015D      		subi r16,-47
 2679 066e 1F4F      		sbci r17,-1
 2680 0670 9E01      		movw r18,r28
 2681 0672 235D      		subi r18,-45
 2682 0674 3F4F      		sbci r19,-1
 2683 0676 AE01      		movw r20,r28
 2684 0678 475D      		subi r20,-41
 2685 067a 5F4F      		sbci r21,-1
 2686 067c BE01      		movw r22,r28
 2687 067e 6F5D      		subi r22,-33
 2688 0680 7F4F      		sbci r23,-1
 2689 0682 CE01      		movw r24,r28
 2690 0684 8596      		adiw r24,37
 2691 0686 0E94 0000 		call _Z16convert_recievedPlS_S_PiP8BT_STATEPh
 2692               	.LVL168:
 338:main.cpp      ****                         spi_flag=false;
 2693               		.loc 1 338 25 is_stmt 1 view .LVU673
 338:main.cpp      ****                         spi_flag=false;
 2694               		.loc 1 338 33 is_stmt 0 view .LVU674
GAS LISTING /tmp/ccUMk0PR.s 			page 135


 2695 068a 1092 0000 		sts spi_flag,__zero_reg__
 2696 068e 00C0      		rjmp .L58
 2697               	.LVL169:
 2698               	.L56:
 262:main.cpp      ****             case IDLE_MODE:
 2699               		.loc 1 262 13 is_stmt 1 view .LVU675
 263:main.cpp      ****                 if(spi_flag){
 2700               		.loc 1 263 17 view .LVU676
 263:main.cpp      ****                 if(spi_flag){
 2701               		.loc 1 263 20 is_stmt 0 view .LVU677
 2702 0690 8091 0000 		lds r24,spi_flag
 263:main.cpp      ****                 if(spi_flag){
 2703               		.loc 1 263 17 view .LVU678
 2704 0694 8030      		cpi r24,lo8(0)
 2705 0696 01F4      		brne .+2
 2706 0698 00C0      		rjmp .L58
 264:main.cpp      ****                     spi_flag=false;
 2707               		.loc 1 264 21 is_stmt 1 view .LVU679
 264:main.cpp      ****                     spi_flag=false;
 2708               		.loc 1 264 29 is_stmt 0 view .LVU680
 2709 069a 1092 0000 		sts spi_flag,__zero_reg__
 265:main.cpp      ****                     idle_count++;
 2710               		.loc 1 265 21 is_stmt 1 view .LVU681
 265:main.cpp      ****                     idle_count++;
 2711               		.loc 1 265 31 is_stmt 0 view .LVU682
 2712 069e 8394      		inc r8
 2713               	.LVL170:
 266:main.cpp      ****                     if(idle_count >= 5){
 2714               		.loc 1 266 21 is_stmt 1 view .LVU683
 2715 06a0 882D      		mov r24,r8
 2716 06a2 8530      		cpi r24,lo8(5)
 2717 06a4 00F4      		brsh .+2
 2718 06a6 00C0      		rjmp .L58
 268:main.cpp      ****                         idle_count = 0;
 2719               		.loc 1 268 25 view .LVU684
 2720               	.LVL171:
 269:main.cpp      ****                         format_packet(x, y, 0, 0, current_state, packet);
 2721               		.loc 1 269 25 view .LVU685
 269:main.cpp      ****                         format_packet(x, y, 0, 0, current_state, packet);
 2722               		.loc 1 269 38 is_stmt 0 view .LVU686
 2723 06a8 6E01      		movw r12,r28
 2724               	.LVL172:
 269:main.cpp      ****                         format_packet(x, y, 0, 0, current_state, packet);
 2725               		.loc 1 269 38 view .LVU687
 2726 06aa 8FEF      		ldi r24,-1
 2727 06ac C81A      		sub r12,r24
 2728 06ae D80A      		sbc r13,r24
 2729 06b0 7601      		movw r14,r12
 2730 06b2 20E0      		ldi r18,0
 2731 06b4 30E0      		ldi r19,0
 2732 06b6 40E0      		ldi r20,0
 2733 06b8 632D      		mov r22,r3
 2734 06ba 792D      		mov r23,r9
 2735 06bc 822D      		mov r24,r2
 2736 06be A196      		adiw r28,96-63
 2737 06c0 9FAD      		ldd r25,Y+63
 2738 06c2 A197      		sbiw r28,96-63
GAS LISTING /tmp/ccUMk0PR.s 			page 136


 2739 06c4 0E94 0000 		call _Z13format_packetjjhi7OP_MODEPh
 2740               	.LVL173:
 270:main.cpp      ****                         transcieve_packets(packet, recv_packet, PACKET_SIZE);
 2741               		.loc 1 270 25 is_stmt 1 view .LVU688
 270:main.cpp      ****                         transcieve_packets(packet, recv_packet, PACKET_SIZE);
 2742               		.loc 1 270 43 is_stmt 0 view .LVU689
 2743 06c8 80E1      		ldi r24,16
 2744 06ca E80E      		add r14,r24
 2745 06cc F11C      		adc r15,__zero_reg__
 2746 06ce 40E1      		ldi r20,lo8(16)
 2747 06d0 50E0      		ldi r21,0
 2748 06d2 B701      		movw r22,r14
 2749 06d4 C601      		movw r24,r12
 2750 06d6 0E94 0000 		call _Z18transcieve_packetsPhS_j
 2751               	.LVL174:
 271:main.cpp      ****                         convert_recieved(&roll, &pitch, &yaw, &accel_x, &ble_state, recv_packet);
 2752               		.loc 1 271 25 is_stmt 1 view .LVU690
 271:main.cpp      ****                         convert_recieved(&roll, &pitch, &yaw, &accel_x, &ble_state, recv_packet);
 2753               		.loc 1 271 41 is_stmt 0 view .LVU691
 2754 06da 8E01      		movw r16,r28
 2755 06dc 015D      		subi r16,-47
 2756 06de 1F4F      		sbci r17,-1
 2757 06e0 9E01      		movw r18,r28
 2758 06e2 235D      		subi r18,-45
 2759 06e4 3F4F      		sbci r19,-1
 2760 06e6 AE01      		movw r20,r28
 2761 06e8 475D      		subi r20,-41
 2762 06ea 5F4F      		sbci r21,-1
 2763 06ec BE01      		movw r22,r28
 2764 06ee 6F5D      		subi r22,-33
 2765 06f0 7F4F      		sbci r23,-1
 2766 06f2 CE01      		movw r24,r28
 2767 06f4 8596      		adiw r24,37
 2768 06f6 0E94 0000 		call _Z16convert_recievedPlS_S_PiP8BT_STATEPh
 2769               	.LVL175:
 272:main.cpp      ****                         spi_flag = false;
 2770               		.loc 1 272 25 is_stmt 1 view .LVU692
 272:main.cpp      ****                         spi_flag = false;
 2771               		.loc 1 272 34 is_stmt 0 view .LVU693
 2772 06fa 1092 0000 		sts spi_flag,__zero_reg__
 268:main.cpp      ****                         idle_count = 0;
 2773               		.loc 1 268 36 view .LVU694
 2774 06fe 812C      		mov r8,__zero_reg__
 2775 0700 00C0      		rjmp .L58
 2776               	.LVL176:
 2777               	.L60:
 282:main.cpp      ****                 {
 2778               		.loc 1 282 17 is_stmt 1 view .LVU695
 2779               	.LBB203:
 284:main.cpp      ****                     if(get_millis() - last_mouse_button_pressed > 100){
 2780               		.loc 1 284 21 view .LVU696
 2781               	.LBB204:
 284:main.cpp      ****                     if(get_millis() - last_mouse_button_pressed > 100){
 2782               		.loc 1 284 34 is_stmt 0 view .LVU697
 2783 0702 0E94 0000 		call _Z10get_millisv
 2784               	.LVL177:
 284:main.cpp      ****                     if(get_millis() - last_mouse_button_pressed > 100){
GAS LISTING /tmp/ccUMk0PR.s 			page 137


 2785               		.loc 1 284 37 discriminator 1 view .LVU698
 2786 0706 DC01      		movw r26,r24
 2787 0708 CB01      		movw r24,r22
 2788 070a A096      		adiw r28,92-60
 2789 070c 2CAD      		ldd r18,Y+60
 2790 070e 3DAD      		ldd r19,Y+61
 2791 0710 4EAD      		ldd r20,Y+62
 2792 0712 5FAD      		ldd r21,Y+63
 2793 0714 A097      		sbiw r28,92-60
 2794 0716 821B      		sub r24,r18
 2795 0718 930B      		sbc r25,r19
 2796 071a A40B      		sbc r26,r20
 2797 071c B50B      		sbc r27,r21
 284:main.cpp      ****                     if(get_millis() - last_mouse_button_pressed > 100){
 2798               		.loc 1 284 21 discriminator 1 view .LVU699
 2799 071e 8536      		cpi r24,101
 2800 0720 9040      		sbci r25,0
 2801 0722 A040      		sbci r26,0
 2802 0724 B040      		sbci r27,0
 2803 0726 00F4      		brsh .L95
 2804               	.LVL178:
 2805               	.L61:
 284:main.cpp      ****                     if(get_millis() - last_mouse_button_pressed > 100){
 2806               		.loc 1 284 21 discriminator 1 view .LVU700
 2807               	.LBE204:
 298:main.cpp      ****                     if(spi_flag){
 2808               		.loc 1 298 21 is_stmt 1 view .LVU701
 298:main.cpp      ****                     if(spi_flag){
 2809               		.loc 1 298 24 is_stmt 0 view .LVU702
 2810 0728 8091 0000 		lds r24,spi_flag
 298:main.cpp      ****                     if(spi_flag){
 2811               		.loc 1 298 21 view .LVU703
 2812 072c 8030      		cpi r24,lo8(0)
 2813 072e 01F4      		brne .+2
 2814 0730 00C0      		rjmp .L58
 299:main.cpp      ****                             format_packet(x, y, debounced_buttons, 0, current_state, packet);
 2815               		.loc 1 299 29 is_stmt 1 view .LVU704
 299:main.cpp      ****                             format_packet(x, y, debounced_buttons, 0, current_state, packet);
 2816               		.loc 1 299 42 is_stmt 0 view .LVU705
 2817 0732 4091 0000 		lds r20,debounced_buttons
 2818 0736 0091 0000 		lds r16,current_state
 2819 073a 1091 0000 		lds r17,current_state+1
 2820 073e 6E01      		movw r12,r28
 2821 0740 8FEF      		ldi r24,-1
 2822 0742 C81A      		sub r12,r24
 2823 0744 D80A      		sbc r13,r24
 2824 0746 7601      		movw r14,r12
 2825 0748 20E0      		ldi r18,0
 2826 074a 30E0      		ldi r19,0
 2827 074c 632D      		mov r22,r3
 2828 074e 792D      		mov r23,r9
 2829 0750 822D      		mov r24,r2
 2830 0752 A196      		adiw r28,96-63
 2831 0754 9FAD      		ldd r25,Y+63
 2832 0756 A197      		sbiw r28,96-63
 2833 0758 0E94 0000 		call _Z13format_packetjjhi7OP_MODEPh
 2834               	.LVL179:
GAS LISTING /tmp/ccUMk0PR.s 			page 138


 300:main.cpp      ****                             transcieve_packets(packet, recv_packet, PACKET_SIZE);
 2835               		.loc 1 300 29 is_stmt 1 view .LVU706
 300:main.cpp      ****                             transcieve_packets(packet, recv_packet, PACKET_SIZE);
 2836               		.loc 1 300 47 is_stmt 0 view .LVU707
 2837 075c 80E1      		ldi r24,16
 2838 075e E80E      		add r14,r24
 2839 0760 F11C      		adc r15,__zero_reg__
 2840 0762 40E1      		ldi r20,lo8(16)
 2841 0764 50E0      		ldi r21,0
 2842 0766 B701      		movw r22,r14
 2843 0768 C601      		movw r24,r12
 2844 076a 0E94 0000 		call _Z18transcieve_packetsPhS_j
 2845               	.LVL180:
 301:main.cpp      ****                             convert_recieved(&roll, &pitch, &yaw, &accel_x, &ble_state, recv_packet
 2846               		.loc 1 301 29 is_stmt 1 view .LVU708
 301:main.cpp      ****                             convert_recieved(&roll, &pitch, &yaw, &accel_x, &ble_state, recv_packet
 2847               		.loc 1 301 45 is_stmt 0 view .LVU709
 2848 076e 8E01      		movw r16,r28
 2849 0770 015D      		subi r16,-47
 2850 0772 1F4F      		sbci r17,-1
 2851 0774 9E01      		movw r18,r28
 2852 0776 235D      		subi r18,-45
 2853 0778 3F4F      		sbci r19,-1
 2854 077a AE01      		movw r20,r28
 2855 077c 475D      		subi r20,-41
 2856 077e 5F4F      		sbci r21,-1
 2857 0780 BE01      		movw r22,r28
 2858 0782 6F5D      		subi r22,-33
 2859 0784 7F4F      		sbci r23,-1
 2860 0786 CE01      		movw r24,r28
 2861 0788 8596      		adiw r24,37
 2862 078a 0E94 0000 		call _Z16convert_recievedPlS_S_PiP8BT_STATEPh
 2863               	.LVL181:
 302:main.cpp      ****                             spi_flag = false;
 2864               		.loc 1 302 29 is_stmt 1 view .LVU710
 302:main.cpp      ****                             spi_flag = false;
 2865               		.loc 1 302 38 is_stmt 0 view .LVU711
 2866 078e 1092 0000 		sts spi_flag,__zero_reg__
 2867 0792 00C0      		rjmp .L58
 2868               	.LVL182:
 2869               	.L95:
 2870               	.LBB206:
 2871               	.LBB205:
 289:main.cpp      ****                         int32_t raw_x = projectTan(yaw,   0,     45000, sense_x);
 2872               		.loc 1 289 25 is_stmt 1 view .LVU712
 289:main.cpp      ****                         int32_t raw_x = projectTan(yaw,   0,     45000, sense_x);
 2873               		.loc 1 289 51 is_stmt 0 view .LVU713
 2874 0794 CB2C      		mov r12,r11
 2875               	.LVL183:
 289:main.cpp      ****                         int32_t raw_x = projectTan(yaw,   0,     45000, sense_x);
 2876               		.loc 1 289 51 view .LVU714
 2877 0796 D12C      		mov r13,__zero_reg__
 2878 0798 69A5      		ldd r22,Y+41
 2879 079a 7AA5      		ldd r23,Y+42
 2880 079c 8BA5      		ldd r24,Y+43
 2881 079e 9CA5      		ldd r25,Y+44
 2882 07a0 18EC      		ldi r17,lo8(-56)
GAS LISTING /tmp/ccUMk0PR.s 			page 139


 2883 07a2 E12E      		mov r14,r17
 2884 07a4 1FEA      		ldi r17,lo8(-81)
 2885 07a6 F12E      		mov r15,r17
 2886 07a8 00E0      		ldi r16,0
 2887 07aa 10E0      		ldi r17,0
 2888 07ac 20E0      		ldi r18,0
 2889 07ae 30E0      		ldi r19,0
 2890 07b0 A901      		movw r20,r18
 2891 07b2 0E94 0000 		call _Z10projectTanlllj
 2892               	.LVL184:
 289:main.cpp      ****                         int32_t raw_x = projectTan(yaw,   0,     45000, sense_x);
 2893               		.loc 1 289 80 discriminator 1 view .LVU715
 2894 07b6 2C01      		movw r4,r24
 2895 07b8 612C      		mov r6,__zero_reg__
 2896 07ba 712C      		mov r7,__zero_reg__
 2897               	.LVL185:
 291:main.cpp      ****                         int32_t raw_y = projectTan(pitch, 25000, 25000, sense_y);
 2898               		.loc 1 291 25 is_stmt 1 view .LVU716
 291:main.cpp      ****                         int32_t raw_y = projectTan(pitch, 25000, 25000, sense_y);
 2899               		.loc 1 291 51 is_stmt 0 view .LVU717
 2900 07bc CA2C      		mov r12,r10
 2901 07be D12C      		mov r13,__zero_reg__
 2902 07c0 69A1      		ldd r22,Y+33
 2903 07c2 7AA1      		ldd r23,Y+34
 2904 07c4 8BA1      		ldd r24,Y+35
 2905 07c6 9CA1      		ldd r25,Y+36
 2906 07c8 18EA      		ldi r17,lo8(-88)
 2907 07ca E12E      		mov r14,r17
 2908 07cc 11E6      		ldi r17,lo8(97)
 2909 07ce F12E      		mov r15,r17
 2910 07d0 00E0      		ldi r16,0
 2911 07d2 10E0      		ldi r17,0
 2912 07d4 28EA      		ldi r18,lo8(-88)
 2913 07d6 31E6      		ldi r19,lo8(97)
 2914 07d8 40E0      		ldi r20,0
 2915 07da 50E0      		ldi r21,0
 2916 07dc 0E94 0000 		call _Z10projectTanlllj
 2917               	.LVL186:
 291:main.cpp      ****                         int32_t raw_y = projectTan(pitch, 25000, 25000, sense_y);
 2918               		.loc 1 291 80 discriminator 1 view .LVU718
 2919 07e0 A0E0      		ldi r26,0
 2920 07e2 B0E0      		ldi r27,0
 2921               	.LVL187:
 293:main.cpp      ****                         x = (int16_t)truncateBetween(raw_x, 0, 32767);
 2922               		.loc 1 293 25 is_stmt 1 view .LVU719
 293:main.cpp      ****                         x = (int16_t)truncateBetween(raw_x, 0, 32767);
 2923               		.loc 1 293 38 is_stmt 0 discriminator 1 view .LVU720
 2924 07e4 20E8      		ldi r18,-128
 2925 07e6 5216      		cp r5,r18
 2926 07e8 6104      		cpc r6,__zero_reg__
 2927 07ea 7104      		cpc r7,__zero_reg__
 2928 07ec 04F0      		brlt .L62
 293:main.cpp      ****                         x = (int16_t)truncateBetween(raw_x, 0, 32767);
 2929               		.loc 1 293 38 discriminator 1 view .LVU721
 2930 07ee 0F2E      		mov __tmp_reg__,r31
 2931 07f0 4424      		clr r4
 2932 07f2 4A94      		dec r4
GAS LISTING /tmp/ccUMk0PR.s 			page 140


 2933 07f4 FFE7      		ldi r31,lo8(127)
 2934 07f6 5F2E      		mov r5,r31
 2935 07f8 612C      		mov r6,__zero_reg__
 2936 07fa 712C      		mov r7,__zero_reg__
 2937 07fc F02D      		mov r31,__tmp_reg__
 2938               	.LVL188:
 2939               	.L62:
 293:main.cpp      ****                         x = (int16_t)truncateBetween(raw_x, 0, 32767);
 2940               		.loc 1 293 27 discriminator 1 view .LVU722
 2941 07fe 242C      		mov r2,r4
 293:main.cpp      ****                         x = (int16_t)truncateBetween(raw_x, 0, 32767);
 2942               		.loc 1 293 27 discriminator 1 view .LVU723
 2943 0800 A196      		adiw r28,96-63
 2944 0802 5FAE      		std Y+63,r5
 2945 0804 A197      		sbiw r28,96-63
 294:main.cpp      ****                         y = 32767 - (int16_t)truncateBetween(raw_y, 0, 32767);
 2946               		.loc 1 294 25 is_stmt 1 view .LVU724
 294:main.cpp      ****                         y = 32767 - (int16_t)truncateBetween(raw_y, 0, 32767);
 2947               		.loc 1 294 46 is_stmt 0 discriminator 1 view .LVU725
 2948 0806 9038      		cpi r25,-128
 2949 0808 A105      		cpc r26,__zero_reg__
 2950 080a B105      		cpc r27,__zero_reg__
 2951 080c 04F0      		brlt .L63
 2952 080e 8FEF      		ldi r24,lo8(-1)
 2953 0810 9FE7      		ldi r25,lo8(127)
 2954 0812 A0E0      		ldi r26,0
 2955 0814 B0E0      		ldi r27,0
 2956               	.LVL189:
 2957               	.L63:
 294:main.cpp      ****                         y = 32767 - (int16_t)truncateBetween(raw_y, 0, 32767);
 2958               		.loc 1 294 35 discriminator 1 view .LVU726
 2959 0816 2FEF      		ldi r18,lo8(-1)
 2960 0818 3FE7      		ldi r19,lo8(127)
 2961 081a 281B      		sub r18,r24
 2962 081c 390B      		sbc r19,r25
 2963 081e C901      		movw r24,r18
 294:main.cpp      ****                         y = 32767 - (int16_t)truncateBetween(raw_y, 0, 32767);
 2964               		.loc 1 294 27 discriminator 1 view .LVU727
 2965 0820 322E      		mov r3,r18
 2966               	.LVL190:
 294:main.cpp      ****                         y = 32767 - (int16_t)truncateBetween(raw_y, 0, 32767);
 2967               		.loc 1 294 27 discriminator 1 view .LVU728
 2968 0822 992E      		mov r9,r25
 2969 0824 00C0      		rjmp .L61
 2970               	.LVL191:
 2971               	.L54:
 294:main.cpp      ****                         y = 32767 - (int16_t)truncateBetween(raw_y, 0, 32767);
 2972               		.loc 1 294 27 discriminator 1 view .LVU729
 2973               	.LBE205:
 2974               	.LBE206:
 2975               	.LBE203:
 309:main.cpp      ****             case SCROLL_MODE:
 2976               		.loc 1 309 13 is_stmt 1 view .LVU730
 310:main.cpp      ****                 if (pitch < 50000){current_state = CURSOR_MODE; break;}
 2977               		.loc 1 310 17 view .LVU731
 310:main.cpp      ****                 if (pitch < 50000){current_state = CURSOR_MODE; break;}
 2978               		.loc 1 310 27 is_stmt 0 view .LVU732
GAS LISTING /tmp/ccUMk0PR.s 			page 141


 2979 0826 89A1      		ldd r24,Y+33
 2980 0828 9AA1      		ldd r25,Y+34
 2981 082a ABA1      		ldd r26,Y+35
 2982 082c BCA1      		ldd r27,Y+36
 310:main.cpp      ****                 if (pitch < 50000){current_state = CURSOR_MODE; break;}
 2983               		.loc 1 310 17 view .LVU733
 2984 082e 8035      		cpi r24,80
 2985 0830 934C      		sbci r25,-61
 2986 0832 A040      		sbci r26,0
 2987 0834 B040      		sbci r27,0
 2988 0836 04F4      		brge .L65
 310:main.cpp      ****                 if (pitch < 50000){current_state = CURSOR_MODE; break;}
 2989               		.loc 1 310 36 is_stmt 1 discriminator 1 view .LVU734
 310:main.cpp      ****                 if (pitch < 50000){current_state = CURSOR_MODE; break;}
 2990               		.loc 1 310 50 is_stmt 0 discriminator 1 view .LVU735
 2991 0838 81E0      		ldi r24,lo8(1)
 2992 083a 90E0      		ldi r25,0
 2993 083c 9093 0000 		sts current_state+1,r25
 2994 0840 8093 0000 		sts current_state,r24
 310:main.cpp      ****                 if (pitch < 50000){current_state = CURSOR_MODE; break;}
 2995               		.loc 1 310 65 is_stmt 1 discriminator 1 view .LVU736
 2996 0844 00C0      		rjmp .L58
 2997               	.L65:
 312:main.cpp      ****                 if(spi_flag){
 2998               		.loc 1 312 17 view .LVU737
 2999               	.LBB207:
 312:main.cpp      ****                 if(spi_flag){
 3000               		.loc 1 312 20 is_stmt 0 view .LVU738
 3001 0846 8091 0000 		lds r24,spi_flag
 312:main.cpp      ****                 if(spi_flag){
 3002               		.loc 1 312 17 view .LVU739
 3003 084a 8030      		cpi r24,lo8(0)
 3004 084c 01F4      		brne .+2
 3005 084e 00C0      		rjmp .L58
 3006               	.LBB208:
 313:main.cpp      ****                     int8_t scroll_packet = (int8_t)(ABS(yaw) > 15000) ? (int8_t)(yaw/15000) : 0;
 3007               		.loc 1 313 21 is_stmt 1 view .LVU740
 313:main.cpp      ****                     int8_t scroll_packet = (int8_t)(ABS(yaw) > 15000) ? (int8_t)(yaw/15000) : 0;
 3008               		.loc 1 313 53 is_stmt 0 view .LVU741
 3009 0850 89A5      		ldd r24,Y+41
 3010 0852 9AA5      		ldd r25,Y+42
 3011 0854 ABA5      		ldd r26,Y+43
 3012 0856 BCA5      		ldd r27,Y+44
 3013 0858 AC01      		movw r20,r24
 3014 085a BD01      		movw r22,r26
 3015 085c BB23      		tst r27
 3016 085e 04F4      		brge .+2
 3017 0860 00C0      		rjmp .L96
 3018               	.L67:
 313:main.cpp      ****                     int8_t scroll_packet = (int8_t)(ABS(yaw) > 15000) ? (int8_t)(yaw/15000) : 0;
 3019               		.loc 1 313 28 view .LVU742
 3020 0862 4939      		cpi r20,-103
 3021 0864 5A43      		sbci r21,58
 3022 0866 6040      		sbci r22,0
 3023 0868 7040      		sbci r23,0
 3024 086a 04F4      		brge .+2
 3025 086c 00C0      		rjmp .L84
GAS LISTING /tmp/ccUMk0PR.s 			page 142


 313:main.cpp      ****                     int8_t scroll_packet = (int8_t)(ABS(yaw) > 15000) ? (int8_t)(yaw/15000) : 0;
 3026               		.loc 1 313 85 discriminator 1 view .LVU743
 3027 086e BC01      		movw r22,r24
 3028 0870 CD01      		movw r24,r26
 3029 0872 28E9      		ldi r18,lo8(-104)
 3030 0874 3AE3      		ldi r19,lo8(58)
 3031 0876 40E0      		ldi r20,0
 3032 0878 50E0      		ldi r21,0
 3033 087a 0E94 0000 		call __divmodsi4
 3034               	.LVL192:
 3035               	.L68:
 315:main.cpp      ****                     format_packet(x, y, debounced_buttons, scroll_packet, current_state, packet);
 3036               		.loc 1 315 21 is_stmt 1 view .LVU744
 315:main.cpp      ****                     format_packet(x, y, debounced_buttons, scroll_packet, current_state, packet);
 3037               		.loc 1 315 34 is_stmt 0 view .LVU745
 3038 087e 622E      		mov r6,r18
 3039 0880 220F      		lsl r18
 3040 0882 7708      		sbc r7,r7
 3041 0884 4091 0000 		lds r20,debounced_buttons
 3042 0888 6E01      		movw r12,r28
 3043               	.LVL193:
 315:main.cpp      ****                     format_packet(x, y, debounced_buttons, scroll_packet, current_state, packet);
 3044               		.loc 1 315 34 view .LVU746
 3045 088a 8FEF      		ldi r24,-1
 3046 088c C81A      		sub r12,r24
 3047 088e D80A      		sbc r13,r24
 3048 0890 7601      		movw r14,r12
 3049 0892 9301      		movw r18,r6
 3050               	.LVL194:
 315:main.cpp      ****                     format_packet(x, y, debounced_buttons, scroll_packet, current_state, packet);
 3051               		.loc 1 315 34 view .LVU747
 3052 0894 632D      		mov r22,r3
 3053 0896 792D      		mov r23,r9
 3054 0898 822D      		mov r24,r2
 3055 089a A196      		adiw r28,96-63
 3056 089c 9FAD      		ldd r25,Y+63
 3057 089e A197      		sbiw r28,96-63
 3058 08a0 0E94 0000 		call _Z13format_packetjjhi7OP_MODEPh
 3059               	.LVL195:
 316:main.cpp      ****                     transcieve_packets(packet, recv_packet, PACKET_SIZE);
 3060               		.loc 1 316 21 is_stmt 1 view .LVU748
 316:main.cpp      ****                     transcieve_packets(packet, recv_packet, PACKET_SIZE);
 3061               		.loc 1 316 39 is_stmt 0 view .LVU749
 3062 08a4 80E1      		ldi r24,16
 3063 08a6 E80E      		add r14,r24
 3064 08a8 F11C      		adc r15,__zero_reg__
 3065 08aa 40E1      		ldi r20,lo8(16)
 3066 08ac 50E0      		ldi r21,0
 3067 08ae B701      		movw r22,r14
 3068 08b0 C601      		movw r24,r12
 3069 08b2 0E94 0000 		call _Z18transcieve_packetsPhS_j
 3070               	.LVL196:
 317:main.cpp      ****                     convert_recieved(&roll, &pitch, &yaw, &accel_x, &ble_state, recv_packet);
 3071               		.loc 1 317 21 is_stmt 1 view .LVU750
 317:main.cpp      ****                     convert_recieved(&roll, &pitch, &yaw, &accel_x, &ble_state, recv_packet);
 3072               		.loc 1 317 37 is_stmt 0 view .LVU751
 3073 08b6 8E01      		movw r16,r28
GAS LISTING /tmp/ccUMk0PR.s 			page 143


 3074 08b8 015D      		subi r16,-47
 3075 08ba 1F4F      		sbci r17,-1
 3076 08bc 9E01      		movw r18,r28
 3077 08be 235D      		subi r18,-45
 3078 08c0 3F4F      		sbci r19,-1
 3079 08c2 AE01      		movw r20,r28
 3080 08c4 475D      		subi r20,-41
 3081 08c6 5F4F      		sbci r21,-1
 3082 08c8 BE01      		movw r22,r28
 3083 08ca 6F5D      		subi r22,-33
 3084 08cc 7F4F      		sbci r23,-1
 3085 08ce CE01      		movw r24,r28
 3086 08d0 8596      		adiw r24,37
 3087 08d2 0E94 0000 		call _Z16convert_recievedPlS_S_PiP8BT_STATEPh
 3088               	.LVL197:
 319:main.cpp      ****                     printf("State: %u  Pitch:  %li  Roll: %li  Yaw: %li Accel_x: %d.%u SENDING: SCR
 3089               		.loc 1 319 21 is_stmt 1 view .LVU752
 319:main.cpp      ****                     printf("State: %u  Pitch:  %li  Roll: %li  Yaw: %li Accel_x: %d.%u SENDING: SCR
 3090               		.loc 1 319 155 is_stmt 0 view .LVU753
 3091 08d6 2DA5      		ldd r18,Y+45
 3092 08d8 3EA5      		ldd r19,Y+46
 3093 08da C901      		movw r24,r18
 3094 08dc 6AE0      		ldi r22,lo8(10)
 3095 08de 70E0      		ldi r23,0
 3096 08e0 0E94 0000 		call __divmodhi4
 319:main.cpp      ****                     printf("State: %u  Pitch:  %li  Roll: %li  Yaw: %li Accel_x: %d.%u SENDING: SCR
 3097               		.loc 1 319 27 view .LVU754
 3098 08e4 0097      		sbiw r24,0
 3099 08e6 01F0      		breq .+2
 3100 08e8 04F4      		brge .+2
 3101 08ea 00C0      		rjmp .L97
 3102               	.L69:
 319:main.cpp      ****                     printf("State: %u  Pitch:  %li  Roll: %li  Yaw: %li Accel_x: %d.%u SENDING: SCR
 3103               		.loc 1 319 27 discriminator 3 view .LVU755
 3104 08ec 7F92      		push r7
 3105 08ee 6F92      		push r6
 3106 08f0 9F93      		push r25
 3107 08f2 8F93      		push r24
 3108 08f4 C901      		movw r24,r18
 3109 08f6 6AE0      		ldi r22,lo8(10)
 3110 08f8 70E0      		ldi r23,0
 3111 08fa 0E94 0000 		call __divmodhi4
 3112 08fe 7F93      		push r23
 3113 0900 6F93      		push r22
 3114 0902 8CA5      		ldd r24,Y+44
 3115 0904 8F93      		push r24
 3116 0906 8BA5      		ldd r24,Y+43
 3117 0908 8F93      		push r24
 3118 090a 8AA5      		ldd r24,Y+42
 3119 090c 8F93      		push r24
 3120 090e 89A5      		ldd r24,Y+41
 3121 0910 8F93      		push r24
 3122 0912 88A5      		ldd r24,Y+40
 3123 0914 8F93      		push r24
 3124 0916 8FA1      		ldd r24,Y+39
 3125 0918 8F93      		push r24
 3126 091a 8EA1      		ldd r24,Y+38
GAS LISTING /tmp/ccUMk0PR.s 			page 144


 3127 091c 8F93      		push r24
 3128 091e 8DA1      		ldd r24,Y+37
 3129 0920 8F93      		push r24
 3130 0922 8CA1      		ldd r24,Y+36
 3131 0924 8F93      		push r24
 3132 0926 8BA1      		ldd r24,Y+35
 3133 0928 8F93      		push r24
 3134 092a 8AA1      		ldd r24,Y+34
 3135 092c 8F93      		push r24
 3136 092e 89A1      		ldd r24,Y+33
 3137 0930 8F93      		push r24
 3138 0932 88A9      		ldd r24,Y+48
 3139 0934 8F93      		push r24
 3140 0936 8FA5      		ldd r24,Y+47
 3141 0938 8F93      		push r24
 3142 093a 80E0      		ldi r24,lo8(.LC1)
 3143 093c 90E0      		ldi r25,hi8(.LC1)
 3144 093e 9F93      		push r25
 3145 0940 8F93      		push r24
 3146 0942 0E94 0000 		call printf
 3147               	.LVL198:
 321:main.cpp      ****                     spi_flag=false;
 3148               		.loc 1 321 21 is_stmt 1 view .LVU756
 321:main.cpp      ****                     spi_flag=false;
 3149               		.loc 1 321 29 is_stmt 0 view .LVU757
 3150 0946 1092 0000 		sts spi_flag,__zero_reg__
 3151 094a 0FB6      		in __tmp_reg__,__SREG__
 3152 094c F894      		cli
 3153 094e DEBF      		out __SP_H__,r29
 3154 0950 0FBE      		out __SREG__,__tmp_reg__
 3155 0952 CDBF      		out __SP_L__,r28
 3156 0954 00C0      		rjmp .L58
 3157               	.LVL199:
 3158               	.L96:
 313:main.cpp      ****                     int8_t scroll_packet = (int8_t)(ABS(yaw) > 15000) ? (int8_t)(yaw/15000) : 0;
 3159               		.loc 1 313 53 view .LVU758
 3160 0956 4427      		clr r20
 3161 0958 5527      		clr r21
 3162 095a BA01      		movw r22,r20
 3163 095c 481B      		sub r20,r24
 3164 095e 590B      		sbc r21,r25
 3165 0960 6A0B      		sbc r22,r26
 3166 0962 7B0B      		sbc r23,r27
 3167 0964 00C0      		rjmp .L67
 3168               	.L84:
 313:main.cpp      ****                     int8_t scroll_packet = (int8_t)(ABS(yaw) > 15000) ? (int8_t)(yaw/15000) : 0;
 3169               		.loc 1 313 28 discriminator 2 view .LVU759
 3170 0966 20E0      		ldi r18,0
 3171 0968 00C0      		rjmp .L68
 3172               	.LVL200:
 3173               	.L97:
 319:main.cpp      ****                     printf("State: %u  Pitch:  %li  Roll: %li  Yaw: %li Accel_x: %d.%u SENDING: SCR
 3174               		.loc 1 319 155 discriminator 2 view .LVU760
 3175 096a 8827      		clr r24
 3176 096c 9927      		clr r25
 3177 096e 821B      		sub r24,r18
 3178 0970 930B      		sbc r25,r19
GAS LISTING /tmp/ccUMk0PR.s 			page 145


 319:main.cpp      ****                     printf("State: %u  Pitch:  %li  Roll: %li  Yaw: %li Accel_x: %d.%u SENDING: SCR
 3179               		.loc 1 319 27 discriminator 2 view .LVU761
 3180 0972 6AE0      		ldi r22,lo8(10)
 3181 0974 70E0      		ldi r23,0
 3182 0976 0E94 0000 		call __divmodhi4
 3183 097a 00C0      		rjmp .L69
 3184               	.LBE208:
 3185               	.LBE207:
 3186               	.LBE209:
 3187               	.LBE214:
 3188               	.LBE215:
 3189               		.cfi_endproc
 3190               	.LFE243:
 3192               		.section	.text._Z23pcint1InterruptCallbackv,"ax",@progbits
 3193               	.global	_Z23pcint1InterruptCallbackv
 3195               	_Z23pcint1InterruptCallbackv:
 3196               	.LFB249:
 420:main.cpp      **** void pcint1InterruptCallback(void){
 3197               		.loc 1 420 35 is_stmt 1 view -0
 3198               		.cfi_startproc
 3199 0000 0F93      		push r16
 3200               	.LCFI34:
 3201               		.cfi_def_cfa_offset 3
 3202               		.cfi_offset 16, -2
 3203 0002 1F93      		push r17
 3204               	.LCFI35:
 3205               		.cfi_def_cfa_offset 4
 3206               		.cfi_offset 17, -3
 3207 0004 CF93      		push r28
 3208               	.LCFI36:
 3209               		.cfi_def_cfa_offset 5
 3210               		.cfi_offset 28, -4
 3211 0006 DF93      		push r29
 3212               	.LCFI37:
 3213               		.cfi_def_cfa_offset 6
 3214               		.cfi_offset 29, -5
 3215               	/* prologue: function */
 3216               	/* frame size = 0 */
 3217               	/* stack size = 4 */
 3218               	.L__stack_usage = 4
 421:main.cpp      ****     uint8_t button_data = buttons.read();
 3219               		.loc 1 421 5 view .LVU763
 3220               	.LVL201:
 3221               	.LBB216:
 3222               	.LBI216:
 621:funsape/peripheral/gpioBus.hpp **** {
 3223               		.loc 8 621 17 view .LVU764
 3224               	.LBB217:
 3225               		.loc 8 623 5 view .LVU765
 3226               		.loc 8 623 31 is_stmt 0 view .LVU766
 3227 0008 E0E0      		ldi r30,lo8(buttons)
 3228 000a F0E0      		ldi r31,hi8(buttons)
 3229 000c A481      		ldd r26,Z+4
 3230 000e B581      		ldd r27,Z+5
 3231               		.loc 8 623 23 view .LVU767
 3232 0010 8C91      		ld r24,X
 3233               		.loc 8 623 56 view .LVU768
GAS LISTING /tmp/ccUMk0PR.s 			page 146


 3234 0012 9681      		ldd r25,Z+6
 3235               		.loc 8 623 39 view .LVU769
 3236 0014 8923      		and r24,r25
 3237 0016 90E0      		ldi r25,0
 3238               		.loc 8 623 84 view .LVU770
 3239 0018 2781      		ldd r18,Z+7
 3240               		.loc 8 623 66 view .LVU771
 3241 001a 00C0      		rjmp 2f
 3242               		1:
 3243 001c 9595      		asr r25
 3244 001e 8795      		ror r24
 3245               		2:
 3246 0020 2A95      		dec r18
 3247 0022 02F4      		brpl 1b
 3248               		.loc 8 623 93 view .LVU772
 3249 0024 082F      		mov r16,r24
 3250               	.LVL202:
 3251               		.loc 8 623 93 view .LVU773
 3252               	.LBE217:
 3253               	.LBE216:
 422:main.cpp      ****     for(uint8_t i = 0; i < 3; i++){
 3254               		.loc 1 422 5 is_stmt 1 view .LVU774
 3255               	.LBB218:
 422:main.cpp      ****     for(uint8_t i = 0; i < 3; i++){
 3256               		.loc 1 422 17 is_stmt 0 view .LVU775
 3257 0026 10E0      		ldi r17,0
 422:main.cpp      ****     for(uint8_t i = 0; i < 3; i++){
 3258               		.loc 1 422 5 view .LVU776
 3259 0028 00C0      		rjmp .L99
 3260               	.LVL203:
 3261               	.L104:
 424:main.cpp      ****             button_last_changed[i] = get_millis();
 3262               		.loc 1 424 13 is_stmt 1 view .LVU777
 424:main.cpp      ****             button_last_changed[i] = get_millis();
 3263               		.loc 1 424 48 is_stmt 0 view .LVU778
 3264 002a 0E94 0000 		call _Z10get_millisv
 3265               	.LVL204:
 424:main.cpp      ****             button_last_changed[i] = get_millis();
 3266               		.loc 1 424 36 discriminator 1 view .LVU779
 3267 002e CC0F      		lsl r28
 3268 0030 DD1F      		rol r29
 3269 0032 CC0F      		lsl r28
 3270 0034 DD1F      		rol r29
 3271 0036 C050      		subi r28,lo8(-(button_last_changed))
 3272 0038 D040      		sbci r29,hi8(-(button_last_changed))
 3273 003a 6883      		st Y,r22
 3274 003c 7983      		std Y+1,r23
 3275 003e 8A83      		std Y+2,r24
 3276 0040 9B83      		std Y+3,r25
 425:main.cpp      ****             button_pending_change = true;
 3277               		.loc 1 425 13 is_stmt 1 view .LVU780
 425:main.cpp      ****             button_pending_change = true;
 3278               		.loc 1 425 35 is_stmt 0 view .LVU781
 3279 0042 81E0      		ldi r24,lo8(1)
 3280 0044 8093 0000 		sts button_pending_change,r24
 3281               	.L101:
 422:main.cpp      ****     for(uint8_t i = 0; i < 3; i++){
GAS LISTING /tmp/ccUMk0PR.s 			page 147


 3282               		.loc 1 422 5 is_stmt 1 discriminator 1 view .LVU782
 3283 0048 1F5F      		subi r17,lo8(-(1))
 3284               	.LVL205:
 3285               	.L99:
 422:main.cpp      ****     for(uint8_t i = 0; i < 3; i++){
 3286               		.loc 1 422 26 discriminator 2 view .LVU783
 3287 004a 1330      		cpi r17,lo8(3)
 3288 004c 00F4      		brsh .L103
 423:main.cpp      ****         if((button_data & (1 << i)) != (debounced_buttons & (1 << i))){
 3289               		.loc 1 423 9 view .LVU784
 423:main.cpp      ****         if((button_data & (1 << i)) != (debounced_buttons & (1 << i))){
 3290               		.loc 1 423 37 is_stmt 0 view .LVU785
 3291 004e 8091 0000 		lds r24,debounced_buttons
 423:main.cpp      ****         if((button_data & (1 << i)) != (debounced_buttons & (1 << i))){
 3292               		.loc 1 423 33 view .LVU786
 3293 0052 C12F      		mov r28,r17
 3294 0054 D0E0      		ldi r29,0
 423:main.cpp      ****         if((button_data & (1 << i)) != (debounced_buttons & (1 << i))){
 3295               		.loc 1 423 37 view .LVU787
 3296 0056 8027      		eor r24,r16
 3297 0058 90E0      		ldi r25,0
 3298 005a 012E      		mov r0,r17
 3299 005c 00C0      		rjmp 2f
 3300               		1:
 3301 005e 9595      		asr r25
 3302 0060 8795      		ror r24
 3303               		2:
 3304 0062 0A94      		dec r0
 3305 0064 02F4      		brpl 1b
 423:main.cpp      ****         if((button_data & (1 << i)) != (debounced_buttons & (1 << i))){
 3306               		.loc 1 423 9 view .LVU788
 3307 0066 80FD      		sbrc r24,0
 3308 0068 00C0      		rjmp .L104
 427:main.cpp      ****             button_last_changed[i] = 0;
 3309               		.loc 1 427 13 is_stmt 1 view .LVU789
 427:main.cpp      ****             button_last_changed[i] = 0;
 3310               		.loc 1 427 36 is_stmt 0 view .LVU790
 3311 006a CC0F      		lsl r28
 3312 006c DD1F      		rol r29
 3313 006e CC0F      		lsl r28
 3314 0070 DD1F      		rol r29
 3315 0072 C050      		subi r28,lo8(-(button_last_changed))
 3316 0074 D040      		sbci r29,hi8(-(button_last_changed))
 3317 0076 1882      		st Y,__zero_reg__
 3318 0078 1982      		std Y+1,__zero_reg__
 3319 007a 1A82      		std Y+2,__zero_reg__
 3320 007c 1B82      		std Y+3,__zero_reg__
 3321 007e 00C0      		rjmp .L101
 3322               	.L103:
 3323               	/* epilogue start */
 3324               	.LBE218:
 430:main.cpp      **** }
 3325               		.loc 1 430 1 view .LVU791
 3326 0080 DF91      		pop r29
 3327 0082 CF91      		pop r28
 3328 0084 1F91      		pop r17
 3329               	.LVL206:
GAS LISTING /tmp/ccUMk0PR.s 			page 148


 430:main.cpp      **** }
 3330               		.loc 1 430 1 view .LVU792
 3331 0086 0F91      		pop r16
 3332 0088 0895      		ret
 3333               		.cfi_endproc
 3334               	.LFE249:
 3336               		.section	.text._Z22timer0CompareACallbackv,"ax",@progbits
 3337               	.global	_Z22timer0CompareACallbackv
 3339               	_Z22timer0CompareACallbackv:
 3340               	.LFB253:
 477:main.cpp      **** void timer0CompareACallback(void){
 3341               		.loc 1 477 34 is_stmt 1 view -0
 3342               		.cfi_startproc
 3343               	/* prologue: function */
 3344               	/* frame size = 0 */
 3345               	/* stack size = 0 */
 3346               	.L__stack_usage = 0
 479:main.cpp      ****     static uint8_t counter_spi = 0;
 3347               		.loc 1 479 5 view .LVU794
 480:main.cpp      ****     static uint8_t counter_display = 0;
 3348               		.loc 1 480 5 view .LVU795
 481:main.cpp      ****     static uint8_t counter_clear_display = 0;
 3349               		.loc 1 481 5 view .LVU796
 483:main.cpp      ****     if(counter_spi++ == 1){
 3350               		.loc 1 483 5 view .LVU797
 483:main.cpp      ****     if(counter_spi++ == 1){
 3351               		.loc 1 483 19 is_stmt 0 view .LVU798
 3352 0000 8091 0000 		lds r24,_ZZ22timer0CompareACallbackvE11counter_spi
 3353 0004 982F      		mov r25,r24
 3354 0006 9F5F      		subi r25,lo8(-(1))
 3355 0008 9093 0000 		sts _ZZ22timer0CompareACallbackvE11counter_spi,r25
 483:main.cpp      ****     if(counter_spi++ == 1){
 3356               		.loc 1 483 5 view .LVU799
 3357 000c 8130      		cpi r24,lo8(1)
 3358 000e 01F0      		breq .L109
 3359               	.L106:
 488:main.cpp      ****     if(counter_display++ == 10){
 3360               		.loc 1 488 5 is_stmt 1 view .LVU800
 488:main.cpp      ****     if(counter_display++ == 10){
 3361               		.loc 1 488 23 is_stmt 0 view .LVU801
 3362 0010 8091 0000 		lds r24,_ZZ22timer0CompareACallbackvE15counter_display
 3363 0014 982F      		mov r25,r24
 3364 0016 9F5F      		subi r25,lo8(-(1))
 3365 0018 9093 0000 		sts _ZZ22timer0CompareACallbackvE15counter_display,r25
 488:main.cpp      ****     if(counter_display++ == 10){
 3366               		.loc 1 488 5 view .LVU802
 3367 001c 8A30      		cpi r24,lo8(10)
 3368 001e 01F0      		breq .L110
 3369               	.L107:
 493:main.cpp      ****     if(counter_clear_display++ == 50){
 3370               		.loc 1 493 5 is_stmt 1 view .LVU803
 493:main.cpp      ****     if(counter_clear_display++ == 50){
 3371               		.loc 1 493 29 is_stmt 0 view .LVU804
 3372 0020 8091 0000 		lds r24,_ZZ22timer0CompareACallbackvE21counter_clear_display
 3373 0024 982F      		mov r25,r24
 3374 0026 9F5F      		subi r25,lo8(-(1))
 3375 0028 9093 0000 		sts _ZZ22timer0CompareACallbackvE21counter_clear_display,r25
GAS LISTING /tmp/ccUMk0PR.s 			page 149


 493:main.cpp      ****     if(counter_clear_display++ == 50){
 3376               		.loc 1 493 5 view .LVU805
 3377 002c 8233      		cpi r24,lo8(50)
 3378 002e 01F0      		breq .L111
 3379               	.L105:
 3380               	/* epilogue start */
 3381               		.loc 1 497 1 view .LVU806
 3382 0030 0895      		ret
 3383               	.L109:
 484:main.cpp      ****         spi_flag = true;    
 3384               		.loc 1 484 9 is_stmt 1 view .LVU807
 484:main.cpp      ****         spi_flag = true;    
 3385               		.loc 1 484 18 is_stmt 0 view .LVU808
 3386 0032 8093 0000 		sts spi_flag,r24
 485:main.cpp      ****         counter_spi = 0;
 3387               		.loc 1 485 9 is_stmt 1 view .LVU809
 485:main.cpp      ****         counter_spi = 0;
 3388               		.loc 1 485 21 is_stmt 0 view .LVU810
 3389 0036 1092 0000 		sts _ZZ22timer0CompareACallbackvE11counter_spi,__zero_reg__
 3390 003a 00C0      		rjmp .L106
 3391               	.L110:
 489:main.cpp      ****         update_display_flag = true;
 3392               		.loc 1 489 9 is_stmt 1 view .LVU811
 489:main.cpp      ****         update_display_flag = true;
 3393               		.loc 1 489 29 is_stmt 0 view .LVU812
 3394 003c 81E0      		ldi r24,lo8(1)
 3395 003e 8093 0000 		sts update_display_flag,r24
 490:main.cpp      ****         counter_display = 0;
 3396               		.loc 1 490 9 is_stmt 1 view .LVU813
 490:main.cpp      ****         counter_display = 0;
 3397               		.loc 1 490 25 is_stmt 0 view .LVU814
 3398 0042 1092 0000 		sts _ZZ22timer0CompareACallbackvE15counter_display,__zero_reg__
 3399 0046 00C0      		rjmp .L107
 3400               	.L111:
 494:main.cpp      ****         clear_display_flag = true;
 3401               		.loc 1 494 9 is_stmt 1 view .LVU815
 494:main.cpp      ****         clear_display_flag = true;
 3402               		.loc 1 494 28 is_stmt 0 view .LVU816
 3403 0048 81E0      		ldi r24,lo8(1)
 3404 004a 8093 0000 		sts clear_display_flag,r24
 495:main.cpp      ****         counter_clear_display = 0;
 3405               		.loc 1 495 9 is_stmt 1 view .LVU817
 495:main.cpp      ****         counter_clear_display = 0;
 3406               		.loc 1 495 31 is_stmt 0 view .LVU818
 3407 004e 1092 0000 		sts _ZZ22timer0CompareACallbackvE21counter_clear_display,__zero_reg__
 3408               		.loc 1 497 1 view .LVU819
 3409 0052 0895      		ret
 3410               		.cfi_endproc
 3411               	.LFE253:
 3413               		.section	.text._GLOBAL__sub_I_led,"ax",@progbits
 3415               	_GLOBAL__sub_I_led:
 3416               	.LFB256:
 3417               		.loc 1 497 1 is_stmt 1 view -0
 3418               		.cfi_startproc
 3419               	/* prologue: function */
 3420               	/* frame size = 0 */
 3421               	/* stack size = 0 */
GAS LISTING /tmp/ccUMk0PR.s 			page 150


 3422               	.L__stack_usage = 0
 3423               		.loc 1 497 1 is_stmt 0 view .LVU821
 3424 0000 0E94 0000 		call _Z41__static_initialization_and_destruction_0v
 3425               	.LVL207:
 3426               	/* epilogue start */
 3427 0004 0895      		ret
 3428               		.cfi_endproc
 3429               	.LFE256:
 3431               		.global __do_global_ctors
 3432               		.section .ctors,"a",@progbits
 3433               		.p2align	1
 3434 0000 0000      		.word	gs(_GLOBAL__sub_I_led)
 3435               		.section	.text._GLOBAL__sub_D_led,"ax",@progbits
 3437               	_GLOBAL__sub_D_led:
 3438               	.LFB257:
 3439               		.loc 1 497 1 is_stmt 1 view -0
 3440               		.cfi_startproc
 3441               	/* prologue: function */
 3442               	/* frame size = 0 */
 3443               	/* stack size = 0 */
 3444               	.L__stack_usage = 0
 3445               		.loc 1 497 1 is_stmt 0 view .LVU823
 3446 0000 0E94 0000 		call _Z41__static_initialization_and_destruction_1v
 3447               	.LVL208:
 3448               	/* epilogue start */
 3449 0004 0895      		ret
 3450               		.cfi_endproc
 3451               	.LFE257:
 3453               		.global __do_global_dtors
 3454               		.section .dtors,"a",@progbits
 3455               		.p2align	1
 3456 0000 0000      		.word	gs(_GLOBAL__sub_D_led)
 3457               		.section	.bss._ZZ22timer0CompareACallbackvE21counter_clear_display,"aw",@nobits
 3460               	_ZZ22timer0CompareACallbackvE21counter_clear_display:
 3461 0000 00        		.zero	1
 3462               		.section	.bss._ZZ22timer0CompareACallbackvE15counter_display,"aw",@nobits
 3465               	_ZZ22timer0CompareACallbackvE15counter_display:
 3466 0000 00        		.zero	1
 3467               		.section	.bss._ZZ22timer0CompareACallbackvE11counter_spi,"aw",@nobits
 3470               	_ZZ22timer0CompareACallbackvE11counter_spi:
 3471 0000 00        		.zero	1
 3472               		.section	.progmem.data._ZZ4mainE3__c_6,"a",@progbits
 3475               	_ZZ4mainE3__c_6:
 3476 0000 5345 4E53 		.string	"SENSE X: %u.%ux Y: %u.%ux"
 3476      4520 583A 
 3476      2025 752E 
 3476      2575 7820 
 3476      593A 2025 
 3477               		.section	.progmem.data._ZZ4mainE3__c_5,"a",@progbits
 3480               	_ZZ4mainE3__c_5:
 3481 0000 4E4F 00   		.string	"NO"
 3482               		.section	.progmem.data._ZZ4mainE3__c_4,"a",@progbits
 3485               	_ZZ4mainE3__c_4:
 3486 0000 4F4B 00   		.string	"OK"
 3487               		.section	.progmem.data._ZZ4mainE3__c_3,"a",@progbits
 3490               	_ZZ4mainE3__c_3:
 3491 0000 4144 4A55 		.string	"ADJUST"
GAS LISTING /tmp/ccUMk0PR.s 			page 151


 3491      5354 00
 3492               		.section	.progmem.data._ZZ4mainE3__c_2,"a",@progbits
 3495               	_ZZ4mainE3__c_2:
 3496 0000 5343 524F 		.string	"SCROLL"
 3496      4C4C 00
 3497               		.section	.progmem.data._ZZ4mainE3__c_1,"a",@progbits
 3500               	_ZZ4mainE3__c_1:
 3501 0000 4355 5253 		.string	"CURSOR"
 3501      4F52 00
 3502               		.section	.progmem.data._ZZ4mainE3__c_0,"a",@progbits
 3505               	_ZZ4mainE3__c_0:
 3506 0000 4944 4C45 		.string	"IDLE"
 3506      00
 3507               		.section	.progmem.data._ZZ4mainE3__c,"a",@progbits
 3510               	_ZZ4mainE3__c:
 3511 0000 5374 6174 		.string	"State: %S|BLE: %S"
 3511      653A 2025 
 3511      537C 424C 
 3511      453A 2025 
 3511      5300 
 3512               	.global	current_state
 3513               		.section	.bss.current_state,"aw",@nobits
 3516               	current_state:
 3517 0000 0000      		.zero	2
 3518               	.global	spi_flag
 3519               		.section	.bss.spi_flag,"aw",@nobits
 3522               	spi_flag:
 3523 0000 00        		.zero	1
 3524               	.global	debounced_buttons
 3525               		.section	.bss.debounced_buttons,"aw",@nobits
 3528               	debounced_buttons:
 3529 0000 00        		.zero	1
 3530               	.global	button_last_changed
 3531               		.section	.bss.button_last_changed,"aw",@nobits
 3534               	button_last_changed:
 3535 0000 0000 0000 		.zero	12
 3535      0000 0000 
 3535      0000 0000 
 3536               	.global	button_pending_change
 3537               		.section	.bss.button_pending_change,"aw",@nobits
 3540               	button_pending_change:
 3541 0000 00        		.zero	1
 3542               	.global	timer1_overflows
 3543               		.section	.bss.timer1_overflows,"aw",@nobits
 3546               	timer1_overflows:
 3547 0000 0000 0000 		.zero	4
 3548               	.global	clear_display_flag
 3549               		.section	.bss.clear_display_flag,"aw",@nobits
 3552               	clear_display_flag:
 3553 0000 00        		.zero	1
 3554               	.global	update_display_flag
 3555               		.section	.bss.update_display_flag,"aw",@nobits
 3558               	update_display_flag:
 3559 0000 00        		.zero	1
 3560               	.global	oledBuffer
 3561               		.section	.bss.oledBuffer,"aw",@nobits
 3564               	oledBuffer:
GAS LISTING /tmp/ccUMk0PR.s 			page 152


 3565 0000 0000 0000 		.zero	1024
 3565      0000 0000 
 3565      0000 0000 
 3565      0000 0000 
 3565      0000 0000 
 3566               	.global	display
 3567               		.section	.bss.display,"aw",@nobits
 3570               	display:
 3571 0000 0000 0000 		.zero	14
 3571      0000 0000 
 3571      0000 0000 
 3571      0000 
 3572               	.global	slave_select_esp
 3573               		.section	.bss.slave_select_esp,"aw",@nobits
 3576               	slave_select_esp:
 3577 0000 0000 0000 		.zero	10
 3577      0000 0000 
 3577      0000 
 3578               	.global	buttons
 3579               		.section	.bss.buttons,"aw",@nobits
 3582               	buttons:
 3583 0000 0000 0000 		.zero	11
 3583      0000 0000 
 3583      0000 00
 3584               	.global	led
 3585               		.section	.bss.led,"aw",@nobits
 3588               	led:
 3589 0000 0000 0000 		.zero	10
 3589      0000 0000 
 3589      0000 
 3590               		.text
 3591               	.Letext0:
 3592               		.file 9 "/usr/avr/include/stdint.h"
 3593               		.file 10 "funsape/config/atmega328p.hpp"
 3594               		.file 11 "/usr/lib/gcc/avr/16.1.0/include/stddef.h"
 3595               		.file 12 "/usr/avr/include/stdio.h"
 3596               		.file 13 "funsape/globalDefines.hpp"
 3597               		.file 14 "funsape/peripheral/twi.hpp"
 3598               		.file 15 "funsape/device/ssd1306.hpp"
 3599               		.file 16 "funsape/util/intTrig.hpp"
GAS LISTING /tmp/ccUMk0PR.s 			page 153


DEFINED SYMBOLS
                            *ABS*:00000000 main.cpp
     /tmp/ccUMk0PR.s:2      *ABS*:0000003e __SP_H__
     /tmp/ccUMk0PR.s:3      *ABS*:0000003d __SP_L__
     /tmp/ccUMk0PR.s:4      *ABS*:0000003f __SREG__
     /tmp/ccUMk0PR.s:5      *ABS*:00000000 __tmp_reg__
     /tmp/ccUMk0PR.s:6      *ABS*:00000001 __zero_reg__
     /tmp/ccUMk0PR.s:13     .text._Z41__static_initialization_and_destruction_0v:00000000 _Z41__static_initialization_and_destruction_0v
     /tmp/ccUMk0PR.s:15     .text._Z41__static_initialization_and_destruction_0v:00000000 .Loc.0
     /tmp/ccUMk0PR.s:16     .text._Z41__static_initialization_and_destruction_0v:00000000 L0
     /tmp/ccUMk0PR.s:21     .text._Z41__static_initialization_and_destruction_0v:00000000 .Loc.1
     /tmp/ccUMk0PR.s:3588   .bss.led:00000000 led
     /tmp/ccUMk0PR.s:26     .text._Z41__static_initialization_and_destruction_0v:00000008 .Loc.2
     /tmp/ccUMk0PR.s:3582   .bss.buttons:00000000 buttons
     /tmp/ccUMk0PR.s:31     .text._Z41__static_initialization_and_destruction_0v:00000010 .Loc.3
     /tmp/ccUMk0PR.s:3576   .bss.slave_select_esp:00000000 slave_select_esp
     /tmp/ccUMk0PR.s:36     .text._Z41__static_initialization_and_destruction_0v:00000018 .Loc.4
     /tmp/ccUMk0PR.s:3570   .bss.display:00000000 display
     /tmp/ccUMk0PR.s:42     .text._Z41__static_initialization_and_destruction_0v:00000020 .Loc.5
     /tmp/ccUMk0PR.s:44     .text._Z41__static_initialization_and_destruction_0v:00000022 L0
     /tmp/ccUMk0PR.s:49     .text._Z41__static_initialization_and_destruction_1v:00000000 _Z41__static_initialization_and_destruction_1v
     /tmp/ccUMk0PR.s:51     .text._Z41__static_initialization_and_destruction_1v:00000000 .Loc.6
     /tmp/ccUMk0PR.s:52     .text._Z41__static_initialization_and_destruction_1v:00000000 L0
     /tmp/ccUMk0PR.s:57     .text._Z41__static_initialization_and_destruction_1v:00000000 .Loc.7
     /tmp/ccUMk0PR.s:62     .text._Z41__static_initialization_and_destruction_1v:00000008 .Loc.8
     /tmp/ccUMk0PR.s:67     .text._Z41__static_initialization_and_destruction_1v:00000010 .Loc.9
     /tmp/ccUMk0PR.s:72     .text._Z41__static_initialization_and_destruction_1v:00000018 .Loc.10
     /tmp/ccUMk0PR.s:78     .text._Z41__static_initialization_and_destruction_1v:00000020 .Loc.11
     /tmp/ccUMk0PR.s:80     .text._Z41__static_initialization_and_destruction_1v:00000022 L0
     /tmp/ccUMk0PR.s:86     .text._Z10projectTanlllj:00000000 _Z10projectTanlllj
     /tmp/ccUMk0PR.s:89     .text._Z10projectTanlllj:00000000 .Loc.12
     /tmp/ccUMk0PR.s:90     .text._Z10projectTanlllj:00000000 L0
     /tmp/ccUMk0PR.s:91     .text._Z10projectTanlllj:00000000 .Loc.13
     /tmp/ccUMk0PR.s:155    .text._Z10projectTanlllj:00000022 .Loc.14
     /tmp/ccUMk0PR.s:156    .text._Z10projectTanlllj:00000022 .Loc.15
     /tmp/ccUMk0PR.s:162    .text._Z10projectTanlllj:0000002a .Loc.16
     /tmp/ccUMk0PR.s:166    .text._Z10projectTanlllj:0000002e .Loc.17
     /tmp/ccUMk0PR.s:167    .text._Z10projectTanlllj:0000002e .Loc.18
     /tmp/ccUMk0PR.s:176    .text._Z10projectTanlllj:0000003e .Loc.19
     /tmp/ccUMk0PR.s:193    .text._Z10projectTanlllj:0000005c .Loc.20
     /tmp/ccUMk0PR.s:197    .text._Z10projectTanlllj:0000005e .Loc.21
     /tmp/ccUMk0PR.s:209    .text._Z10projectTanlllj:00000070 .Loc.22
     /tmp/ccUMk0PR.s:210    .text._Z10projectTanlllj:00000070 .Loc.23
     /tmp/ccUMk0PR.s:215    .text._Z10projectTanlllj:00000078 .Loc.24
     /tmp/ccUMk0PR.s:220    .text._Z10projectTanlllj:00000080 .Loc.25
     /tmp/ccUMk0PR.s:233    .text._Z10projectTanlllj:00000096 .Loc.26
     /tmp/ccUMk0PR.s:238    .text._Z10projectTanlllj:0000009e .Loc.27
     /tmp/ccUMk0PR.s:243    .text._Z10projectTanlllj:000000a6 .Loc.28
     /tmp/ccUMk0PR.s:250    .text._Z10projectTanlllj:000000b2 .Loc.29
     /tmp/ccUMk0PR.s:251    .text._Z10projectTanlllj:000000b2 .Loc.30
     /tmp/ccUMk0PR.s:256    .text._Z10projectTanlllj:000000ba .Loc.31
     /tmp/ccUMk0PR.s:262    .text._Z10projectTanlllj:000000c2 .Loc.32
     /tmp/ccUMk0PR.s:273    .text._Z10projectTanlllj:000000d4 .Loc.33
     /tmp/ccUMk0PR.s:278    .text._Z10projectTanlllj:000000dc .Loc.34
     /tmp/ccUMk0PR.s:283    .text._Z10projectTanlllj:000000e4 .Loc.35
     /tmp/ccUMk0PR.s:290    .text._Z10projectTanlllj:000000f0 .Loc.36
     /tmp/ccUMk0PR.s:291    .text._Z10projectTanlllj:000000f0 .Loc.37
GAS LISTING /tmp/ccUMk0PR.s 			page 154


     /tmp/ccUMk0PR.s:298    .text._Z10projectTanlllj:000000fe .Loc.38
     /tmp/ccUMk0PR.s:302    .text._Z10projectTanlllj:00000106 .Loc.39
     /tmp/ccUMk0PR.s:307    .text._Z10projectTanlllj:0000010e .Loc.40
     /tmp/ccUMk0PR.s:308    .text._Z10projectTanlllj:0000010e .Loc.41
     /tmp/ccUMk0PR.s:315    .text._Z10projectTanlllj:00000118 .Loc.42
     /tmp/ccUMk0PR.s:316    .text._Z10projectTanlllj:00000118 .Loc.43
     /tmp/ccUMk0PR.s:319    .text._Z10projectTanlllj:0000011c .Loc.44
     /tmp/ccUMk0PR.s:324    .text._Z10projectTanlllj:00000122 .Loc.45
     /tmp/ccUMk0PR.s:331    .text._Z10projectTanlllj:0000012c .Loc.46
     /tmp/ccUMk0PR.s:335    .text._Z10projectTanlllj:0000012e .Loc.47
     /tmp/ccUMk0PR.s:341    .text._Z10projectTanlllj:00000132 .Loc.48
     /tmp/ccUMk0PR.s:345    .text._Z10projectTanlllj:00000136 .Loc.49
     /tmp/ccUMk0PR.s:349    .text._Z10projectTanlllj:0000013a .Loc.50
     /tmp/ccUMk0PR.s:353    .text._Z10projectTanlllj:0000013e .Loc.51
     /tmp/ccUMk0PR.s:359    .text._Z10projectTanlllj:00000146 .Loc.52
     /tmp/ccUMk0PR.s:365    .text._Z10projectTanlllj:0000014e .Loc.53
     /tmp/ccUMk0PR.s:367    .text._Z10projectTanlllj:00000150 L0
     /tmp/ccUMk0PR.s:373    .text._Z13spi_writeReadh:00000000 _Z13spi_writeReadh
     /tmp/ccUMk0PR.s:376    .text._Z13spi_writeReadh:00000000 .Loc.54
     /tmp/ccUMk0PR.s:377    .text._Z13spi_writeReadh:00000000 L0
     /tmp/ccUMk0PR.s:382    .text._Z13spi_writeReadh:00000000 .Loc.55
     /tmp/ccUMk0PR.s:383    .text._Z13spi_writeReadh:00000000 .Loc.56
     /tmp/ccUMk0PR.s:385    .text._Z13spi_writeReadh:00000002 .Loc.57
     /tmp/ccUMk0PR.s:387    .text._Z13spi_writeReadh:00000002 .Loc.58
     /tmp/ccUMk0PR.s:391    .text._Z13spi_writeReadh:00000008 .Loc.59
     /tmp/ccUMk0PR.s:392    .text._Z13spi_writeReadh:00000008 .Loc.60
     /tmp/ccUMk0PR.s:396    .text._Z13spi_writeReadh:0000000a .Loc.61
     /tmp/ccUMk0PR.s:398    .text._Z13spi_writeReadh:0000000c L0
     /tmp/ccUMk0PR.s:404    .text._Z18transcieve_packetsPhS_j:00000000 _Z18transcieve_packetsPhS_j
     /tmp/ccUMk0PR.s:407    .text._Z18transcieve_packetsPhS_j:00000000 .Loc.62
     /tmp/ccUMk0PR.s:408    .text._Z18transcieve_packetsPhS_j:00000000 L0
     /tmp/ccUMk0PR.s:409    .text._Z18transcieve_packetsPhS_j:00000000 .Loc.63
     /tmp/ccUMk0PR.s:453    .text._Z18transcieve_packetsPhS_j:00000018 .Loc.64
     /tmp/ccUMk0PR.s:458    .text._Z18transcieve_packetsPhS_j:00000018 .Loc.65
     /tmp/ccUMk0PR.s:459    .text._Z18transcieve_packetsPhS_j:00000018 .Loc.66
     /tmp/ccUMk0PR.s:462    .text._Z18transcieve_packetsPhS_j:00000018 .Loc.67
     /tmp/ccUMk0PR.s:464    .text._Z18transcieve_packetsPhS_j:00000018 .Loc.68
     /tmp/ccUMk0PR.s:465    .text._Z18transcieve_packetsPhS_j:00000018 .Loc.69
     /tmp/ccUMk0PR.s:474    .text._Z18transcieve_packetsPhS_j:00000026 .Loc.70
     /tmp/ccUMk0PR.s:478    .text._Z18transcieve_packetsPhS_j:0000002c .Loc.71
     /tmp/ccUMk0PR.s:479    .text._Z18transcieve_packetsPhS_j:0000002c .Loc.72
     /tmp/ccUMk0PR.s:481    .text._Z18transcieve_packetsPhS_j:0000002c .Loc.73
     /tmp/ccUMk0PR.s:484    .text._Z18transcieve_packetsPhS_j:0000002c .Loc.74
     /tmp/ccUMk0PR.s:485    .text._Z18transcieve_packetsPhS_j:0000002c .Loc.75
     /tmp/ccUMk0PR.s:487    .text._Z18transcieve_packetsPhS_j:0000002c .Loc.76
     /tmp/ccUMk0PR.s:489    .text._Z18transcieve_packetsPhS_j:0000002c .Loc.77
     /tmp/ccUMk0PR.s:491    .text._Z18transcieve_packetsPhS_j:0000002e .Loc.78
     /tmp/ccUMk0PR.s:495    .text._Z18transcieve_packetsPhS_j:00000030 .Loc.79
     /tmp/ccUMk0PR.s:496    .text._Z18transcieve_packetsPhS_j:00000030 .Loc.80
     /tmp/ccUMk0PR.s:500    .text._Z18transcieve_packetsPhS_j:00000036 .Loc.81
     /tmp/ccUMk0PR.s:503    .text._Z18transcieve_packetsPhS_j:0000003a .Loc.82
     /tmp/ccUMk0PR.s:507    .text._Z18transcieve_packetsPhS_j:00000040 .Loc.83
     /tmp/ccUMk0PR.s:509    .text._Z18transcieve_packetsPhS_j:00000042 .Loc.84
     /tmp/ccUMk0PR.s:513    .text._Z18transcieve_packetsPhS_j:00000044 .Loc.85
     /tmp/ccUMk0PR.s:514    .text._Z18transcieve_packetsPhS_j:00000044 .Loc.86
     /tmp/ccUMk0PR.s:517    .text._Z18transcieve_packetsPhS_j:00000048 .Loc.87
     /tmp/ccUMk0PR.s:522    .text._Z18transcieve_packetsPhS_j:0000004e .Loc.88
GAS LISTING /tmp/ccUMk0PR.s 			page 155


     /tmp/ccUMk0PR.s:526    .text._Z18transcieve_packetsPhS_j:0000004e .Loc.89
     /tmp/ccUMk0PR.s:527    .text._Z18transcieve_packetsPhS_j:0000004e .Loc.90
     /tmp/ccUMk0PR.s:530    .text._Z18transcieve_packetsPhS_j:0000004e .Loc.91
     /tmp/ccUMk0PR.s:532    .text._Z18transcieve_packetsPhS_j:0000004e .Loc.92
     /tmp/ccUMk0PR.s:533    .text._Z18transcieve_packetsPhS_j:0000004e .Loc.93
     /tmp/ccUMk0PR.s:543    .text._Z18transcieve_packetsPhS_j:00000060 .Loc.94
     /tmp/ccUMk0PR.s:544    .text._Z18transcieve_packetsPhS_j:00000060 .Loc.95
     /tmp/ccUMk0PR.s:546    .text._Z18transcieve_packetsPhS_j:00000060 .Loc.96
     /tmp/ccUMk0PR.s:549    .text._Z18transcieve_packetsPhS_j:00000060 .Loc.97
     /tmp/ccUMk0PR.s:551    .text._Z18transcieve_packetsPhS_j:00000060 .Loc.98
     /tmp/ccUMk0PR.s:553    .text._Z18transcieve_packetsPhS_j:00000060 .Loc.99
     /tmp/ccUMk0PR.s:558    .text._Z18transcieve_packetsPhS_j:00000066 .Loc.100
     /tmp/ccUMk0PR.s:562    .text._Z18transcieve_packetsPhS_j:0000006a .Loc.101
     /tmp/ccUMk0PR.s:566    .text._Z18transcieve_packetsPhS_j:0000006e .Loc.102
     /tmp/ccUMk0PR.s:570    .text._Z18transcieve_packetsPhS_j:00000072 .Loc.103
     /tmp/ccUMk0PR.s:572    .text._Z18transcieve_packetsPhS_j:00000074 L0
     /tmp/ccUMk0PR.s:578    .text._Z13format_packetjjhi7OP_MODEPh:00000000 _Z13format_packetjjhi7OP_MODEPh
     /tmp/ccUMk0PR.s:581    .text._Z13format_packetjjhi7OP_MODEPh:00000000 .Loc.104
     /tmp/ccUMk0PR.s:582    .text._Z13format_packetjjhi7OP_MODEPh:00000000 L0
     /tmp/ccUMk0PR.s:583    .text._Z13format_packetjjhi7OP_MODEPh:00000000 .Loc.105
     /tmp/ccUMk0PR.s:601    .text._Z13format_packetjjhi7OP_MODEPh:00000008 .Loc.106
     /tmp/ccUMk0PR.s:602    .text._Z13format_packetjjhi7OP_MODEPh:00000008 .Loc.107
     /tmp/ccUMk0PR.s:605    .text._Z13format_packetjjhi7OP_MODEPh:0000000c .Loc.108
     /tmp/ccUMk0PR.s:606    .text._Z13format_packetjjhi7OP_MODEPh:0000000c .Loc.109
     /tmp/ccUMk0PR.s:608    .text._Z13format_packetjjhi7OP_MODEPh:0000000e .Loc.110
     /tmp/ccUMk0PR.s:609    .text._Z13format_packetjjhi7OP_MODEPh:0000000e .Loc.111
     /tmp/ccUMk0PR.s:611    .text._Z13format_packetjjhi7OP_MODEPh:00000010 .Loc.112
     /tmp/ccUMk0PR.s:612    .text._Z13format_packetjjhi7OP_MODEPh:00000010 .Loc.113
     /tmp/ccUMk0PR.s:614    .text._Z13format_packetjjhi7OP_MODEPh:00000012 .Loc.114
     /tmp/ccUMk0PR.s:615    .text._Z13format_packetjjhi7OP_MODEPh:00000012 .Loc.115
     /tmp/ccUMk0PR.s:617    .text._Z13format_packetjjhi7OP_MODEPh:00000014 .Loc.116
     /tmp/ccUMk0PR.s:618    .text._Z13format_packetjjhi7OP_MODEPh:00000014 .Loc.117
     /tmp/ccUMk0PR.s:620    .text._Z13format_packetjjhi7OP_MODEPh:00000016 .Loc.118
     /tmp/ccUMk0PR.s:621    .text._Z13format_packetjjhi7OP_MODEPh:00000016 .Loc.119
     /tmp/ccUMk0PR.s:626    .text._Z13format_packetjjhi7OP_MODEPh:0000001c .Loc.120
     /tmp/ccUMk0PR.s:629    .text._Z13format_packetjjhi7OP_MODEPh:0000001e .Loc.121
     /tmp/ccUMk0PR.s:631    .text._Z13format_packetjjhi7OP_MODEPh:00000020 .Loc.122
     /tmp/ccUMk0PR.s:633    .text._Z13format_packetjjhi7OP_MODEPh:00000022 .Loc.123
     /tmp/ccUMk0PR.s:634    .text._Z13format_packetjjhi7OP_MODEPh:00000022 .Loc.124
     /tmp/ccUMk0PR.s:636    .text._Z13format_packetjjhi7OP_MODEPh:00000024 .Loc.125
     /tmp/ccUMk0PR.s:637    .text._Z13format_packetjjhi7OP_MODEPh:00000024 .Loc.126
     /tmp/ccUMk0PR.s:639    .text._Z13format_packetjjhi7OP_MODEPh:00000026 .Loc.127
     /tmp/ccUMk0PR.s:640    .text._Z13format_packetjjhi7OP_MODEPh:00000026 .Loc.128
     /tmp/ccUMk0PR.s:642    .text._Z13format_packetjjhi7OP_MODEPh:00000028 .Loc.129
     /tmp/ccUMk0PR.s:643    .text._Z13format_packetjjhi7OP_MODEPh:00000028 .Loc.130
     /tmp/ccUMk0PR.s:645    .text._Z13format_packetjjhi7OP_MODEPh:0000002a .Loc.131
     /tmp/ccUMk0PR.s:646    .text._Z13format_packetjjhi7OP_MODEPh:0000002a .Loc.132
     /tmp/ccUMk0PR.s:648    .text._Z13format_packetjjhi7OP_MODEPh:0000002c .Loc.133
     /tmp/ccUMk0PR.s:649    .text._Z13format_packetjjhi7OP_MODEPh:0000002c .Loc.134
     /tmp/ccUMk0PR.s:651    .text._Z13format_packetjjhi7OP_MODEPh:0000002e .Loc.135
     /tmp/ccUMk0PR.s:652    .text._Z13format_packetjjhi7OP_MODEPh:0000002e .Loc.136
     /tmp/ccUMk0PR.s:654    .text._Z13format_packetjjhi7OP_MODEPh:00000030 .Loc.137
     /tmp/ccUMk0PR.s:655    .text._Z13format_packetjjhi7OP_MODEPh:00000030 .Loc.138
     /tmp/ccUMk0PR.s:657    .text._Z13format_packetjjhi7OP_MODEPh:00000032 .Loc.139
     /tmp/ccUMk0PR.s:658    .text._Z13format_packetjjhi7OP_MODEPh:00000032 .Loc.140
     /tmp/ccUMk0PR.s:661    .text._Z13format_packetjjhi7OP_MODEPh:00000034 .Loc.141
     /tmp/ccUMk0PR.s:664    .text._Z13format_packetjjhi7OP_MODEPh:00000036 .Loc.142
GAS LISTING /tmp/ccUMk0PR.s 			page 156


     /tmp/ccUMk0PR.s:668    .text._Z13format_packetjjhi7OP_MODEPh:0000003a .Loc.143
     /tmp/ccUMk0PR.s:670    .text._Z13format_packetjjhi7OP_MODEPh:0000003c L0
     /tmp/ccUMk0PR.s:676    .text._Z16convert_recievedPlS_S_PiP8BT_STATEPh:00000000 _Z16convert_recievedPlS_S_PiP8BT_STATEPh
     /tmp/ccUMk0PR.s:679    .text._Z16convert_recievedPlS_S_PiP8BT_STATEPh:00000000 .Loc.144
     /tmp/ccUMk0PR.s:680    .text._Z16convert_recievedPlS_S_PiP8BT_STATEPh:00000000 L0
     /tmp/ccUMk0PR.s:681    .text._Z16convert_recievedPlS_S_PiP8BT_STATEPh:00000000 .Loc.145
     /tmp/ccUMk0PR.s:712    .text._Z16convert_recievedPlS_S_PiP8BT_STATEPh:00000010 .Loc.146
     /tmp/ccUMk0PR.s:713    .text._Z16convert_recievedPlS_S_PiP8BT_STATEPh:00000010 .Loc.147
     /tmp/ccUMk0PR.s:716    .text._Z16convert_recievedPlS_S_PiP8BT_STATEPh:00000012 .Loc.148
     /tmp/ccUMk0PR.s:718    .text._Z16convert_recievedPlS_S_PiP8BT_STATEPh:00000016 L0
     /tmp/ccUMk0PR.s:720    .text._Z16convert_recievedPlS_S_PiP8BT_STATEPh:00000018 .Loc.149
     /tmp/ccUMk0PR.s:721    .text._Z16convert_recievedPlS_S_PiP8BT_STATEPh:00000018 .Loc.150
     /tmp/ccUMk0PR.s:723    .text._Z16convert_recievedPlS_S_PiP8BT_STATEPh:0000001a .Loc.151
     /tmp/ccUMk0PR.s:725    .text._Z16convert_recievedPlS_S_PiP8BT_STATEPh:0000001c .Loc.152
     /tmp/ccUMk0PR.s:729    .text._Z16convert_recievedPlS_S_PiP8BT_STATEPh:00000022 .Loc.153
     /tmp/ccUMk0PR.s:730    .text._Z16convert_recievedPlS_S_PiP8BT_STATEPh:00000022 .Loc.154
     /tmp/ccUMk0PR.s:733    .text._Z16convert_recievedPlS_S_PiP8BT_STATEPh:00000024 .Loc.155
     /tmp/ccUMk0PR.s:738    .text._Z16convert_recievedPlS_S_PiP8BT_STATEPh:0000002a .Loc.156
     /tmp/ccUMk0PR.s:743    .text._Z16convert_recievedPlS_S_PiP8BT_STATEPh:00000032 .Loc.157
     /tmp/ccUMk0PR.s:745    .text._Z16convert_recievedPlS_S_PiP8BT_STATEPh:00000034 .Loc.158
     /tmp/ccUMk0PR.s:750    .text._Z16convert_recievedPlS_S_PiP8BT_STATEPh:0000003a .Loc.159
     /tmp/ccUMk0PR.s:754    .text._Z16convert_recievedPlS_S_PiP8BT_STATEPh:00000040 .Loc.160
     /tmp/ccUMk0PR.s:759    .text._Z16convert_recievedPlS_S_PiP8BT_STATEPh:00000048 .Loc.161
     /tmp/ccUMk0PR.s:761    .text._Z16convert_recievedPlS_S_PiP8BT_STATEPh:0000004a .Loc.162
     /tmp/ccUMk0PR.s:765    .text._Z16convert_recievedPlS_S_PiP8BT_STATEPh:00000050 .Loc.163
     /tmp/ccUMk0PR.s:770    .text._Z16convert_recievedPlS_S_PiP8BT_STATEPh:00000058 .Loc.164
     /tmp/ccUMk0PR.s:775    .text._Z16convert_recievedPlS_S_PiP8BT_STATEPh:00000060 .Loc.165
     /tmp/ccUMk0PR.s:777    .text._Z16convert_recievedPlS_S_PiP8BT_STATEPh:00000062 .Loc.166
     /tmp/ccUMk0PR.s:782    .text._Z16convert_recievedPlS_S_PiP8BT_STATEPh:0000006a .Loc.167
     /tmp/ccUMk0PR.s:788    .text._Z16convert_recievedPlS_S_PiP8BT_STATEPh:00000074 .Loc.168
     /tmp/ccUMk0PR.s:789    .text._Z16convert_recievedPlS_S_PiP8BT_STATEPh:00000074 .Loc.169
     /tmp/ccUMk0PR.s:792    .text._Z16convert_recievedPlS_S_PiP8BT_STATEPh:00000076 .Loc.170
     /tmp/ccUMk0PR.s:796    .text._Z16convert_recievedPlS_S_PiP8BT_STATEPh:0000007c .Loc.171
     /tmp/ccUMk0PR.s:801    .text._Z16convert_recievedPlS_S_PiP8BT_STATEPh:00000084 .Loc.172
     /tmp/ccUMk0PR.s:803    .text._Z16convert_recievedPlS_S_PiP8BT_STATEPh:00000086 .Loc.173
     /tmp/ccUMk0PR.s:807    .text._Z16convert_recievedPlS_S_PiP8BT_STATEPh:0000008c .Loc.174
     /tmp/ccUMk0PR.s:811    .text._Z16convert_recievedPlS_S_PiP8BT_STATEPh:00000092 .Loc.175
     /tmp/ccUMk0PR.s:816    .text._Z16convert_recievedPlS_S_PiP8BT_STATEPh:0000009a .Loc.176
     /tmp/ccUMk0PR.s:818    .text._Z16convert_recievedPlS_S_PiP8BT_STATEPh:0000009c .Loc.177
     /tmp/ccUMk0PR.s:822    .text._Z16convert_recievedPlS_S_PiP8BT_STATEPh:000000a2 .Loc.178
     /tmp/ccUMk0PR.s:827    .text._Z16convert_recievedPlS_S_PiP8BT_STATEPh:000000aa .Loc.179
     /tmp/ccUMk0PR.s:832    .text._Z16convert_recievedPlS_S_PiP8BT_STATEPh:000000b2 .Loc.180
     /tmp/ccUMk0PR.s:834    .text._Z16convert_recievedPlS_S_PiP8BT_STATEPh:000000b4 .Loc.181
     /tmp/ccUMk0PR.s:839    .text._Z16convert_recievedPlS_S_PiP8BT_STATEPh:000000bc .Loc.182
     /tmp/ccUMk0PR.s:842    .text._Z16convert_recievedPlS_S_PiP8BT_STATEPh:000000be .Loc.183
     /tmp/ccUMk0PR.s:847    .text._Z16convert_recievedPlS_S_PiP8BT_STATEPh:000000c6 .Loc.184
     /tmp/ccUMk0PR.s:848    .text._Z16convert_recievedPlS_S_PiP8BT_STATEPh:000000c6 .Loc.185
     /tmp/ccUMk0PR.s:850    .text._Z16convert_recievedPlS_S_PiP8BT_STATEPh:000000c8 .Loc.186
     /tmp/ccUMk0PR.s:854    .text._Z16convert_recievedPlS_S_PiP8BT_STATEPh:000000ce .Loc.187
     /tmp/ccUMk0PR.s:859    .text._Z16convert_recievedPlS_S_PiP8BT_STATEPh:000000d6 .Loc.188
     /tmp/ccUMk0PR.s:861    .text._Z16convert_recievedPlS_S_PiP8BT_STATEPh:000000d8 .Loc.189
     /tmp/ccUMk0PR.s:865    .text._Z16convert_recievedPlS_S_PiP8BT_STATEPh:000000de .Loc.190
     /tmp/ccUMk0PR.s:869    .text._Z16convert_recievedPlS_S_PiP8BT_STATEPh:000000e4 .Loc.191
     /tmp/ccUMk0PR.s:874    .text._Z16convert_recievedPlS_S_PiP8BT_STATEPh:000000ec .Loc.192
     /tmp/ccUMk0PR.s:876    .text._Z16convert_recievedPlS_S_PiP8BT_STATEPh:000000ee .Loc.193
     /tmp/ccUMk0PR.s:880    .text._Z16convert_recievedPlS_S_PiP8BT_STATEPh:000000f4 .Loc.194
     /tmp/ccUMk0PR.s:885    .text._Z16convert_recievedPlS_S_PiP8BT_STATEPh:000000fc .Loc.195
GAS LISTING /tmp/ccUMk0PR.s 			page 157


     /tmp/ccUMk0PR.s:890    .text._Z16convert_recievedPlS_S_PiP8BT_STATEPh:00000104 .Loc.196
     /tmp/ccUMk0PR.s:892    .text._Z16convert_recievedPlS_S_PiP8BT_STATEPh:00000106 .Loc.197
     /tmp/ccUMk0PR.s:897    .text._Z16convert_recievedPlS_S_PiP8BT_STATEPh:0000010e .Loc.198
     /tmp/ccUMk0PR.s:900    .text._Z16convert_recievedPlS_S_PiP8BT_STATEPh:00000110 .Loc.199
     /tmp/ccUMk0PR.s:905    .text._Z16convert_recievedPlS_S_PiP8BT_STATEPh:00000118 .Loc.200
     /tmp/ccUMk0PR.s:906    .text._Z16convert_recievedPlS_S_PiP8BT_STATEPh:00000118 .Loc.201
     /tmp/ccUMk0PR.s:909    .text._Z16convert_recievedPlS_S_PiP8BT_STATEPh:0000011c .Loc.202
     /tmp/ccUMk0PR.s:912    .text._Z16convert_recievedPlS_S_PiP8BT_STATEPh:00000120 .Loc.203
     /tmp/ccUMk0PR.s:915    .text._Z16convert_recievedPlS_S_PiP8BT_STATEPh:00000122 .Loc.204
     /tmp/ccUMk0PR.s:918    .text._Z16convert_recievedPlS_S_PiP8BT_STATEPh:00000126 .Loc.205
     /tmp/ccUMk0PR.s:921    .text._Z16convert_recievedPlS_S_PiP8BT_STATEPh:00000128 .Loc.206
     /tmp/ccUMk0PR.s:927    .text._Z16convert_recievedPlS_S_PiP8BT_STATEPh:0000012c .Loc.207
     /tmp/ccUMk0PR.s:935    .text._Z16convert_recievedPlS_S_PiP8BT_STATEPh:0000013a L0
     /tmp/ccUMk0PR.s:941    .text._Z22timer1OverflowCallbackv:00000000 _Z22timer1OverflowCallbackv
     /tmp/ccUMk0PR.s:943    .text._Z22timer1OverflowCallbackv:00000000 .Loc.208
     /tmp/ccUMk0PR.s:944    .text._Z22timer1OverflowCallbackv:00000000 L0
     /tmp/ccUMk0PR.s:949    .text._Z22timer1OverflowCallbackv:00000000 .Loc.209
     /tmp/ccUMk0PR.s:950    .text._Z22timer1OverflowCallbackv:00000000 .Loc.210
     /tmp/ccUMk0PR.s:3546   .bss.timer1_overflows:00000000 timer1_overflows
     /tmp/ccUMk0PR.s:963    .text._Z22timer1OverflowCallbackv:00000026 .Loc.211
     /tmp/ccUMk0PR.s:965    .text._Z22timer1OverflowCallbackv:00000028 L0
     /tmp/ccUMk0PR.s:971    .text._Z6microsv:00000000 _Z6microsv
     /tmp/ccUMk0PR.s:973    .text._Z6microsv:00000000 .Loc.212
     /tmp/ccUMk0PR.s:974    .text._Z6microsv:00000000 L0
     /tmp/ccUMk0PR.s:979    .text._Z6microsv:00000000 .Loc.213
     /tmp/ccUMk0PR.s:980    .text._Z6microsv:00000000 .Loc.214
     /tmp/ccUMk0PR.s:981    .text._Z6microsv:00000000 .Loc.215
     /tmp/ccUMk0PR.s:986    .text._Z6microsv:00000002 .Loc.216
     /tmp/ccUMk0PR.s:987    .text._Z6microsv:00000002 .Loc.217
     /tmp/ccUMk0PR.s:994    .text._Z6microsv:00000012 .Loc.218
     /tmp/ccUMk0PR.s:998    .text._Z6microsv:00000012 .Loc.219
     /tmp/ccUMk0PR.s:1000   .text._Z6microsv:00000012 .Loc.220
     /tmp/ccUMk0PR.s:1001   .text._Z6microsv:00000012 .Loc.221
     /tmp/ccUMk0PR.s:1008   .text._Z6microsv:00000014 .Loc.222
     /tmp/ccUMk0PR.s:1010   .text._Z6microsv:00000014 .Loc.223
     /tmp/ccUMk0PR.s:1015   .text._Z6microsv:00000016 .Loc.224
     /tmp/ccUMk0PR.s:1017   .text._Z6microsv:00000016 .Loc.225
     /tmp/ccUMk0PR.s:1021   .text._Z6microsv:00000016 .Loc.226
     /tmp/ccUMk0PR.s:1022   .text._Z6microsv:00000016 .Loc.227
     /tmp/ccUMk0PR.s:1023   .text._Z6microsv:00000016 .Loc.228
     /tmp/ccUMk0PR.s:1026   .text._Z6microsv:0000001e .Loc.229
     /tmp/ccUMk0PR.s:1028   .text._Z6microsv:0000001e .Loc.230
     /tmp/ccUMk0PR.s:1031   .text._Z6microsv:0000001e .Loc.231
     /tmp/ccUMk0PR.s:1033   .text._Z6microsv:0000001e .Loc.232
     /tmp/ccUMk0PR.s:1034   .text._Z6microsv:0000001e .Loc.233
     /tmp/ccUMk0PR.s:1036   .text._Z6microsv:00000020 .Loc.234
     /tmp/ccUMk0PR.s:1038   .text._Z6microsv:00000020 .Loc.235
     /tmp/ccUMk0PR.s:1042   .text._Z6microsv:00000020 .Loc.236
     /tmp/ccUMk0PR.s:1043   .text._Z6microsv:00000020 .Loc.237
     /tmp/ccUMk0PR.s:1046   .text._Z6microsv:00000020 .Loc.238
     /tmp/ccUMk0PR.s:1047   .text._Z6microsv:00000020 .Loc.239
     /tmp/ccUMk0PR.s:1048   .text._Z6microsv:00000020 .Loc.240
     /tmp/ccUMk0PR.s:1051   .text._Z6microsv:00000024 .Loc.241
     /tmp/ccUMk0PR.s:1055   .text._Z6microsv:0000002a .Loc.242
     /tmp/ccUMk0PR.s:1056   .text._Z6microsv:0000002a .Loc.243
     /tmp/ccUMk0PR.s:1062   .text._Z6microsv:00000032 .Loc.244
     /tmp/ccUMk0PR.s:1065   .text._Z6microsv:00000032 .Loc.245
GAS LISTING /tmp/ccUMk0PR.s 			page 158


     /tmp/ccUMk0PR.s:1067   .text._Z6microsv:00000032 .Loc.246
     /tmp/ccUMk0PR.s:1068   .text._Z6microsv:00000032 .Loc.247
     /tmp/ccUMk0PR.s:1074   .text._Z6microsv:00000034 .Loc.248
     /tmp/ccUMk0PR.s:1076   .text._Z6microsv:00000034 .Loc.249
     /tmp/ccUMk0PR.s:1081   .text._Z6microsv:00000036 .Loc.250
     /tmp/ccUMk0PR.s:1083   .text._Z6microsv:00000036 .Loc.251
     /tmp/ccUMk0PR.s:1087   .text._Z6microsv:00000036 .Loc.252
     /tmp/ccUMk0PR.s:1088   .text._Z6microsv:00000036 .Loc.253
     /tmp/ccUMk0PR.s:1089   .text._Z6microsv:00000036 .Loc.254
     /tmp/ccUMk0PR.s:1093   .text._Z6microsv:0000003e .Loc.255
     /tmp/ccUMk0PR.s:1094   .text._Z6microsv:0000003e .Loc.256
     /tmp/ccUMk0PR.s:1097   .text._Z6microsv:0000003e .Loc.257
     /tmp/ccUMk0PR.s:1099   .text._Z6microsv:0000003e .Loc.258
     /tmp/ccUMk0PR.s:1100   .text._Z6microsv:0000003e .Loc.259
     /tmp/ccUMk0PR.s:1102   .text._Z6microsv:00000040 .Loc.260
     /tmp/ccUMk0PR.s:1104   .text._Z6microsv:00000040 .Loc.261
     /tmp/ccUMk0PR.s:1108   .text._Z6microsv:00000040 .Loc.262
     /tmp/ccUMk0PR.s:1110   .text._Z6microsv:00000040 .Loc.263
     /tmp/ccUMk0PR.s:1113   .text._Z6microsv:00000040 .Loc.264
     /tmp/ccUMk0PR.s:1118   .text._Z6microsv:00000042 .Loc.265
     /tmp/ccUMk0PR.s:1119   .text._Z6microsv:00000042 .Loc.266
     /tmp/ccUMk0PR.s:1129   .text._Z6microsv:00000050 .Loc.267
     /tmp/ccUMk0PR.s:1133   .text._Z6microsv:00000054 .Loc.268
     /tmp/ccUMk0PR.s:1142   .text._Z6microsv:00000062 L0
     /tmp/ccUMk0PR.s:1148   .text._Z10get_millisv:00000000 _Z10get_millisv
     /tmp/ccUMk0PR.s:1150   .text._Z10get_millisv:00000000 .Loc.269
     /tmp/ccUMk0PR.s:1151   .text._Z10get_millisv:00000000 L0
     /tmp/ccUMk0PR.s:1156   .text._Z10get_millisv:00000000 .Loc.270
     /tmp/ccUMk0PR.s:1157   .text._Z10get_millisv:00000000 .Loc.271
     /tmp/ccUMk0PR.s:1158   .text._Z10get_millisv:00000000 .Loc.272
     /tmp/ccUMk0PR.s:1163   .text._Z10get_millisv:00000002 .Loc.273
     /tmp/ccUMk0PR.s:1164   .text._Z10get_millisv:00000002 .Loc.274
     /tmp/ccUMk0PR.s:1171   .text._Z10get_millisv:00000012 .Loc.275
     /tmp/ccUMk0PR.s:1174   .text._Z10get_millisv:00000012 .Loc.276
     /tmp/ccUMk0PR.s:1176   .text._Z10get_millisv:00000012 .Loc.277
     /tmp/ccUMk0PR.s:1177   .text._Z10get_millisv:00000012 .Loc.278
     /tmp/ccUMk0PR.s:1183   .text._Z10get_millisv:00000014 .Loc.279
     /tmp/ccUMk0PR.s:1185   .text._Z10get_millisv:00000014 .Loc.280
     /tmp/ccUMk0PR.s:1190   .text._Z10get_millisv:00000016 .Loc.281
     /tmp/ccUMk0PR.s:1192   .text._Z10get_millisv:00000016 .Loc.282
     /tmp/ccUMk0PR.s:1196   .text._Z10get_millisv:00000016 .Loc.283
     /tmp/ccUMk0PR.s:1197   .text._Z10get_millisv:00000016 .Loc.284
     /tmp/ccUMk0PR.s:1198   .text._Z10get_millisv:00000016 .Loc.285
     /tmp/ccUMk0PR.s:1201   .text._Z10get_millisv:0000001e .Loc.286
     /tmp/ccUMk0PR.s:1203   .text._Z10get_millisv:0000001e .Loc.287
     /tmp/ccUMk0PR.s:1206   .text._Z10get_millisv:0000001e .Loc.288
     /tmp/ccUMk0PR.s:1208   .text._Z10get_millisv:0000001e .Loc.289
     /tmp/ccUMk0PR.s:1209   .text._Z10get_millisv:0000001e .Loc.290
     /tmp/ccUMk0PR.s:1211   .text._Z10get_millisv:00000020 .Loc.291
     /tmp/ccUMk0PR.s:1213   .text._Z10get_millisv:00000020 .Loc.292
     /tmp/ccUMk0PR.s:1217   .text._Z10get_millisv:00000020 .Loc.293
     /tmp/ccUMk0PR.s:1218   .text._Z10get_millisv:00000020 .Loc.294
     /tmp/ccUMk0PR.s:1221   .text._Z10get_millisv:00000020 .Loc.295
     /tmp/ccUMk0PR.s:1222   .text._Z10get_millisv:00000020 .Loc.296
     /tmp/ccUMk0PR.s:1225   .text._Z10get_millisv:00000024 .Loc.297
     /tmp/ccUMk0PR.s:1229   .text._Z10get_millisv:0000002a .Loc.298
     /tmp/ccUMk0PR.s:1230   .text._Z10get_millisv:0000002a .Loc.299
GAS LISTING /tmp/ccUMk0PR.s 			page 159


     /tmp/ccUMk0PR.s:1236   .text._Z10get_millisv:00000032 .Loc.300
     /tmp/ccUMk0PR.s:1239   .text._Z10get_millisv:00000032 .Loc.301
     /tmp/ccUMk0PR.s:1241   .text._Z10get_millisv:00000032 .Loc.302
     /tmp/ccUMk0PR.s:1242   .text._Z10get_millisv:00000032 .Loc.303
     /tmp/ccUMk0PR.s:1248   .text._Z10get_millisv:00000034 .Loc.304
     /tmp/ccUMk0PR.s:1250   .text._Z10get_millisv:00000034 .Loc.305
     /tmp/ccUMk0PR.s:1255   .text._Z10get_millisv:00000036 .Loc.306
     /tmp/ccUMk0PR.s:1257   .text._Z10get_millisv:00000036 .Loc.307
     /tmp/ccUMk0PR.s:1261   .text._Z10get_millisv:00000036 .Loc.308
     /tmp/ccUMk0PR.s:1262   .text._Z10get_millisv:00000036 .Loc.309
     /tmp/ccUMk0PR.s:1263   .text._Z10get_millisv:00000036 .Loc.310
     /tmp/ccUMk0PR.s:1267   .text._Z10get_millisv:0000003e .Loc.311
     /tmp/ccUMk0PR.s:1268   .text._Z10get_millisv:0000003e .Loc.312
     /tmp/ccUMk0PR.s:1271   .text._Z10get_millisv:0000003e .Loc.313
     /tmp/ccUMk0PR.s:1273   .text._Z10get_millisv:0000003e .Loc.314
     /tmp/ccUMk0PR.s:1274   .text._Z10get_millisv:0000003e .Loc.315
     /tmp/ccUMk0PR.s:1276   .text._Z10get_millisv:00000040 .Loc.316
     /tmp/ccUMk0PR.s:1278   .text._Z10get_millisv:00000040 .Loc.317
     /tmp/ccUMk0PR.s:1282   .text._Z10get_millisv:00000040 .Loc.318
     /tmp/ccUMk0PR.s:1284   .text._Z10get_millisv:00000040 .Loc.319
     /tmp/ccUMk0PR.s:1287   .text._Z10get_millisv:00000040 .Loc.320
     /tmp/ccUMk0PR.s:1292   .text._Z10get_millisv:00000042 .Loc.321
     /tmp/ccUMk0PR.s:1293   .text._Z10get_millisv:00000042 .Loc.322
     /tmp/ccUMk0PR.s:1304   .text._Z10get_millisv:00000050 .Loc.323
     /tmp/ccUMk0PR.s:1311   .text._Z10get_millisv:0000005a .Loc.324
     /tmp/ccUMk0PR.s:1320   .text._Z10get_millisv:00000068 L0
     /tmp/ccUMk0PR.s:1331   .text.main:00000000 main
     /tmp/ccUMk0PR.s:1333   .text.main:00000000 .Loc.325
     /tmp/ccUMk0PR.s:1334   .text.main:00000000 L0
     /tmp/ccUMk0PR.s:1352   .text.main:00000012 .Loc.326
     /tmp/ccUMk0PR.s:1353   .text.main:00000012 .Loc.327
     /tmp/ccUMk0PR.s:1357   .text.main:00000012 .Loc.328
     /tmp/ccUMk0PR.s:1358   .text.main:00000012 .Loc.329
     /tmp/ccUMk0PR.s:1360   .text.main:00000012 .Loc.330
     /tmp/ccUMk0PR.s:1367   .text.main:0000001e .Loc.331
     /tmp/ccUMk0PR.s:1370   .text.main:0000001e .Loc.332
     /tmp/ccUMk0PR.s:1371   .text.main:0000001e .Loc.333
     /tmp/ccUMk0PR.s:1373   .text.main:0000001e .Loc.334
     /tmp/ccUMk0PR.s:1379   .text.main:00000028 .Loc.335
     /tmp/ccUMk0PR.s:1382   .text.main:00000028 .Loc.336
     /tmp/ccUMk0PR.s:1384   .text.main:00000028 .Loc.337
     /tmp/ccUMk0PR.s:1385   .text.main:00000028 .Loc.338
     /tmp/ccUMk0PR.s:1389   .text.main:0000002e .Loc.339
     /tmp/ccUMk0PR.s:1390   .text.main:0000002e .Loc.340
     /tmp/ccUMk0PR.s:1392   .text.main:0000002e .Loc.341
     /tmp/ccUMk0PR.s:1395   .text.main:0000002e .Loc.342
     /tmp/ccUMk0PR.s:1398   .text.main:0000002e .Loc.343
     /tmp/ccUMk0PR.s:1400   .text.main:0000002e .Loc.344
     /tmp/ccUMk0PR.s:1401   .text.main:0000002e .Loc.345
     /tmp/ccUMk0PR.s:1407   .text.main:00000038 .Loc.346
     /tmp/ccUMk0PR.s:1408   .text.main:00000038 .Loc.347
     /tmp/ccUMk0PR.s:1410   .text.main:00000038 .Loc.348
     /tmp/ccUMk0PR.s:1413   .text.main:00000038 .Loc.349
     /tmp/ccUMk0PR.s:1414   .text.main:00000038 .Loc.350
     /tmp/ccUMk0PR.s:1415   .text.main:00000038 .Loc.351
     /tmp/ccUMk0PR.s:1424   .text.main:00000048 .Loc.352
     /tmp/ccUMk0PR.s:1425   .text.main:00000048 .Loc.353
GAS LISTING /tmp/ccUMk0PR.s 			page 160


     /tmp/ccUMk0PR.s:1431   .text.main:00000052 .Loc.354
     /tmp/ccUMk0PR.s:1432   .text.main:00000052 .Loc.355
     /tmp/ccUMk0PR.s:1440   .text.main:00000060 .Loc.356
     /tmp/ccUMk0PR.s:1441   .text.main:00000060 .Loc.357
     /tmp/ccUMk0PR.s:1447   .text.main:0000006a .Loc.358
     /tmp/ccUMk0PR.s:1448   .text.main:0000006a .Loc.359
     /tmp/ccUMk0PR.s:1449   .text.main:0000006a .Loc.360
     /tmp/ccUMk0PR.s:1455   .text.main:00000074 .Loc.361
     /tmp/ccUMk0PR.s:1456   .text.main:00000074 .Loc.362
     /tmp/ccUMk0PR.s:1457   .text.main:00000074 .Loc.363
     /tmp/ccUMk0PR.s:1461   .text.main:0000007a .Loc.364
     /tmp/ccUMk0PR.s:1462   .text.main:0000007a .Loc.365
     /tmp/ccUMk0PR.s:1463   .text.main:0000007a .Loc.366
     /tmp/ccUMk0PR.s:1467   .text.main:00000080 .Loc.367
     /tmp/ccUMk0PR.s:1468   .text.main:00000080 .Loc.368
     /tmp/ccUMk0PR.s:1469   .text.main:00000080 .Loc.369
     /tmp/ccUMk0PR.s:1473   .text.main:00000086 .Loc.370
     /tmp/ccUMk0PR.s:1474   .text.main:00000086 .Loc.371
     /tmp/ccUMk0PR.s:1475   .text.main:00000086 .Loc.372
     /tmp/ccUMk0PR.s:1479   .text.main:0000008c .Loc.373
     /tmp/ccUMk0PR.s:1480   .text.main:0000008c .Loc.374
     /tmp/ccUMk0PR.s:1481   .text.main:0000008c .Loc.375
     /tmp/ccUMk0PR.s:1484   .text.main:00000090 .Loc.376
     /tmp/ccUMk0PR.s:1485   .text.main:00000090 .Loc.377
     /tmp/ccUMk0PR.s:1489   .text.main:00000090 .Loc.378
     /tmp/ccUMk0PR.s:1490   .text.main:00000090 .Loc.379
     /tmp/ccUMk0PR.s:1492   .text.main:00000090 .Loc.380
     /tmp/ccUMk0PR.s:1499   .text.main:0000009c .Loc.381
     /tmp/ccUMk0PR.s:1502   .text.main:0000009c .Loc.382
     /tmp/ccUMk0PR.s:1504   .text.main:0000009c .Loc.383
     /tmp/ccUMk0PR.s:1505   .text.main:0000009c .Loc.384
     /tmp/ccUMk0PR.s:1508   .text.main:000000a0 .Loc.385
     /tmp/ccUMk0PR.s:1510   .text.main:000000a0 .Loc.386
     /tmp/ccUMk0PR.s:1513   .text.main:000000a0 .Loc.387
     /tmp/ccUMk0PR.s:1516   .text.main:000000a0 .Loc.388
     /tmp/ccUMk0PR.s:1518   .text.main:000000a0 .Loc.389
     /tmp/ccUMk0PR.s:1519   .text.main:000000a0 .Loc.390
     /tmp/ccUMk0PR.s:1523   .text.main:000000a6 .Loc.391
     /tmp/ccUMk0PR.s:1524   .text.main:000000a6 .Loc.392
     /tmp/ccUMk0PR.s:1526   .text.main:000000a6 .Loc.393
     /tmp/ccUMk0PR.s:1529   .text.main:000000a6 .Loc.394
     /tmp/ccUMk0PR.s:1532   .text.main:000000a6 .Loc.395
     /tmp/ccUMk0PR.s:1534   .text.main:000000a6 .Loc.396
     /tmp/ccUMk0PR.s:1535   .text.main:000000a6 .Loc.397
     /tmp/ccUMk0PR.s:1541   .text.main:000000b0 .Loc.398
     /tmp/ccUMk0PR.s:1542   .text.main:000000b0 .Loc.399
     /tmp/ccUMk0PR.s:1544   .text.main:000000b0 .Loc.400
     /tmp/ccUMk0PR.s:1547   .text.main:000000b0 .Loc.401
     /tmp/ccUMk0PR.s:1548   .text.main:000000b0 .Loc.402
     /tmp/ccUMk0PR.s:1551   .text.main:000000b0 .Loc.403
     /tmp/ccUMk0PR.s:1552   .text.main:000000b0 .Loc.404
     /tmp/ccUMk0PR.s:1554   .text.main:000000b0 .Loc.405
     /tmp/ccUMk0PR.s:1561   .text.main:000000bc .Loc.406
     /tmp/ccUMk0PR.s:1564   .text.main:000000bc .Loc.407
     /tmp/ccUMk0PR.s:1566   .text.main:000000bc .Loc.408
     /tmp/ccUMk0PR.s:1567   .text.main:000000bc .Loc.409
     /tmp/ccUMk0PR.s:1571   .text.main:000000c2 .Loc.410
GAS LISTING /tmp/ccUMk0PR.s 			page 161


     /tmp/ccUMk0PR.s:1572   .text.main:000000c2 .Loc.411
     /tmp/ccUMk0PR.s:1574   .text.main:000000c2 .Loc.412
     /tmp/ccUMk0PR.s:1577   .text.main:000000c2 .Loc.413
     /tmp/ccUMk0PR.s:1580   .text.main:000000c2 .Loc.414
     /tmp/ccUMk0PR.s:1582   .text.main:000000c2 .Loc.415
     /tmp/ccUMk0PR.s:1583   .text.main:000000c2 .Loc.416
     /tmp/ccUMk0PR.s:1589   .text.main:000000cc .Loc.417
     /tmp/ccUMk0PR.s:1590   .text.main:000000cc .Loc.418
     /tmp/ccUMk0PR.s:1592   .text.main:000000cc .Loc.419
     /tmp/ccUMk0PR.s:1595   .text.main:000000cc .Loc.420
     /tmp/ccUMk0PR.s:1596   .text.main:000000cc .Loc.421
     /tmp/ccUMk0PR.s:1597   .text.main:000000cc .Loc.422
     /tmp/ccUMk0PR.s:1602   .text.main:000000d4 .Loc.423
     /tmp/ccUMk0PR.s:1603   .text.main:000000d4 .Loc.424
     /tmp/ccUMk0PR.s:1612   .text.main:000000e4 .Loc.425
     /tmp/ccUMk0PR.s:1613   .text.main:000000e4 .Loc.426
     /tmp/ccUMk0PR.s:1619   .text.main:000000ee .Loc.427
     /tmp/ccUMk0PR.s:1623   .text.main:000000ee .Loc.428
     /tmp/ccUMk0PR.s:1625   .text.main:000000ee .Loc.429
     /tmp/ccUMk0PR.s:1626   .text.main:000000ee .Loc.430
     /tmp/ccUMk0PR.s:1632   .text.main:000000f8 .Loc.431
     /tmp/ccUMk0PR.s:1633   .text.main:000000f8 .Loc.432
     /tmp/ccUMk0PR.s:1636   .text.main:000000f8 .Loc.433
     /tmp/ccUMk0PR.s:1640   .text.main:000000f8 .Loc.434
     /tmp/ccUMk0PR.s:1642   .text.main:000000f8 .Loc.435
     /tmp/ccUMk0PR.s:1643   .text.main:000000f8 .Loc.436
     /tmp/ccUMk0PR.s:1647   .text.main:000000fe .Loc.437
     /tmp/ccUMk0PR.s:1648   .text.main:000000fe .Loc.438
     /tmp/ccUMk0PR.s:1651   .text.main:000000fe .Loc.439
     /tmp/ccUMk0PR.s:1655   .text.main:000000fe .Loc.440
     /tmp/ccUMk0PR.s:1657   .text.main:000000fe .Loc.441
     /tmp/ccUMk0PR.s:1658   .text.main:000000fe .Loc.442
     /tmp/ccUMk0PR.s:1665   .text.main:0000010a .Loc.443
     /tmp/ccUMk0PR.s:1668   .text.main:0000010e .Loc.444
     /tmp/ccUMk0PR.s:1671   .text.main:00000112 .Loc.445
     /tmp/ccUMk0PR.s:1674   .text.main:00000112 .Loc.446
     /tmp/ccUMk0PR.s:1679   .text.main:00000114 .Loc.447
     /tmp/ccUMk0PR.s:1680   .text.main:00000114 .Loc.448
     /tmp/ccUMk0PR.s:1681   .text.main:00000114 .Loc.449
     /tmp/ccUMk0PR.s:1692   .text.main:00000126 .Loc.450
     /tmp/ccUMk0PR.s:1693   .text.main:00000126 .Loc.451
     /tmp/ccUMk0PR.s:3564   .bss.oledBuffer:00000000 oledBuffer
     /tmp/ccUMk0PR.s:1704   .text.main:0000013a .Loc.452
     /tmp/ccUMk0PR.s:1705   .text.main:0000013a .Loc.453
     /tmp/ccUMk0PR.s:1711   .text.main:00000144 .Loc.454
     /tmp/ccUMk0PR.s:1712   .text.main:00000144 .Loc.455
     /tmp/ccUMk0PR.s:1717   .text.main:0000014c .Loc.456
     /tmp/ccUMk0PR.s:1718   .text.main:0000014c .Loc.457
     /tmp/ccUMk0PR.s:1719   .text.main:0000014c .Loc.458
     /tmp/ccUMk0PR.s:1720   .text.main:0000014c .Loc.459
     /tmp/ccUMk0PR.s:1725   .text.main:00000154 .Loc.460
     /tmp/ccUMk0PR.s:1730   .text.main:0000015c .Loc.461
     /tmp/ccUMk0PR.s:1735   .text.main:00000164 .Loc.462
     /tmp/ccUMk0PR.s:1736   .text.main:00000164 .Loc.463
     /tmp/ccUMk0PR.s:1739   .text.main:00000168 .Loc.464
     /tmp/ccUMk0PR.s:1741   .text.main:00000168 .Loc.465
     /tmp/ccUMk0PR.s:1742   .text.main:00000168 .Loc.466
GAS LISTING /tmp/ccUMk0PR.s 			page 162


     /tmp/ccUMk0PR.s:1747   .text.main:00000170 .Loc.467
     /tmp/ccUMk0PR.s:1749   .text.main:00000170 .Loc.468
     /tmp/ccUMk0PR.s:1750   .text.main:00000170 .Loc.469
     /tmp/ccUMk0PR.s:1751   .text.main:00000170 .Loc.470
     /tmp/ccUMk0PR.s:1752   .text.main:00000170 .Loc.471
     /tmp/ccUMk0PR.s:1757   .text.main:00000178 .Loc.472
     /tmp/ccUMk0PR.s:1764   .text.main:00000184 .Loc.473
     /tmp/ccUMk0PR.s:1766   .text.main:00000186 .Loc.474
     /tmp/ccUMk0PR.s:1768   .text.main:00000188 .Loc.475
     /tmp/ccUMk0PR.s:1773   .text.main:00000190 .Loc.476
     /tmp/ccUMk0PR.s:1778   .text.main:00000198 .Loc.477
     /tmp/ccUMk0PR.s:1781   .text.main:0000019c .Loc.478
     /tmp/ccUMk0PR.s:1792   .text.main:000001a6 .Loc.479
     /tmp/ccUMk0PR.s:1793   .text.main:000001a6 .Loc.480
     /tmp/ccUMk0PR.s:3540   .bss.button_pending_change:00000000 button_pending_change
     /tmp/ccUMk0PR.s:1795   .text.main:000001aa .Loc.481
     /tmp/ccUMk0PR.s:1796   .text.main:000001aa .Loc.482
     /tmp/ccUMk0PR.s:1802   .text.main:000001b2 .Loc.483
     /tmp/ccUMk0PR.s:1804   .text.main:000001b2 .Loc.484
     /tmp/ccUMk0PR.s:1806   .text.main:000001b4 .Loc.485
     /tmp/ccUMk0PR.s:1810   .text.main:000001b6 .Loc.486
     /tmp/ccUMk0PR.s:3528   .bss.debounced_buttons:00000000 debounced_buttons
     /tmp/ccUMk0PR.s:1835   .text.main:000001e0 .Loc.487
     /tmp/ccUMk0PR.s:1838   .text.main:000001e2 .Loc.488
     /tmp/ccUMk0PR.s:1841   .text.main:000001e6 .Loc.489
     /tmp/ccUMk0PR.s:1845   .text.main:000001e8 .Loc.490
     /tmp/ccUMk0PR.s:1847   .text.main:000001ec L0
     /tmp/ccUMk0PR.s:1849   .text.main:000001ee .Loc.491
     /tmp/ccUMk0PR.s:1850   .text.main:000001ee .Loc.492
     /tmp/ccUMk0PR.s:1853   .text.main:000001f2 .Loc.493
     /tmp/ccUMk0PR.s:3534   .bss.button_last_changed:00000000 button_last_changed
     /tmp/ccUMk0PR.s:1865   .text.main:00000208 .Loc.494
     /tmp/ccUMk0PR.s:1872   .text.main:00000214 .Loc.495
     /tmp/ccUMk0PR.s:1878   .text.main:0000021e .Loc.496
     /tmp/ccUMk0PR.s:1879   .text.main:0000021e .Loc.497
     /tmp/ccUMk0PR.s:1890   .text.main:00000230 .Loc.498
     /tmp/ccUMk0PR.s:1893   .text.main:00000234 .Loc.499
     /tmp/ccUMk0PR.s:1916   .text.main:0000025a .Loc.500
     /tmp/ccUMk0PR.s:1920   .text.main:0000025e .Loc.501
     /tmp/ccUMk0PR.s:1921   .text.main:0000025e .Loc.502
     /tmp/ccUMk0PR.s:1927   .text.main:00000266 .Loc.503
     /tmp/ccUMk0PR.s:1931   .text.main:00000266 .Loc.504
     /tmp/ccUMk0PR.s:1934   .text.main:0000026a .Loc.505
     /tmp/ccUMk0PR.s:1939   .text.main:0000027a .Loc.506
     /tmp/ccUMk0PR.s:1946   .text.main:00000286 .Loc.507
     /tmp/ccUMk0PR.s:1951   .text.main:00000290 L0
     /tmp/ccUMk0PR.s:1953   .text.main:00000292 .Loc.508
     /tmp/ccUMk0PR.s:1954   .text.main:00000292 .Loc.509
     /tmp/ccUMk0PR.s:3516   .bss.current_state:00000000 current_state
     /tmp/ccUMk0PR.s:1961   .text.main:000002a0 .Loc.510
     /tmp/ccUMk0PR.s:1965   .text.main:000002a4 .Loc.511
     /tmp/ccUMk0PR.s:1969   .text.main:000002ac .Loc.512
     /tmp/ccUMk0PR.s:1970   .text.main:000002ac .Loc.513
     /tmp/ccUMk0PR.s:1975   .text.main:000002b4 .Loc.514
     /tmp/ccUMk0PR.s:1977   .text.main:000002b8 .Loc.515
     /tmp/ccUMk0PR.s:1983   .text.main:000002be .Loc.516
     /tmp/ccUMk0PR.s:1985   .text.main:000002be .Loc.517
GAS LISTING /tmp/ccUMk0PR.s 			page 163


     /tmp/ccUMk0PR.s:3558   .bss.update_display_flag:00000000 update_display_flag
     /tmp/ccUMk0PR.s:1987   .text.main:000002c2 .Loc.518
     /tmp/ccUMk0PR.s:1992   .text.main:000002c6 .Loc.519
     /tmp/ccUMk0PR.s:1994   .text.main:000002c6 .Loc.520
     /tmp/ccUMk0PR.s:1996   .text.main:000002c6 .Loc.521
     /tmp/ccUMk0PR.s:1999   .text.main:000002ce .Loc.522
     /tmp/ccUMk0PR.s:2002   .text.main:000002d4 L0
     /tmp/ccUMk0PR.s:2004   .text.main:000002d8 L0
     /tmp/ccUMk0PR.s:2008   .text.main:000002e0 L0
     /tmp/ccUMk0PR.s:2012   .text.main:000002e4 .Loc.523
     /tmp/ccUMk0PR.s:2013   .text.main:000002e4 .Loc.524
     /tmp/ccUMk0PR.s:2014   .text.main:000002e4 .Loc.525
     /tmp/ccUMk0PR.s:2019   .text.main:000002ec .Loc.526
     /tmp/ccUMk0PR.s:2024   .text.main:000002f6 L0
     /tmp/ccUMk0PR.s:2026   .text.main:000002f8 .Loc.527
     /tmp/ccUMk0PR.s:2027   .text.main:000002f8 .Loc.528
     /tmp/ccUMk0PR.s:2032   .text.main:00000304 .Loc.529
     /tmp/ccUMk0PR.s:2035   .text.main:00000304 .Loc.530
     /tmp/ccUMk0PR.s:2036   .text.main:00000304 .Loc.531
     /tmp/ccUMk0PR.s:2039   .text.main:00000304 .Loc.532
     /tmp/ccUMk0PR.s:2040   .text.main:00000304 .Loc.533
     /tmp/ccUMk0PR.s:2043   .text.main:00000308 .Loc.534
     /tmp/ccUMk0PR.s:2045   .text.main:00000308 .Loc.535
     /tmp/ccUMk0PR.s:2047   .text.main:00000308 .Loc.536
     /tmp/ccUMk0PR.s:2049   .text.main:00000308 .Loc.537
     /tmp/ccUMk0PR.s:2053   .text.main:00000308 .Loc.538
     /tmp/ccUMk0PR.s:2055   .text.main:00000308 .Loc.539
     /tmp/ccUMk0PR.s:2056   .text.main:00000308 .Loc.540
     /tmp/ccUMk0PR.s:2061   .text.main:00000310 .Loc.541
     /tmp/ccUMk0PR.s:2063   .text.main:00000312 .Loc.542
     /tmp/ccUMk0PR.s:2065   .text.main:00000314 .Loc.543
     /tmp/ccUMk0PR.s:2068   .text.main:00000318 .Loc.544
     /tmp/ccUMk0PR.s:2070   .text.main:0000031a .Loc.545
     /tmp/ccUMk0PR.s:2080   .text.main:00000326 .Loc.546
     /tmp/ccUMk0PR.s:2083   .text.main:00000326 .Loc.547
     /tmp/ccUMk0PR.s:2085   .text.main:00000326 .Loc.548
     /tmp/ccUMk0PR.s:2087   .text.main:0000032a .Loc.549
     /tmp/ccUMk0PR.s:2092   .text.main:0000032e .Loc.550
     /tmp/ccUMk0PR.s:2093   .text.main:0000032e .Loc.551
     /tmp/ccUMk0PR.s:2097   .text.main:00000334 .Loc.552
     /tmp/ccUMk0PR.s:2099   .text.main:00000338 .Loc.553
     /tmp/ccUMk0PR.s:2102   .text.main:0000033a .Loc.554
     /tmp/ccUMk0PR.s:2103   .text.main:0000033a .Loc.555
     /tmp/ccUMk0PR.s:2105   .text.main:0000033e .Loc.556
     /tmp/ccUMk0PR.s:2109   .text.main:00000342 .Loc.557
     /tmp/ccUMk0PR.s:2110   .text.main:00000342 .Loc.558
     /tmp/ccUMk0PR.s:2113   .text.main:00000346 .Loc.559
     /tmp/ccUMk0PR.s:2115   .text.main:0000034a .Loc.560
     /tmp/ccUMk0PR.s:2118   .text.main:0000034e .Loc.561
     /tmp/ccUMk0PR.s:2119   .text.main:0000034e .Loc.562
     /tmp/ccUMk0PR.s:2122   .text.main:00000356 .Loc.563
     /tmp/ccUMk0PR.s:2124   .text.main:0000035a L0
     /tmp/ccUMk0PR.s:2126   .text.main:0000035c .Loc.564
     /tmp/ccUMk0PR.s:2131   .text.main:00000362 .Loc.565
     /tmp/ccUMk0PR.s:2132   .text.main:00000362 .Loc.566
     /tmp/ccUMk0PR.s:2139   .text.main:0000036c .Loc.567
     /tmp/ccUMk0PR.s:2154   .text.main:00000380 .Loc.568
GAS LISTING /tmp/ccUMk0PR.s 			page 164


     /tmp/ccUMk0PR.s:2155   .text.main:00000380 .Loc.569
     /tmp/ccUMk0PR.s:2160   .text.main:00000388 .Loc.570
     /tmp/ccUMk0PR.s:2161   .text.main:00000388 .Loc.571
     /tmp/ccUMk0PR.s:2168   .text.main:00000394 .Loc.572
     /tmp/ccUMk0PR.s:2169   .text.main:00000394 .Loc.573
     /tmp/ccUMk0PR.s:2175   .text.main:0000039e .Loc.574
     /tmp/ccUMk0PR.s:2176   .text.main:0000039e .Loc.575
     /tmp/ccUMk0PR.s:2177   .text.main:0000039e .Loc.576
     /tmp/ccUMk0PR.s:2180   .text.main:000003a2 .Loc.577
     /tmp/ccUMk0PR.s:2182   .text.main:000003a6 L0
     /tmp/ccUMk0PR.s:2185   .text.main:000003a8 .Loc.578
     /tmp/ccUMk0PR.s:3485   .progmem.data._ZZ4mainE3__c_4:00000000 _ZZ4mainE3__c_4
     /tmp/ccUMk0PR.s:2190   .text.main:000003ac .Loc.579
     /tmp/ccUMk0PR.s:2195   .text.main:000003ba L0
     /tmp/ccUMk0PR.s:2199   .text.main:000003c2 L0
     /tmp/ccUMk0PR.s:2202   .text.main:000003c8 L0
     /tmp/ccUMk0PR.s:3505   .progmem.data._ZZ4mainE3__c_0:00000000 _ZZ4mainE3__c_0
     /tmp/ccUMk0PR.s:2208   .text.main:000003ce .Loc.580
     /tmp/ccUMk0PR.s:2209   .text.main:000003ce .Loc.581
     /tmp/ccUMk0PR.s:2211   .text.main:000003ce .Loc.582
     /tmp/ccUMk0PR.s:2214   .text.main:000003d0 .Loc.583
     /tmp/ccUMk0PR.s:3510   .progmem.data._ZZ4mainE3__c:00000000 _ZZ4mainE3__c
     /tmp/ccUMk0PR.s:2229   .text.main:000003ec .Loc.584
     /tmp/ccUMk0PR.s:2230   .text.main:000003ec .Loc.585
     /tmp/ccUMk0PR.s:2236   .text.main:000003f6 .Loc.586
     /tmp/ccUMk0PR.s:2237   .text.main:000003f6 .Loc.587
     /tmp/ccUMk0PR.s:2242   .text.main:000003fe .Loc.588
     /tmp/ccUMk0PR.s:2255   .text.main:00000416 .Loc.589
     /tmp/ccUMk0PR.s:2263   .text.main:00000426 L0
     /tmp/ccUMk0PR.s:2265   .text.main:00000428 .Loc.590
     /tmp/ccUMk0PR.s:2273   .text.main:00000438 .Loc.591
     /tmp/ccUMk0PR.s:2276   .text.main:0000043a .Loc.592
     /tmp/ccUMk0PR.s:2281   .text.main:0000043c .Loc.593
     /tmp/ccUMk0PR.s:3480   .progmem.data._ZZ4mainE3__c_5:00000000 _ZZ4mainE3__c_5
     /tmp/ccUMk0PR.s:2287   .text.main:00000442 .Loc.594
     /tmp/ccUMk0PR.s:3500   .progmem.data._ZZ4mainE3__c_1:00000000 _ZZ4mainE3__c_1
     /tmp/ccUMk0PR.s:3495   .progmem.data._ZZ4mainE3__c_2:00000000 _ZZ4mainE3__c_2
     /tmp/ccUMk0PR.s:3490   .progmem.data._ZZ4mainE3__c_3:00000000 _ZZ4mainE3__c_3
     /tmp/ccUMk0PR.s:2301   .text.main:00000454 .Loc.595
     /tmp/ccUMk0PR.s:2305   .text.main:00000456 .Loc.596
     /tmp/ccUMk0PR.s:2306   .text.main:00000456 .Loc.597
     /tmp/ccUMk0PR.s:2310   .text.main:0000045c .Loc.598
     /tmp/ccUMk0PR.s:2317   .text.main:00000464 .Loc.599
     /tmp/ccUMk0PR.s:2327   .text.main:00000476 .Loc.600
     /tmp/ccUMk0PR.s:2328   .text.main:00000476 .Loc.601
     /tmp/ccUMk0PR.s:2333   .text.main:0000047e .Loc.602
     /tmp/ccUMk0PR.s:2341   .text.main:0000048c .Loc.603
     /tmp/ccUMk0PR.s:2350   .text.main:0000049c .Loc.604
     /tmp/ccUMk0PR.s:2358   .text.main:000004ac .Loc.605
     /tmp/ccUMk0PR.s:2361   .text.main:000004ae .Loc.606
     /tmp/ccUMk0PR.s:2365   .text.main:000004b0 .Loc.607
     /tmp/ccUMk0PR.s:2370   .text.main:000004b4 .Loc.608
     /tmp/ccUMk0PR.s:2374   .text.main:000004b6 .Loc.609
     /tmp/ccUMk0PR.s:2375   .text.main:000004b6 .Loc.610
     /tmp/ccUMk0PR.s:2379   .text.main:000004bc .Loc.611
     /tmp/ccUMk0PR.s:2386   .text.main:000004c4 .Loc.612
     /tmp/ccUMk0PR.s:2396   .text.main:000004d6 .Loc.613
GAS LISTING /tmp/ccUMk0PR.s 			page 165


     /tmp/ccUMk0PR.s:2397   .text.main:000004d6 .Loc.614
     /tmp/ccUMk0PR.s:2402   .text.main:000004de .Loc.615
     /tmp/ccUMk0PR.s:2410   .text.main:000004ec .Loc.616
     /tmp/ccUMk0PR.s:2418   .text.main:000004fc L0
     /tmp/ccUMk0PR.s:2420   .text.main:000004fe .Loc.617
     /tmp/ccUMk0PR.s:2428   .text.main:0000050e .Loc.618
     /tmp/ccUMk0PR.s:2431   .text.main:00000510 .Loc.619
     /tmp/ccUMk0PR.s:2435   .text.main:00000512 .Loc.620
     /tmp/ccUMk0PR.s:2440   .text.main:00000516 .Loc.621
     /tmp/ccUMk0PR.s:2444   .text.main:00000518 .Loc.622
     /tmp/ccUMk0PR.s:2445   .text.main:00000518 .Loc.623
     /tmp/ccUMk0PR.s:2449   .text.main:0000051e .Loc.624
     /tmp/ccUMk0PR.s:2456   .text.main:00000526 .Loc.625
     /tmp/ccUMk0PR.s:2466   .text.main:00000538 .Loc.626
     /tmp/ccUMk0PR.s:2467   .text.main:00000538 .Loc.627
     /tmp/ccUMk0PR.s:2478   .text.main:0000054c .Loc.628
     /tmp/ccUMk0PR.s:2479   .text.main:0000054c .Loc.629
     /tmp/ccUMk0PR.s:2486   .text.main:00000558 .Loc.630
     /tmp/ccUMk0PR.s:2487   .text.main:00000558 .Loc.631
     /tmp/ccUMk0PR.s:2488   .text.main:00000558 .Loc.632
     /tmp/ccUMk0PR.s:2504   .text.main:00000576 .Loc.633
     /tmp/ccUMk0PR.s:2508   .text.main:0000057c .Loc.634
     /tmp/ccUMk0PR.s:2523   .text.main:00000598 .Loc.635
     /tmp/ccUMk0PR.s:2528   .text.main:0000059e .Loc.636
     /tmp/ccUMk0PR.s:2529   .text.main:0000059e .Loc.637
     /tmp/ccUMk0PR.s:2531   .text.main:0000059e .Loc.638
     /tmp/ccUMk0PR.s:3475   .progmem.data._ZZ4mainE3__c_6:00000000 _ZZ4mainE3__c_6
     /tmp/ccUMk0PR.s:2555   .text.main:000005cc .Loc.639
     /tmp/ccUMk0PR.s:2556   .text.main:000005cc .Loc.640
     /tmp/ccUMk0PR.s:2563   .text.main:000005d8 .Loc.641
     /tmp/ccUMk0PR.s:2564   .text.main:000005d8 .Loc.642
     /tmp/ccUMk0PR.s:2570   .text.main:000005e2 .Loc.643
     /tmp/ccUMk0PR.s:2571   .text.main:000005e2 .Loc.644
     /tmp/ccUMk0PR.s:2576   .text.main:000005ea .Loc.645
     /tmp/ccUMk0PR.s:2577   .text.main:000005ea .Loc.646
     /tmp/ccUMk0PR.s:2587   .text.main:000005fa .Loc.647
     /tmp/ccUMk0PR.s:2592   .text.main:000005fe .Loc.648
     /tmp/ccUMk0PR.s:2596   .text.main:000005fe .Loc.649
     /tmp/ccUMk0PR.s:2599   .text.main:00000604 L0
     /tmp/ccUMk0PR.s:2602   .text.main:00000606 .Loc.650
     /tmp/ccUMk0PR.s:2603   .text.main:00000606 .Loc.651
     /tmp/ccUMk0PR.s:2606   .text.main:0000060a .Loc.652
     /tmp/ccUMk0PR.s:2607   .text.main:0000060a .Loc.653
     /tmp/ccUMk0PR.s:2610   .text.main:0000060e .Loc.654
     /tmp/ccUMk0PR.s:2612   .text.main:00000610 .Loc.655
     /tmp/ccUMk0PR.s:2616   .text.main:00000618 .Loc.656
     /tmp/ccUMk0PR.s:2620   .text.main:0000061a .Loc.657
     /tmp/ccUMk0PR.s:2623   .text.main:0000061e .Loc.658
     /tmp/ccUMk0PR.s:2624   .text.main:0000061e .Loc.659
     /tmp/ccUMk0PR.s:2627   .text.main:00000622 .Loc.660
     /tmp/ccUMk0PR.s:2629   .text.main:00000624 .Loc.661
     /tmp/ccUMk0PR.s:2633   .text.main:0000062c .Loc.662
     /tmp/ccUMk0PR.s:2637   .text.main:0000062e .Loc.663
     /tmp/ccUMk0PR.s:2638   .text.main:0000062e .Loc.664
     /tmp/ccUMk0PR.s:3522   .bss.spi_flag:00000000 spi_flag
     /tmp/ccUMk0PR.s:2640   .text.main:00000632 .Loc.665
     /tmp/ccUMk0PR.s:2642   .text.main:00000636 L0
GAS LISTING /tmp/ccUMk0PR.s 			page 166


     /tmp/ccUMk0PR.s:2644   .text.main:00000638 .Loc.666
     /tmp/ccUMk0PR.s:2645   .text.main:00000638 .Loc.667
     /tmp/ccUMk0PR.s:2648   .text.main:0000063a .Loc.668
     /tmp/ccUMk0PR.s:2664   .text.main:00000658 .Loc.669
     /tmp/ccUMk0PR.s:2665   .text.main:00000658 .Loc.670
     /tmp/ccUMk0PR.s:2675   .text.main:0000066a .Loc.671
     /tmp/ccUMk0PR.s:2676   .text.main:0000066a .Loc.672
     /tmp/ccUMk0PR.s:2693   .text.main:0000068a .Loc.673
     /tmp/ccUMk0PR.s:2694   .text.main:0000068a .Loc.674
     /tmp/ccUMk0PR.s:2699   .text.main:00000690 .Loc.675
     /tmp/ccUMk0PR.s:2700   .text.main:00000690 .Loc.676
     /tmp/ccUMk0PR.s:2701   .text.main:00000690 .Loc.677
     /tmp/ccUMk0PR.s:2703   .text.main:00000694 .Loc.678
     /tmp/ccUMk0PR.s:2705   .text.main:00000698 L0
     /tmp/ccUMk0PR.s:2707   .text.main:0000069a .Loc.679
     /tmp/ccUMk0PR.s:2708   .text.main:0000069a .Loc.680
     /tmp/ccUMk0PR.s:2710   .text.main:0000069e .Loc.681
     /tmp/ccUMk0PR.s:2711   .text.main:0000069e .Loc.682
     /tmp/ccUMk0PR.s:2714   .text.main:000006a0 .Loc.683
     /tmp/ccUMk0PR.s:2717   .text.main:000006a6 L0
     /tmp/ccUMk0PR.s:2719   .text.main:000006a8 .Loc.684
     /tmp/ccUMk0PR.s:2721   .text.main:000006a8 .Loc.685
     /tmp/ccUMk0PR.s:2722   .text.main:000006a8 .Loc.686
     /tmp/ccUMk0PR.s:2725   .text.main:000006aa .Loc.687
     /tmp/ccUMk0PR.s:2741   .text.main:000006c8 .Loc.688
     /tmp/ccUMk0PR.s:2742   .text.main:000006c8 .Loc.689
     /tmp/ccUMk0PR.s:2752   .text.main:000006da .Loc.690
     /tmp/ccUMk0PR.s:2753   .text.main:000006da .Loc.691
     /tmp/ccUMk0PR.s:2770   .text.main:000006fa .Loc.692
     /tmp/ccUMk0PR.s:2771   .text.main:000006fa .Loc.693
     /tmp/ccUMk0PR.s:2773   .text.main:000006fe .Loc.694
     /tmp/ccUMk0PR.s:2778   .text.main:00000702 .Loc.695
     /tmp/ccUMk0PR.s:2780   .text.main:00000702 .Loc.696
     /tmp/ccUMk0PR.s:2782   .text.main:00000702 .Loc.697
     /tmp/ccUMk0PR.s:2785   .text.main:00000706 .Loc.698
     /tmp/ccUMk0PR.s:2798   .text.main:0000071e .Loc.699
     /tmp/ccUMk0PR.s:2806   .text.main:00000728 .Loc.700
     /tmp/ccUMk0PR.s:2808   .text.main:00000728 .Loc.701
     /tmp/ccUMk0PR.s:2809   .text.main:00000728 .Loc.702
     /tmp/ccUMk0PR.s:2811   .text.main:0000072c .Loc.703
     /tmp/ccUMk0PR.s:2813   .text.main:00000730 L0
     /tmp/ccUMk0PR.s:2815   .text.main:00000732 .Loc.704
     /tmp/ccUMk0PR.s:2816   .text.main:00000732 .Loc.705
     /tmp/ccUMk0PR.s:2835   .text.main:0000075c .Loc.706
     /tmp/ccUMk0PR.s:2836   .text.main:0000075c .Loc.707
     /tmp/ccUMk0PR.s:2846   .text.main:0000076e .Loc.708
     /tmp/ccUMk0PR.s:2847   .text.main:0000076e .Loc.709
     /tmp/ccUMk0PR.s:2864   .text.main:0000078e .Loc.710
     /tmp/ccUMk0PR.s:2865   .text.main:0000078e .Loc.711
     /tmp/ccUMk0PR.s:2872   .text.main:00000794 .Loc.712
     /tmp/ccUMk0PR.s:2873   .text.main:00000794 .Loc.713
     /tmp/ccUMk0PR.s:2876   .text.main:00000796 .Loc.714
     /tmp/ccUMk0PR.s:2893   .text.main:000007b6 .Loc.715
     /tmp/ccUMk0PR.s:2898   .text.main:000007bc .Loc.716
     /tmp/ccUMk0PR.s:2899   .text.main:000007bc .Loc.717
     /tmp/ccUMk0PR.s:2918   .text.main:000007e0 .Loc.718
     /tmp/ccUMk0PR.s:2922   .text.main:000007e4 .Loc.719
GAS LISTING /tmp/ccUMk0PR.s 			page 167


     /tmp/ccUMk0PR.s:2923   .text.main:000007e4 .Loc.720
     /tmp/ccUMk0PR.s:2929   .text.main:000007ee .Loc.721
     /tmp/ccUMk0PR.s:2940   .text.main:000007fe .Loc.722
     /tmp/ccUMk0PR.s:2942   .text.main:00000800 .Loc.723
     /tmp/ccUMk0PR.s:2946   .text.main:00000806 .Loc.724
     /tmp/ccUMk0PR.s:2947   .text.main:00000806 .Loc.725
     /tmp/ccUMk0PR.s:2958   .text.main:00000816 .Loc.726
     /tmp/ccUMk0PR.s:2964   .text.main:00000820 .Loc.727
     /tmp/ccUMk0PR.s:2967   .text.main:00000822 .Loc.728
     /tmp/ccUMk0PR.s:2972   .text.main:00000826 .Loc.729
     /tmp/ccUMk0PR.s:2976   .text.main:00000826 .Loc.730
     /tmp/ccUMk0PR.s:2977   .text.main:00000826 .Loc.731
     /tmp/ccUMk0PR.s:2978   .text.main:00000826 .Loc.732
     /tmp/ccUMk0PR.s:2983   .text.main:0000082e .Loc.733
     /tmp/ccUMk0PR.s:2989   .text.main:00000838 .Loc.734
     /tmp/ccUMk0PR.s:2990   .text.main:00000838 .Loc.735
     /tmp/ccUMk0PR.s:2995   .text.main:00000844 .Loc.736
     /tmp/ccUMk0PR.s:2998   .text.main:00000846 .Loc.737
     /tmp/ccUMk0PR.s:3000   .text.main:00000846 .Loc.738
     /tmp/ccUMk0PR.s:3002   .text.main:0000084a .Loc.739
     /tmp/ccUMk0PR.s:3004   .text.main:0000084e L0
     /tmp/ccUMk0PR.s:3007   .text.main:00000850 .Loc.740
     /tmp/ccUMk0PR.s:3008   .text.main:00000850 .Loc.741
     /tmp/ccUMk0PR.s:3016   .text.main:00000860 L0
     /tmp/ccUMk0PR.s:3019   .text.main:00000862 .Loc.742
     /tmp/ccUMk0PR.s:3024   .text.main:0000086c L0
     /tmp/ccUMk0PR.s:3026   .text.main:0000086e .Loc.743
     /tmp/ccUMk0PR.s:3036   .text.main:0000087e .Loc.744
     /tmp/ccUMk0PR.s:3037   .text.main:0000087e .Loc.745
     /tmp/ccUMk0PR.s:3044   .text.main:0000088a .Loc.746
     /tmp/ccUMk0PR.s:3051   .text.main:00000894 .Loc.747
     /tmp/ccUMk0PR.s:3060   .text.main:000008a4 .Loc.748
     /tmp/ccUMk0PR.s:3061   .text.main:000008a4 .Loc.749
     /tmp/ccUMk0PR.s:3071   .text.main:000008b6 .Loc.750
     /tmp/ccUMk0PR.s:3072   .text.main:000008b6 .Loc.751
     /tmp/ccUMk0PR.s:3089   .text.main:000008d6 .Loc.752
     /tmp/ccUMk0PR.s:3090   .text.main:000008d6 .Loc.753
     /tmp/ccUMk0PR.s:3097   .text.main:000008e4 .Loc.754
     /tmp/ccUMk0PR.s:3099   .text.main:000008e8 L0
     /tmp/ccUMk0PR.s:3100   .text.main:000008ea L0
     /tmp/ccUMk0PR.s:3103   .text.main:000008ec .Loc.755
     /tmp/ccUMk0PR.s:3148   .text.main:00000946 .Loc.756
     /tmp/ccUMk0PR.s:3149   .text.main:00000946 .Loc.757
     /tmp/ccUMk0PR.s:3159   .text.main:00000956 .Loc.758
     /tmp/ccUMk0PR.s:3169   .text.main:00000966 .Loc.759
     /tmp/ccUMk0PR.s:3174   .text.main:0000096a .Loc.760
     /tmp/ccUMk0PR.s:3179   .text.main:00000972 .Loc.761
     /tmp/ccUMk0PR.s:3189   .text.main:0000097c L0
     /tmp/ccUMk0PR.s:3195   .text._Z23pcint1InterruptCallbackv:00000000 _Z23pcint1InterruptCallbackv
     /tmp/ccUMk0PR.s:3197   .text._Z23pcint1InterruptCallbackv:00000000 .Loc.762
     /tmp/ccUMk0PR.s:3198   .text._Z23pcint1InterruptCallbackv:00000000 L0
     /tmp/ccUMk0PR.s:3219   .text._Z23pcint1InterruptCallbackv:00000008 .Loc.763
     /tmp/ccUMk0PR.s:3223   .text._Z23pcint1InterruptCallbackv:00000008 .Loc.764
     /tmp/ccUMk0PR.s:3225   .text._Z23pcint1InterruptCallbackv:00000008 .Loc.765
     /tmp/ccUMk0PR.s:3226   .text._Z23pcint1InterruptCallbackv:00000008 .Loc.766
     /tmp/ccUMk0PR.s:3231   .text._Z23pcint1InterruptCallbackv:00000010 .Loc.767
     /tmp/ccUMk0PR.s:3233   .text._Z23pcint1InterruptCallbackv:00000012 .Loc.768
GAS LISTING /tmp/ccUMk0PR.s 			page 168


     /tmp/ccUMk0PR.s:3235   .text._Z23pcint1InterruptCallbackv:00000014 .Loc.769
     /tmp/ccUMk0PR.s:3238   .text._Z23pcint1InterruptCallbackv:00000018 .Loc.770
     /tmp/ccUMk0PR.s:3240   .text._Z23pcint1InterruptCallbackv:0000001a .Loc.771
     /tmp/ccUMk0PR.s:3248   .text._Z23pcint1InterruptCallbackv:00000024 .Loc.772
     /tmp/ccUMk0PR.s:3251   .text._Z23pcint1InterruptCallbackv:00000026 .Loc.773
     /tmp/ccUMk0PR.s:3254   .text._Z23pcint1InterruptCallbackv:00000026 .Loc.774
     /tmp/ccUMk0PR.s:3256   .text._Z23pcint1InterruptCallbackv:00000026 .Loc.775
     /tmp/ccUMk0PR.s:3258   .text._Z23pcint1InterruptCallbackv:00000028 .Loc.776
     /tmp/ccUMk0PR.s:3262   .text._Z23pcint1InterruptCallbackv:0000002a .Loc.777
     /tmp/ccUMk0PR.s:3263   .text._Z23pcint1InterruptCallbackv:0000002a .Loc.778
     /tmp/ccUMk0PR.s:3266   .text._Z23pcint1InterruptCallbackv:0000002e .Loc.779
     /tmp/ccUMk0PR.s:3277   .text._Z23pcint1InterruptCallbackv:00000042 .Loc.780
     /tmp/ccUMk0PR.s:3278   .text._Z23pcint1InterruptCallbackv:00000042 .Loc.781
     /tmp/ccUMk0PR.s:3282   .text._Z23pcint1InterruptCallbackv:00000048 .Loc.782
     /tmp/ccUMk0PR.s:3286   .text._Z23pcint1InterruptCallbackv:0000004a .Loc.783
     /tmp/ccUMk0PR.s:3289   .text._Z23pcint1InterruptCallbackv:0000004e .Loc.784
     /tmp/ccUMk0PR.s:3290   .text._Z23pcint1InterruptCallbackv:0000004e .Loc.785
     /tmp/ccUMk0PR.s:3292   .text._Z23pcint1InterruptCallbackv:00000052 .Loc.786
     /tmp/ccUMk0PR.s:3295   .text._Z23pcint1InterruptCallbackv:00000056 .Loc.787
     /tmp/ccUMk0PR.s:3306   .text._Z23pcint1InterruptCallbackv:00000066 .Loc.788
     /tmp/ccUMk0PR.s:3309   .text._Z23pcint1InterruptCallbackv:0000006a .Loc.789
     /tmp/ccUMk0PR.s:3310   .text._Z23pcint1InterruptCallbackv:0000006a .Loc.790
     /tmp/ccUMk0PR.s:3325   .text._Z23pcint1InterruptCallbackv:00000080 .Loc.791
     /tmp/ccUMk0PR.s:3330   .text._Z23pcint1InterruptCallbackv:00000086 .Loc.792
     /tmp/ccUMk0PR.s:3333   .text._Z23pcint1InterruptCallbackv:0000008a L0
     /tmp/ccUMk0PR.s:3339   .text._Z22timer0CompareACallbackv:00000000 _Z22timer0CompareACallbackv
     /tmp/ccUMk0PR.s:3341   .text._Z22timer0CompareACallbackv:00000000 .Loc.793
     /tmp/ccUMk0PR.s:3342   .text._Z22timer0CompareACallbackv:00000000 L0
     /tmp/ccUMk0PR.s:3347   .text._Z22timer0CompareACallbackv:00000000 .Loc.794
     /tmp/ccUMk0PR.s:3348   .text._Z22timer0CompareACallbackv:00000000 .Loc.795
     /tmp/ccUMk0PR.s:3349   .text._Z22timer0CompareACallbackv:00000000 .Loc.796
     /tmp/ccUMk0PR.s:3350   .text._Z22timer0CompareACallbackv:00000000 .Loc.797
     /tmp/ccUMk0PR.s:3351   .text._Z22timer0CompareACallbackv:00000000 .Loc.798
     /tmp/ccUMk0PR.s:3470   .bss._ZZ22timer0CompareACallbackvE11counter_spi:00000000 _ZZ22timer0CompareACallbackvE11counter_spi
     /tmp/ccUMk0PR.s:3356   .text._Z22timer0CompareACallbackv:0000000c .Loc.799
     /tmp/ccUMk0PR.s:3360   .text._Z22timer0CompareACallbackv:00000010 .Loc.800
     /tmp/ccUMk0PR.s:3361   .text._Z22timer0CompareACallbackv:00000010 .Loc.801
     /tmp/ccUMk0PR.s:3465   .bss._ZZ22timer0CompareACallbackvE15counter_display:00000000 _ZZ22timer0CompareACallbackvE15counter_display
     /tmp/ccUMk0PR.s:3366   .text._Z22timer0CompareACallbackv:0000001c .Loc.802
     /tmp/ccUMk0PR.s:3370   .text._Z22timer0CompareACallbackv:00000020 .Loc.803
     /tmp/ccUMk0PR.s:3371   .text._Z22timer0CompareACallbackv:00000020 .Loc.804
     /tmp/ccUMk0PR.s:3460   .bss._ZZ22timer0CompareACallbackvE21counter_clear_display:00000000 _ZZ22timer0CompareACallbackvE21counter_clear_display
     /tmp/ccUMk0PR.s:3376   .text._Z22timer0CompareACallbackv:0000002c .Loc.805
     /tmp/ccUMk0PR.s:3381   .text._Z22timer0CompareACallbackv:00000030 .Loc.806
     /tmp/ccUMk0PR.s:3384   .text._Z22timer0CompareACallbackv:00000032 .Loc.807
     /tmp/ccUMk0PR.s:3385   .text._Z22timer0CompareACallbackv:00000032 .Loc.808
     /tmp/ccUMk0PR.s:3387   .text._Z22timer0CompareACallbackv:00000036 .Loc.809
     /tmp/ccUMk0PR.s:3388   .text._Z22timer0CompareACallbackv:00000036 .Loc.810
     /tmp/ccUMk0PR.s:3392   .text._Z22timer0CompareACallbackv:0000003c .Loc.811
     /tmp/ccUMk0PR.s:3393   .text._Z22timer0CompareACallbackv:0000003c .Loc.812
     /tmp/ccUMk0PR.s:3396   .text._Z22timer0CompareACallbackv:00000042 .Loc.813
     /tmp/ccUMk0PR.s:3397   .text._Z22timer0CompareACallbackv:00000042 .Loc.814
     /tmp/ccUMk0PR.s:3401   .text._Z22timer0CompareACallbackv:00000048 .Loc.815
     /tmp/ccUMk0PR.s:3402   .text._Z22timer0CompareACallbackv:00000048 .Loc.816
     /tmp/ccUMk0PR.s:3552   .bss.clear_display_flag:00000000 clear_display_flag
     /tmp/ccUMk0PR.s:3405   .text._Z22timer0CompareACallbackv:0000004e .Loc.817
     /tmp/ccUMk0PR.s:3406   .text._Z22timer0CompareACallbackv:0000004e .Loc.818
GAS LISTING /tmp/ccUMk0PR.s 			page 169


     /tmp/ccUMk0PR.s:3408   .text._Z22timer0CompareACallbackv:00000052 .Loc.819
     /tmp/ccUMk0PR.s:3410   .text._Z22timer0CompareACallbackv:00000054 L0
     /tmp/ccUMk0PR.s:3415   .text._GLOBAL__sub_I_led:00000000 _GLOBAL__sub_I_led
     /tmp/ccUMk0PR.s:3417   .text._GLOBAL__sub_I_led:00000000 .Loc.820
     /tmp/ccUMk0PR.s:3418   .text._GLOBAL__sub_I_led:00000000 L0
     /tmp/ccUMk0PR.s:3423   .text._GLOBAL__sub_I_led:00000000 .Loc.821
     /tmp/ccUMk0PR.s:3428   .text._GLOBAL__sub_I_led:00000006 L0
     /tmp/ccUMk0PR.s:3437   .text._GLOBAL__sub_D_led:00000000 _GLOBAL__sub_D_led
     /tmp/ccUMk0PR.s:3439   .text._GLOBAL__sub_D_led:00000000 .Loc.822
     /tmp/ccUMk0PR.s:3440   .text._GLOBAL__sub_D_led:00000000 L0
     /tmp/ccUMk0PR.s:3445   .text._GLOBAL__sub_D_led:00000000 .Loc.823
     /tmp/ccUMk0PR.s:3450   .text._GLOBAL__sub_D_led:00000006 L0
     /tmp/ccUMk0PR.s:47     .text._Z41__static_initialization_and_destruction_0v:00000022 L0
     /tmp/ccUMk0PR.s:83     .text._Z41__static_initialization_and_destruction_1v:00000022 L0
     /tmp/ccUMk0PR.s:370    .text._Z10projectTanlllj:00000150 L0
     /tmp/ccUMk0PR.s:401    .text._Z13spi_writeReadh:0000000c L0
     /tmp/ccUMk0PR.s:575    .text._Z18transcieve_packetsPhS_j:00000074 L0
     /tmp/ccUMk0PR.s:673    .text._Z13format_packetjjhi7OP_MODEPh:0000003c L0
     /tmp/ccUMk0PR.s:938    .text._Z16convert_recievedPlS_S_PiP8BT_STATEPh:0000013a L0
     /tmp/ccUMk0PR.s:968    .text._Z22timer1OverflowCallbackv:00000028 L0
     /tmp/ccUMk0PR.s:1145   .text._Z6microsv:00000062 L0
     /tmp/ccUMk0PR.s:1323   .text._Z10get_millisv:00000068 L0
     /tmp/ccUMk0PR.s:3192   .text.main:0000097c L0
     /tmp/ccUMk0PR.s:3336   .text._Z23pcint1InterruptCallbackv:0000008a L0
     /tmp/ccUMk0PR.s:3413   .text._Z22timer0CompareACallbackv:00000054 L0
     /tmp/ccUMk0PR.s:3432   .text._GLOBAL__sub_I_led:00000006 L0
     /tmp/ccUMk0PR.s:3454   .text._GLOBAL__sub_D_led:00000006 L0
                     .debug_frame:00000000 L0
     /tmp/ccUMk0PR.s:196    .text._Z10projectTanlllj:0000005e .L8
     /tmp/ccUMk0PR.s:208    .text._Z10projectTanlllj:00000070 .L4
     /tmp/ccUMk0PR.s:223    .text._Z10projectTanlllj:00000084 .L11
     /tmp/ccUMk0PR.s:265    .text._Z10projectTanlllj:000000c6 .L12
     /tmp/ccUMk0PR.s:334    .text._Z10projectTanlllj:0000012e .L9
     /tmp/ccUMk0PR.s:339    .text._Z10projectTanlllj:00000132 .L3
     /tmp/ccUMk0PR.s:386    .text._Z13spi_writeReadh:00000002 .L13
     /tmp/ccUMk0PR.s:512    .text._Z18transcieve_packetsPhS_j:00000044 .L15
     /tmp/ccUMk0PR.s:494    .text._Z18transcieve_packetsPhS_j:00000030 .L16
     /tmp/ccUMk0PR.s:925    .text._Z16convert_recievedPlS_S_PiP8BT_STATEPh:0000012c .L18
     /tmp/ccUMk0PR.s:1109   .text._Z6microsv:00000040 .L23
     /tmp/ccUMk0PR.s:1283   .text._Z10get_millisv:00000040 .L28
     /tmp/ccUMk0PR.s:1297   .text._Z10get_millisv:00000046 .L13
     /tmp/ccUMk0PR.s:2046   .text.main:00000308 .L72
     /tmp/ccUMk0PR.s:1844   .text.main:000001e8 .L33
     /tmp/ccUMk0PR.s:1818   .text.main:000001c2 .L21
     /tmp/ccUMk0PR.s:1815   .text.main:000001be .L14
     /tmp/ccUMk0PR.s:1830   .text.main:000001d6 .L22
     /tmp/ccUMk0PR.s:1827   .text.main:000001d2 .L15
     /tmp/ccUMk0PR.s:2090   .text.main:0000032e .L32
     /tmp/ccUMk0PR.s:1919   .text.main:0000025e .L34
     /tmp/ccUMk0PR.s:1887   .text.main:0000022c .L23
     /tmp/ccUMk0PR.s:1884   .text.main:00000228 .L16
     /tmp/ccUMk0PR.s:1809   .text.main:000001b6 .L35
     /tmp/ccUMk0PR.s:1901   .text.main:00000240 .L24
     /tmp/ccUMk0PR.s:1898   .text.main:0000023c .L17
     /tmp/ccUMk0PR.s:1911   .text.main:00000250 .L25
     /tmp/ccUMk0PR.s:1908   .text.main:0000024c .L18
     /tmp/ccUMk0PR.s:1837   .text.main:000001e2 .L36
GAS LISTING /tmp/ccUMk0PR.s 			page 170


     /tmp/ccUMk0PR.s:1840   .text.main:000001e6 .L37
     /tmp/ccUMk0PR.s:2108   .text.main:00000342 .L39
     /tmp/ccUMk0PR.s:1982   .text.main:000002be .L43
     /tmp/ccUMk0PR.s:2130   .text.main:00000362 .L91
     /tmp/ccUMk0PR.s:2151   .text.main:00000380 .L92
     /tmp/ccUMk0PR.s:2971   .text.main:00000826 .L54
     /tmp/ccUMk0PR.s:2591   .text.main:000005fe .L55
     /tmp/ccUMk0PR.s:2698   .text.main:00000690 .L56
     /tmp/ccUMk0PR.s:2034   .text.main:00000304 .L58
     /tmp/ccUMk0PR.s:2777   .text.main:00000702 .L60
     /tmp/ccUMk0PR.s:2075   .text.main:00000320 .L26
     /tmp/ccUMk0PR.s:2072   .text.main:0000031c .L19
     /tmp/ccUMk0PR.s:1788   .text.main:000001a6 .L93
     /tmp/ccUMk0PR.s:1926   .text.main:00000266 .L94
     /tmp/ccUMk0PR.s:1968   .text.main:000002ac .L40
     /tmp/ccUMk0PR.s:1960   .text.main:000002a0 .L73
     /tmp/ccUMk0PR.s:1964   .text.main:000002a4 .L41
     /tmp/ccUMk0PR.s:2279   .text.main:0000043c .L74
     /tmp/ccUMk0PR.s:2285   .text.main:00000442 .L75
     /tmp/ccUMk0PR.s:2291   .text.main:00000448 .L76
     /tmp/ccUMk0PR.s:2295   .text.main:0000044e .L77
     /tmp/ccUMk0PR.s:2300   .text.main:00000454 .L78
     /tmp/ccUMk0PR.s:2364   .text.main:000004b0 .L79
     /tmp/ccUMk0PR.s:2303   .text.main:00000456 .L48
     /tmp/ccUMk0PR.s:2188   .text.main:000003ac .L46
     /tmp/ccUMk0PR.s:2206   .text.main:000003ce .L47
     /tmp/ccUMk0PR.s:2316   .text.main:00000464 .L49
     /tmp/ccUMk0PR.s:2369   .text.main:000004b4 .L80
     /tmp/ccUMk0PR.s:2434   .text.main:00000512 .L81
     /tmp/ccUMk0PR.s:2372   .text.main:000004b6 .L50
     /tmp/ccUMk0PR.s:2385   .text.main:000004c4 .L51
     /tmp/ccUMk0PR.s:2439   .text.main:00000516 .L82
     /tmp/ccUMk0PR.s:2586   .text.main:000005fa .L83
     /tmp/ccUMk0PR.s:2442   .text.main:00000518 .L52
     /tmp/ccUMk0PR.s:2455   .text.main:00000526 .L53
     /tmp/ccUMk0PR.s:1991   .text.main:000002c6 .L45
     /tmp/ccUMk0PR.s:2619   .text.main:0000061a .L70
     /tmp/ccUMk0PR.s:2636   .text.main:0000062e .L71
     /tmp/ccUMk0PR.s:2869   .text.main:00000794 .L95
     /tmp/ccUMk0PR.s:2939   .text.main:000007fe .L62
     /tmp/ccUMk0PR.s:2957   .text.main:00000816 .L63
     /tmp/ccUMk0PR.s:2805   .text.main:00000728 .L61
     /tmp/ccUMk0PR.s:2997   .text.main:00000846 .L65
     /tmp/ccUMk0PR.s:3158   .text.main:00000956 .L96
     /tmp/ccUMk0PR.s:3168   .text.main:00000966 .L84
     /tmp/ccUMk0PR.s:3173   .text.main:0000096a .L97
     /tmp/ccUMk0PR.s:3018   .text.main:00000862 .L67
     /tmp/ccUMk0PR.s:3035   .text.main:0000087e .L68
     /tmp/ccUMk0PR.s:3102   .text.main:000008ec .L69
     /tmp/ccUMk0PR.s:3245   .text._Z23pcint1InterruptCallbackv:00000020 .L27
     /tmp/ccUMk0PR.s:3242   .text._Z23pcint1InterruptCallbackv:0000001c .L110
     /tmp/ccUMk0PR.s:3285   .text._Z23pcint1InterruptCallbackv:0000004a .L99
     /tmp/ccUMk0PR.s:3322   .text._Z23pcint1InterruptCallbackv:00000080 .L103
     /tmp/ccUMk0PR.s:3303   .text._Z23pcint1InterruptCallbackv:00000062 .L28
     /tmp/ccUMk0PR.s:3300   .text._Z23pcint1InterruptCallbackv:0000005e .L111
     /tmp/ccUMk0PR.s:3261   .text._Z23pcint1InterruptCallbackv:0000002a .L104
     /tmp/ccUMk0PR.s:3281   .text._Z23pcint1InterruptCallbackv:00000048 .L101
GAS LISTING /tmp/ccUMk0PR.s 			page 171


     /tmp/ccUMk0PR.s:3383   .text._Z22timer0CompareACallbackv:00000032 .L109
     /tmp/ccUMk0PR.s:3391   .text._Z22timer0CompareACallbackv:0000003c .L110
     /tmp/ccUMk0PR.s:3400   .text._Z22timer0CompareACallbackv:00000048 .L111
     /tmp/ccUMk0PR.s:3359   .text._Z22timer0CompareACallbackv:00000010 .L106
     /tmp/ccUMk0PR.s:3369   .text._Z22timer0CompareACallbackv:00000020 .L107
     /tmp/ccUMk0PR.s:11791  .debug_abbrev:00000000 .Ldebug_abbrev0
     /tmp/ccUMk0PR.s:15764  .debug_ranges:00000000 .Ldebug_ranges0
     /tmp/ccUMk0PR.s:15804  .debug_line:00000000 .Ldebug_line0
     /tmp/ccUMk0PR.s:3438   .text._GLOBAL__sub_D_led:00000000 .LFB257
     /tmp/ccUMk0PR.s:3451   .text._GLOBAL__sub_D_led:00000006 .LFE257
     /tmp/ccUMk0PR.s:3447   .text._GLOBAL__sub_D_led:00000004 .LVL208
     /tmp/ccUMk0PR.s:3416   .text._GLOBAL__sub_I_led:00000000 .LFB256
     /tmp/ccUMk0PR.s:3429   .text._GLOBAL__sub_I_led:00000006 .LFE256
     /tmp/ccUMk0PR.s:3425   .text._GLOBAL__sub_I_led:00000004 .LVL207
     /tmp/ccUMk0PR.s:50     .text._Z41__static_initialization_and_destruction_1v:00000000 .LFB255
     /tmp/ccUMk0PR.s:81     .text._Z41__static_initialization_and_destruction_1v:00000022 .LFE255
     /tmp/ccUMk0PR.s:61     .text._Z41__static_initialization_and_destruction_1v:00000008 .LVL4
     /tmp/ccUMk0PR.s:66     .text._Z41__static_initialization_and_destruction_1v:00000010 .LVL5
     /tmp/ccUMk0PR.s:71     .text._Z41__static_initialization_and_destruction_1v:00000018 .LVL6
     /tmp/ccUMk0PR.s:76     .text._Z41__static_initialization_and_destruction_1v:00000020 .LVL7
     /tmp/ccUMk0PR.s:14     .text._Z41__static_initialization_and_destruction_0v:00000000 .LFB254
     /tmp/ccUMk0PR.s:45     .text._Z41__static_initialization_and_destruction_0v:00000022 .LFE254
     /tmp/ccUMk0PR.s:25     .text._Z41__static_initialization_and_destruction_0v:00000008 .LVL0
     /tmp/ccUMk0PR.s:30     .text._Z41__static_initialization_and_destruction_0v:00000010 .LVL1
     /tmp/ccUMk0PR.s:35     .text._Z41__static_initialization_and_destruction_0v:00000018 .LVL2
     /tmp/ccUMk0PR.s:40     .text._Z41__static_initialization_and_destruction_0v:00000020 .LVL3
     /tmp/ccUMk0PR.s:3340   .text._Z22timer0CompareACallbackv:00000000 .LFB253
     /tmp/ccUMk0PR.s:3411   .text._Z22timer0CompareACallbackv:00000054 .LFE253
     /tmp/ccUMk0PR.s:1149   .text._Z10get_millisv:00000000 .LFB252
     /tmp/ccUMk0PR.s:1321   .text._Z10get_millisv:00000068 .LFE252
     /tmp/ccUMk0PR.s:13718  .debug_loc:00000002 .LLST37
     /tmp/ccUMk0PR.s:13715  .debug_loc:00000000 .LVUS37
     /tmp/ccUMk0PR.s:13741  .debug_loc:00000024 .LLST38
     /tmp/ccUMk0PR.s:13736  .debug_loc:00000020 .LVUS38
     /tmp/ccUMk0PR.s:1173   .text._Z10get_millisv:00000012 .LBI153
     /tmp/ccUMk0PR.s:1172   .text._Z10get_millisv:00000012 .LBB153
     /tmp/ccUMk0PR.s:1220   .text._Z10get_millisv:00000020 .LBE153
     /tmp/ccUMk0PR.s:13767  .debug_loc:00000050 .LLST39
     /tmp/ccUMk0PR.s:13762  .debug_loc:0000004c .LVUS39
     /tmp/ccUMk0PR.s:1178   .text._Z10get_millisv:00000012 .LBB155
     /tmp/ccUMk0PR.s:1216   .text._Z10get_millisv:00000020 .LBE155
     /tmp/ccUMk0PR.s:13787  .debug_loc:00000076 .LLST40
     /tmp/ccUMk0PR.s:13784  .debug_loc:00000074 .LVUS40
     /tmp/ccUMk0PR.s:13799  .debug_loc:0000008d .LLST41
     /tmp/ccUMk0PR.s:13794  .debug_loc:00000089 .LVUS41
     /tmp/ccUMk0PR.s:1182   .text._Z10get_millisv:00000014 .LBI156
     /tmp/ccUMk0PR.s:1181   .text._Z10get_millisv:00000014 .LBB156
     /tmp/ccUMk0PR.s:1195   .text._Z10get_millisv:00000016 .LBE156
     /tmp/ccUMk0PR.s:1205   .text._Z10get_millisv:0000001e .LBI158
     /tmp/ccUMk0PR.s:1204   .text._Z10get_millisv:0000001e .LBB158
     /tmp/ccUMk0PR.s:1215   .text._Z10get_millisv:00000020 .LBE158
     /tmp/ccUMk0PR.s:13815  .debug_loc:000000af .LLST42
     /tmp/ccUMk0PR.s:13812  .debug_loc:000000ad .LVUS42
     /tmp/ccUMk0PR.s:1238   .text._Z10get_millisv:00000032 .LBI160
     /tmp/ccUMk0PR.s:1237   .text._Z10get_millisv:00000032 .LBB160
     /tmp/ccUMk0PR.s:1286   .text._Z10get_millisv:00000040 .LBE160
     /tmp/ccUMk0PR.s:13829  .debug_loc:000000cb .LLST43
GAS LISTING /tmp/ccUMk0PR.s 			page 172


     /tmp/ccUMk0PR.s:13824  .debug_loc:000000c7 .LVUS43
     /tmp/ccUMk0PR.s:1243   .text._Z10get_millisv:00000032 .LBB162
     /tmp/ccUMk0PR.s:1281   .text._Z10get_millisv:00000040 .LBE162
     /tmp/ccUMk0PR.s:13849  .debug_loc:000000f1 .LLST44
     /tmp/ccUMk0PR.s:13846  .debug_loc:000000ef .LVUS44
     /tmp/ccUMk0PR.s:13861  .debug_loc:00000108 .LLST45
     /tmp/ccUMk0PR.s:13856  .debug_loc:00000104 .LVUS45
     /tmp/ccUMk0PR.s:1247   .text._Z10get_millisv:00000034 .LBI163
     /tmp/ccUMk0PR.s:1246   .text._Z10get_millisv:00000034 .LBB163
     /tmp/ccUMk0PR.s:1260   .text._Z10get_millisv:00000036 .LBE163
     /tmp/ccUMk0PR.s:1270   .text._Z10get_millisv:0000003e .LBI165
     /tmp/ccUMk0PR.s:1269   .text._Z10get_millisv:0000003e .LBB165
     /tmp/ccUMk0PR.s:1280   .text._Z10get_millisv:00000040 .LBE165
     /tmp/ccUMk0PR.s:13877  .debug_loc:0000012a .LLST46
     /tmp/ccUMk0PR.s:13874  .debug_loc:00000128 .LVUS46
     /tmp/ccUMk0PR.s:972    .text._Z6microsv:00000000 .LFB251
     /tmp/ccUMk0PR.s:1143   .text._Z6microsv:00000062 .LFE251
     /tmp/ccUMk0PR.s:13889  .debug_loc:00000144 .LLST27
     /tmp/ccUMk0PR.s:13886  .debug_loc:00000142 .LVUS27
     /tmp/ccUMk0PR.s:13912  .debug_loc:00000166 .LLST28
     /tmp/ccUMk0PR.s:13907  .debug_loc:00000162 .LVUS28
     /tmp/ccUMk0PR.s:996    .text._Z6microsv:00000012 .LBI139
     /tmp/ccUMk0PR.s:995    .text._Z6microsv:00000012 .LBB139
     /tmp/ccUMk0PR.s:1045   .text._Z6microsv:00000020 .LBE139
     /tmp/ccUMk0PR.s:13938  .debug_loc:00000192 .LLST29
     /tmp/ccUMk0PR.s:13933  .debug_loc:0000018e .LVUS29
     /tmp/ccUMk0PR.s:1002   .text._Z6microsv:00000012 .LBB141
     /tmp/ccUMk0PR.s:1041   .text._Z6microsv:00000020 .LBE141
     /tmp/ccUMk0PR.s:13958  .debug_loc:000001b8 .LLST30
     /tmp/ccUMk0PR.s:13955  .debug_loc:000001b6 .LVUS30
     /tmp/ccUMk0PR.s:13970  .debug_loc:000001cf .LLST31
     /tmp/ccUMk0PR.s:13965  .debug_loc:000001cb .LVUS31
     /tmp/ccUMk0PR.s:1006   .text._Z6microsv:00000014 .LBI142
     /tmp/ccUMk0PR.s:1005   .text._Z6microsv:00000014 .LBB142
     /tmp/ccUMk0PR.s:1020   .text._Z6microsv:00000016 .LBE142
     /tmp/ccUMk0PR.s:1030   .text._Z6microsv:0000001e .LBI144
     /tmp/ccUMk0PR.s:1029   .text._Z6microsv:0000001e .LBB144
     /tmp/ccUMk0PR.s:1040   .text._Z6microsv:00000020 .LBE144
     /tmp/ccUMk0PR.s:13986  .debug_loc:000001f1 .LLST32
     /tmp/ccUMk0PR.s:13983  .debug_loc:000001ef .LVUS32
     /tmp/ccUMk0PR.s:1064   .text._Z6microsv:00000032 .LBI146
     /tmp/ccUMk0PR.s:1063   .text._Z6microsv:00000032 .LBB146
     /tmp/ccUMk0PR.s:1112   .text._Z6microsv:00000040 .LBE146
     /tmp/ccUMk0PR.s:14000  .debug_loc:0000020d .LLST33
     /tmp/ccUMk0PR.s:13995  .debug_loc:00000209 .LVUS33
     /tmp/ccUMk0PR.s:1069   .text._Z6microsv:00000032 .LBB148
     /tmp/ccUMk0PR.s:1107   .text._Z6microsv:00000040 .LBE148
     /tmp/ccUMk0PR.s:14020  .debug_loc:00000233 .LLST34
     /tmp/ccUMk0PR.s:14017  .debug_loc:00000231 .LVUS34
     /tmp/ccUMk0PR.s:14032  .debug_loc:0000024a .LLST35
     /tmp/ccUMk0PR.s:14027  .debug_loc:00000246 .LVUS35
     /tmp/ccUMk0PR.s:1073   .text._Z6microsv:00000034 .LBI149
     /tmp/ccUMk0PR.s:1072   .text._Z6microsv:00000034 .LBB149
     /tmp/ccUMk0PR.s:1086   .text._Z6microsv:00000036 .LBE149
     /tmp/ccUMk0PR.s:1096   .text._Z6microsv:0000003e .LBI151
     /tmp/ccUMk0PR.s:1095   .text._Z6microsv:0000003e .LBB151
     /tmp/ccUMk0PR.s:1106   .text._Z6microsv:00000040 .LBE151
GAS LISTING /tmp/ccUMk0PR.s 			page 173


     /tmp/ccUMk0PR.s:14048  .debug_loc:0000026c .LLST36
     /tmp/ccUMk0PR.s:14045  .debug_loc:0000026a .LVUS36
     /tmp/ccUMk0PR.s:942    .text._Z22timer1OverflowCallbackv:00000000 .LFB250
     /tmp/ccUMk0PR.s:966    .text._Z22timer1OverflowCallbackv:00000028 .LFE250
     /tmp/ccUMk0PR.s:3196   .text._Z23pcint1InterruptCallbackv:00000000 .LFB249
     /tmp/ccUMk0PR.s:3334   .text._Z23pcint1InterruptCallbackv:0000008a .LFE249
     /tmp/ccUMk0PR.s:14057  .debug_loc:00000284 .LLST66
     /tmp/ccUMk0PR.s:3255   .text._Z23pcint1InterruptCallbackv:00000026 .LBB218
     /tmp/ccUMk0PR.s:3324   .text._Z23pcint1InterruptCallbackv:00000080 .LBE218
     /tmp/ccUMk0PR.s:14095  .debug_loc:000002d1 .LLST67
     /tmp/ccUMk0PR.s:14090  .debug_loc:000002cd .LVUS67
     /tmp/ccUMk0PR.s:3265   .text._Z23pcint1InterruptCallbackv:0000002e .LVL204
     /tmp/ccUMk0PR.s:3222   .text._Z23pcint1InterruptCallbackv:00000008 .LBI216
     /tmp/ccUMk0PR.s:3221   .text._Z23pcint1InterruptCallbackv:00000008 .LBB216
     /tmp/ccUMk0PR.s:3253   .text._Z23pcint1InterruptCallbackv:00000026 .LBE216
     /tmp/ccUMk0PR.s:678    .text._Z16convert_recievedPlS_S_PiP8BT_STATEPh:00000000 .LFB248
     /tmp/ccUMk0PR.s:936    .text._Z16convert_recievedPlS_S_PiP8BT_STATEPh:0000013a .LFE248
     /tmp/ccUMk0PR.s:14107  .debug_loc:000002f0 .LLST21
     /tmp/ccUMk0PR.s:14159  .debug_loc:00000359 .LLST22
     /tmp/ccUMk0PR.s:14152  .debug_loc:00000353 .LVUS22
     /tmp/ccUMk0PR.s:14200  .debug_loc:0000039b .LLST23
     /tmp/ccUMk0PR.s:14193  .debug_loc:00000395 .LVUS23
     /tmp/ccUMk0PR.s:14238  .debug_loc:000003da .LLST24
     /tmp/ccUMk0PR.s:14231  .debug_loc:000003d4 .LVUS24
     /tmp/ccUMk0PR.s:14279  .debug_loc:0000041c .LLST25
     /tmp/ccUMk0PR.s:14272  .debug_loc:00000416 .LVUS25
     /tmp/ccUMk0PR.s:14317  .debug_loc:0000045b .LLST26
     /tmp/ccUMk0PR.s:14310  .debug_loc:00000455 .LVUS26
     /tmp/ccUMk0PR.s:580    .text._Z13format_packetjjhi7OP_MODEPh:00000000 .LFB247
     /tmp/ccUMk0PR.s:671    .text._Z13format_packetjjhi7OP_MODEPh:0000003c .LFE247
     /tmp/ccUMk0PR.s:14351  .debug_loc:00000497 .LLST16
     /tmp/ccUMk0PR.s:14383  .debug_loc:000004d7 .LLST17
     /tmp/ccUMk0PR.s:14378  .debug_loc:000004d3 .LVUS17
     /tmp/ccUMk0PR.s:14413  .debug_loc:00000507 .LLST18
     /tmp/ccUMk0PR.s:14408  .debug_loc:00000503 .LVUS18
     /tmp/ccUMk0PR.s:14438  .debug_loc:00000532 .LLST19
     /tmp/ccUMk0PR.s:14433  .debug_loc:0000052e .LVUS19
     /tmp/ccUMk0PR.s:14468  .debug_loc:00000562 .LLST20
     /tmp/ccUMk0PR.s:14463  .debug_loc:0000055e .LVUS20
     /tmp/ccUMk0PR.s:406    .text._Z18transcieve_packetsPhS_j:00000000 .LFB246
     /tmp/ccUMk0PR.s:573    .text._Z18transcieve_packetsPhS_j:00000074 .LFE246
     /tmp/ccUMk0PR.s:14489  .debug_loc:0000058a .LLST11
     /tmp/ccUMk0PR.s:14559  .debug_loc:0000061a .LLST12
     /tmp/ccUMk0PR.s:14552  .debug_loc:00000614 .LVUS12
     /tmp/ccUMk0PR.s:14600  .debug_loc:0000065c .LLST13
     /tmp/ccUMk0PR.s:14593  .debug_loc:00000656 .LVUS13
     /tmp/ccUMk0PR.s:14641  .debug_loc:0000069e .LLST14
     /tmp/ccUMk0PR.s:14634  .debug_loc:00000698 .LVUS14
     /tmp/ccUMk0PR.s:488    .text._Z18transcieve_packetsPhS_j:0000002c .LBB135
     /tmp/ccUMk0PR.s:521    .text._Z18transcieve_packetsPhS_j:0000004e .LBE135
     /tmp/ccUMk0PR.s:14680  .debug_loc:000006de .LLST15
     /tmp/ccUMk0PR.s:14675  .debug_loc:000006da .LVUS15
     /tmp/ccUMk0PR.s:506    .text._Z18transcieve_packetsPhS_j:00000040 .LVL39
     /tmp/ccUMk0PR.s:456    .text._Z18transcieve_packetsPhS_j:00000018 .LBI132
     /tmp/ccUMk0PR.s:455    .text._Z18transcieve_packetsPhS_j:00000018 .LBB132
     /tmp/ccUMk0PR.s:486    .text._Z18transcieve_packetsPhS_j:0000002c .LBE132
     /tmp/ccUMk0PR.s:461    .text._Z18transcieve_packetsPhS_j:00000018 .LBI133
GAS LISTING /tmp/ccUMk0PR.s 			page 174


     /tmp/ccUMk0PR.s:460    .text._Z18transcieve_packetsPhS_j:00000018 .LBB133
     /tmp/ccUMk0PR.s:483    .text._Z18transcieve_packetsPhS_j:0000002c .LBE133
     /tmp/ccUMk0PR.s:525    .text._Z18transcieve_packetsPhS_j:0000004e .LBI136
     /tmp/ccUMk0PR.s:524    .text._Z18transcieve_packetsPhS_j:0000004e .LBB136
     /tmp/ccUMk0PR.s:552    .text._Z18transcieve_packetsPhS_j:00000060 .LBE136
     /tmp/ccUMk0PR.s:529    .text._Z18transcieve_packetsPhS_j:0000004e .LBI137
     /tmp/ccUMk0PR.s:528    .text._Z18transcieve_packetsPhS_j:0000004e .LBB137
     /tmp/ccUMk0PR.s:548    .text._Z18transcieve_packetsPhS_j:00000060 .LBE137
     /tmp/ccUMk0PR.s:375    .text._Z13spi_writeReadh:00000000 .LFB245
     /tmp/ccUMk0PR.s:399    .text._Z13spi_writeReadh:0000000c .LFE245
     /tmp/ccUMk0PR.s:14697  .debug_loc:00000701 .LLST10
     /tmp/ccUMk0PR.s:14692  .debug_loc:000006fd .LVUS10
     /tmp/ccUMk0PR.s:88     .text._Z10projectTanlllj:00000000 .LFB244
     /tmp/ccUMk0PR.s:368    .text._Z10projectTanlllj:00000150 .LFE244
     /tmp/ccUMk0PR.s:14709  .debug_loc:00000720 .LLST0
     /tmp/ccUMk0PR.s:14807  .debug_loc:000007ef .LLST1
     /tmp/ccUMk0PR.s:14802  .debug_loc:000007eb .LVUS1
     /tmp/ccUMk0PR.s:14843  .debug_loc:00000825 .LLST2
     /tmp/ccUMk0PR.s:14838  .debug_loc:00000821 .LVUS2
     /tmp/ccUMk0PR.s:14881  .debug_loc:0000085d .LLST3
     /tmp/ccUMk0PR.s:14874  .debug_loc:00000857 .LVUS3
     /tmp/ccUMk0PR.s:14934  .debug_loc:000008ab .LLST4
     /tmp/ccUMk0PR.s:14927  .debug_loc:000008a5 .LVUS4
     /tmp/ccUMk0PR.s:14975  .debug_loc:000008ed .LLST5
     /tmp/ccUMk0PR.s:14968  .debug_loc:000008e7 .LVUS5
     /tmp/ccUMk0PR.s:15017  .debug_loc:00000931 .LLST6
     /tmp/ccUMk0PR.s:15014  .debug_loc:0000092f .LVUS6
     /tmp/ccUMk0PR.s:15038  .debug_loc:00000951 .LLST7
     /tmp/ccUMk0PR.s:15035  .debug_loc:0000094f .LVUS7
     /tmp/ccUMk0PR.s:15069  .debug_loc:0000097b .LLST8
     /tmp/ccUMk0PR.s:15056  .debug_loc:0000096f .LVUS8
     /tmp/ccUMk0PR.s:15180  .debug_loc:00000a20 .LLST9
     /tmp/ccUMk0PR.s:15169  .debug_loc:00000a16 .LVUS9
     /tmp/ccUMk0PR.s:214    .text._Z10projectTanlllj:00000078 .LVL14
     /tmp/ccUMk0PR.s:237    .text._Z10projectTanlllj:0000009e .LVL15
     /tmp/ccUMk0PR.s:255    .text._Z10projectTanlllj:000000ba .LVL17
     /tmp/ccUMk0PR.s:277    .text._Z10projectTanlllj:000000dc .LVL19
     /tmp/ccUMk0PR.s:1332   .text.main:00000000 .LFB243
     /tmp/ccUMk0PR.s:3190   .text.main:0000097c .LFE243
     /tmp/ccUMk0PR.s:15280  .debug_loc:00000ab8 .LLST47
     /tmp/ccUMk0PR.s:15310  .debug_loc:00000af0 .LLST48
     /tmp/ccUMk0PR.s:15299  .debug_loc:00000ae6 .LVUS48
     /tmp/ccUMk0PR.s:15365  .debug_loc:00000b4e .LLST49
     /tmp/ccUMk0PR.s:15358  .debug_loc:00000b48 .LVUS49
     /tmp/ccUMk0PR.s:15396  .debug_loc:00000b86 .LLST50
     /tmp/ccUMk0PR.s:15391  .debug_loc:00000b82 .LVUS50
     /tmp/ccUMk0PR.s:15413  .debug_loc:00000ba9 .LLST51
     /tmp/ccUMk0PR.s:15408  .debug_loc:00000ba5 .LVUS51
     /tmp/ccUMk0PR.s:15432  .debug_loc:00000bce .LLST52
     /tmp/ccUMk0PR.s:15425  .debug_loc:00000bc8 .LVUS52
     /tmp/ccUMk0PR.s:15457  .debug_loc:00000c00 .LLST53
     /tmp/ccUMk0PR.s:15448  .debug_loc:00000bf8 .LVUS53
     /tmp/ccUMk0PR.s:15489  .debug_loc:00000c40 .LLST54
     /tmp/ccUMk0PR.s:15478  .debug_loc:00000c36 .LVUS54
     /tmp/ccUMk0PR.s:15532  .debug_loc:00000c92 .LLST56
     /tmp/ccUMk0PR.s:15517  .debug_loc:00000c84 .LVUS56
     /tmp/ccUMk0PR.s:15568  .debug_loc:00000ceb .LLST57
GAS LISTING /tmp/ccUMk0PR.s 			page 175


     /tmp/ccUMk0PR.s:15563  .debug_loc:00000ce7 .LVUS57
     /tmp/ccUMk0PR.s:1791   .text.main:000001a6 .LBB193
     /tmp/ccUMk0PR.s:1929   .text.main:00000266 .LBE193
     /tmp/ccUMk0PR.s:15582  .debug_loc:00000d0b .LLST58
     /tmp/ccUMk0PR.s:15579  .debug_loc:00000d09 .LVUS58
     /tmp/ccUMk0PR.s:1803   .text.main:000001b2 .LBB194
     /tmp/ccUMk0PR.s:1928   .text.main:00000266 .LBE194
     /tmp/ccUMk0PR.s:15605  .debug_loc:00000d2d .LLST59
     /tmp/ccUMk0PR.s:15600  .debug_loc:00000d29 .LVUS59
     /tmp/ccUMk0PR.s:1798   .text.main:000001ae .LVL115
     /tmp/ccUMk0PR.s:2153   .text.main:00000380 .LBB196
     /tmp/ccUMk0PR.s:2593   .text.main:000005fe .LBE196
     /tmp/ccUMk0PR.s:15620  .debug_loc:00000d4e .LLST60
     /tmp/ccUMk0PR.s:15617  .debug_loc:00000d4c .LVUS60
     /tmp/ccUMk0PR.s:15630  .debug_loc:00000d63 .LLST61
     /tmp/ccUMk0PR.s:15627  .debug_loc:00000d61 .LVUS61
     /tmp/ccUMk0PR.s:15640  .debug_loc:00000d78 .LLST62
     /tmp/ccUMk0PR.s:15637  .debug_loc:00000d76 .LVUS62
     /tmp/ccUMk0PR.s:2184   .text.main:000003a8 .LBB197
     /tmp/ccUMk0PR.s:2189   .text.main:000003ac .LBE197
     /tmp/ccUMk0PR.s:2280   .text.main:0000043c .LBB199
     /tmp/ccUMk0PR.s:2286   .text.main:00000442 .LBE199
     /tmp/ccUMk0PR.s:2207   .text.main:000003ce .LBB198
     /tmp/ccUMk0PR.s:2210   .text.main:000003ce .LBE198
     /tmp/ccUMk0PR.s:2527   .text.main:0000059e .LBB200
     /tmp/ccUMk0PR.s:2530   .text.main:0000059e .LBE200
     /tmp/ccUMk0PR.s:2159   .text.main:00000388 .LVL131
     /tmp/ccUMk0PR.s:2167   .text.main:00000394 .LVL132
     /tmp/ccUMk0PR.s:2174   .text.main:0000039e .LVL133
     /tmp/ccUMk0PR.s:2228   .text.main:000003ec .LVL135
     /tmp/ccUMk0PR.s:2235   .text.main:000003f6 .LVL136
     /tmp/ccUMk0PR.s:2326   .text.main:00000476 .LVL142
     /tmp/ccUMk0PR.s:2395   .text.main:000004d6 .LVL148
     /tmp/ccUMk0PR.s:2465   .text.main:00000538 .LVL154
     /tmp/ccUMk0PR.s:2477   .text.main:0000054c .LVL155
     /tmp/ccUMk0PR.s:2485   .text.main:00000558 .LVL156
     /tmp/ccUMk0PR.s:2554   .text.main:000005cc .LVL157
     /tmp/ccUMk0PR.s:2562   .text.main:000005d8 .LVL158
     /tmp/ccUMk0PR.s:2569   .text.main:000005e2 .LVL159
     /tmp/ccUMk0PR.s:2575   .text.main:000005ea .LVL160
     /tmp/ccUMk0PR.s:2871   .text.main:00000794 .LBB205
     /tmp/ccUMk0PR.s:2973   .text.main:00000826 .LBE205
     /tmp/ccUMk0PR.s:15650  .debug_loc:00000d8d .LLST63
     /tmp/ccUMk0PR.s:15647  .debug_loc:00000d8b .LVUS63
     /tmp/ccUMk0PR.s:15671  .debug_loc:00000dad .LLST64
     /tmp/ccUMk0PR.s:15668  .debug_loc:00000dab .LVUS64
     /tmp/ccUMk0PR.s:2892   .text.main:000007b6 .LVL184
     /tmp/ccUMk0PR.s:2917   .text.main:000007e0 .LVL186
     /tmp/ccUMk0PR.s:3006   .text.main:00000850 .LBB208
     /tmp/ccUMk0PR.s:3184   .text.main:0000097c .LBE208
     /tmp/ccUMk0PR.s:15696  .debug_loc:00000dd1 .LLST65
     /tmp/ccUMk0PR.s:15689  .debug_loc:00000dcb .LVUS65
     /tmp/ccUMk0PR.s:3059   .text.main:000008a4 .LVL195
     /tmp/ccUMk0PR.s:3070   .text.main:000008b6 .LVL196
     /tmp/ccUMk0PR.s:3088   .text.main:000008d6 .LVL197
     /tmp/ccUMk0PR.s:3147   .text.main:00000946 .LVL198
     /tmp/ccUMk0PR.s:2051   .text.main:00000308 .LBI210
GAS LISTING /tmp/ccUMk0PR.s 			page 176


     /tmp/ccUMk0PR.s:2050   .text.main:00000308 .LBB210
     /tmp/ccUMk0PR.s:2082   .text.main:00000326 .LBE210
     /tmp/ccUMk0PR.s:1933   .text.main:0000026a .LVL120
     /tmp/ccUMk0PR.s:2134   .text.main:00000366 .LVL128
     /tmp/ccUMk0PR.s:2663   .text.main:00000658 .LVL166
     /tmp/ccUMk0PR.s:2674   .text.main:0000066a .LVL167
     /tmp/ccUMk0PR.s:2692   .text.main:0000068a .LVL168
     /tmp/ccUMk0PR.s:2740   .text.main:000006c8 .LVL173
     /tmp/ccUMk0PR.s:2751   .text.main:000006da .LVL174
     /tmp/ccUMk0PR.s:2769   .text.main:000006fa .LVL175
     /tmp/ccUMk0PR.s:2784   .text.main:00000706 .LVL177
     /tmp/ccUMk0PR.s:2834   .text.main:0000075c .LVL179
     /tmp/ccUMk0PR.s:2845   .text.main:0000076e .LVL180
     /tmp/ccUMk0PR.s:2863   .text.main:0000078e .LVL181
     /tmp/ccUMk0PR.s:1355   .text.main:00000012 .LBI167
     /tmp/ccUMk0PR.s:1354   .text.main:00000012 .LBB167
     /tmp/ccUMk0PR.s:1359   .text.main:00000012 .LBE167
     /tmp/ccUMk0PR.s:1369   .text.main:0000001e .LBI168
     /tmp/ccUMk0PR.s:1368   .text.main:0000001e .LBB168
     /tmp/ccUMk0PR.s:1372   .text.main:0000001e .LBE168
     /tmp/ccUMk0PR.s:1381   .text.main:00000028 .LBI169
     /tmp/ccUMk0PR.s:1380   .text.main:00000028 .LBB169
     /tmp/ccUMk0PR.s:1394   .text.main:0000002e .LBE169
     /tmp/ccUMk0PR.s:1397   .text.main:0000002e .LBI171
     /tmp/ccUMk0PR.s:1396   .text.main:0000002e .LBB171
     /tmp/ccUMk0PR.s:1412   .text.main:00000038 .LBE171
     /tmp/ccUMk0PR.s:1487   .text.main:00000090 .LBI173
     /tmp/ccUMk0PR.s:1486   .text.main:00000090 .LBB173
     /tmp/ccUMk0PR.s:1491   .text.main:00000090 .LBE173
     /tmp/ccUMk0PR.s:1501   .text.main:0000009c .LBI174
     /tmp/ccUMk0PR.s:1500   .text.main:0000009c .LBB174
     /tmp/ccUMk0PR.s:1512   .text.main:000000a0 .LBE174
     /tmp/ccUMk0PR.s:15714  .debug_loc:00000dfc .LLST55
     /tmp/ccUMk0PR.s:15711  .debug_loc:00000dfa .LVUS55
     /tmp/ccUMk0PR.s:1515   .text.main:000000a0 .LBI176
     /tmp/ccUMk0PR.s:1514   .text.main:000000a0 .LBB176
     /tmp/ccUMk0PR.s:1528   .text.main:000000a6 .LBE176
     /tmp/ccUMk0PR.s:1531   .text.main:000000a6 .LBI178
     /tmp/ccUMk0PR.s:1530   .text.main:000000a6 .LBB178
     /tmp/ccUMk0PR.s:1546   .text.main:000000b0 .LBE178
     /tmp/ccUMk0PR.s:1550   .text.main:000000b0 .LBI180
     /tmp/ccUMk0PR.s:1549   .text.main:000000b0 .LBB180
     /tmp/ccUMk0PR.s:1553   .text.main:000000b0 .LBE180
     /tmp/ccUMk0PR.s:1563   .text.main:000000bc .LBI181
     /tmp/ccUMk0PR.s:1562   .text.main:000000bc .LBB181
     /tmp/ccUMk0PR.s:1576   .text.main:000000c2 .LBE181
     /tmp/ccUMk0PR.s:1579   .text.main:000000c2 .LBI183
     /tmp/ccUMk0PR.s:1578   .text.main:000000c2 .LBB183
     /tmp/ccUMk0PR.s:1594   .text.main:000000cc .LBE183
     /tmp/ccUMk0PR.s:1621   .text.main:000000ee .LBI185
     /tmp/ccUMk0PR.s:1620   .text.main:000000ee .LBB185
     /tmp/ccUMk0PR.s:1635   .text.main:000000f8 .LBE185
     /tmp/ccUMk0PR.s:1639   .text.main:000000f8 .LBI187
     /tmp/ccUMk0PR.s:1638   .text.main:000000f8 .LBB187
     /tmp/ccUMk0PR.s:1650   .text.main:000000fe .LBE187
     /tmp/ccUMk0PR.s:1654   .text.main:000000fe .LBI189
     /tmp/ccUMk0PR.s:1653   .text.main:000000fe .LBB189
GAS LISTING /tmp/ccUMk0PR.s 			page 177


     /tmp/ccUMk0PR.s:1673   .text.main:00000112 .LBE189
     /tmp/ccUMk0PR.s:1366   .text.main:0000001e .LVL87
     /tmp/ccUMk0PR.s:1378   .text.main:00000028 .LVL88
     /tmp/ccUMk0PR.s:1423   .text.main:00000048 .LVL91
     /tmp/ccUMk0PR.s:1430   .text.main:00000052 .LVL92
     /tmp/ccUMk0PR.s:1439   .text.main:00000060 .LVL93
     /tmp/ccUMk0PR.s:1446   .text.main:0000006a .LVL94
     /tmp/ccUMk0PR.s:1498   .text.main:0000009c .LVL95
     /tmp/ccUMk0PR.s:1560   .text.main:000000bc .LVL99
     /tmp/ccUMk0PR.s:1601   .text.main:000000d4 .LVL102
     /tmp/ccUMk0PR.s:1611   .text.main:000000e4 .LVL103
     /tmp/ccUMk0PR.s:1618   .text.main:000000ee .LVL104
     /tmp/ccUMk0PR.s:1691   .text.main:00000126 .LVL107
     /tmp/ccUMk0PR.s:1703   .text.main:0000013a .LVL108
     /tmp/ccUMk0PR.s:1710   .text.main:00000144 .LVL109
     /tmp/ccUMk0PR.s:1716   .text.main:0000014c .LVL110
     /tmp/ccUMk0PR.s:1756   .text.main:00000178 .LVL113
     /tmp/ccUMk0PR.s:1170   .text._Z10get_millisv:00000012 .LVL75
     /tmp/ccUMk0PR.s:1303   .text._Z10get_millisv:00000050 .LVL85
     /tmp/ccUMk0PR.s:1212   .text._Z10get_millisv:00000020 .LVL79
     /tmp/ccUMk0PR.s:1266   .text._Z10get_millisv:0000003e .LVL83
     /tmp/ccUMk0PR.s:1277   .text._Z10get_millisv:00000040 .LVL84
     /tmp/ccUMk0PR.s:1310   .text._Z10get_millisv:0000005a .LVL86
     /tmp/ccUMk0PR.s:1202   .text._Z10get_millisv:0000001e .LVL78
     /tmp/ccUMk0PR.s:1180   .text._Z10get_millisv:00000014 .LVL76
     /tmp/ccUMk0PR.s:1191   .text._Z10get_millisv:00000016 .LVL77
     /tmp/ccUMk0PR.s:3601   .debug_info:00000000 .Ldebug_info0
     /tmp/ccUMk0PR.s:1235   .text._Z10get_millisv:00000032 .LVL80
     /tmp/ccUMk0PR.s:1245   .text._Z10get_millisv:00000034 .LVL81
     /tmp/ccUMk0PR.s:1256   .text._Z10get_millisv:00000036 .LVL82
     /tmp/ccUMk0PR.s:993    .text._Z6microsv:00000012 .LVL63
     /tmp/ccUMk0PR.s:1128   .text._Z6microsv:00000050 .LVL73
     /tmp/ccUMk0PR.s:1037   .text._Z6microsv:00000020 .LVL67
     /tmp/ccUMk0PR.s:1092   .text._Z6microsv:0000003e .LVL71
     /tmp/ccUMk0PR.s:1103   .text._Z6microsv:00000040 .LVL72
     /tmp/ccUMk0PR.s:1132   .text._Z6microsv:00000054 .LVL74
     /tmp/ccUMk0PR.s:1027   .text._Z6microsv:0000001e .LVL66
     /tmp/ccUMk0PR.s:1004   .text._Z6microsv:00000014 .LVL64
     /tmp/ccUMk0PR.s:1016   .text._Z6microsv:00000016 .LVL65
     /tmp/ccUMk0PR.s:1061   .text._Z6microsv:00000032 .LVL68
     /tmp/ccUMk0PR.s:1071   .text._Z6microsv:00000034 .LVL69
     /tmp/ccUMk0PR.s:1082   .text._Z6microsv:00000036 .LVL70
     /tmp/ccUMk0PR.s:3200   .text._Z23pcint1InterruptCallbackv:00000002 .LCFI34
     /tmp/ccUMk0PR.s:3204   .text._Z23pcint1InterruptCallbackv:00000004 .LCFI35
     /tmp/ccUMk0PR.s:3208   .text._Z23pcint1InterruptCallbackv:00000006 .LCFI36
     /tmp/ccUMk0PR.s:3212   .text._Z23pcint1InterruptCallbackv:00000008 .LCFI37
     /tmp/ccUMk0PR.s:3250   .text._Z23pcint1InterruptCallbackv:00000026 .LVL202
     /tmp/ccUMk0PR.s:3260   .text._Z23pcint1InterruptCallbackv:0000002a .LVL203
     /tmp/ccUMk0PR.s:3329   .text._Z23pcint1InterruptCallbackv:00000086 .LVL206
     /tmp/ccUMk0PR.s:683    .text._Z16convert_recievedPlS_S_PiP8BT_STATEPh:00000002 .LCFI26
     /tmp/ccUMk0PR.s:687    .text._Z16convert_recievedPlS_S_PiP8BT_STATEPh:00000004 .LCFI27
     /tmp/ccUMk0PR.s:691    .text._Z16convert_recievedPlS_S_PiP8BT_STATEPh:00000006 .LCFI28
     /tmp/ccUMk0PR.s:695    .text._Z16convert_recievedPlS_S_PiP8BT_STATEPh:00000008 .LCFI29
     /tmp/ccUMk0PR.s:699    .text._Z16convert_recievedPlS_S_PiP8BT_STATEPh:0000000a .LCFI30
     /tmp/ccUMk0PR.s:703    .text._Z16convert_recievedPlS_S_PiP8BT_STATEPh:0000000c .LCFI31
     /tmp/ccUMk0PR.s:677    .text._Z16convert_recievedPlS_S_PiP8BT_STATEPh:00000000 .LVL52
     /tmp/ccUMk0PR.s:715    .text._Z16convert_recievedPlS_S_PiP8BT_STATEPh:00000012 .LVL53
GAS LISTING /tmp/ccUMk0PR.s 			page 178


     /tmp/ccUMk0PR.s:899    .text._Z16convert_recievedPlS_S_PiP8BT_STATEPh:00000110 .LVL59
     /tmp/ccUMk0PR.s:791    .text._Z16convert_recievedPlS_S_PiP8BT_STATEPh:00000076 .LVL57
     /tmp/ccUMk0PR.s:841    .text._Z16convert_recievedPlS_S_PiP8BT_STATEPh:000000be .LVL58
     /tmp/ccUMk0PR.s:914    .text._Z16convert_recievedPlS_S_PiP8BT_STATEPh:00000122 .LVL60
     /tmp/ccUMk0PR.s:924    .text._Z16convert_recievedPlS_S_PiP8BT_STATEPh:0000012c .LVL62
     /tmp/ccUMk0PR.s:737    .text._Z16convert_recievedPlS_S_PiP8BT_STATEPh:0000002a .LVL55
     /tmp/ccUMk0PR.s:749    .text._Z16convert_recievedPlS_S_PiP8BT_STATEPh:0000003a .LVL56
     /tmp/ccUMk0PR.s:732    .text._Z16convert_recievedPlS_S_PiP8BT_STATEPh:00000024 .LVL54
     /tmp/ccUMk0PR.s:920    .text._Z16convert_recievedPlS_S_PiP8BT_STATEPh:00000128 .LVL61
     /tmp/ccUMk0PR.s:585    .text._Z13format_packetjjhi7OP_MODEPh:00000002 .LCFI23
     /tmp/ccUMk0PR.s:589    .text._Z13format_packetjjhi7OP_MODEPh:00000004 .LCFI24
     /tmp/ccUMk0PR.s:593    .text._Z13format_packetjjhi7OP_MODEPh:00000006 .LCFI25
     /tmp/ccUMk0PR.s:579    .text._Z13format_packetjjhi7OP_MODEPh:00000000 .LVL47
     /tmp/ccUMk0PR.s:625    .text._Z13format_packetjjhi7OP_MODEPh:0000001c .LVL48
     /tmp/ccUMk0PR.s:628    .text._Z13format_packetjjhi7OP_MODEPh:0000001e .LVL49
     /tmp/ccUMk0PR.s:663    .text._Z13format_packetjjhi7OP_MODEPh:00000036 .LVL50
     /tmp/ccUMk0PR.s:667    .text._Z13format_packetjjhi7OP_MODEPh:0000003a .LVL51
     /tmp/ccUMk0PR.s:411    .text._Z18transcieve_packetsPhS_j:00000002 .LCFI14
     /tmp/ccUMk0PR.s:415    .text._Z18transcieve_packetsPhS_j:00000004 .LCFI15
     /tmp/ccUMk0PR.s:419    .text._Z18transcieve_packetsPhS_j:00000006 .LCFI16
     /tmp/ccUMk0PR.s:423    .text._Z18transcieve_packetsPhS_j:00000008 .LCFI17
     /tmp/ccUMk0PR.s:427    .text._Z18transcieve_packetsPhS_j:0000000a .LCFI18
     /tmp/ccUMk0PR.s:431    .text._Z18transcieve_packetsPhS_j:0000000c .LCFI19
     /tmp/ccUMk0PR.s:435    .text._Z18transcieve_packetsPhS_j:0000000e .LCFI20
     /tmp/ccUMk0PR.s:439    .text._Z18transcieve_packetsPhS_j:00000010 .LCFI21
     /tmp/ccUMk0PR.s:443    .text._Z18transcieve_packetsPhS_j:00000012 .LCFI22
     /tmp/ccUMk0PR.s:405    .text._Z18transcieve_packetsPhS_j:00000000 .LVL34
     /tmp/ccUMk0PR.s:473    .text._Z18transcieve_packetsPhS_j:00000026 .LVL36
     /tmp/ccUMk0PR.s:569    .text._Z18transcieve_packetsPhS_j:00000072 .LVL46
     /tmp/ccUMk0PR.s:493    .text._Z18transcieve_packetsPhS_j:00000030 .LVL38
     /tmp/ccUMk0PR.s:565    .text._Z18transcieve_packetsPhS_j:0000006e .LVL45
     /tmp/ccUMk0PR.s:561    .text._Z18transcieve_packetsPhS_j:0000006a .LVL44
     /tmp/ccUMk0PR.s:480    .text._Z18transcieve_packetsPhS_j:0000002c .LVL37
     /tmp/ccUMk0PR.s:557    .text._Z18transcieve_packetsPhS_j:00000066 .LVL43
     /tmp/ccUMk0PR.s:374    .text._Z13spi_writeReadh:00000000 .LVL32
     /tmp/ccUMk0PR.s:394    .text._Z13spi_writeReadh:0000000a .LVL33
     /tmp/ccUMk0PR.s:93     .text._Z10projectTanlllj:00000002 .LCFI0
     /tmp/ccUMk0PR.s:97     .text._Z10projectTanlllj:00000004 .LCFI1
     /tmp/ccUMk0PR.s:101    .text._Z10projectTanlllj:00000006 .LCFI2
     /tmp/ccUMk0PR.s:105    .text._Z10projectTanlllj:00000008 .LCFI3
     /tmp/ccUMk0PR.s:109    .text._Z10projectTanlllj:0000000a .LCFI4
     /tmp/ccUMk0PR.s:113    .text._Z10projectTanlllj:0000000c .LCFI5
     /tmp/ccUMk0PR.s:117    .text._Z10projectTanlllj:0000000e .LCFI6
     /tmp/ccUMk0PR.s:121    .text._Z10projectTanlllj:00000010 .LCFI7
     /tmp/ccUMk0PR.s:125    .text._Z10projectTanlllj:00000012 .LCFI8
     /tmp/ccUMk0PR.s:129    .text._Z10projectTanlllj:00000014 .LCFI9
     /tmp/ccUMk0PR.s:133    .text._Z10projectTanlllj:00000016 .LCFI10
     /tmp/ccUMk0PR.s:137    .text._Z10projectTanlllj:00000018 .LCFI11
     /tmp/ccUMk0PR.s:141    .text._Z10projectTanlllj:0000001a .LCFI12
     /tmp/ccUMk0PR.s:145    .text._Z10projectTanlllj:0000001c .LCFI13
     /tmp/ccUMk0PR.s:87     .text._Z10projectTanlllj:00000000 .LVL8
     /tmp/ccUMk0PR.s:161    .text._Z10projectTanlllj:0000002a .LVL9
     /tmp/ccUMk0PR.s:348    .text._Z10projectTanlllj:0000013a .LVL28
     /tmp/ccUMk0PR.s:358    .text._Z10projectTanlllj:00000146 .LVL30
     /tmp/ccUMk0PR.s:165    .text._Z10projectTanlllj:0000002e .LVL10
     /tmp/ccUMk0PR.s:344    .text._Z10projectTanlllj:00000136 .LVL27
     /tmp/ccUMk0PR.s:192    .text._Z10projectTanlllj:0000005c .LVL11
GAS LISTING /tmp/ccUMk0PR.s 			page 179


     /tmp/ccUMk0PR.s:195    .text._Z10projectTanlllj:0000005e .LVL12
     /tmp/ccUMk0PR.s:261    .text._Z10projectTanlllj:000000c2 .LVL18
     /tmp/ccUMk0PR.s:249    .text._Z10projectTanlllj:000000b2 .LVL16
     /tmp/ccUMk0PR.s:364    .text._Z10projectTanlllj:0000014e .LVL31
     /tmp/ccUMk0PR.s:289    .text._Z10projectTanlllj:000000f0 .LVL20
     /tmp/ccUMk0PR.s:352    .text._Z10projectTanlllj:0000013e .LVL29
     /tmp/ccUMk0PR.s:306    .text._Z10projectTanlllj:0000010e .LVL21
     /tmp/ccUMk0PR.s:323    .text._Z10projectTanlllj:00000122 .LVL23
     /tmp/ccUMk0PR.s:330    .text._Z10projectTanlllj:0000012c .LVL24
     /tmp/ccUMk0PR.s:333    .text._Z10projectTanlllj:0000012e .LVL25
     /tmp/ccUMk0PR.s:338    .text._Z10projectTanlllj:00000132 .LVL26
     /tmp/ccUMk0PR.s:314    .text._Z10projectTanlllj:00000118 .LVL22
     /tmp/ccUMk0PR.s:1337   .text.main:00000004 .LCFI32
     /tmp/ccUMk0PR.s:1341   .text.main:00000008 .LCFI33
     /tmp/ccUMk0PR.s:1787   .text.main:000001a6 .LVL114
     /tmp/ccUMk0PR.s:1990   .text.main:000002c6 .LVL122
     /tmp/ccUMk0PR.s:2033   .text.main:00000304 .LVL123
     /tmp/ccUMk0PR.s:2213   .text.main:000003d0 .LVL134
     /tmp/ccUMk0PR.s:2278   .text.main:0000043c .LVL138
     /tmp/ccUMk0PR.s:2299   .text.main:00000454 .LVL139
     /tmp/ccUMk0PR.s:2804   .text.main:00000728 .LVL178
     /tmp/ccUMk0PR.s:2868   .text.main:00000794 .LVL182
     /tmp/ccUMk0PR.s:2966   .text.main:00000822 .LVL190
     /tmp/ccUMk0PR.s:2970   .text.main:00000826 .LVL191
     /tmp/ccUMk0PR.s:1740   .text.main:00000168 .LVL111
     /tmp/ccUMk0PR.s:1748   .text.main:00000170 .LVL112
     /tmp/ccUMk0PR.s:1925   .text.main:00000266 .LVL119
     /tmp/ccUMk0PR.s:2042   .text.main:00000308 .LVL124
     /tmp/ccUMk0PR.s:2096   .text.main:00000334 .LVL126
     /tmp/ccUMk0PR.s:2720   .text.main:000006a8 .LVL171
     /tmp/ccUMk0PR.s:2776   .text.main:00000702 .LVL176
     /tmp/ccUMk0PR.s:2138   .text.main:0000036c .LVL129
     /tmp/ccUMk0PR.s:2150   .text.main:00000380 .LVL130
     /tmp/ccUMk0PR.s:2079   .text.main:00000326 .LVL125
     /tmp/ccUMk0PR.s:2647   .text.main:0000063a .LVL165
     /tmp/ccUMk0PR.s:2697   .text.main:00000690 .LVL169
     /tmp/ccUMk0PR.s:2724   .text.main:000006aa .LVL172
     /tmp/ccUMk0PR.s:2875   .text.main:00000796 .LVL183
     /tmp/ccUMk0PR.s:3043   .text.main:0000088a .LVL193
     /tmp/ccUMk0PR.s:3157   .text.main:00000956 .LVL199
     /tmp/ccUMk0PR.s:3172   .text.main:0000096a .LVL200
     /tmp/ccUMk0PR.s:2101   .text.main:0000033a .LVL127
     /tmp/ccUMk0PR.s:1801   .text.main:000001b2 .LVL116
     /tmp/ccUMk0PR.s:1808   .text.main:000001b6 .LVL117
     /tmp/ccUMk0PR.s:2304   .text.main:00000456 .LVL140
     /tmp/ccUMk0PR.s:2315   .text.main:00000464 .LVL141
     /tmp/ccUMk0PR.s:2373   .text.main:000004b6 .LVL146
     /tmp/ccUMk0PR.s:2384   .text.main:000004c4 .LVL147
     /tmp/ccUMk0PR.s:2443   .text.main:00000518 .LVL152
     /tmp/ccUMk0PR.s:2454   .text.main:00000526 .LVL153
     /tmp/ccUMk0PR.s:2897   .text.main:000007bc .LVL185
     /tmp/ccUMk0PR.s:2938   .text.main:000007fe .LVL188
     /tmp/ccUMk0PR.s:2921   .text.main:000007e4 .LVL187
     /tmp/ccUMk0PR.s:2956   .text.main:00000816 .LVL189
     /tmp/ccUMk0PR.s:3034   .text.main:0000087e .LVL192
     /tmp/ccUMk0PR.s:3050   .text.main:00000894 .LVL194
     /tmp/ccUMk0PR.s:1509   .text.main:000000a0 .LVL96
GAS LISTING /tmp/ccUMk0PR.s 			page 180


     /tmp/ccUMk0PR.s:1789   .text.main:000001a6 .LBB191
     /tmp/ccUMk0PR.s:2044   .text.main:00000308 .LBE191
     /tmp/ccUMk0PR.s:2048   .text.main:00000308 .LBB215
     /tmp/ccUMk0PR.s:3188   .text.main:0000097c .LBE215

UNDEFINED SYMBOLS
_ZN7GpioPinC1Ev
_ZN7GpioBusC1Ev
_ZN7Ssd1306C1Ev
_ZN7Ssd1306D1Ev
_ZN7GpioPinD1Ev
_ZN7GpioBusD1Ev
_Z4sinil
_Z4cosil
__divmodsi4
__muluhisi3
_ZN6Pcint19_instanceE
_ZN6Pcint110setPinModeENS_3PinE7PinMode
_ZN6Pcint14initENS_3PinE
_ZN7GpioBus4initEPVh8PinIndexh
_ZN7GpioBus7setModeE7PinMode
_ZN7GpioPin4initEPVh8PinIndex
_ZN7GpioPin7setModeE7PinMode
_ZN6Timer09_instanceE
_ZN6Timer04initENS_4ModeENS_11ClockSourceE
_ZN6Timer19_instanceE
_ZN6Timer14initENS_4ModeENS_11ClockSourceE
usart0
_ZN6Usart04initEv
_ZN6Usart011setBaudRateENS_8BaudRateE
_ZN6Usart014setFrameFormatENS_11FrameFormatE
__iob
usartStream
twi
_ZN3Twi4initEmh
_ZN7Ssd13064initEP3BusNS_4SizeEhPh
_ZN7Ssd130613setUpsideDownEb
_ZN7Ssd130611clearScreenEv
puts
_ZN7Ssd13069setCursorEhh
_ZN7Ssd130611setTextSizeEh
sprintf_P
_ZN7Ssd13065printEPKc
_ZN7Ssd13068fillRectEhhhhb
_ZN7Ssd13069drawPixelEhhb
_ZN7Ssd13067displayEv
__divmodhi4
printf
__do_global_ctors
__do_global_dtors
__do_copy_data
__do_clear_bss
