GAS LISTING /tmp/ccOPlziU.s 			page 1


   1               		.file	"main.cpp"
   2               	__SP_H__ = 0x3e
   3               	__SP_L__ = 0x3d
   4               	__SREG__ = 0x3f
   5               	__tmp_reg__ = 0
   6               	__zero_reg__ = 1
   7               		.text
   8               	.Ltext0:
   9               		.cfi_sections	.debug_frame
  10               		.file 1 "main.cpp"
  11               		.section	.text._Z41__static_initialization_and_destruction_0v,"ax",@progbits
  13               	_Z41__static_initialization_and_destruction_0v:
  14               	.LFB235:
   1:main.cpp      **** #define F_CPU 16000000UL
   2:main.cpp      **** 
   3:main.cpp      **** #include "funsape/globalDefines.hpp"
   4:main.cpp      **** #include "funsape/peripheral/gpioPin.hpp"
   5:main.cpp      **** #include "funsape/peripheral/gpioBus.hpp"
   6:main.cpp      **** 
   7:main.cpp      **** #include "funsape/peripheral/timer1.hpp"
   8:main.cpp      **** #include "funsape/peripheral/timer0.hpp"
   9:main.cpp      **** #include "funsape/peripheral/pcint1.hpp"
  10:main.cpp      **** 
  11:main.cpp      **** #include "funsape/peripheral/usart0.hpp"
  12:main.cpp      **** 
  13:main.cpp      **** //Macro definitions ------------------------------------------------------------
  14:main.cpp      **** 
  15:main.cpp      **** #define defineBit(var, pos, value) ((uint8_t)((var & (1 << pos)) ? (var & (~((!((bool_t)value)) << 
  16:main.cpp      **** #define MSB(x) ((uint8_t)((x >> 8) & 0xFF))
  17:main.cpp      **** #define LSB(x) ((uint8_t)(x & 0xFF))
  18:main.cpp      **** #define ABS(x) ((x>0) ? (x) : (-x))
  19:main.cpp      **** #define ENABLE_BUTTON 1
  20:main.cpp      **** #define LEFT_BUTTON 4
  21:main.cpp      **** #define RIGHT_BUTTON 2
  22:main.cpp      **** 
  23:main.cpp      **** #define PACKET_SIZE 10
  24:main.cpp      **** 
  25:main.cpp      **** //Data structure declarations --------------------------------------------------
  26:main.cpp      **** 
  27:main.cpp      **** enum OP_MODE{
  28:main.cpp      ****   IDLE_MODE,
  29:main.cpp      ****   CURSOR_MODE,
  30:main.cpp      ****   SCROLL_MODE
  31:main.cpp      **** };
  32:main.cpp      **** 
  33:main.cpp      **** enum BT_STATE{
  34:main.cpp      ****     BT_CONNECTED,
  35:main.cpp      ****     BT_DISCONNECTED
  36:main.cpp      **** };
  37:main.cpp      **** 
  38:main.cpp      **** 
  39:main.cpp      **** //Function prototype definition ------------------------------------------------
  40:main.cpp      **** 
  41:main.cpp      **** uint32_t get_millis();
  42:main.cpp      **** uint8_t spi_writeRead(uint8_t data);
  43:main.cpp      **** void transcieve_packets(uint8_t *packet, uint8_t *recv_packet, size_t len);
  44:main.cpp      **** void format_packet(uint16_t x, uint16_t y, uint8_t buttons, int16_t scroll, OP_MODE mode, uint8_t *
GAS LISTING /tmp/ccOPlziU.s 			page 2


  45:main.cpp      **** void convert_recieved(int16_t *roll, int16_t *pitch, \
  46:main.cpp      ****      int16_t *yaw, BT_STATE *state, uint8_t *packet);
  47:main.cpp      **** 
  48:main.cpp      **** // GLOBAL VARIABLE DECLARATIONS ================================================
  49:main.cpp      **** 
  50:main.cpp      **** //GPIO Declarations ------------------------------------------------------------
  51:main.cpp      **** GpioPin led;
  52:main.cpp      **** GpioBus buttons;
  53:main.cpp      **** GpioPin slave_select_esp;
  54:main.cpp      **** 
  55:main.cpp      **** //Timer counter ----------------------------------------------------------------
  56:main.cpp      **** volatile uint32_t timer_millis = 0;
  57:main.cpp      **** 
  58:main.cpp      **** //Button and debounce variables ------------------------------------------------
  59:main.cpp      **** volatile bool_t button_pending_change = false;
  60:main.cpp      **** volatile uint32_t button_last_changed[3];
  61:main.cpp      **** volatile uint8_t debounced_buttons = 0;
  62:main.cpp      **** 
  63:main.cpp      **** //SPI variables ----------------------------------------------------------------
  64:main.cpp      **** volatile bool spi_flag = false;
  65:main.cpp      **** 
  66:main.cpp      **** //STATE
  67:main.cpp      **** OP_MODE current_state = IDLE_MODE;
  68:main.cpp      **** 
  69:main.cpp      **** int main(){
  70:main.cpp      ****     
  71:main.cpp      ****     // Config do Pcint1 --- Botões do mouse ------------------------------------
  72:main.cpp      ****     {
  73:main.cpp      ****     pcint1.setPinMode(Pcint1::Pin::PIN_PCINT8 | Pcint1::Pin::PIN_PCINT9 | Pcint1::Pin::PIN_PCINT10,
  74:main.cpp      ****     pcint1.init(Pcint1::Pin::PIN_PCINT8 | Pcint1::Pin::PIN_PCINT9 | Pcint1::Pin::PIN_PCINT10);
  75:main.cpp      ****     pcint1.clearInterruptRequest();
  76:main.cpp      ****     pcint1.activateInterrupt();
  77:main.cpp      ****     }
  78:main.cpp      **** 
  79:main.cpp      ****     // Configure GPIO --- Led / Botoẽs do mouse / SS esp -----------------------
  80:main.cpp      ****     {
  81:main.cpp      ****     // led.init(&PORTB, PinIndex::P5);
  82:main.cpp      ****     // led.setMode(PinMode::OUTPUT_PUSH_PULL);
  83:main.cpp      ****     
  84:main.cpp      ****     buttons.init(&PORTC, PinIndex::P0, 3);
  85:main.cpp      ****     buttons.setMode(PinMode::INPUT_PULLED_UP);
  86:main.cpp      **** 
  87:main.cpp      ****     slave_select_esp.init(&PORTB, PinIndex::P1);
  88:main.cpp      ****     slave_select_esp.setMode(PinMode::OUTPUT_PUSH_PULL);
  89:main.cpp      ****     }
  90:main.cpp      **** 
  91:main.cpp      ****     // Config SPI --- Comm com ESP ---------------------------------------------
  92:main.cpp      ****     {
  93:main.cpp      ****     //SS, MISO, MOSI, SCK
  94:main.cpp      ****     clrBit(PRR, PRSPI);
  95:main.cpp      **** 
  96:main.cpp      ****     setBit(DDRB, (uint8_t)PinIndex::P2); // SS
  97:main.cpp      ****     setBit(DDRB, (uint8_t)PinIndex::P3); // MOSI
  98:main.cpp      ****     clrBit(DDRB, (uint8_t)PinIndex::P4); // MISO
  99:main.cpp      ****     setBit(DDRB, (uint8_t)PinIndex::P5); // SCK
 100:main.cpp      **** 
 101:main.cpp      **** 
GAS LISTING /tmp/ccOPlziU.s 			page 3


 102:main.cpp      ****     // setBit(SPCR, 6); //BIT 6 SPE - SPI Enable
 103:main.cpp      ****     // clrBit(SPCR, 5); //BIT 5 DORD - Data order, 0 - MSB
 104:main.cpp      ****     // setBit(SPCR, 4); //BIT 4 MSTR - Set master
 105:main.cpp      ****     // clrBit(SPCR, 3); //BIT 3 CPOL - Clock Polarity, mode 0 - 0
 106:main.cpp      ****     // clrBit(SPCR, 2); //BIT 2 CPHA - Clock Phase, mode 0 - 0
 107:main.cpp      **** 
 108:main.cpp      ****     // clrBit(SPCR, SPR1); //BIT 1 SPR1 - Clock prescaler - Prescaler 16
 109:main.cpp      ****     // setBit(SPCR, SPR0); //BIT 0 SPR2 - Clock prescaler - Prescaler 16
 110:main.cpp      ****     SPCR = 0b1010001;
 111:main.cpp      ****     }
 112:main.cpp      **** 
 113:main.cpp      ****     // Config Timer 0 --- 1ms --------------------------------------------------
 114:main.cpp      ****     {
 115:main.cpp      ****     timer0.init(Timer0::Mode::CTC_OCRA, //Colocamos quantos ciclos pra chegar na interrupção
 116:main.cpp      ****             Timer0::ClockSource::PRESCALER_64);//Velocidade que e dividida a cpu
 117:main.cpp      ****     timer0.setCompareAValue(249); //Fala quantos ticks precisam para chegar a 10ms
 118:main.cpp      ****     timer0.clearCompareAInterruptRequest(); //Limpar o pre interrupt
 119:main.cpp      ****     timer0.activateCompareAInterrupt();
 120:main.cpp      ****     }
 121:main.cpp      **** 
 122:main.cpp      ****     // Config Timer 1 --- 5ms -------------------------------------------------
 123:main.cpp      ****     {
 124:main.cpp      ****     timer1.init(Timer1::Mode::CTC_OCRA, //Colocamos quantos ciclos pra chegar na interrupção
 125:main.cpp      ****             Timer1::ClockSource::PRESCALER_64);//Velocidade que e dividida a cpu
 126:main.cpp      ****     timer1.setCompareAValue(1250*4); // 50ms
 127:main.cpp      ****     timer1.clearCompareAInterruptRequest(); //Limpar o pre interrupt
 128:main.cpp      ****     timer1.activateCompareAInterrupt();
 129:main.cpp      ****     }
 130:main.cpp      ****     
 131:main.cpp      ****     // Config Uart --- Debug ---------------------------------------------------
 132:main.cpp      ****     {
 133:main.cpp      ****     usart0.init();
 134:main.cpp      ****     usart0.setBaudRate(Usart0::BaudRate::BAUD_RATE_9600);
 135:main.cpp      ****     usart0.setFrameFormat(Usart0::FrameFormat::FRAME_FORMAT_8_E_1);
 136:main.cpp      ****     usart0.enableTransmitter();
 137:main.cpp      ****     usart0.enableReceiver();
 138:main.cpp      ****     usart0.stdio();
 139:main.cpp      ****     }
 140:main.cpp      ****     
 141:main.cpp      ****     // Set enable interrupts ---------------------------------------------------
 142:main.cpp      ****     sei();
 143:main.cpp      **** 
 144:main.cpp      ****     // Local variable declarations ---------------------------------------------
 145:main.cpp      ****     uint16_t x {0}, y {32000};
 146:main.cpp      ****     uint8_t packet[10];
 147:main.cpp      ****     uint8_t recv_packet[10];
 148:main.cpp      ****     int16_t pitch {0}, roll {0}, yaw {0};
 149:main.cpp      ****     BT_STATE state = BT_DISCONNECTED;
 150:main.cpp      ****     uint8_t last_debounced_buttons = 0;
 151:main.cpp      **** 
 152:main.cpp      ****     uint8_t scroll_count = 0;
 153:main.cpp      **** 
 154:main.cpp      ****     printf("Inicializando Atmega\n");
 155:main.cpp      **** 
 156:main.cpp      ****     while (true){
 157:main.cpp      ****         uint8_t button_data = buttons.read();
 158:main.cpp      ****         if(button_pending_change){
GAS LISTING /tmp/ccOPlziU.s 			page 4


 159:main.cpp      ****             button_pending_change = false;
 160:main.cpp      ****             
 161:main.cpp      ****             uint32_t current_milis = get_millis();
 162:main.cpp      ****             for(uint8_t i = 0; i < 3; i++)
 163:main.cpp      ****                 if((current_milis - button_last_changed[i]) > 25){
 164:main.cpp      ****                     debounced_buttons = defineBit(debounced_buttons, i, !(bool)(button_data & (1 <<
 165:main.cpp      ****                 }else{
 166:main.cpp      ****                     button_pending_change = true;
 167:main.cpp      ****                 }
 168:main.cpp      ****         }
 169:main.cpp      **** 
 170:main.cpp      ****         if(((debounced_buttons ^ last_debounced_buttons) & ENABLE_BUTTON) && (debounced_buttons & E
 171:main.cpp      ****             current_state = (current_state == IDLE_MODE) ? SCROLL_MODE : IDLE_MODE;
 172:main.cpp      ****         }
 173:main.cpp      **** 
 174:main.cpp      ****         switch (current_state){
 175:main.cpp      ****             case IDLE_MODE:
 176:main.cpp      **** 
 177:main.cpp      ****                 break;
 178:main.cpp      ****             case CURSOR_MODE:
 179:main.cpp      ****                 x = (yaw+450)*36;
 180:main.cpp      ****                 y = (-roll-1700)*82;
 181:main.cpp      **** 
 182:main.cpp      ****                 if(spi_flag){
 183:main.cpp      ****                         format_packet(x, y, debounced_buttons, 0, current_state, packet);
 184:main.cpp      ****                         transcieve_packets(packet, recv_packet, PACKET_SIZE);
 185:main.cpp      ****                         convert_recieved(&roll, &pitch, &yaw, &state, recv_packet);
 186:main.cpp      ****                         spi_flag = false;
 187:main.cpp      ****             
 188:main.cpp      ****                         // printf("State: %u  Pitch: %i.%u  Roll: %i.%u  Yaw: %i.%u SENDING: X: %u 
 189:main.cpp      ****                         // printf("Buttons: %u %u %u\r\n", (bool_t)(debounced_buttons&(1<<0)), (boo
 190:main.cpp      ****                 }
 191:main.cpp      ****                     
 192:main.cpp      ****                 break;
 193:main.cpp      ****             case SCROLL_MODE:
 194:main.cpp      ****                 if(spi_flag){
 195:main.cpp      ****                     scroll_count++;
 196:main.cpp      ****                     // printf("Scroll count: %u\r\n", scroll_count);
 197:main.cpp      ****                     if(scroll_count >= 10){
 198:main.cpp      ****                         scroll_count = 0;
 199:main.cpp      ****                         int16_t scroll = (-roll-1700)/20;
 200:main.cpp      **** 
 201:main.cpp      ****                         format_packet(0, 0, debounced_buttons, scroll, current_state, packet);
 202:main.cpp      ****                         transcieve_packets(packet, recv_packet, PACKET_SIZE);
 203:main.cpp      ****                         convert_recieved(&roll, &pitch, &yaw, &state, recv_packet);
 204:main.cpp      ****                         spi_flag = false;
 205:main.cpp      ****             
 206:main.cpp      ****                         printf("State: %u  Pitch: %i.%u  Roll: %i.%u  Yaw: %i.%u SENDING: SCROLL: %
 207:main.cpp      ****                         // printf("Buttons: %u %u %u\r\n", (bool_t)(debounced_buttons&(1<<0)), (boo
 208:main.cpp      ****                     }
 209:main.cpp      ****                 }
 210:main.cpp      **** 
 211:main.cpp      ****                 break;
 212:main.cpp      ****             default:
 213:main.cpp      ****                 ;
 214:main.cpp      ****             }
 215:main.cpp      ****             
GAS LISTING /tmp/ccOPlziU.s 			page 5


 216:main.cpp      ****     
 217:main.cpp      ****             last_debounced_buttons = debounced_buttons;
 218:main.cpp      ****     }
 219:main.cpp      **** }
 220:main.cpp      **** 
 221:main.cpp      **** uint8_t spi_writeRead(uint8_t data){
 222:main.cpp      ****     SPDR = data;
 223:main.cpp      ****     while(!(SPSR & (1<<SPIF)));
 224:main.cpp      **** 
 225:main.cpp      ****     return SPDR;
 226:main.cpp      **** }
 227:main.cpp      **** 
 228:main.cpp      **** void transcieve_packets(uint8_t *packet, uint8_t *recv_packet, size_t len) {
 229:main.cpp      ****   // take the SS pin low to select the chip:
 230:main.cpp      ****   slave_select_esp.low();
 231:main.cpp      **** //   delayMs(1);
 232:main.cpp      ****   // send in the address and value via SPI:
 233:main.cpp      ****   
 234:main.cpp      ****   for(uint8_t i = 0; i < len; i++){
 235:main.cpp      ****     recv_packet[i] = spi_writeRead(packet[i]);
 236:main.cpp      ****   }
 237:main.cpp      **** 
 238:main.cpp      **** //   delayMs(1);
 239:main.cpp      ****   // take the SS pin high to de-select the chip:
 240:main.cpp      ****   slave_select_esp.high();
 241:main.cpp      **** }
 242:main.cpp      **** 
 243:main.cpp      **** void format_packet(uint16_t x, uint16_t y, uint8_t buttons, int16_t scroll, OP_MODE mode, uint8_t *
 244:main.cpp      ****   packet[0] = 0x67;
 245:main.cpp      ****   packet[1] = (uint8_t)mode;
 246:main.cpp      ****   packet[2] = MSB(x);
 247:main.cpp      ****   packet[3] = LSB(x);
 248:main.cpp      ****   packet[4] = MSB(y);
 249:main.cpp      ****   packet[5] = LSB(y);
 250:main.cpp      ****   packet[6] = ((bool_t)(buttons & LEFT_BUTTON)) + (((bool_t)(buttons & RIGHT_BUTTON)) << 1);
 251:main.cpp      ****   packet[7] = (scroll >> 8) & 0xFF;
 252:main.cpp      ****   packet[8] = scroll & 0xFF;
 253:main.cpp      ****   packet[9] = 0;
 254:main.cpp      **** }
 255:main.cpp      **** 
 256:main.cpp      **** void convert_recieved(int16_t *roll, int16_t *pitch, int16_t *yaw, BT_STATE *state, uint8_t *packet
 257:main.cpp      ****   if(packet[3] != 0x68) return;
 258:main.cpp      **** 
 259:main.cpp      ****   *state = (BT_STATE)packet[0];
 260:main.cpp      ****   *pitch = (packet[1] << 8) + packet[2];
 261:main.cpp      ****   *roll = (packet[4] << 8) + packet[5];
 262:main.cpp      ****   *yaw = (packet[6] << 8) + packet[7];
 263:main.cpp      **** }
 264:main.cpp      **** 
 265:main.cpp      **** uint32_t get_millis() {
 266:main.cpp      ****     uint32_t m;
 267:main.cpp      ****     cli(); // Desativa interrupções temporariamente para leitura atômica
 268:main.cpp      ****     m = timer_millis;
 269:main.cpp      ****     sei(); // Reativa interrupções
 270:main.cpp      ****     return m;
 271:main.cpp      **** }
 272:main.cpp      **** 
GAS LISTING /tmp/ccOPlziU.s 			page 6


 273:main.cpp      **** void pcint1InterruptCallback(void){
 274:main.cpp      ****     uint8_t button_data = buttons.read();
 275:main.cpp      ****     for(uint8_t i = 0; i < 3; i++){
 276:main.cpp      ****         if((button_data & (1 << i)) != (debounced_buttons & (1 << i))){
 277:main.cpp      ****             button_last_changed[i] = get_millis();
 278:main.cpp      ****             button_pending_change = true;
 279:main.cpp      ****         }else
 280:main.cpp      ****             button_last_changed[i] = 0;
 281:main.cpp      ****     }
 282:main.cpp      **** 
 283:main.cpp      **** }
 284:main.cpp      **** 
 285:main.cpp      **** void timer1CompareACallback(void){
 286:main.cpp      ****     //A cada 50ms
 287:main.cpp      ****     spi_flag = true;    
 288:main.cpp      ****     
 289:main.cpp      **** }
 290:main.cpp      **** 
 291:main.cpp      **** void timer0CompareACallback(void){
 292:main.cpp      ****     //A cada 1 ms
 293:main.cpp      ****     timer_millis++;
 294:main.cpp      **** }...
  15               		.loc 1 294 1 view -0
  16               		.cfi_startproc
  17               	/* prologue: function */
  18               	/* frame size = 0 */
  19               	/* stack size = 0 */
  20               	.L__stack_usage = 0
  51:main.cpp      **** GpioPin led;
  21               		.loc 1 51 9 is_stmt 0 view .LVU1
  22 0000 80E0      		ldi r24,lo8(led)
  23 0002 90E0      		ldi r25,hi8(led)
  24 0004 0E94 0000 		call _ZN7GpioPinC1Ev
  25               	.LVL0:
  52:main.cpp      **** GpioBus buttons;
  26               		.loc 1 52 9 view .LVU2
  27 0008 80E0      		ldi r24,lo8(buttons)
  28 000a 90E0      		ldi r25,hi8(buttons)
  29 000c 0E94 0000 		call _ZN7GpioBusC1Ev
  30               	.LVL1:
  53:main.cpp      **** GpioPin slave_select_esp;
  31               		.loc 1 53 9 view .LVU3
  32 0010 80E0      		ldi r24,lo8(slave_select_esp)
  33 0012 90E0      		ldi r25,hi8(slave_select_esp)
  34 0014 0E94 0000 		call _ZN7GpioPinC1Ev
  35               	.LVL2:
  36               	/* epilogue start */
  37               		.loc 1 294 1 view .LVU4
  38 0018 0895      		ret
  39               		.cfi_endproc
  40               	.LFE235:
  42               		.section	.text._Z41__static_initialization_and_destruction_1v,"ax",@progbits
  44               	_Z41__static_initialization_and_destruction_1v:
  45               	.LFB236:
  46               		.loc 1 294 1 is_stmt 1 view -0
  47               		.cfi_startproc
  48               	/* prologue: function */
GAS LISTING /tmp/ccOPlziU.s 			page 7


  49               	/* frame size = 0 */
  50               	/* stack size = 0 */
  51               	.L__stack_usage = 0
  53:main.cpp      **** GpioPin slave_select_esp;
  52               		.loc 1 53 9 is_stmt 0 view .LVU6
  53 0000 80E0      		ldi r24,lo8(slave_select_esp)
  54 0002 90E0      		ldi r25,hi8(slave_select_esp)
  55 0004 0E94 0000 		call _ZN7GpioPinD1Ev
  56               	.LVL3:
  52:main.cpp      **** GpioBus buttons;
  57               		.loc 1 52 9 view .LVU7
  58 0008 80E0      		ldi r24,lo8(buttons)
  59 000a 90E0      		ldi r25,hi8(buttons)
  60 000c 0E94 0000 		call _ZN7GpioBusD1Ev
  61               	.LVL4:
  51:main.cpp      **** GpioPin led;
  62               		.loc 1 51 9 view .LVU8
  63 0010 80E0      		ldi r24,lo8(led)
  64 0012 90E0      		ldi r25,hi8(led)
  65 0014 0E94 0000 		call _ZN7GpioPinD1Ev
  66               	.LVL5:
  67               	/* epilogue start */
  68               		.loc 1 294 1 view .LVU9
  69 0018 0895      		ret
  70               		.cfi_endproc
  71               	.LFE236:
  73               		.section	.text._Z13spi_writeReadh,"ax",@progbits
  74               	.global	_Z13spi_writeReadh
  76               	_Z13spi_writeReadh:
  77               	.LVL6:
  78               	.LFB227:
 221:main.cpp      **** uint8_t spi_writeRead(uint8_t data){
  79               		.loc 1 221 36 is_stmt 1 view -0
  80               		.cfi_startproc
  81               	/* prologue: function */
  82               	/* frame size = 0 */
  83               	/* stack size = 0 */
  84               	.L__stack_usage = 0
 222:main.cpp      ****     SPDR = data;
  85               		.loc 1 222 5 view .LVU11
 222:main.cpp      ****     SPDR = data;
  86               		.loc 1 222 10 is_stmt 0 view .LVU12
  87 0000 8EBD      		out 0x2e,r24
 223:main.cpp      ****     while(!(SPSR & (1<<SPIF)));
  88               		.loc 1 223 5 is_stmt 1 view .LVU13
  89               	.L4:
 223:main.cpp      ****     while(!(SPSR & (1<<SPIF)));
  90               		.loc 1 223 11 discriminator 1 view .LVU14
  91 0002 0DB4      		in __tmp_reg__,0x2d
  92 0004 07FE      		sbrs __tmp_reg__,7
  93 0006 00C0      		rjmp .L4
 225:main.cpp      ****     return SPDR;
  94               		.loc 1 225 5 view .LVU15
 226:main.cpp      **** }
  95               		.loc 1 226 1 is_stmt 0 view .LVU16
  96 0008 8EB5      		in r24,0x2e
  97               	.LVL7:
GAS LISTING /tmp/ccOPlziU.s 			page 8


  98               	/* epilogue start */
 226:main.cpp      **** }
  99               		.loc 1 226 1 view .LVU17
 100 000a 0895      		ret
 101               		.cfi_endproc
 102               	.LFE227:
 104               		.section	.text._Z18transcieve_packetsPhS_j,"ax",@progbits
 105               	.global	_Z18transcieve_packetsPhS_j
 107               	_Z18transcieve_packetsPhS_j:
 108               	.LVL8:
 109               	.LFB228:
 228:main.cpp      **** void transcieve_packets(uint8_t *packet, uint8_t *recv_packet, size_t len) {
 110               		.loc 1 228 76 is_stmt 1 view -0
 111               		.cfi_startproc
 228:main.cpp      **** void transcieve_packets(uint8_t *packet, uint8_t *recv_packet, size_t len) {
 112               		.loc 1 228 76 is_stmt 0 view .LVU19
 113 0000 AF92      		push r10
 114               	.LCFI0:
 115               		.cfi_def_cfa_offset 3
 116               		.cfi_offset 10, -2
 117 0002 BF92      		push r11
 118               	.LCFI1:
 119               		.cfi_def_cfa_offset 4
 120               		.cfi_offset 11, -3
 121 0004 CF92      		push r12
 122               	.LCFI2:
 123               		.cfi_def_cfa_offset 5
 124               		.cfi_offset 12, -4
 125 0006 DF92      		push r13
 126               	.LCFI3:
 127               		.cfi_def_cfa_offset 6
 128               		.cfi_offset 13, -5
 129 0008 EF92      		push r14
 130               	.LCFI4:
 131               		.cfi_def_cfa_offset 7
 132               		.cfi_offset 14, -6
 133 000a FF92      		push r15
 134               	.LCFI5:
 135               		.cfi_def_cfa_offset 8
 136               		.cfi_offset 15, -7
 137 000c 1F93      		push r17
 138               	.LCFI6:
 139               		.cfi_def_cfa_offset 9
 140               		.cfi_offset 17, -8
 141 000e CF93      		push r28
 142               	.LCFI7:
 143               		.cfi_def_cfa_offset 10
 144               		.cfi_offset 28, -9
 145 0010 DF93      		push r29
 146               	.LCFI8:
 147               		.cfi_def_cfa_offset 11
 148               		.cfi_offset 29, -10
 149               	/* prologue: function */
 150               	/* frame size = 0 */
 151               	/* stack size = 9 */
 152               	.L__stack_usage = 9
 153 0012 5C01      		movw r10,r24
GAS LISTING /tmp/ccOPlziU.s 			page 9


 154 0014 6B01      		movw r12,r22
 155 0016 7A01      		movw r14,r20
 230:main.cpp      ****   slave_select_esp.low();
 156               		.loc 1 230 3 is_stmt 1 view .LVU20
 157               	.LVL9:
 158               	.LBB94:
 159               	.LBI94:
 160               		.file 2 "funsape/peripheral/gpioPin.hpp"
   1:funsape/peripheral/gpioPin.hpp **** //!
   2:funsape/peripheral/gpioPin.hpp **** //! ****************************************************************************
   3:funsape/peripheral/gpioPin.hpp **** //! @file           gpioPin.hpp
   4:funsape/peripheral/gpioPin.hpp **** //! @author         Leandro Schwarz (bladabuska+funsapeavr8lib@gmail.com)
   5:funsape/peripheral/gpioPin.hpp **** //! @brief          GPIO single pin peripheral control.
   6:funsape/peripheral/gpioPin.hpp **** //! @details        This file provides driver interface with the GPIO module to
   7:funsape/peripheral/gpioPin.hpp **** //!                     single pin peripheral control for the FunSAPE++ AVR8
   8:funsape/peripheral/gpioPin.hpp **** //!                     Library.
   9:funsape/peripheral/gpioPin.hpp **** //! @date           2026-04-01
  10:funsape/peripheral/gpioPin.hpp **** //! @version        26.04
  11:funsape/peripheral/gpioPin.hpp **** //! @copyright      MIT License
  12:funsape/peripheral/gpioPin.hpp **** //! @note           No notes at this time.
  13:funsape/peripheral/gpioPin.hpp **** //! @todo           No items in todo list yet.
  14:funsape/peripheral/gpioPin.hpp **** //! @warning        When the user calls GpioPin::clr(), GpioPin::cpl(),
  15:funsape/peripheral/gpioPin.hpp **** //!                     GpioPin::set(), GpioPin::low(), GpioPin::high() or
  16:funsape/peripheral/gpioPin.hpp **** //!                     GpioPin::toggle() and the pin is in
  17:funsape/peripheral/gpioPin.hpp **** //!                     PinMode::INPUT_FLOATING mode or in
  18:funsape/peripheral/gpioPin.hpp **** //!                     PinMode::INPUT_PULLED_UP mode, the mode is changed which
  19:funsape/peripheral/gpioPin.hpp **** //!                     could lead to some undefined behavior.
  20:funsape/peripheral/gpioPin.hpp **** //! ****************************************************************************
  21:funsape/peripheral/gpioPin.hpp **** //! @attention
  22:funsape/peripheral/gpioPin.hpp **** //!
  23:funsape/peripheral/gpioPin.hpp **** //! MIT License
  24:funsape/peripheral/gpioPin.hpp **** //!
  25:funsape/peripheral/gpioPin.hpp **** //! Copyright (c) 2026 Leandro Schwarz
  26:funsape/peripheral/gpioPin.hpp **** //!
  27:funsape/peripheral/gpioPin.hpp **** //! Permission is hereby granted, free of charge, to any person obtaining a copy
  28:funsape/peripheral/gpioPin.hpp **** //!     of this software and associated documentation files (the "Software"), to
  29:funsape/peripheral/gpioPin.hpp **** //!     deal in the Software without restriction, including without limitation
  30:funsape/peripheral/gpioPin.hpp **** //!     the rights to use, copy, modify, merge, publish, distribute, sublicense,
  31:funsape/peripheral/gpioPin.hpp **** //!     and/or sell copies of the Software, and to permit persons to whom the
  32:funsape/peripheral/gpioPin.hpp **** //!     Software is furnished to do so, subject to the following conditions:
  33:funsape/peripheral/gpioPin.hpp **** //!
  34:funsape/peripheral/gpioPin.hpp **** //! The above copyright notice and this permission notice shall be included in
  35:funsape/peripheral/gpioPin.hpp **** //!     all copies or substantial portions of the Software.
  36:funsape/peripheral/gpioPin.hpp **** //!
  37:funsape/peripheral/gpioPin.hpp **** //! THE SOFTWARE IS PROVIDED "AS IS", WITHOUT WARRANTY OF ANY KIND, EXPRESS OR
  38:funsape/peripheral/gpioPin.hpp **** //!     IMPLIED, INCLUDING BUT NOT LIMITED TO THE WARRANTIES OF MERCHANTABILITY,
  39:funsape/peripheral/gpioPin.hpp **** //!     FITNESS FOR A PARTICULAR PURPOSE AND NONINFRINGEMENT. IN NO EVENT SHALL
  40:funsape/peripheral/gpioPin.hpp **** //!     THE AUTHORS OR COPYRIGHT HOLDERS BE LIABLE FOR ANY CLAIM, DAMAGES OR
  41:funsape/peripheral/gpioPin.hpp **** //!     OTHER LIABILITY, WHETHER IN AN ACTION OF CONTRACT, TORT OR OTHERWISE,
  42:funsape/peripheral/gpioPin.hpp **** //!     ARISING FROM, OUT OF OR IN CONNECTION WITH THE SOFTWARE OR THE USE OR
  43:funsape/peripheral/gpioPin.hpp **** //!     OTHER DEALINGS IN THE SOFTWARE.
  44:funsape/peripheral/gpioPin.hpp **** //!
  45:funsape/peripheral/gpioPin.hpp **** //! ****************************************************************************
  46:funsape/peripheral/gpioPin.hpp **** //!
  47:funsape/peripheral/gpioPin.hpp **** 
  48:funsape/peripheral/gpioPin.hpp **** // =============================================================================
  49:funsape/peripheral/gpioPin.hpp **** // Include guard (START)
GAS LISTING /tmp/ccOPlziU.s 			page 10


  50:funsape/peripheral/gpioPin.hpp **** // =============================================================================
  51:funsape/peripheral/gpioPin.hpp **** 
  52:funsape/peripheral/gpioPin.hpp **** #ifndef __GPIO_PIN_HPP
  53:funsape/peripheral/gpioPin.hpp **** #define __GPIO_PIN_HPP                  2604
  54:funsape/peripheral/gpioPin.hpp **** 
  55:funsape/peripheral/gpioPin.hpp **** // =============================================================================
  56:funsape/peripheral/gpioPin.hpp **** // Dependencies
  57:funsape/peripheral/gpioPin.hpp **** // =============================================================================
  58:funsape/peripheral/gpioPin.hpp **** 
  59:funsape/peripheral/gpioPin.hpp **** //     /////////////////     GLOBAL DEFINITIONS FILE    /////////////////     //
  60:funsape/peripheral/gpioPin.hpp **** 
  61:funsape/peripheral/gpioPin.hpp **** #include "../globalDefines.hpp"
  62:funsape/peripheral/gpioPin.hpp **** #if !defined(__GLOBAL_DEFINES_HPP)
  63:funsape/peripheral/gpioPin.hpp **** #   error [gpioPin.hpp] Error 1 - Header file (globalDefines.hpp) is missing or corrupted!
  64:funsape/peripheral/gpioPin.hpp **** #elif __GLOBAL_DEFINES_HPP != __GPIO_PIN_HPP
  65:funsape/peripheral/gpioPin.hpp **** #   error [gpioPin.hpp] Error 2 - Build mismatch between file (gpioPin.hpp) and global definitions 
  66:funsape/peripheral/gpioPin.hpp **** #endif
  67:funsape/peripheral/gpioPin.hpp **** 
  68:funsape/peripheral/gpioPin.hpp **** //     //////////////////     LIBRARY DEPENDENCIES     //////////////////     //
  69:funsape/peripheral/gpioPin.hpp **** 
  70:funsape/peripheral/gpioPin.hpp **** #include "../util/debug.hpp"
  71:funsape/peripheral/gpioPin.hpp **** #if !defined(__DEBUG_HPP)
  72:funsape/peripheral/gpioPin.hpp **** #   error [gpioPin.hpp] Error 1 - Header file (debug.hpp) is missing or corrupted!
  73:funsape/peripheral/gpioPin.hpp **** #elif __DEBUG_HPP != __GPIO_PIN_HPP
  74:funsape/peripheral/gpioPin.hpp **** #   error [gpioPin.hpp] Error 5 - Build mismatch between file (gpioPin.hpp) and library dependency 
  75:funsape/peripheral/gpioPin.hpp **** #endif
  76:funsape/peripheral/gpioPin.hpp **** 
  77:funsape/peripheral/gpioPin.hpp **** //     ///////////////////     STANDARD C LIBRARY     ///////////////////     //
  78:funsape/peripheral/gpioPin.hpp **** 
  79:funsape/peripheral/gpioPin.hpp **** // NONE
  80:funsape/peripheral/gpioPin.hpp **** 
  81:funsape/peripheral/gpioPin.hpp **** //     ////////////////////    AVR LIBRARY FILES     ////////////////////     //
  82:funsape/peripheral/gpioPin.hpp **** 
  83:funsape/peripheral/gpioPin.hpp **** // NONE
  84:funsape/peripheral/gpioPin.hpp **** 
  85:funsape/peripheral/gpioPin.hpp **** // +++++++++++++++++++++++++++++++++++++++++++++++++++++++++++++++++++++++++++++
  86:funsape/peripheral/gpioPin.hpp **** // Doxygen: Start main group "Peripherals"
  87:funsape/peripheral/gpioPin.hpp **** // +++++++++++++++++++++++++++++++++++++++++++++++++++++++++++++++++++++++++++++
  88:funsape/peripheral/gpioPin.hpp **** 
  89:funsape/peripheral/gpioPin.hpp **** //!
  90:funsape/peripheral/gpioPin.hpp **** //! @addtogroup     Peripherals
  91:funsape/peripheral/gpioPin.hpp **** //! @brief          Microcontroller peripherals.
  92:funsape/peripheral/gpioPin.hpp **** //! @{
  93:funsape/peripheral/gpioPin.hpp **** //!
  94:funsape/peripheral/gpioPin.hpp **** 
  95:funsape/peripheral/gpioPin.hpp **** // +++++++++++++++++++++++++++++++++++++++++++++++++++++++++++++++++++++++++++++
  96:funsape/peripheral/gpioPin.hpp **** // Doxygen: Start subgroup "Gpio" in "Peripherals"
  97:funsape/peripheral/gpioPin.hpp **** // +++++++++++++++++++++++++++++++++++++++++++++++++++++++++++++++++++++++++++++
  98:funsape/peripheral/gpioPin.hpp **** 
  99:funsape/peripheral/gpioPin.hpp **** //!
 100:funsape/peripheral/gpioPin.hpp **** //! @addtogroup     Gpio
 101:funsape/peripheral/gpioPin.hpp **** //! @brief          General Purpose Input/Output (GPIO) controller module.
 102:funsape/peripheral/gpioPin.hpp **** //! @{
 103:funsape/peripheral/gpioPin.hpp **** //!
 104:funsape/peripheral/gpioPin.hpp **** 
 105:funsape/peripheral/gpioPin.hpp **** // =============================================================================
 106:funsape/peripheral/gpioPin.hpp **** // Undefining previous definitions
GAS LISTING /tmp/ccOPlziU.s 			page 11


 107:funsape/peripheral/gpioPin.hpp **** // =============================================================================
 108:funsape/peripheral/gpioPin.hpp **** 
 109:funsape/peripheral/gpioPin.hpp **** // NONE
 110:funsape/peripheral/gpioPin.hpp **** 
 111:funsape/peripheral/gpioPin.hpp **** // =============================================================================
 112:funsape/peripheral/gpioPin.hpp **** // Constant definitions
 113:funsape/peripheral/gpioPin.hpp **** // =============================================================================
 114:funsape/peripheral/gpioPin.hpp **** 
 115:funsape/peripheral/gpioPin.hpp **** // NONE
 116:funsape/peripheral/gpioPin.hpp **** 
 117:funsape/peripheral/gpioPin.hpp **** // =============================================================================
 118:funsape/peripheral/gpioPin.hpp **** // New data types
 119:funsape/peripheral/gpioPin.hpp **** // =============================================================================
 120:funsape/peripheral/gpioPin.hpp **** 
 121:funsape/peripheral/gpioPin.hpp **** // NONE
 122:funsape/peripheral/gpioPin.hpp **** 
 123:funsape/peripheral/gpioPin.hpp **** // =============================================================================
 124:funsape/peripheral/gpioPin.hpp **** // Interrupt callback functions declarations
 125:funsape/peripheral/gpioPin.hpp **** // =============================================================================
 126:funsape/peripheral/gpioPin.hpp **** 
 127:funsape/peripheral/gpioPin.hpp **** // NONE
 128:funsape/peripheral/gpioPin.hpp **** 
 129:funsape/peripheral/gpioPin.hpp **** // =============================================================================
 130:funsape/peripheral/gpioPin.hpp **** // Public functions declarations
 131:funsape/peripheral/gpioPin.hpp **** // =============================================================================
 132:funsape/peripheral/gpioPin.hpp **** 
 133:funsape/peripheral/gpioPin.hpp **** // NONE
 134:funsape/peripheral/gpioPin.hpp **** 
 135:funsape/peripheral/gpioPin.hpp **** // =============================================================================
 136:funsape/peripheral/gpioPin.hpp **** // Classes
 137:funsape/peripheral/gpioPin.hpp **** // =============================================================================
 138:funsape/peripheral/gpioPin.hpp **** 
 139:funsape/peripheral/gpioPin.hpp **** //!
 140:funsape/peripheral/gpioPin.hpp **** //! @brief          GpioPin class
 141:funsape/peripheral/gpioPin.hpp **** //! @details        This class manages the General Purpose Input-Output (GPIO)
 142:funsape/peripheral/gpioPin.hpp **** //!                     peripheral in single pin mode.
 143:funsape/peripheral/gpioPin.hpp **** //! @attention      This class is not instantiated by default. The user may
 144:funsape/peripheral/gpioPin.hpp **** //!                     create as many instances as necessary.
 145:funsape/peripheral/gpioPin.hpp **** //!
 146:funsape/peripheral/gpioPin.hpp **** class GpioPin
 147:funsape/peripheral/gpioPin.hpp **** {
 148:funsape/peripheral/gpioPin.hpp ****     // -------------------------------------------------------------------------
 149:funsape/peripheral/gpioPin.hpp ****     // New data types ----------------------------------------------------------
 150:funsape/peripheral/gpioPin.hpp **** 
 151:funsape/peripheral/gpioPin.hpp **** public:
 152:funsape/peripheral/gpioPin.hpp ****     // NONE
 153:funsape/peripheral/gpioPin.hpp **** 
 154:funsape/peripheral/gpioPin.hpp **** private:
 155:funsape/peripheral/gpioPin.hpp ****     // NONE
 156:funsape/peripheral/gpioPin.hpp **** 
 157:funsape/peripheral/gpioPin.hpp **** protected:
 158:funsape/peripheral/gpioPin.hpp ****     // NONE
 159:funsape/peripheral/gpioPin.hpp **** 
 160:funsape/peripheral/gpioPin.hpp **** // -------------------------------------------------------------------------
 161:funsape/peripheral/gpioPin.hpp **** // Constructors ------------------------------------------------------------
 162:funsape/peripheral/gpioPin.hpp **** 
 163:funsape/peripheral/gpioPin.hpp **** public:
GAS LISTING /tmp/ccOPlziU.s 			page 12


 164:funsape/peripheral/gpioPin.hpp ****     //!
 165:funsape/peripheral/gpioPin.hpp ****     //! @brief      GpioPin class constructor.
 166:funsape/peripheral/gpioPin.hpp ****     //! @details    Creates a GpioPin object. The object must be initialized
 167:funsape/peripheral/gpioPin.hpp ****     //!                 before use.
 168:funsape/peripheral/gpioPin.hpp ****     //! @see        init(ioRegAddress_t gpioPort_p, PinIndex gpioPinIndex_p).
 169:funsape/peripheral/gpioPin.hpp ****     //! @par Error codes:
 170:funsape/peripheral/gpioPin.hpp ****     //!
 171:funsape/peripheral/gpioPin.hpp ****     //! | Error code       | Meaning                          |
 172:funsape/peripheral/gpioPin.hpp ****     //! |: ----------------|: --------------------------------|
 173:funsape/peripheral/gpioPin.hpp ****     //! | @ref Error::NONE | Success. No erros were detected. |
 174:funsape/peripheral/gpioPin.hpp ****     //!
 175:funsape/peripheral/gpioPin.hpp ****     GpioPin(
 176:funsape/peripheral/gpioPin.hpp ****             void
 177:funsape/peripheral/gpioPin.hpp ****     );
 178:funsape/peripheral/gpioPin.hpp **** 
 179:funsape/peripheral/gpioPin.hpp ****     //!
 180:funsape/peripheral/gpioPin.hpp ****     //! @brief      GpioPin class destructor.
 181:funsape/peripheral/gpioPin.hpp ****     //! @details    Destroys a GpioPin object.
 182:funsape/peripheral/gpioPin.hpp ****     //!
 183:funsape/peripheral/gpioPin.hpp ****     ~GpioPin(
 184:funsape/peripheral/gpioPin.hpp ****             void
 185:funsape/peripheral/gpioPin.hpp ****     );
 186:funsape/peripheral/gpioPin.hpp **** 
 187:funsape/peripheral/gpioPin.hpp **** private:
 188:funsape/peripheral/gpioPin.hpp ****     // NONE
 189:funsape/peripheral/gpioPin.hpp **** 
 190:funsape/peripheral/gpioPin.hpp **** protected:
 191:funsape/peripheral/gpioPin.hpp ****     // NONE
 192:funsape/peripheral/gpioPin.hpp **** 
 193:funsape/peripheral/gpioPin.hpp ****     // -------------------------------------------------------------------------
 194:funsape/peripheral/gpioPin.hpp ****     // Methods - Inherited methods ---------------------------------------------
 195:funsape/peripheral/gpioPin.hpp **** 
 196:funsape/peripheral/gpioPin.hpp **** public:
 197:funsape/peripheral/gpioPin.hpp ****     // NONE
 198:funsape/peripheral/gpioPin.hpp **** 
 199:funsape/peripheral/gpioPin.hpp **** protected:
 200:funsape/peripheral/gpioPin.hpp ****     // NONE
 201:funsape/peripheral/gpioPin.hpp **** 
 202:funsape/peripheral/gpioPin.hpp ****     // -------------------------------------------------------------------------
 203:funsape/peripheral/gpioPin.hpp ****     // Methods - class own methods ---------------------------------------------
 204:funsape/peripheral/gpioPin.hpp **** 
 205:funsape/peripheral/gpioPin.hpp **** public:
 206:funsape/peripheral/gpioPin.hpp ****     //     /////////////////     CONTROL AND STATUS     /////////////////     //
 207:funsape/peripheral/gpioPin.hpp **** 
 208:funsape/peripheral/gpioPin.hpp ****     //!
 209:funsape/peripheral/gpioPin.hpp ****     //! @brief      Returns the last error.
 210:funsape/peripheral/gpioPin.hpp ****     //! @details    Returns the last error.
 211:funsape/peripheral/gpioPin.hpp ****     //! @return     @ref Error          Error status of the last operation.
 212:funsape/peripheral/gpioPin.hpp ****     //!
 213:funsape/peripheral/gpioPin.hpp ****     Error inlined getLastError(
 214:funsape/peripheral/gpioPin.hpp ****             void
 215:funsape/peripheral/gpioPin.hpp ****     ) const;
 216:funsape/peripheral/gpioPin.hpp **** 
 217:funsape/peripheral/gpioPin.hpp ****     //!
 218:funsape/peripheral/gpioPin.hpp ****     //! @brief      Initializes the GpioPin module.
 219:funsape/peripheral/gpioPin.hpp ****     //! @details    Initializes the GpioPin module.
 220:funsape/peripheral/gpioPin.hpp ****     //! @param[in]  gpioPortAddress_p   Register address of the GPIO port.
GAS LISTING /tmp/ccOPlziU.s 			page 13


 221:funsape/peripheral/gpioPin.hpp ****     //! @param[in]  gpioPinIndex_p      @ref PinIndex pin position.
 222:funsape/peripheral/gpioPin.hpp ****     //! @retval     true                if success.
 223:funsape/peripheral/gpioPin.hpp ****     //! @retval     false               if an error occurred. Retrieve the error
 224:funsape/peripheral/gpioPin.hpp ****     //!                                     by calling @ref getLastError().
 225:funsape/peripheral/gpioPin.hpp ****     //! @par Error codes:
 226:funsape/peripheral/gpioPin.hpp ****     //!
 227:funsape/peripheral/gpioPin.hpp ****     //! | Error code                    | Meaning                              |
 228:funsape/peripheral/gpioPin.hpp ****     //! |:------------------------------|:-------------------------------------|
 229:funsape/peripheral/gpioPin.hpp ****     //! | @ref Error::NONE              | Success. No erros were detected.     |
 230:funsape/peripheral/gpioPin.hpp ****     //! | @ref Error::GPIO_PORT_INVALID | The given GPIO address is not valid. |
 231:funsape/peripheral/gpioPin.hpp ****     //!
 232:funsape/peripheral/gpioPin.hpp ****     bool_t init(
 233:funsape/peripheral/gpioPin.hpp ****             ioRegAddress_t gpioPortAddress_p,
 234:funsape/peripheral/gpioPin.hpp ****             const PinIndex gpioPinIndex_p
 235:funsape/peripheral/gpioPin.hpp ****     );
 236:funsape/peripheral/gpioPin.hpp **** 
 237:funsape/peripheral/gpioPin.hpp ****     //     /////////////////    PIN RELATED METHODS     /////////////////     //
 238:funsape/peripheral/gpioPin.hpp **** 
 239:funsape/peripheral/gpioPin.hpp ****     //!
 240:funsape/peripheral/gpioPin.hpp ****     //! @brief      Clears the GpioPin pin.
 241:funsape/peripheral/gpioPin.hpp ****     //! @details    This function clears the pin bit in the output @c PORTx
 242:funsape/peripheral/gpioPin.hpp ****     //!                 register. If the pin mode is set to
 243:funsape/peripheral/gpioPin.hpp ****     //!                 @ref PinMode::OUTPUT_PUSH_PULL, the pin output
 244:funsape/peripheral/gpioPin.hpp ****     //!                 will be set to @ref LogicLevel::LOW.
 245:funsape/peripheral/gpioPin.hpp ****     //! @warning    It is recommended to use this function only when the pin
 246:funsape/peripheral/gpioPin.hpp ****     //!                 mode is set to @ref PinMode::OUTPUT_PUSH_PULL,
 247:funsape/peripheral/gpioPin.hpp ****     //!                 otherwise, the pin mode will be changed to
 248:funsape/peripheral/gpioPin.hpp ****     //!                 @ref PinMode::INPUT_FLOATING.
 249:funsape/peripheral/gpioPin.hpp ****     //!
 250:funsape/peripheral/gpioPin.hpp ****     void inlined clr(
 251:funsape/peripheral/gpioPin.hpp ****             void
 252:funsape/peripheral/gpioPin.hpp ****     ) const;
 253:funsape/peripheral/gpioPin.hpp **** 
 254:funsape/peripheral/gpioPin.hpp ****     //!
 255:funsape/peripheral/gpioPin.hpp ****     //! @brief      Complements (inverts) the GpioPin pin.
 256:funsape/peripheral/gpioPin.hpp ****     //! @details    This function toggles the pin bit in the output @c PORTx
 257:funsape/peripheral/gpioPin.hpp ****     //!                 register. If the pin mode is set to
 258:funsape/peripheral/gpioPin.hpp ****     //!                 @ref PinMode::OUTPUT_PUSH_PULL, the pin output
 259:funsape/peripheral/gpioPin.hpp ****     //!                 will be toggled between @ref LogicLevel::LOW and
 260:funsape/peripheral/gpioPin.hpp ****     //!                 @ref LogicLevel::HIGH.
 261:funsape/peripheral/gpioPin.hpp ****     //! @warning    It is recommended to use this function only when the pin
 262:funsape/peripheral/gpioPin.hpp ****     //!                 mode is set to @ref PinMode::OUTPUT_PUSH_PULL,
 263:funsape/peripheral/gpioPin.hpp ****     //!                 otherwise, the pin mode will be toggled between
 264:funsape/peripheral/gpioPin.hpp ****     //!                 @ref PinMode::INPUT_FLOATING and
 265:funsape/peripheral/gpioPin.hpp ****     //!                 @ref PinMode::INPUT_PULLED_UP.
 266:funsape/peripheral/gpioPin.hpp ****     //!
 267:funsape/peripheral/gpioPin.hpp ****     void inlined cpl(
 268:funsape/peripheral/gpioPin.hpp ****             void
 269:funsape/peripheral/gpioPin.hpp ****     ) const;
 270:funsape/peripheral/gpioPin.hpp **** 
 271:funsape/peripheral/gpioPin.hpp ****     //!
 272:funsape/peripheral/gpioPin.hpp ****     //! @brief      Sets the GpioPin pin.
 273:funsape/peripheral/gpioPin.hpp ****     //! @details    This function is an alias for @ref GpioPin::set().
 274:funsape/peripheral/gpioPin.hpp ****     //!
 275:funsape/peripheral/gpioPin.hpp ****     void inlined high(
 276:funsape/peripheral/gpioPin.hpp ****             void
 277:funsape/peripheral/gpioPin.hpp ****     ) const;
GAS LISTING /tmp/ccOPlziU.s 			page 14


 278:funsape/peripheral/gpioPin.hpp **** 
 279:funsape/peripheral/gpioPin.hpp ****     //!
 280:funsape/peripheral/gpioPin.hpp ****     //! @brief      Checks if the GpioPin is initialized.
 281:funsape/peripheral/gpioPin.hpp ****     //! @details    This function checks if the GpioPin object was successfully
 282:funsape/peripheral/gpioPin.hpp ****     //!                 initialized.
 283:funsape/peripheral/gpioPin.hpp ****     //! @retval     true                if the object is initialized.
 284:funsape/peripheral/gpioPin.hpp ****     //! @retval     false               if the object is not initialized.
 285:funsape/peripheral/gpioPin.hpp ****     //!
 286:funsape/peripheral/gpioPin.hpp ****     bool_t inlined isInitialized(
 287:funsape/peripheral/gpioPin.hpp ****             void
 288:funsape/peripheral/gpioPin.hpp ****     ) const;
 289:funsape/peripheral/gpioPin.hpp **** 
 290:funsape/peripheral/gpioPin.hpp ****     //!
 291:funsape/peripheral/gpioPin.hpp ****     //! @brief      Clears the GpioPin pin.
 292:funsape/peripheral/gpioPin.hpp ****     //! @details    This function is an alias for @ref GpioPin::clr().
 293:funsape/peripheral/gpioPin.hpp ****     //!
 294:funsape/peripheral/gpioPin.hpp ****     void inlined low(
 295:funsape/peripheral/gpioPin.hpp ****             void
 296:funsape/peripheral/gpioPin.hpp ****     ) const;
 297:funsape/peripheral/gpioPin.hpp **** 
 298:funsape/peripheral/gpioPin.hpp ****     //!
 299:funsape/peripheral/gpioPin.hpp ****     //! @brief      Reads the pin level.
 300:funsape/peripheral/gpioPin.hpp ****     //! @details    This function returns the logic level of the pin. Since it
 301:funsape/peripheral/gpioPin.hpp ****     //!                 returns the value of the input @c PINx register, this
 302:funsape/peripheral/gpioPin.hpp ****     //!                 function can be used with any @ref PinMode
 303:funsape/peripheral/gpioPin.hpp ****     //!                 selection.
 304:funsape/peripheral/gpioPin.hpp ****     //! @retval     true                if the pin is in @ref LogicLevel::HIGH.
 305:funsape/peripheral/gpioPin.hpp ****     //! @retval     false               if the pin is in @ref LogicLevel::LOW.
 306:funsape/peripheral/gpioPin.hpp ****     //!
 307:funsape/peripheral/gpioPin.hpp ****     bool_t inlined read(
 308:funsape/peripheral/gpioPin.hpp ****             void
 309:funsape/peripheral/gpioPin.hpp ****     ) const;
 310:funsape/peripheral/gpioPin.hpp **** 
 311:funsape/peripheral/gpioPin.hpp ****     //!
 312:funsape/peripheral/gpioPin.hpp ****     //! @brief      Sets the GpioPin pin.
 313:funsape/peripheral/gpioPin.hpp ****     //! @details    This function sets the pin bit in the output @c PORTx
 314:funsape/peripheral/gpioPin.hpp ****     //!                 register. If the pin mode is set to
 315:funsape/peripheral/gpioPin.hpp ****     //!                 @ref PinMode::OUTPUT_PUSH_PULL, the pin output
 316:funsape/peripheral/gpioPin.hpp ****     //!                 will be set to @ref LogicLevel::HIGH.
 317:funsape/peripheral/gpioPin.hpp ****     //! @warning    It is recommended to use this function only when the pin
 318:funsape/peripheral/gpioPin.hpp ****     //!                 mode is set to @ref PinMode::OUTPUT_PUSH_PULL,
 319:funsape/peripheral/gpioPin.hpp ****     //!                 otherwise, the pin mode will be changed to
 320:funsape/peripheral/gpioPin.hpp ****     //!                 @ref PinMode::INPUT_PULLED_UP.
 321:funsape/peripheral/gpioPin.hpp ****     //!
 322:funsape/peripheral/gpioPin.hpp ****     void inlined set(
 323:funsape/peripheral/gpioPin.hpp ****             void
 324:funsape/peripheral/gpioPin.hpp ****     ) const;
 325:funsape/peripheral/gpioPin.hpp **** 
 326:funsape/peripheral/gpioPin.hpp ****     //!
 327:funsape/peripheral/gpioPin.hpp ****     //! @brief      Sets the GpioPin operation mode.
 328:funsape/peripheral/gpioPin.hpp ****     //! @details    This function sets the GPIO pin operation mode to the given
 329:funsape/peripheral/gpioPin.hpp ****     //!                 @a mode_p.
 330:funsape/peripheral/gpioPin.hpp ****     //! @note       When the operation mode is changed to
 331:funsape/peripheral/gpioPin.hpp ****     //!                 @ref PinMode::INPUT_FLOATING or to
 332:funsape/peripheral/gpioPin.hpp ****     //!                 @ref PinMode::INPUT_PULLED_UP, both output @c PORTx
 333:funsape/peripheral/gpioPin.hpp ****     //!                 and direction @c DDRx registers are changed. However,
 334:funsape/peripheral/gpioPin.hpp ****     //!                 when the mode is changed to
GAS LISTING /tmp/ccOPlziU.s 			page 15


 335:funsape/peripheral/gpioPin.hpp ****     //!                 @ref PinMode::OUTPUT_PUSH_PULL, only the direction
 336:funsape/peripheral/gpioPin.hpp ****     //!                 @c DDRx register is changed, therefore, if a specific
 337:funsape/peripheral/gpioPin.hpp ****     //!                 output logic level is desired on the pin, the user must
 338:funsape/peripheral/gpioPin.hpp ****     //!                 call the @ref clr() or @ref set().
 339:funsape/peripheral/gpioPin.hpp ****     //! @param[in]  mode_p              @ref PinMode operation mode.
 340:funsape/peripheral/gpioPin.hpp ****     //! @retval     true                if success.
 341:funsape/peripheral/gpioPin.hpp ****     //! @retval     false               if an error occurred. Retrieve the error
 342:funsape/peripheral/gpioPin.hpp ****     //!                                     by calling @ref getLastError().
 343:funsape/peripheral/gpioPin.hpp ****     //! @par Error codes:
 344:funsape/peripheral/gpioPin.hpp ****     //!
 345:funsape/peripheral/gpioPin.hpp ****     //! | Error code                  | Meaning                          |
 346:funsape/peripheral/gpioPin.hpp ****     //! |:----------------------------|:---------------------------------|
 347:funsape/peripheral/gpioPin.hpp ****     //! | @ref Error::NONE            | Success. No erros were detected. |
 348:funsape/peripheral/gpioPin.hpp ****     //! | @ref Error::NOT_INITIALIZED | The pin is not initialized.      |
 349:funsape/peripheral/gpioPin.hpp ****     //!
 350:funsape/peripheral/gpioPin.hpp ****     bool_t setMode(
 351:funsape/peripheral/gpioPin.hpp ****             const PinMode mode_p
 352:funsape/peripheral/gpioPin.hpp ****     );
 353:funsape/peripheral/gpioPin.hpp **** 
 354:funsape/peripheral/gpioPin.hpp ****     //!
 355:funsape/peripheral/gpioPin.hpp ****     //! @brief      Complements (inverts) the GpioPin pin.
 356:funsape/peripheral/gpioPin.hpp ****     //! @details    This function is an alias for @ref GpioPin::cpl().
 357:funsape/peripheral/gpioPin.hpp ****     //!
 358:funsape/peripheral/gpioPin.hpp ****     void inlined toggle(
 359:funsape/peripheral/gpioPin.hpp ****             void
 360:funsape/peripheral/gpioPin.hpp ****     ) const;
 361:funsape/peripheral/gpioPin.hpp **** 
 362:funsape/peripheral/gpioPin.hpp **** private:
 363:funsape/peripheral/gpioPin.hpp ****     // NONE
 364:funsape/peripheral/gpioPin.hpp **** 
 365:funsape/peripheral/gpioPin.hpp **** protected:
 366:funsape/peripheral/gpioPin.hpp ****     // NONE
 367:funsape/peripheral/gpioPin.hpp **** 
 368:funsape/peripheral/gpioPin.hpp **** // -------------------------------------------------------------------------
 369:funsape/peripheral/gpioPin.hpp **** // Properties --------------------------------------------------------------
 370:funsape/peripheral/gpioPin.hpp **** 
 371:funsape/peripheral/gpioPin.hpp **** private:
 372:funsape/peripheral/gpioPin.hpp ****     //     //////////////////    HARDWARE LINKAGE     ///////////////////     //
 373:funsape/peripheral/gpioPin.hpp **** 
 374:funsape/peripheral/gpioPin.hpp ****     ioRegAddress_t  _regDir;                    //!< Address to the direction @c DDRx register.
 375:funsape/peripheral/gpioPin.hpp ****     ioRegAddress_t  _regOut;                    //!< Address to the output @c PORTx register.
 376:funsape/peripheral/gpioPin.hpp ****     ioRegAddress_t  _regIn;                     //!< Address to the input @c PINx register.
 377:funsape/peripheral/gpioPin.hpp ****     ioPinMask_t     _pinMask;                   //!< Pin mask.
 378:funsape/peripheral/gpioPin.hpp **** 
 379:funsape/peripheral/gpioPin.hpp ****     //     /////////////////    CONTROL AND STATUS     //////////////////     //
 380:funsape/peripheral/gpioPin.hpp **** 
 381:funsape/peripheral/gpioPin.hpp ****     bool_t          _isInitialized      : 1;    //!< Initialization flag.
 382:funsape/peripheral/gpioPin.hpp ****     Error           _lastError;                 //!< Last error.
 383:funsape/peripheral/gpioPin.hpp **** 
 384:funsape/peripheral/gpioPin.hpp **** protected:
 385:funsape/peripheral/gpioPin.hpp ****     // NONE
 386:funsape/peripheral/gpioPin.hpp **** 
 387:funsape/peripheral/gpioPin.hpp **** }; // class GpioPin
 388:funsape/peripheral/gpioPin.hpp **** 
 389:funsape/peripheral/gpioPin.hpp **** // =============================================================================
 390:funsape/peripheral/gpioPin.hpp **** // Inlined class functions
 391:funsape/peripheral/gpioPin.hpp **** // =============================================================================
GAS LISTING /tmp/ccOPlziU.s 			page 16


 392:funsape/peripheral/gpioPin.hpp **** 
 393:funsape/peripheral/gpioPin.hpp **** //!
 394:funsape/peripheral/gpioPin.hpp **** //! @cond
 395:funsape/peripheral/gpioPin.hpp **** //!
 396:funsape/peripheral/gpioPin.hpp **** 
 397:funsape/peripheral/gpioPin.hpp **** //     /////////////////     CONTROL AND STATUS     /////////////////     //
 398:funsape/peripheral/gpioPin.hpp **** 
 399:funsape/peripheral/gpioPin.hpp **** Error inlined GpioPin::getLastError(void) const
 400:funsape/peripheral/gpioPin.hpp **** {
 401:funsape/peripheral/gpioPin.hpp ****     // Returns last error
 402:funsape/peripheral/gpioPin.hpp ****     return this->_lastError;
 403:funsape/peripheral/gpioPin.hpp **** }
 404:funsape/peripheral/gpioPin.hpp **** 
 405:funsape/peripheral/gpioPin.hpp **** //     /////////////////    PIN RELATED METHODS     /////////////////     //
 406:funsape/peripheral/gpioPin.hpp **** 
 407:funsape/peripheral/gpioPin.hpp **** void inlined GpioPin::clr(void) const
 408:funsape/peripheral/gpioPin.hpp **** {
 409:funsape/peripheral/gpioPin.hpp ****     // Clear pin
 410:funsape/peripheral/gpioPin.hpp ****     clrMask(*(this->_regOut), (uint8_t)this->_pinMask);
 411:funsape/peripheral/gpioPin.hpp **** 
 412:funsape/peripheral/gpioPin.hpp ****     // Returns
 413:funsape/peripheral/gpioPin.hpp ****     return;
 414:funsape/peripheral/gpioPin.hpp **** }
 415:funsape/peripheral/gpioPin.hpp **** 
 416:funsape/peripheral/gpioPin.hpp **** void inlined GpioPin::cpl(void) const
 417:funsape/peripheral/gpioPin.hpp **** {
 418:funsape/peripheral/gpioPin.hpp ****     // Toggle pin
 419:funsape/peripheral/gpioPin.hpp ****     cplMask(*(this->_regOut), (uint8_t)this->_pinMask);
 420:funsape/peripheral/gpioPin.hpp **** 
 421:funsape/peripheral/gpioPin.hpp ****     // Returns
 422:funsape/peripheral/gpioPin.hpp ****     return;
 423:funsape/peripheral/gpioPin.hpp **** }
 424:funsape/peripheral/gpioPin.hpp **** 
 425:funsape/peripheral/gpioPin.hpp **** void inlined GpioPin::high(void) const
 426:funsape/peripheral/gpioPin.hpp **** {
 427:funsape/peripheral/gpioPin.hpp ****     this->set();
 428:funsape/peripheral/gpioPin.hpp **** 
 429:funsape/peripheral/gpioPin.hpp ****     return;
 430:funsape/peripheral/gpioPin.hpp **** }
 431:funsape/peripheral/gpioPin.hpp **** 
 432:funsape/peripheral/gpioPin.hpp **** bool_t inlined GpioPin::isInitialized(void) const
 433:funsape/peripheral/gpioPin.hpp **** {
 434:funsape/peripheral/gpioPin.hpp ****     return this->_isInitialized;
 435:funsape/peripheral/gpioPin.hpp **** }
 436:funsape/peripheral/gpioPin.hpp **** 
 437:funsape/peripheral/gpioPin.hpp **** void inlined GpioPin::low(void) const
 161               		.loc 2 437 14 view .LVU21
 438:funsape/peripheral/gpioPin.hpp **** {
 439:funsape/peripheral/gpioPin.hpp ****     this->clr();
 162               		.loc 2 439 5 view .LVU22
 163               	.LBB95:
 164               	.LBI95:
 407:funsape/peripheral/gpioPin.hpp **** {
 165               		.loc 2 407 14 view .LVU23
 166               	.LBB96:
 410:funsape/peripheral/gpioPin.hpp **** 
 167               		.loc 2 410 5 view .LVU24
GAS LISTING /tmp/ccOPlziU.s 			page 17


 410:funsape/peripheral/gpioPin.hpp **** 
 168               		.loc 2 410 5 view .LVU25
 169 0018 A0E0      		ldi r26,lo8(slave_select_esp+2)
 170 001a B0E0      		ldi r27,hi8(slave_select_esp+2)
 171 001c ED91      		ld r30,X+
 172 001e FD91      		ld r31,X+
 173 0020 9081      		ld r25,Z
 174 0022 1296      		adiw r26,2
 175 0024 8C91      		ld r24,X
 176               	.LVL10:
 410:funsape/peripheral/gpioPin.hpp **** 
 177               		.loc 2 410 5 is_stmt 0 view .LVU26
 178 0026 8095      		com r24
 179 0028 8923      		and r24,r25
 180 002a 8083      		st Z,r24
 410:funsape/peripheral/gpioPin.hpp **** 
 181               		.loc 2 410 5 is_stmt 1 view .LVU27
 413:funsape/peripheral/gpioPin.hpp **** }
 182               		.loc 2 413 5 view .LVU28
 183               	.LVL11:
 413:funsape/peripheral/gpioPin.hpp **** }
 184               		.loc 2 413 5 is_stmt 0 view .LVU29
 185               	.LBE96:
 186               	.LBE95:
 440:funsape/peripheral/gpioPin.hpp **** 
 441:funsape/peripheral/gpioPin.hpp ****     return;
 187               		.loc 2 441 5 is_stmt 1 view .LVU30
 188               		.loc 2 441 5 is_stmt 0 view .LVU31
 189               	.LBE94:
 234:main.cpp      ****   for(uint8_t i = 0; i < len; i++){
 190               		.loc 1 234 3 is_stmt 1 view .LVU32
 191               	.LBB97:
 234:main.cpp      ****   for(uint8_t i = 0; i < len; i++){
 192               		.loc 1 234 15 is_stmt 0 view .LVU33
 193 002c 10E0      		ldi r17,0
 234:main.cpp      ****   for(uint8_t i = 0; i < len; i++){
 194               		.loc 1 234 3 view .LVU34
 195 002e 00C0      		rjmp .L6
 196               	.LVL12:
 197               	.L7:
 235:main.cpp      ****     recv_packet[i] = spi_writeRead(packet[i]);
 198               		.loc 1 235 5 is_stmt 1 view .LVU35
 235:main.cpp      ****     recv_packet[i] = spi_writeRead(packet[i]);
 199               		.loc 1 235 44 is_stmt 0 view .LVU36
 200 0030 F501      		movw r30,r10
 201 0032 EC0F      		add r30,r28
 202 0034 FD1F      		adc r31,r29
 235:main.cpp      ****     recv_packet[i] = spi_writeRead(packet[i]);
 203               		.loc 1 235 18 view .LVU37
 204 0036 CC0D      		add r28,r12
 205 0038 DD1D      		adc r29,r13
 235:main.cpp      ****     recv_packet[i] = spi_writeRead(packet[i]);
 206               		.loc 1 235 35 view .LVU38
 207 003a 8081      		ld r24,Z
 208 003c 0E94 0000 		call _Z13spi_writeReadh
 209               	.LVL13:
 235:main.cpp      ****     recv_packet[i] = spi_writeRead(packet[i]);
GAS LISTING /tmp/ccOPlziU.s 			page 18


 210               		.loc 1 235 20 discriminator 1 view .LVU39
 211 0040 8883      		st Y,r24
 234:main.cpp      ****   for(uint8_t i = 0; i < len; i++){
 212               		.loc 1 234 3 is_stmt 1 discriminator 1 view .LVU40
 213 0042 1F5F      		subi r17,lo8(-(1))
 214               	.LVL14:
 215               	.L6:
 234:main.cpp      ****   for(uint8_t i = 0; i < len; i++){
 216               		.loc 1 234 24 discriminator 2 view .LVU41
 234:main.cpp      ****   for(uint8_t i = 0; i < len; i++){
 217               		.loc 1 234 22 is_stmt 0 discriminator 2 view .LVU42
 218 0044 C12F      		mov r28,r17
 219 0046 D0E0      		ldi r29,0
 234:main.cpp      ****   for(uint8_t i = 0; i < len; i++){
 220               		.loc 1 234 24 discriminator 2 view .LVU43
 221 0048 1E15      		cp r17,r14
 222 004a 1F04      		cpc __zero_reg__,r15
 223 004c 00F0      		brlo .L7
 224               	.LBE97:
 240:main.cpp      ****   slave_select_esp.high();
 225               		.loc 1 240 3 is_stmt 1 view .LVU44
 226               	.LVL15:
 227               	.LBB98:
 228               	.LBI98:
 425:funsape/peripheral/gpioPin.hpp **** {
 229               		.loc 2 425 14 view .LVU45
 427:funsape/peripheral/gpioPin.hpp **** 
 230               		.loc 2 427 5 view .LVU46
 231               	.LBB99:
 232               	.LBI99:
 442:funsape/peripheral/gpioPin.hpp **** }
 443:funsape/peripheral/gpioPin.hpp **** 
 444:funsape/peripheral/gpioPin.hpp **** bool_t inlined GpioPin::read(void) const
 445:funsape/peripheral/gpioPin.hpp **** {
 446:funsape/peripheral/gpioPin.hpp ****     return (bool_t)(*(this->_regIn) & (uint8_t)(this->_pinMask));
 447:funsape/peripheral/gpioPin.hpp **** }
 448:funsape/peripheral/gpioPin.hpp **** 
 449:funsape/peripheral/gpioPin.hpp **** void inlined GpioPin::set(void) const
 233               		.loc 2 449 14 view .LVU47
 234               	.LBB100:
 450:funsape/peripheral/gpioPin.hpp **** {
 451:funsape/peripheral/gpioPin.hpp ****     // Set pin
 452:funsape/peripheral/gpioPin.hpp ****     setMask(*(this->_regOut), (uint8_t)this->_pinMask);
 235               		.loc 2 452 5 view .LVU48
 236               		.loc 2 452 5 view .LVU49
 237 004e A0E0      		ldi r26,lo8(slave_select_esp+2)
 238 0050 B0E0      		ldi r27,hi8(slave_select_esp+2)
 239 0052 ED91      		ld r30,X+
 240 0054 FD91      		ld r31,X+
 241 0056 8081      		ld r24,Z
 242 0058 1296      		adiw r26,2
 243 005a 9C91      		ld r25,X
 244 005c 892B      		or r24,r25
 245 005e 8083      		st Z,r24
 246               		.loc 2 452 5 view .LVU50
 453:funsape/peripheral/gpioPin.hpp **** 
 454:funsape/peripheral/gpioPin.hpp ****     // Returns
GAS LISTING /tmp/ccOPlziU.s 			page 19


 455:funsape/peripheral/gpioPin.hpp ****     return;
 247               		.loc 2 455 5 view .LVU51
 248               	.LVL16:
 249               		.loc 2 455 5 is_stmt 0 view .LVU52
 250               	.LBE100:
 251               	.LBE99:
 429:funsape/peripheral/gpioPin.hpp **** }
 252               		.loc 2 429 5 is_stmt 1 view .LVU53
 253               	/* epilogue start */
 429:funsape/peripheral/gpioPin.hpp **** }
 254               		.loc 2 429 5 is_stmt 0 view .LVU54
 255               	.LBE98:
 241:main.cpp      **** }
 256               		.loc 1 241 1 view .LVU55
 257 0060 DF91      		pop r29
 258 0062 CF91      		pop r28
 259 0064 1F91      		pop r17
 260               	.LVL17:
 241:main.cpp      **** }
 261               		.loc 1 241 1 view .LVU56
 262 0066 FF90      		pop r15
 263 0068 EF90      		pop r14
 264               	.LVL18:
 241:main.cpp      **** }
 265               		.loc 1 241 1 view .LVU57
 266 006a DF90      		pop r13
 267 006c CF90      		pop r12
 268               	.LVL19:
 241:main.cpp      **** }
 269               		.loc 1 241 1 view .LVU58
 270 006e BF90      		pop r11
 271 0070 AF90      		pop r10
 272               	.LVL20:
 241:main.cpp      **** }
 273               		.loc 1 241 1 view .LVU59
 274 0072 0895      		ret
 275               		.cfi_endproc
 276               	.LFE228:
 278               		.section	.text._Z13format_packetjjhi7OP_MODEPh,"ax",@progbits
 279               	.global	_Z13format_packetjjhi7OP_MODEPh
 281               	_Z13format_packetjjhi7OP_MODEPh:
 282               	.LVL21:
 283               	.LFB229:
 243:main.cpp      **** void format_packet(uint16_t x, uint16_t y, uint8_t buttons, int16_t scroll, OP_MODE mode, uint8_t *
 284               		.loc 1 243 107 is_stmt 1 view -0
 285               		.cfi_startproc
 243:main.cpp      **** void format_packet(uint16_t x, uint16_t y, uint8_t buttons, int16_t scroll, OP_MODE mode, uint8_t *
 286               		.loc 1 243 107 is_stmt 0 view .LVU61
 287 0000 EF92      		push r14
 288               	.LCFI9:
 289               		.cfi_def_cfa_offset 3
 290               		.cfi_offset 14, -2
 291 0002 FF92      		push r15
 292               	.LCFI10:
 293               		.cfi_def_cfa_offset 4
 294               		.cfi_offset 15, -3
 295 0004 0F93      		push r16
GAS LISTING /tmp/ccOPlziU.s 			page 20


 296               	.LCFI11:
 297               		.cfi_def_cfa_offset 5
 298               		.cfi_offset 16, -4
 299               	/* prologue: function */
 300               	/* frame size = 0 */
 301               	/* stack size = 3 */
 302               	.L__stack_usage = 3
 303 0006 F701      		movw r30,r14
 244:main.cpp      ****   packet[0] = 0x67;
 304               		.loc 1 244 3 is_stmt 1 view .LVU62
 244:main.cpp      ****   packet[0] = 0x67;
 305               		.loc 1 244 13 is_stmt 0 view .LVU63
 306 0008 57E6      		ldi r21,lo8(103)
 307 000a 5083      		st Z,r21
 245:main.cpp      ****   packet[1] = (uint8_t)mode;
 308               		.loc 1 245 3 is_stmt 1 view .LVU64
 245:main.cpp      ****   packet[1] = (uint8_t)mode;
 309               		.loc 1 245 13 is_stmt 0 view .LVU65
 310 000c 0183      		std Z+1,r16
 246:main.cpp      ****   packet[2] = MSB(x);
 311               		.loc 1 246 3 is_stmt 1 view .LVU66
 246:main.cpp      ****   packet[2] = MSB(x);
 312               		.loc 1 246 13 is_stmt 0 view .LVU67
 313 000e 9283      		std Z+2,r25
 247:main.cpp      ****   packet[3] = LSB(x);
 314               		.loc 1 247 3 is_stmt 1 view .LVU68
 247:main.cpp      ****   packet[3] = LSB(x);
 315               		.loc 1 247 13 is_stmt 0 view .LVU69
 316 0010 8383      		std Z+3,r24
 248:main.cpp      ****   packet[4] = MSB(y);
 317               		.loc 1 248 3 is_stmt 1 view .LVU70
 248:main.cpp      ****   packet[4] = MSB(y);
 318               		.loc 1 248 13 is_stmt 0 view .LVU71
 319 0012 7483      		std Z+4,r23
 249:main.cpp      ****   packet[5] = LSB(y);
 320               		.loc 1 249 3 is_stmt 1 view .LVU72
 249:main.cpp      ****   packet[5] = LSB(y);
 321               		.loc 1 249 13 is_stmt 0 view .LVU73
 322 0014 6583      		std Z+5,r22
 250:main.cpp      ****   packet[6] = ((bool_t)(buttons & LEFT_BUTTON)) + (((bool_t)(buttons & RIGHT_BUTTON)) << 1);
 323               		.loc 1 250 3 is_stmt 1 view .LVU74
 250:main.cpp      ****   packet[6] = ((bool_t)(buttons & LEFT_BUTTON)) + (((bool_t)(buttons & RIGHT_BUTTON)) << 1);
 324               		.loc 1 250 16 is_stmt 0 view .LVU75
 325 0016 42FB      		bst r20,2
 326 0018 8827      		clr r24
 327 001a 80F9      		bld r24,0
 328               	.LVL22:
 250:main.cpp      ****   packet[6] = ((bool_t)(buttons & LEFT_BUTTON)) + (((bool_t)(buttons & RIGHT_BUTTON)) << 1);
 329               		.loc 1 250 87 view .LVU76
 330 001c 4270      		andi r20,lo8(2)
 331               	.LVL23:
 250:main.cpp      ****   packet[6] = ((bool_t)(buttons & LEFT_BUTTON)) + (((bool_t)(buttons & RIGHT_BUTTON)) << 1);
 332               		.loc 1 250 49 view .LVU77
 333 001e 840F      		add r24,r20
 250:main.cpp      ****   packet[6] = ((bool_t)(buttons & LEFT_BUTTON)) + (((bool_t)(buttons & RIGHT_BUTTON)) << 1);
 334               		.loc 1 250 13 view .LVU78
 335 0020 8683      		std Z+6,r24
GAS LISTING /tmp/ccOPlziU.s 			page 21


 251:main.cpp      ****   packet[7] = (scroll >> 8) & 0xFF;
 336               		.loc 1 251 3 is_stmt 1 view .LVU79
 251:main.cpp      ****   packet[7] = (scroll >> 8) & 0xFF;
 337               		.loc 1 251 13 is_stmt 0 view .LVU80
 338 0022 3783      		std Z+7,r19
 252:main.cpp      ****   packet[8] = scroll & 0xFF;
 339               		.loc 1 252 3 is_stmt 1 view .LVU81
 252:main.cpp      ****   packet[8] = scroll & 0xFF;
 340               		.loc 1 252 13 is_stmt 0 view .LVU82
 341 0024 2087      		std Z+8,r18
 253:main.cpp      ****   packet[9] = 0;
 342               		.loc 1 253 3 is_stmt 1 view .LVU83
 253:main.cpp      ****   packet[9] = 0;
 343               		.loc 1 253 13 is_stmt 0 view .LVU84
 344 0026 1186      		std Z+9,__zero_reg__
 345               	/* epilogue start */
 254:main.cpp      **** }
 346               		.loc 1 254 1 view .LVU85
 347 0028 0F91      		pop r16
 348               	.LVL24:
 254:main.cpp      **** }
 349               		.loc 1 254 1 view .LVU86
 350 002a FF90      		pop r15
 351 002c EF90      		pop r14
 352               	.LVL25:
 254:main.cpp      **** }
 353               		.loc 1 254 1 view .LVU87
 354 002e 0895      		ret
 355               		.cfi_endproc
 356               	.LFE229:
 358               		.section	.text._Z16convert_recievedPiS_S_P8BT_STATEPh,"ax",@progbits
 359               	.global	_Z16convert_recievedPiS_S_P8BT_STATEPh
 361               	_Z16convert_recievedPiS_S_P8BT_STATEPh:
 362               	.LVL26:
 363               	.LFB230:
 256:main.cpp      **** void convert_recieved(int16_t *roll, int16_t *pitch, int16_t *yaw, BT_STATE *state, uint8_t *packet
 364               		.loc 1 256 101 is_stmt 1 view -0
 365               		.cfi_startproc
 256:main.cpp      **** void convert_recieved(int16_t *roll, int16_t *pitch, int16_t *yaw, BT_STATE *state, uint8_t *packet
 366               		.loc 1 256 101 is_stmt 0 view .LVU89
 367 0000 0F93      		push r16
 368               	.LCFI12:
 369               		.cfi_def_cfa_offset 3
 370               		.cfi_offset 16, -2
 371 0002 1F93      		push r17
 372               	.LCFI13:
 373               		.cfi_def_cfa_offset 4
 374               		.cfi_offset 17, -3
 375 0004 CF93      		push r28
 376               	.LCFI14:
 377               		.cfi_def_cfa_offset 5
 378               		.cfi_offset 28, -4
 379 0006 DF93      		push r29
 380               	.LCFI15:
 381               		.cfi_def_cfa_offset 6
 382               		.cfi_offset 29, -5
 383               	/* prologue: function */
GAS LISTING /tmp/ccOPlziU.s 			page 22


 384               	/* frame size = 0 */
 385               	/* stack size = 4 */
 386               	.L__stack_usage = 4
 387 0008 F801      		movw r30,r16
 257:main.cpp      ****   if(packet[3] != 0x68) return;
 388               		.loc 1 257 3 is_stmt 1 view .LVU90
 257:main.cpp      ****   if(packet[3] != 0x68) return;
 389               		.loc 1 257 14 is_stmt 0 view .LVU91
 390 000a A381      		ldd r26,Z+3
 257:main.cpp      ****   if(packet[3] != 0x68) return;
 391               		.loc 1 257 3 view .LVU92
 392 000c A836      		cpi r26,lo8(104)
 393 000e 01F4      		brne .L9
 259:main.cpp      ****   *state = (BT_STATE)packet[0];
 394               		.loc 1 259 3 is_stmt 1 view .LVU93
 259:main.cpp      ****   *state = (BT_STATE)packet[0];
 395               		.loc 1 259 30 is_stmt 0 view .LVU94
 396 0010 A081      		ld r26,Z
 259:main.cpp      ****   *state = (BT_STATE)packet[0];
 397               		.loc 1 259 12 view .LVU95
 398 0012 B0E0      		ldi r27,0
 259:main.cpp      ****   *state = (BT_STATE)packet[0];
 399               		.loc 1 259 10 view .LVU96
 400 0014 E901      		movw r28,r18
 401 0016 B983      		std Y+1,r27
 402 0018 A883      		st Y,r26
 260:main.cpp      ****   *pitch = (packet[1] << 8) + packet[2];
 403               		.loc 1 260 3 is_stmt 1 view .LVU97
 260:main.cpp      ****   *pitch = (packet[1] << 8) + packet[2];
 404               		.loc 1 260 21 is_stmt 0 view .LVU98
 405 001a 2181      		ldd r18,Z+1
 406               	.LVL27:
 260:main.cpp      ****   *pitch = (packet[1] << 8) + packet[2];
 407               		.loc 1 260 21 view .LVU99
 408 001c 30E0      		ldi r19,0
 260:main.cpp      ****   *pitch = (packet[1] << 8) + packet[2];
 409               		.loc 1 260 23 view .LVU100
 410 001e 322F      		mov r19,r18
 411 0020 2227      		clr r18
 260:main.cpp      ****   *pitch = (packet[1] << 8) + packet[2];
 412               		.loc 1 260 39 view .LVU101
 413 0022 A281      		ldd r26,Z+2
 260:main.cpp      ****   *pitch = (packet[1] << 8) + packet[2];
 414               		.loc 1 260 29 view .LVU102
 415 0024 2A0F      		add r18,r26
 416 0026 311D      		adc r19,__zero_reg__
 260:main.cpp      ****   *pitch = (packet[1] << 8) + packet[2];
 417               		.loc 1 260 10 view .LVU103
 418 0028 DB01      		movw r26,r22
 419 002a 2D93      		st X+,r18
 420 002c 3D93      		st X+,r19
 261:main.cpp      ****   *roll = (packet[4] << 8) + packet[5];
 421               		.loc 1 261 3 is_stmt 1 view .LVU104
 261:main.cpp      ****   *roll = (packet[4] << 8) + packet[5];
 422               		.loc 1 261 20 is_stmt 0 view .LVU105
 423 002e 2481      		ldd r18,Z+4
 424 0030 30E0      		ldi r19,0
GAS LISTING /tmp/ccOPlziU.s 			page 23


 261:main.cpp      ****   *roll = (packet[4] << 8) + packet[5];
 425               		.loc 1 261 22 view .LVU106
 426 0032 322F      		mov r19,r18
 427 0034 2227      		clr r18
 261:main.cpp      ****   *roll = (packet[4] << 8) + packet[5];
 428               		.loc 1 261 38 view .LVU107
 429 0036 6581      		ldd r22,Z+5
 430               	.LVL28:
 261:main.cpp      ****   *roll = (packet[4] << 8) + packet[5];
 431               		.loc 1 261 28 view .LVU108
 432 0038 260F      		add r18,r22
 433 003a 311D      		adc r19,__zero_reg__
 261:main.cpp      ****   *roll = (packet[4] << 8) + packet[5];
 434               		.loc 1 261 9 view .LVU109
 435 003c DC01      		movw r26,r24
 436               	.LVL29:
 261:main.cpp      ****   *roll = (packet[4] << 8) + packet[5];
 437               		.loc 1 261 9 view .LVU110
 438 003e 2D93      		st X+,r18
 439 0040 3D93      		st X+,r19
 262:main.cpp      ****   *yaw = (packet[6] << 8) + packet[7];
 440               		.loc 1 262 3 is_stmt 1 view .LVU111
 262:main.cpp      ****   *yaw = (packet[6] << 8) + packet[7];
 441               		.loc 1 262 19 is_stmt 0 view .LVU112
 442 0042 8681      		ldd r24,Z+6
 443               	.LVL30:
 262:main.cpp      ****   *yaw = (packet[6] << 8) + packet[7];
 444               		.loc 1 262 19 view .LVU113
 445 0044 90E0      		ldi r25,0
 262:main.cpp      ****   *yaw = (packet[6] << 8) + packet[7];
 446               		.loc 1 262 21 view .LVU114
 447 0046 982F      		mov r25,r24
 448 0048 8827      		clr r24
 262:main.cpp      ****   *yaw = (packet[6] << 8) + packet[7];
 449               		.loc 1 262 37 view .LVU115
 450 004a 2781      		ldd r18,Z+7
 262:main.cpp      ****   *yaw = (packet[6] << 8) + packet[7];
 451               		.loc 1 262 27 view .LVU116
 452 004c 820F      		add r24,r18
 453 004e 911D      		adc r25,__zero_reg__
 262:main.cpp      ****   *yaw = (packet[6] << 8) + packet[7];
 454               		.loc 1 262 8 view .LVU117
 455 0050 FA01      		movw r30,r20
 456 0052 9183      		std Z+1,r25
 457 0054 8083      		st Z,r24
 458               	.LVL31:
 459               	.L9:
 460               	/* epilogue start */
 263:main.cpp      **** }
 461               		.loc 1 263 1 view .LVU118
 462 0056 DF91      		pop r29
 463 0058 CF91      		pop r28
 464 005a 1F91      		pop r17
 465 005c 0F91      		pop r16
 466               	.LVL32:
 263:main.cpp      **** }
 467               		.loc 1 263 1 view .LVU119
GAS LISTING /tmp/ccOPlziU.s 			page 24


 468 005e 0895      		ret
 469               		.cfi_endproc
 470               	.LFE230:
 472               		.section	.text._Z10get_millisv,"ax",@progbits
 473               	.global	_Z10get_millisv
 475               	_Z10get_millisv:
 476               	.LFB231:
 265:main.cpp      **** uint32_t get_millis() {
 477               		.loc 1 265 23 is_stmt 1 view -0
 478               		.cfi_startproc
 479               	/* prologue: function */
 480               	/* frame size = 0 */
 481               	/* stack size = 0 */
 482               	.L__stack_usage = 0
 266:main.cpp      ****     uint32_t m;
 483               		.loc 1 266 5 view .LVU121
 267:main.cpp      ****     cli(); // Desativa interrupções temporariamente para leitura atômica
 484               		.loc 1 267 5 view .LVU122
 485               	/* #APP */
 486               	 ;  267 "main.cpp" 1
 487 0000 F894      		cli ; [[len=1]]
 488               	 ;  0 "" 2
 268:main.cpp      ****     m = timer_millis;
 489               		.loc 1 268 5 view .LVU123
 268:main.cpp      ****     m = timer_millis;
 490               		.loc 1 268 7 is_stmt 0 view .LVU124
 491               	/* #NOAPP */
 492 0002 6091 0000 		lds r22,timer_millis
 493 0006 7091 0000 		lds r23,timer_millis+1
 494 000a 8091 0000 		lds r24,timer_millis+2
 495 000e 9091 0000 		lds r25,timer_millis+3
 496               	.LVL33:
 269:main.cpp      ****     sei(); // Reativa interrupções
 497               		.loc 1 269 5 is_stmt 1 view .LVU125
 498               	/* #APP */
 499               	 ;  269 "main.cpp" 1
 500 0012 7894      		sei ; [[len=1]]
 501               	 ;  0 "" 2
 270:main.cpp      ****     return m;
 502               		.loc 1 270 5 view .LVU126
 503               	/* #NOAPP */
 504               	/* epilogue start */
 271:main.cpp      **** }
 505               		.loc 1 271 1 is_stmt 0 view .LVU127
 506 0014 0895      		ret
 507               		.cfi_endproc
 508               	.LFE231:
 510               		.section	.rodata.main.str1.1,"aMS",@progbits,1
 511               	.LC0:
 512 0000 496E 6963 		.string	"Inicializando Atmega"
 512      6961 6C69 
 512      7A61 6E64 
 512      6F20 4174 
 512      6D65 6761 
 513               	.LC1:
 514 0015 5374 6174 		.string	"State: %u  Pitch: %i.%u  Roll: %i.%u  Yaw: %i.%u SENDING: SCROLL: %i\r\n"
 514      653A 2025 
GAS LISTING /tmp/ccOPlziU.s 			page 25


 514      7520 2050 
 514      6974 6368 
 514      3A20 2569 
 515               		.section	.text.main,"ax",@progbits
 516               	.global	main
 518               	main:
 519               	.LFB226:
  69:main.cpp      **** int main(){
 520               		.loc 1 69 11 is_stmt 1 view -0
 521               		.cfi_startproc
 522 0000 CDB7      		in r28,__SP_L__
 523 0002 DEB7      		in r29,__SP_H__
 524               	.LCFI16:
 525               		.cfi_def_cfa_register 28
 526 0004 6C97      		sbiw r28,28
 527               	.LCFI17:
 528               		.cfi_def_cfa_offset 30
 529 0006 0FB6      		in __tmp_reg__,__SREG__
 530 0008 F894      		cli
 531 000a DEBF      		out __SP_H__,r29
 532 000c 0FBE      		out __SREG__,__tmp_reg__
 533 000e CDBF      		out __SP_L__,r28
 534               	/* prologue: function */
 535               	/* frame size = 28 */
 536               	/* stack size = 28 */
 537               	.L__stack_usage = 28
  72:main.cpp      ****     {
 538               		.loc 1 72 5 view .LVU129
  73:main.cpp      ****     pcint1.setPinMode(Pcint1::Pin::PIN_PCINT8 | Pcint1::Pin::PIN_PCINT9 | Pcint1::Pin::PIN_PCINT10,
 539               		.loc 1 73 5 view .LVU130
 540               	.LBB101:
 541               	.LBI101:
 542               		.file 3 "funsape/peripheral/pcint1.hpp"
   1:funsape/peripheral/pcint1.hpp **** //!
   2:funsape/peripheral/pcint1.hpp **** //! ****************************************************************************
   3:funsape/peripheral/pcint1.hpp **** //! @file           pcint1.hpp
   4:funsape/peripheral/pcint1.hpp **** //! @author         Leandro Schwarz (bladabuska+funsapeavr8lib@gmail.com)
   5:funsape/peripheral/pcint1.hpp **** //! @brief          Pin Change Interrupt 1 PCINT1 peripheral control.
   6:funsape/peripheral/pcint1.hpp **** //! @details        This file provides peripheral control for the PCINT1
   7:funsape/peripheral/pcint1.hpp **** //!                     peripheral control for the FunSAPE++ AVR8 Library.
   8:funsape/peripheral/pcint1.hpp **** //! @date           2026-04-03
   9:funsape/peripheral/pcint1.hpp **** //! @version        26.04
  10:funsape/peripheral/pcint1.hpp **** //! @copyright      MIT License
  11:funsape/peripheral/pcint1.hpp **** //! @note           No notes at this time.
  12:funsape/peripheral/pcint1.hpp **** //! @todo           No items in todo list yet.
  13:funsape/peripheral/pcint1.hpp **** //! @bug            No bugs detected yet.
  14:funsape/peripheral/pcint1.hpp **** //! ****************************************************************************
  15:funsape/peripheral/pcint1.hpp **** //! @attention
  16:funsape/peripheral/pcint1.hpp **** //!
  17:funsape/peripheral/pcint1.hpp **** //! MIT License
  18:funsape/peripheral/pcint1.hpp **** //!
  19:funsape/peripheral/pcint1.hpp **** //! Copyright (c) 2026 Leandro Schwarz
  20:funsape/peripheral/pcint1.hpp **** //!
  21:funsape/peripheral/pcint1.hpp **** //! Permission is hereby granted, free of charge, to any person obtaining a copy
  22:funsape/peripheral/pcint1.hpp **** //!     of this software and associated documentation files (the "Software"), to
  23:funsape/peripheral/pcint1.hpp **** //!     deal in the Software without restriction, including without limitation
  24:funsape/peripheral/pcint1.hpp **** //!     the rights to use, copy, modify, merge, publish, distribute, sublicense,
GAS LISTING /tmp/ccOPlziU.s 			page 26


  25:funsape/peripheral/pcint1.hpp **** //!     and/or sell copies of the Software, and to permit persons to whom the
  26:funsape/peripheral/pcint1.hpp **** //!     Software is furnished to do so, subject to the following conditions:
  27:funsape/peripheral/pcint1.hpp **** //!
  28:funsape/peripheral/pcint1.hpp **** //! The above copyright notice and this permission notice shall be included in
  29:funsape/peripheral/pcint1.hpp **** //!     all copies or substantial portions of the Software.
  30:funsape/peripheral/pcint1.hpp **** //!
  31:funsape/peripheral/pcint1.hpp **** //! THE SOFTWARE IS PROVIDED "AS IS", WITHOUT WARRANTY OF ANY KIND, EXPRESS OR
  32:funsape/peripheral/pcint1.hpp **** //!     IMPLIED, INCLUDING BUT NOT LIMITED TO THE WARRANTIES OF MERCHANTABILITY,
  33:funsape/peripheral/pcint1.hpp **** //!     FITNESS FOR A PARTICULAR PURPOSE AND NONINFRINGEMENT. IN NO EVENT SHALL
  34:funsape/peripheral/pcint1.hpp **** //!     THE AUTHORS OR COPYRIGHT HOLDERS BE LIABLE FOR ANY CLAIM, DAMAGES OR
  35:funsape/peripheral/pcint1.hpp **** //!     OTHER LIABILITY, WHETHER IN AN ACTION OF CONTRACT, TORT OR OTHERWISE,
  36:funsape/peripheral/pcint1.hpp **** //!     ARISING FROM, OUT OF OR IN CONNECTION WITH THE SOFTWARE OR THE USE OR
  37:funsape/peripheral/pcint1.hpp **** //!     OTHER DEALINGS IN THE SOFTWARE.
  38:funsape/peripheral/pcint1.hpp **** //!
  39:funsape/peripheral/pcint1.hpp **** //! ****************************************************************************
  40:funsape/peripheral/pcint1.hpp **** //!
  41:funsape/peripheral/pcint1.hpp **** 
  42:funsape/peripheral/pcint1.hpp **** // =============================================================================
  43:funsape/peripheral/pcint1.hpp **** // Include guard (START)
  44:funsape/peripheral/pcint1.hpp **** // =============================================================================
  45:funsape/peripheral/pcint1.hpp **** 
  46:funsape/peripheral/pcint1.hpp **** #ifndef __PCINT1_HPP
  47:funsape/peripheral/pcint1.hpp **** #define __PCINT1_HPP                    2604
  48:funsape/peripheral/pcint1.hpp **** 
  49:funsape/peripheral/pcint1.hpp **** // =============================================================================
  50:funsape/peripheral/pcint1.hpp **** // Dependencies
  51:funsape/peripheral/pcint1.hpp **** // =============================================================================
  52:funsape/peripheral/pcint1.hpp **** 
  53:funsape/peripheral/pcint1.hpp **** //     /////////////////     GLOBAL DEFINITIONS FILE    /////////////////     //
  54:funsape/peripheral/pcint1.hpp **** 
  55:funsape/peripheral/pcint1.hpp **** #include "../globalDefines.hpp"
  56:funsape/peripheral/pcint1.hpp **** #if !defined(__GLOBAL_DEFINES_HPP)
  57:funsape/peripheral/pcint1.hpp **** #   error [pcint1.hpp] Error 1 - Header file (globalDefines.hpp) is missing or corrupted!
  58:funsape/peripheral/pcint1.hpp **** #elif __GLOBAL_DEFINES_HPP != __PCINT1_HPP
  59:funsape/peripheral/pcint1.hpp **** #   error [pcint1.hpp] Error 2 - Build mismatch between file (pcint1.hpp) and global definitions fi
  60:funsape/peripheral/pcint1.hpp **** #endif
  61:funsape/peripheral/pcint1.hpp **** 
  62:funsape/peripheral/pcint1.hpp **** //     //////////////////     LIBRARY DEPENDENCIES     //////////////////     //
  63:funsape/peripheral/pcint1.hpp **** 
  64:funsape/peripheral/pcint1.hpp **** #include "../util/debug.hpp"
  65:funsape/peripheral/pcint1.hpp **** #if !defined(__DEBUG_HPP)
  66:funsape/peripheral/pcint1.hpp **** #   error [pcint1.hpp] Error 1 - Header file (debug.hpp) is missing or corrupted!
  67:funsape/peripheral/pcint1.hpp **** #elif __DEBUG_HPP != __PCINT1_HPP
  68:funsape/peripheral/pcint1.hpp **** #   error [pcint1.hpp] Error 5 - Build mismatch between file (pcint1.hpp) and library dependency (d
  69:funsape/peripheral/pcint1.hpp **** #endif
  70:funsape/peripheral/pcint1.hpp **** 
  71:funsape/peripheral/pcint1.hpp **** //     ///////////////////     STANDARD C LIBRARY     ///////////////////     //
  72:funsape/peripheral/pcint1.hpp **** 
  73:funsape/peripheral/pcint1.hpp **** // NONE
  74:funsape/peripheral/pcint1.hpp **** 
  75:funsape/peripheral/pcint1.hpp **** //     ////////////////////    AVR LIBRARY FILES     ////////////////////     //
  76:funsape/peripheral/pcint1.hpp **** 
  77:funsape/peripheral/pcint1.hpp **** // NONE
  78:funsape/peripheral/pcint1.hpp **** 
  79:funsape/peripheral/pcint1.hpp **** // =============================================================================
  80:funsape/peripheral/pcint1.hpp **** // Checks peripheral existance
  81:funsape/peripheral/pcint1.hpp **** // =============================================================================
GAS LISTING /tmp/ccOPlziU.s 			page 27


  82:funsape/peripheral/pcint1.hpp **** 
  83:funsape/peripheral/pcint1.hpp **** #if !defined(MCU_PCINT1_PERIPHERAL_EXISTS)
  84:funsape/peripheral/pcint1.hpp **** #   error [pcint1.hpp] Error X - Peripheral PCINT1 is not avalilable in selected device!
  85:funsape/peripheral/pcint1.hpp **** #endif
  86:funsape/peripheral/pcint1.hpp **** 
  87:funsape/peripheral/pcint1.hpp **** // +++++++++++++++++++++++++++++++++++++++++++++++++++++++++++++++++++++++++++++
  88:funsape/peripheral/pcint1.hpp **** // Doxygen: Start main group "Peripherals"
  89:funsape/peripheral/pcint1.hpp **** // +++++++++++++++++++++++++++++++++++++++++++++++++++++++++++++++++++++++++++++
  90:funsape/peripheral/pcint1.hpp **** 
  91:funsape/peripheral/pcint1.hpp **** //!
  92:funsape/peripheral/pcint1.hpp **** //! @addtogroup     Peripherals
  93:funsape/peripheral/pcint1.hpp **** //! @brief          Microcontroller peripherals.
  94:funsape/peripheral/pcint1.hpp **** //! @{
  95:funsape/peripheral/pcint1.hpp **** //!
  96:funsape/peripheral/pcint1.hpp **** 
  97:funsape/peripheral/pcint1.hpp **** // +++++++++++++++++++++++++++++++++++++++++++++++++++++++++++++++++++++++++++++
  98:funsape/peripheral/pcint1.hpp **** // Doxygen: Start subgroup "Pcint1" in "Peripherals"
  99:funsape/peripheral/pcint1.hpp **** // +++++++++++++++++++++++++++++++++++++++++++++++++++++++++++++++++++++++++++++
 100:funsape/peripheral/pcint1.hpp **** 
 101:funsape/peripheral/pcint1.hpp **** //!
 102:funsape/peripheral/pcint1.hpp **** //! @addtogroup     Pcint1
 103:funsape/peripheral/pcint1.hpp **** //! @brief          Pin Change Interrupt 1 (PCINT1) controller module.
 104:funsape/peripheral/pcint1.hpp **** //! @{
 105:funsape/peripheral/pcint1.hpp **** //!
 106:funsape/peripheral/pcint1.hpp **** 
 107:funsape/peripheral/pcint1.hpp **** // =============================================================================
 108:funsape/peripheral/pcint1.hpp **** // Undefining previous definitions
 109:funsape/peripheral/pcint1.hpp **** // =============================================================================
 110:funsape/peripheral/pcint1.hpp **** 
 111:funsape/peripheral/pcint1.hpp **** // NONE
 112:funsape/peripheral/pcint1.hpp **** 
 113:funsape/peripheral/pcint1.hpp **** // =============================================================================
 114:funsape/peripheral/pcint1.hpp **** // Constant definitions
 115:funsape/peripheral/pcint1.hpp **** // =============================================================================
 116:funsape/peripheral/pcint1.hpp **** 
 117:funsape/peripheral/pcint1.hpp **** // NONE
 118:funsape/peripheral/pcint1.hpp **** 
 119:funsape/peripheral/pcint1.hpp **** // =============================================================================
 120:funsape/peripheral/pcint1.hpp **** // New data types
 121:funsape/peripheral/pcint1.hpp **** // =============================================================================
 122:funsape/peripheral/pcint1.hpp **** 
 123:funsape/peripheral/pcint1.hpp **** // NONE
 124:funsape/peripheral/pcint1.hpp **** 
 125:funsape/peripheral/pcint1.hpp **** // =============================================================================
 126:funsape/peripheral/pcint1.hpp **** // Interrupt callback functions declarations
 127:funsape/peripheral/pcint1.hpp **** // =============================================================================
 128:funsape/peripheral/pcint1.hpp **** 
 129:funsape/peripheral/pcint1.hpp **** //!
 130:funsape/peripheral/pcint1.hpp **** //! @brief          PCINT1 interrupt callback function.
 131:funsape/peripheral/pcint1.hpp **** //! @details        This function is called when the PCINT1 interrupt is treated.
 132:funsape/peripheral/pcint1.hpp **** //!                     It is a weak function that can be overwritten by user
 133:funsape/peripheral/pcint1.hpp **** //!                     code.
 134:funsape/peripheral/pcint1.hpp **** //!
 135:funsape/peripheral/pcint1.hpp **** void pcint1InterruptCallback(void);
 136:funsape/peripheral/pcint1.hpp **** 
 137:funsape/peripheral/pcint1.hpp **** // =============================================================================
 138:funsape/peripheral/pcint1.hpp **** // Public functions declarations
GAS LISTING /tmp/ccOPlziU.s 			page 28


 139:funsape/peripheral/pcint1.hpp **** // =============================================================================
 140:funsape/peripheral/pcint1.hpp **** 
 141:funsape/peripheral/pcint1.hpp **** // NONE
 142:funsape/peripheral/pcint1.hpp **** 
 143:funsape/peripheral/pcint1.hpp **** // =============================================================================
 144:funsape/peripheral/pcint1.hpp **** // Classes
 145:funsape/peripheral/pcint1.hpp **** // =============================================================================
 146:funsape/peripheral/pcint1.hpp **** 
 147:funsape/peripheral/pcint1.hpp **** //!
 148:funsape/peripheral/pcint1.hpp **** //! @brief          Pcint1 class
 149:funsape/peripheral/pcint1.hpp **** //! @details        This class manages the Pin Change Interrupt 1 (PCINT1)
 150:funsape/peripheral/pcint1.hpp **** //!                     peripheral.
 151:funsape/peripheral/pcint1.hpp **** //! @attention      The @ref pcint1 instance of this class is already defined as
 152:funsape/peripheral/pcint1.hpp **** //!                     a singleton global object.
 153:funsape/peripheral/pcint1.hpp **** //!
 154:funsape/peripheral/pcint1.hpp **** class Pcint1
 155:funsape/peripheral/pcint1.hpp **** {
 156:funsape/peripheral/pcint1.hpp ****     // -------------------------------------------------------------------------
 157:funsape/peripheral/pcint1.hpp ****     // New data types ----------------------------------------------------------
 158:funsape/peripheral/pcint1.hpp **** 
 159:funsape/peripheral/pcint1.hpp **** public:
 160:funsape/peripheral/pcint1.hpp ****     //!
 161:funsape/peripheral/pcint1.hpp ****     //! @enum       Pin
 162:funsape/peripheral/pcint1.hpp ****     //! @brief      Trigger Mode Pins enumeration.
 163:funsape/peripheral/pcint1.hpp ****     //! @details    Trigger Mode Pins associated with PCINT1.
 164:funsape/peripheral/pcint1.hpp ****     //! @warning    The value associate with the symbolic names may change
 165:funsape/peripheral/pcint1.hpp ****     //!                 between builds and might not reflect the register/bits
 166:funsape/peripheral/pcint1.hpp ****     //!                 real values. In order to ensure compatibility between
 167:funsape/peripheral/pcint1.hpp ****     //!                 builds, always refer to the SYMBOLIC NAME, instead of
 168:funsape/peripheral/pcint1.hpp ****     //!                 its VALUE.
 169:funsape/peripheral/pcint1.hpp ****     //!
 170:funsape/peripheral/pcint1.hpp ****     enum class Pin : uint8_t {
 171:funsape/peripheral/pcint1.hpp **** #if defined(MCU_PCINT1_PIN_8_EXISTS)
 172:funsape/peripheral/pcint1.hpp ****         PIN_PCINT8          = (1 << 0), //!< Enables trigger by PCINT8 pin.
 173:funsape/peripheral/pcint1.hpp **** #endif
 174:funsape/peripheral/pcint1.hpp **** #if defined(MCU_PCINT1_PIN_9_EXISTS)
 175:funsape/peripheral/pcint1.hpp ****         PIN_PCINT9          = (1 << 1), //!< Enables trigger by PCINT9 pin.
 176:funsape/peripheral/pcint1.hpp **** #endif
 177:funsape/peripheral/pcint1.hpp **** #if defined(MCU_PCINT1_PIN_10_EXISTS)
 178:funsape/peripheral/pcint1.hpp ****         PIN_PCINT10         = (1 << 2), //!< Enables trigger by PCINT10 pin.
 179:funsape/peripheral/pcint1.hpp **** #endif
 180:funsape/peripheral/pcint1.hpp **** #if defined(MCU_PCINT1_PIN_11_EXISTS)
 181:funsape/peripheral/pcint1.hpp ****         PIN_PCINT11         = (1 << 3), //!< Enables trigger by PCINT11 pin.
 182:funsape/peripheral/pcint1.hpp **** #endif
 183:funsape/peripheral/pcint1.hpp **** #if defined(MCU_PCINT1_PIN_12_EXISTS)
 184:funsape/peripheral/pcint1.hpp ****         PIN_PCINT12         = (1 << 4), //!< Enables trigger by PCINT12 pin.
 185:funsape/peripheral/pcint1.hpp **** #endif
 186:funsape/peripheral/pcint1.hpp **** #if defined(MCU_PCINT1_PIN_13_EXISTS)
 187:funsape/peripheral/pcint1.hpp ****         PIN_PCINT13         = (1 << 5), //!< Enables trigger by PCINT13 pin.
 188:funsape/peripheral/pcint1.hpp **** #endif
 189:funsape/peripheral/pcint1.hpp **** #if defined(MCU_PCINT1_PIN_14_EXISTS)
 190:funsape/peripheral/pcint1.hpp ****         PIN_PCINT14         = (1 << 6), //!< Enables trigger by PCINT14 pin.
 191:funsape/peripheral/pcint1.hpp **** #endif
 192:funsape/peripheral/pcint1.hpp **** #if defined(MCU_PCINT1_PIN_15_EXISTS)
 193:funsape/peripheral/pcint1.hpp ****         PIN_PCINT15         = (1 << 7), //!< Enables trigger by PCINT15 pin.
 194:funsape/peripheral/pcint1.hpp **** #endif
 195:funsape/peripheral/pcint1.hpp ****     };
GAS LISTING /tmp/ccOPlziU.s 			page 29


 196:funsape/peripheral/pcint1.hpp **** 
 197:funsape/peripheral/pcint1.hpp **** private:
 198:funsape/peripheral/pcint1.hpp ****     // NONE
 199:funsape/peripheral/pcint1.hpp **** 
 200:funsape/peripheral/pcint1.hpp **** protected:
 201:funsape/peripheral/pcint1.hpp ****     // NONE
 202:funsape/peripheral/pcint1.hpp **** 
 203:funsape/peripheral/pcint1.hpp ****     // -------------------------------------------------------------------------
 204:funsape/peripheral/pcint1.hpp ****     // Constructors ------------------------------------------------------------
 205:funsape/peripheral/pcint1.hpp **** 
 206:funsape/peripheral/pcint1.hpp **** public:
 207:funsape/peripheral/pcint1.hpp ****     //!
 208:funsape/peripheral/pcint1.hpp ****     //! @brief      Pcint1 class destructor.
 209:funsape/peripheral/pcint1.hpp ****     //! @details    Destroys a Pcint1 object.
 210:funsape/peripheral/pcint1.hpp ****     //!
 211:funsape/peripheral/pcint1.hpp ****     ~Pcint1(
 212:funsape/peripheral/pcint1.hpp ****             void
 213:funsape/peripheral/pcint1.hpp ****     );
 214:funsape/peripheral/pcint1.hpp **** 
 215:funsape/peripheral/pcint1.hpp **** private:
 216:funsape/peripheral/pcint1.hpp ****     //!
 217:funsape/peripheral/pcint1.hpp ****     //! @brief      Pcint1 class constructor.
 218:funsape/peripheral/pcint1.hpp ****     //! @details    Creates a Pcint1 object. The object is loaded with the
 219:funsape/peripheral/pcint1.hpp ****     //!                 default register values (no pins enabled). The object
 220:funsape/peripheral/pcint1.hpp ****     //!                 still must be initialized before use
 221:funsape/peripheral/pcint1.hpp ****     //! @see        init(const Pcint1::Pin enablePins_p).
 222:funsape/peripheral/pcint1.hpp ****     //! @par Error codes:
 223:funsape/peripheral/pcint1.hpp ****     //!
 224:funsape/peripheral/pcint1.hpp ****     //! | Error code       | Meaning                           |
 225:funsape/peripheral/pcint1.hpp ****     //! |: ----------------|: ---------------------------------|
 226:funsape/peripheral/pcint1.hpp ****     //! | @ref Error::NONE | Success. No errors were detected. |
 227:funsape/peripheral/pcint1.hpp ****     //!
 228:funsape/peripheral/pcint1.hpp ****     Pcint1(
 229:funsape/peripheral/pcint1.hpp ****             void
 230:funsape/peripheral/pcint1.hpp ****     );
 231:funsape/peripheral/pcint1.hpp **** 
 232:funsape/peripheral/pcint1.hpp ****     //!
 233:funsape/peripheral/pcint1.hpp ****     //! @brief      Copy constructor (deleted).
 234:funsape/peripheral/pcint1.hpp ****     //! @details    Deleted to prevent cloning the Singleton instance.
 235:funsape/peripheral/pcint1.hpp ****     //!
 236:funsape/peripheral/pcint1.hpp ****     Pcint1(
 237:funsape/peripheral/pcint1.hpp ****             const Pcint1 &
 238:funsape/peripheral/pcint1.hpp ****     ) = delete;
 239:funsape/peripheral/pcint1.hpp **** 
 240:funsape/peripheral/pcint1.hpp ****     //!
 241:funsape/peripheral/pcint1.hpp ****     //! @brief      Copy assignment operator (deleted).
 242:funsape/peripheral/pcint1.hpp ****     //! @details    Deleted to prevent assignment of the Singleton instance.
 243:funsape/peripheral/pcint1.hpp ****     //!
 244:funsape/peripheral/pcint1.hpp ****     Pcint1 &operator=(
 245:funsape/peripheral/pcint1.hpp ****             const Pcint1 &
 246:funsape/peripheral/pcint1.hpp ****     ) = delete;
 247:funsape/peripheral/pcint1.hpp **** 
 248:funsape/peripheral/pcint1.hpp **** protected:
 249:funsape/peripheral/pcint1.hpp ****     // NONE
 250:funsape/peripheral/pcint1.hpp **** 
 251:funsape/peripheral/pcint1.hpp ****     // -------------------------------------------------------------------------
 252:funsape/peripheral/pcint1.hpp ****     // Methods - Inherited methods ---------------------------------------------
GAS LISTING /tmp/ccOPlziU.s 			page 30


 253:funsape/peripheral/pcint1.hpp **** 
 254:funsape/peripheral/pcint1.hpp **** public:
 255:funsape/peripheral/pcint1.hpp ****     // NONE
 256:funsape/peripheral/pcint1.hpp **** 
 257:funsape/peripheral/pcint1.hpp **** protected:
 258:funsape/peripheral/pcint1.hpp ****     // NONE
 259:funsape/peripheral/pcint1.hpp **** 
 260:funsape/peripheral/pcint1.hpp ****     // -------------------------------------------------------------------------
 261:funsape/peripheral/pcint1.hpp ****     // Methods - class own methods ---------------------------------------------
 262:funsape/peripheral/pcint1.hpp **** 
 263:funsape/peripheral/pcint1.hpp **** public:
 264:funsape/peripheral/pcint1.hpp ****     //     ///////////////////    SINGLETON ACCESS    ///////////////////     //
 265:funsape/peripheral/pcint1.hpp **** 
 266:funsape/peripheral/pcint1.hpp ****     //!
 267:funsape/peripheral/pcint1.hpp ****     //! @brief      Returns the Singleton instance.
 268:funsape/peripheral/pcint1.hpp ****     //! @details    Provides global access to the single instance of the Pcint1
 269:funsape/peripheral/pcint1.hpp ****     //!                 class. This method is tightly inlined to ensure
 270:funsape/peripheral/pcint1.hpp ****     //!                 zero-overhead during execution.
 271:funsape/peripheral/pcint1.hpp ****     //! @return     Reference to the single Pcint1 instance.
 272:funsape/peripheral/pcint1.hpp ****     //!
 273:funsape/peripheral/pcint1.hpp ****     static inlined Pcint1 &getInstance(
 274:funsape/peripheral/pcint1.hpp ****             void
 275:funsape/peripheral/pcint1.hpp ****     );
 276:funsape/peripheral/pcint1.hpp **** 
 277:funsape/peripheral/pcint1.hpp ****     //     /////////////////     CONTROL AND STATUS     /////////////////     //
 278:funsape/peripheral/pcint1.hpp **** 
 279:funsape/peripheral/pcint1.hpp ****     //!
 280:funsape/peripheral/pcint1.hpp ****     //! @brief      Disables edge detection on pins.
 281:funsape/peripheral/pcint1.hpp ****     //! @details    Disables edge detection on pins to trigger the interrupt
 282:funsape/peripheral/pcint1.hpp ****     //!                 when a logical change event is detected.
 283:funsape/peripheral/pcint1.hpp ****     //! @param[in]  disablePins_p       Disable interrupt pins. Multiple pins
 284:funsape/peripheral/pcint1.hpp ****     //!                                     can be disabled at the same time by
 285:funsape/peripheral/pcint1.hpp ****     //!                                     using bitwise-OR (|) operations.
 286:funsape/peripheral/pcint1.hpp ****     //! @retval     true                if success.
 287:funsape/peripheral/pcint1.hpp ****     //! @retval     false               if an error occurred. Retrieve the error
 288:funsape/peripheral/pcint1.hpp ****     //!                                     by calling
 289:funsape/peripheral/pcint1.hpp ****     //!                                 @ref Pcint1::getLastError().
 290:funsape/peripheral/pcint1.hpp ****     //! @par Error codes:
 291:funsape/peripheral/pcint1.hpp ****     //!
 292:funsape/peripheral/pcint1.hpp ****     //! | Error code       | Meaning                          |
 293:funsape/peripheral/pcint1.hpp ****     //! |:-----------------|:---------------------------------|
 294:funsape/peripheral/pcint1.hpp ****     //! | @ref Error::NONE | Success. No erros were detected. |
 295:funsape/peripheral/pcint1.hpp ****     //!
 296:funsape/peripheral/pcint1.hpp ****     bool_t disablePins(
 297:funsape/peripheral/pcint1.hpp ****             const Pcint1::Pin disablePins_p
 298:funsape/peripheral/pcint1.hpp ****     );
 299:funsape/peripheral/pcint1.hpp **** 
 300:funsape/peripheral/pcint1.hpp ****     //!
 301:funsape/peripheral/pcint1.hpp ****     //! @brief      Enables edge detection on pins.
 302:funsape/peripheral/pcint1.hpp ****     //! @details    Configure pins that trigger the interrupt when a logical
 303:funsape/peripheral/pcint1.hpp ****     //!                 change event is detected.
 304:funsape/peripheral/pcint1.hpp ****     //! @param[in]  enablePins_p        Enable interrupt pins. Multiple pins can
 305:funsape/peripheral/pcint1.hpp ****     //!                                     be enabled at the same time by using
 306:funsape/peripheral/pcint1.hpp ****     //!                                     bitwise-OR (|) operations.
 307:funsape/peripheral/pcint1.hpp ****     //! @retval     true                if success.
 308:funsape/peripheral/pcint1.hpp ****     //! @retval     false               if an error occurred. Retrieve the error
 309:funsape/peripheral/pcint1.hpp ****     //!                                     by calling
GAS LISTING /tmp/ccOPlziU.s 			page 31


 310:funsape/peripheral/pcint1.hpp ****     //!                                     @ref Pcint1::getLastError().
 311:funsape/peripheral/pcint1.hpp ****     //! @par Error codes:
 312:funsape/peripheral/pcint1.hpp ****     //!
 313:funsape/peripheral/pcint1.hpp ****     //! | Error code       | Meaning                          |
 314:funsape/peripheral/pcint1.hpp ****     //! |:-----------------|:---------------------------------|
 315:funsape/peripheral/pcint1.hpp ****     //! | @ref Error::NONE | Success. No erros were detected. |
 316:funsape/peripheral/pcint1.hpp ****     //!
 317:funsape/peripheral/pcint1.hpp ****     bool_t enablePins(
 318:funsape/peripheral/pcint1.hpp ****             const Pcint1::Pin enablePins_p
 319:funsape/peripheral/pcint1.hpp ****     );
 320:funsape/peripheral/pcint1.hpp **** 
 321:funsape/peripheral/pcint1.hpp ****     //!
 322:funsape/peripheral/pcint1.hpp ****     //! @brief      Returns the last error.
 323:funsape/peripheral/pcint1.hpp ****     //! @details    Returns the last error.
 324:funsape/peripheral/pcint1.hpp ****     //! @return     @ref Error          Error status of the last operation.
 325:funsape/peripheral/pcint1.hpp ****     //!
 326:funsape/peripheral/pcint1.hpp ****     Error inlined getLastError(
 327:funsape/peripheral/pcint1.hpp ****             void
 328:funsape/peripheral/pcint1.hpp ****     ) const;
 329:funsape/peripheral/pcint1.hpp **** 
 330:funsape/peripheral/pcint1.hpp ****     //!
 331:funsape/peripheral/pcint1.hpp ****     //! @brief      Initializes the Pcint1 module.
 332:funsape/peripheral/pcint1.hpp ****     //! @details    Initializes the PCINT1 module. The function also enables the
 333:funsape/peripheral/pcint1.hpp ****     //!                 pins that trigger the interrupt. The default parameter
 334:funsape/peripheral/pcint1.hpp ****     //!                 has no pins enabled.
 335:funsape/peripheral/pcint1.hpp ****     //! @param[in]  enablePins_p        Enable interrupt pins. Multiples pins
 336:funsape/peripheral/pcint1.hpp ****     //!                                     can be enabled at the same time by
 337:funsape/peripheral/pcint1.hpp ****     //!                                     using bitwise-OR (|) operations.
 338:funsape/peripheral/pcint1.hpp ****     //! @retval     true                if success.
 339:funsape/peripheral/pcint1.hpp ****     //! @retval     false               if an error occurred. Retrieve the error
 340:funsape/peripheral/pcint1.hpp ****     //!                                     by calling
 341:funsape/peripheral/pcint1.hpp ****     //!                                     @ref Pcint1::getLastError().
 342:funsape/peripheral/pcint1.hpp ****     //! @par Error codes:
 343:funsape/peripheral/pcint1.hpp ****     //!
 344:funsape/peripheral/pcint1.hpp ****     //! | Error code                    | Meaning                              |
 345:funsape/peripheral/pcint1.hpp ****     //! |:------------------------------|:-------------------------------------|
 346:funsape/peripheral/pcint1.hpp ****     //! | @ref Error::NONE              | Success. No erros were detected.     |
 347:funsape/peripheral/pcint1.hpp ****     //!
 348:funsape/peripheral/pcint1.hpp ****     bool_t init(
 349:funsape/peripheral/pcint1.hpp ****             const Pcint1::Pin enablePins_p = (Pcint1::Pin)0
 350:funsape/peripheral/pcint1.hpp ****     );
 351:funsape/peripheral/pcint1.hpp **** 
 352:funsape/peripheral/pcint1.hpp ****     //!
 353:funsape/peripheral/pcint1.hpp ****     //! @brief      Sets the @c PCINT1 pin operation mode.
 354:funsape/peripheral/pcint1.hpp ****     //! @details    This function sets the @c PCINT1 GPIO pin operation mode to
 355:funsape/peripheral/pcint1.hpp ****     //!                 the given @a mode_p.
 356:funsape/peripheral/pcint1.hpp ****     //! @param[in]  pinList_p           List of pins to be configured. Multiple
 357:funsape/peripheral/pcint1.hpp ****     //!                                     pins can be configured at the same
 358:funsape/peripheral/pcint1.hpp ****     //!                                     time by using bitwise-OR operations.
 359:funsape/peripheral/pcint1.hpp ****     //! @param[in]  mode_p              @ref Pcint1::PinMode operation mode.
 360:funsape/peripheral/pcint1.hpp ****     //! @retval     true                if success.
 361:funsape/peripheral/pcint1.hpp ****     //! @retval     false               if an error occurred. Retrieve the error
 362:funsape/peripheral/pcint1.hpp ****     //!                                     by calling
 363:funsape/peripheral/pcint1.hpp ****     //!                                     @ref Pcint1::getLastError().
 364:funsape/peripheral/pcint1.hpp ****     //! @par Error codes:
 365:funsape/peripheral/pcint1.hpp ****     //!
 366:funsape/peripheral/pcint1.hpp ****     //! | Error code       | Meaning                          |
GAS LISTING /tmp/ccOPlziU.s 			page 32


 367:funsape/peripheral/pcint1.hpp ****     //! |:-----------------|:---------------------------------|
 368:funsape/peripheral/pcint1.hpp ****     //! | @ref Error::NONE | Success. No erros were detected. |
 369:funsape/peripheral/pcint1.hpp ****     //!
 370:funsape/peripheral/pcint1.hpp ****     bool_t setPinMode(
 371:funsape/peripheral/pcint1.hpp ****             const Pcint1::Pin pinList_p,
 372:funsape/peripheral/pcint1.hpp ****             const PinMode mode_p
 373:funsape/peripheral/pcint1.hpp ****     );
 374:funsape/peripheral/pcint1.hpp **** 
 375:funsape/peripheral/pcint1.hpp ****     //     //////////////////////    INTERRUPT     //////////////////////     //
 376:funsape/peripheral/pcint1.hpp **** 
 377:funsape/peripheral/pcint1.hpp ****     //!
 378:funsape/peripheral/pcint1.hpp ****     //! @brief      Activates interrupt.
 379:funsape/peripheral/pcint1.hpp ****     //! @details    Activates interrupt. If an interrupt request is pending, an
 380:funsape/peripheral/pcint1.hpp ****     //!                 interrupt will be triggered when activated. In most
 381:funsape/peripheral/pcint1.hpp ****     //!                 applications, it is recommended to ignore an old
 382:funsape/peripheral/pcint1.hpp ****     //!                 interrupt request prior to activate the interrupt. This
 383:funsape/peripheral/pcint1.hpp ****     //!                 can be done by calling
 384:funsape/peripheral/pcint1.hpp ****     //!                 @ref Pcint1::clearInterruptRequest() immediately before
 385:funsape/peripheral/pcint1.hpp ****     //!                 activating the interrupt.
 386:funsape/peripheral/pcint1.hpp ****     //!
 387:funsape/peripheral/pcint1.hpp ****     void inlined activateInterrupt(
 388:funsape/peripheral/pcint1.hpp ****             void
 389:funsape/peripheral/pcint1.hpp ****     ) const;
 390:funsape/peripheral/pcint1.hpp **** 
 391:funsape/peripheral/pcint1.hpp ****     //!
 392:funsape/peripheral/pcint1.hpp ****     //! @brief      Clears interrupt flag.
 393:funsape/peripheral/pcint1.hpp ****     //! @details    Clears interrupt flag, dismissing any pending interrupt
 394:funsape/peripheral/pcint1.hpp ****     //!                 request.
 395:funsape/peripheral/pcint1.hpp ****     //!
 396:funsape/peripheral/pcint1.hpp ****     void inlined clearInterruptRequest(
 397:funsape/peripheral/pcint1.hpp ****             void
 398:funsape/peripheral/pcint1.hpp ****     ) const;
 399:funsape/peripheral/pcint1.hpp **** 
 400:funsape/peripheral/pcint1.hpp ****     //!
 401:funsape/peripheral/pcint1.hpp ****     //! @brief      Deactivates interrupt.
 402:funsape/peripheral/pcint1.hpp ****     //! @details    Deactivates interrupt. This function does not clears any
 403:funsape/peripheral/pcint1.hpp ****     //!                 pending interrupt request.
 404:funsape/peripheral/pcint1.hpp ****     //!
 405:funsape/peripheral/pcint1.hpp ****     void inlined deactivateInterrupt(
 406:funsape/peripheral/pcint1.hpp ****             void
 407:funsape/peripheral/pcint1.hpp ****     ) const;
 408:funsape/peripheral/pcint1.hpp **** 
 409:funsape/peripheral/pcint1.hpp **** private:
 410:funsape/peripheral/pcint1.hpp ****     // NONE
 411:funsape/peripheral/pcint1.hpp **** 
 412:funsape/peripheral/pcint1.hpp **** protected:
 413:funsape/peripheral/pcint1.hpp ****     // NONE
 414:funsape/peripheral/pcint1.hpp **** 
 415:funsape/peripheral/pcint1.hpp ****     // -------------------------------------------------------------------------
 416:funsape/peripheral/pcint1.hpp ****     // Properties --------------------------------------------------------------
 417:funsape/peripheral/pcint1.hpp **** 
 418:funsape/peripheral/pcint1.hpp **** private:
 419:funsape/peripheral/pcint1.hpp ****     //     /////////////////    SINGLETON INSTANCE     //////////////////     //
 420:funsape/peripheral/pcint1.hpp ****     static Pcint1   _instance;                  //|< Static private instance
 421:funsape/peripheral/pcint1.hpp **** 
 422:funsape/peripheral/pcint1.hpp ****     //     /////////////////    CONTROL AND STATUS     //////////////////     //
 423:funsape/peripheral/pcint1.hpp ****     bool_t          _isInitialized      : 1;    //!< Initialization flag.
GAS LISTING /tmp/ccOPlziU.s 			page 33


 424:funsape/peripheral/pcint1.hpp ****     Error           _lastError;                 //!< Last error.
 425:funsape/peripheral/pcint1.hpp **** 
 426:funsape/peripheral/pcint1.hpp ****     //     ////////////////////   CONFIGURATION     /////////////////////     //
 427:funsape/peripheral/pcint1.hpp ****     Pcint1::Pin     _enabledPins;               //!< Sense mode trigger.
 428:funsape/peripheral/pcint1.hpp **** 
 429:funsape/peripheral/pcint1.hpp **** protected:
 430:funsape/peripheral/pcint1.hpp ****     // NONE
 431:funsape/peripheral/pcint1.hpp **** 
 432:funsape/peripheral/pcint1.hpp **** }; // class Pcint1
 433:funsape/peripheral/pcint1.hpp **** 
 434:funsape/peripheral/pcint1.hpp **** // =============================================================================
 435:funsape/peripheral/pcint1.hpp **** // Inlined class functions
 436:funsape/peripheral/pcint1.hpp **** // =============================================================================
 437:funsape/peripheral/pcint1.hpp **** 
 438:funsape/peripheral/pcint1.hpp **** //!
 439:funsape/peripheral/pcint1.hpp **** //! @cond
 440:funsape/peripheral/pcint1.hpp **** //!
 441:funsape/peripheral/pcint1.hpp **** 
 442:funsape/peripheral/pcint1.hpp **** //     /////////////////////    SINGLETON ACCESS    /////////////////////     //
 443:funsape/peripheral/pcint1.hpp **** 
 444:funsape/peripheral/pcint1.hpp **** Pcint1 inlined &Pcint1::getInstance(void)
 543               		.loc 3 444 17 view .LVU131
 445:funsape/peripheral/pcint1.hpp **** {
 446:funsape/peripheral/pcint1.hpp ****     return Pcint1::_instance;
 544               		.loc 3 446 5 view .LVU132
 545               	.LBE101:
  73:main.cpp      ****     pcint1.setPinMode(Pcint1::Pin::PIN_PCINT8 | Pcint1::Pin::PIN_PCINT9 | Pcint1::Pin::PIN_PCINT10,
 546               		.loc 1 73 22 is_stmt 0 discriminator 3 view .LVU133
 547 0010 41E0      		ldi r20,lo8(1)
 548 0012 67E0      		ldi r22,lo8(7)
 549 0014 80E0      		ldi r24,lo8(_ZN6Pcint19_instanceE)
 550 0016 90E0      		ldi r25,hi8(_ZN6Pcint19_instanceE)
 551 0018 0E94 0000 		call _ZN6Pcint110setPinModeENS_3PinE7PinMode
 552               	.LVL34:
  74:main.cpp      ****     pcint1.init(Pcint1::Pin::PIN_PCINT8 | Pcint1::Pin::PIN_PCINT9 | Pcint1::Pin::PIN_PCINT10);
 553               		.loc 1 74 5 is_stmt 1 view .LVU134
 554               	.LBB102:
 555               	.LBI102:
 444:funsape/peripheral/pcint1.hpp **** {
 556               		.loc 3 444 17 view .LVU135
 557               		.loc 3 446 5 view .LVU136
 558               	.LBE102:
  74:main.cpp      ****     pcint1.init(Pcint1::Pin::PIN_PCINT8 | Pcint1::Pin::PIN_PCINT9 | Pcint1::Pin::PIN_PCINT10);
 559               		.loc 1 74 16 is_stmt 0 discriminator 3 view .LVU137
 560 001c 67E0      		ldi r22,lo8(7)
 561 001e 80E0      		ldi r24,lo8(_ZN6Pcint19_instanceE)
 562 0020 90E0      		ldi r25,hi8(_ZN6Pcint19_instanceE)
 563 0022 0E94 0000 		call _ZN6Pcint14initENS_3PinE
 564               	.LVL35:
  75:main.cpp      ****     pcint1.clearInterruptRequest();
 565               		.loc 1 75 5 is_stmt 1 view .LVU138
 566               	.LBB103:
 567               	.LBI103:
 447:funsape/peripheral/pcint1.hpp **** }
 448:funsape/peripheral/pcint1.hpp **** 
 449:funsape/peripheral/pcint1.hpp **** //     /////////////////     CONTROL AND STATUS     /////////////////     //
 450:funsape/peripheral/pcint1.hpp **** 
GAS LISTING /tmp/ccOPlziU.s 			page 34


 451:funsape/peripheral/pcint1.hpp **** Error inlined Pcint1::getLastError(void) const
 452:funsape/peripheral/pcint1.hpp **** {
 453:funsape/peripheral/pcint1.hpp ****     // Returns last error
 454:funsape/peripheral/pcint1.hpp ****     return this->_lastError;
 455:funsape/peripheral/pcint1.hpp **** }
 456:funsape/peripheral/pcint1.hpp **** 
 457:funsape/peripheral/pcint1.hpp **** //     ////////////////////////    INTERRUPT     ////////////////////////     //
 458:funsape/peripheral/pcint1.hpp **** 
 459:funsape/peripheral/pcint1.hpp **** void inlined Pcint1::activateInterrupt(void) const
 460:funsape/peripheral/pcint1.hpp **** {
 461:funsape/peripheral/pcint1.hpp ****     setBit(MCU_PCINT1_ENABLE_REG, MCU_PCINT1_ENABLE_BIT_POS);
 462:funsape/peripheral/pcint1.hpp ****     return;
 463:funsape/peripheral/pcint1.hpp **** }
 464:funsape/peripheral/pcint1.hpp **** 
 465:funsape/peripheral/pcint1.hpp **** void inlined Pcint1::clearInterruptRequest(void) const
 568               		.loc 3 465 14 view .LVU139
 569               	.LBB104:
 466:funsape/peripheral/pcint1.hpp **** {
 467:funsape/peripheral/pcint1.hpp ****     setBit(MCU_PCINT1_FLAG_REG, MCU_PCINT1_FLAG_BIT);
 570               		.loc 3 467 5 view .LVU140
 571               		.loc 3 467 5 view .LVU141
 572 0026 8BB3      		in r24,0x1b
 573 0028 8260      		ori r24,lo8(2)
 574 002a 8BBB      		out 0x1b,r24
 575               		.loc 3 467 5 view .LVU142
 468:funsape/peripheral/pcint1.hpp ****     return;
 576               		.loc 3 468 5 view .LVU143
 577               	.LVL36:
 578               		.loc 3 468 5 is_stmt 0 view .LVU144
 579               	.LBE104:
 580               	.LBE103:
  76:main.cpp      ****     pcint1.activateInterrupt();
 581               		.loc 1 76 5 is_stmt 1 view .LVU145
 582               	.LBB105:
 583               	.LBI105:
 459:funsape/peripheral/pcint1.hpp **** {
 584               		.loc 3 459 14 view .LVU146
 585               	.LBB106:
 461:funsape/peripheral/pcint1.hpp ****     return;
 586               		.loc 3 461 5 view .LVU147
 461:funsape/peripheral/pcint1.hpp ****     return;
 587               		.loc 3 461 5 view .LVU148
 588 002c E8E6      		ldi r30,lo8(104)
 589 002e F0E0      		ldi r31,0
 590 0030 8081      		ld r24,Z
 591 0032 8260      		ori r24,lo8(2)
 592 0034 8083      		st Z,r24
 461:funsape/peripheral/pcint1.hpp ****     return;
 593               		.loc 3 461 5 view .LVU149
 462:funsape/peripheral/pcint1.hpp **** }
 594               		.loc 3 462 5 view .LVU150
 595               	.LVL37:
 462:funsape/peripheral/pcint1.hpp **** }
 596               		.loc 3 462 5 is_stmt 0 view .LVU151
 597               	.LBE106:
 598               	.LBE105:
  80:main.cpp      ****     {
GAS LISTING /tmp/ccOPlziU.s 			page 35


 599               		.loc 1 80 5 is_stmt 1 view .LVU152
  84:main.cpp      ****     buttons.init(&PORTC, PinIndex::P0, 3);
 600               		.loc 1 84 5 view .LVU153
  84:main.cpp      ****     buttons.init(&PORTC, PinIndex::P0, 3);
 601               		.loc 1 84 17 is_stmt 0 view .LVU154
 602 0036 23E0      		ldi r18,lo8(3)
 603 0038 40E0      		ldi r20,0
 604 003a 68E2      		ldi r22,lo8(40)
 605 003c 70E0      		ldi r23,0
 606 003e 80E0      		ldi r24,lo8(buttons)
 607 0040 90E0      		ldi r25,hi8(buttons)
 608 0042 0E94 0000 		call _ZN7GpioBus4initEPVh8PinIndexh
 609               	.LVL38:
  85:main.cpp      ****     buttons.setMode(PinMode::INPUT_PULLED_UP);
 610               		.loc 1 85 5 is_stmt 1 view .LVU155
  85:main.cpp      ****     buttons.setMode(PinMode::INPUT_PULLED_UP);
 611               		.loc 1 85 20 is_stmt 0 view .LVU156
 612 0046 61E0      		ldi r22,lo8(1)
 613 0048 80E0      		ldi r24,lo8(buttons)
 614 004a 90E0      		ldi r25,hi8(buttons)
 615 004c 0E94 0000 		call _ZN7GpioBus7setModeE7PinMode
 616               	.LVL39:
  87:main.cpp      ****     slave_select_esp.init(&PORTB, PinIndex::P1);
 617               		.loc 1 87 5 is_stmt 1 view .LVU157
  87:main.cpp      ****     slave_select_esp.init(&PORTB, PinIndex::P1);
 618               		.loc 1 87 26 is_stmt 0 view .LVU158
 619 0050 41E0      		ldi r20,lo8(1)
 620 0052 65E2      		ldi r22,lo8(37)
 621 0054 70E0      		ldi r23,0
 622 0056 80E0      		ldi r24,lo8(slave_select_esp)
 623 0058 90E0      		ldi r25,hi8(slave_select_esp)
 624 005a 0E94 0000 		call _ZN7GpioPin4initEPVh8PinIndex
 625               	.LVL40:
  88:main.cpp      ****     slave_select_esp.setMode(PinMode::OUTPUT_PUSH_PULL);
 626               		.loc 1 88 5 is_stmt 1 view .LVU159
  88:main.cpp      ****     slave_select_esp.setMode(PinMode::OUTPUT_PUSH_PULL);
 627               		.loc 1 88 29 is_stmt 0 view .LVU160
 628 005e 62E0      		ldi r22,lo8(2)
 629 0060 80E0      		ldi r24,lo8(slave_select_esp)
 630 0062 90E0      		ldi r25,hi8(slave_select_esp)
 631 0064 0E94 0000 		call _ZN7GpioPin7setModeE7PinMode
 632               	.LVL41:
  92:main.cpp      ****     {
 633               		.loc 1 92 5 is_stmt 1 view .LVU161
  94:main.cpp      ****     clrBit(PRR, PRSPI);
 634               		.loc 1 94 5 view .LVU162
  94:main.cpp      ****     clrBit(PRR, PRSPI);
 635               		.loc 1 94 5 view .LVU163
 636 0068 E4E6      		ldi r30,lo8(100)
 637 006a F0E0      		ldi r31,0
 638 006c 8081      		ld r24,Z
 639 006e 8B7F      		andi r24,lo8(-5)
 640 0070 8083      		st Z,r24
  94:main.cpp      ****     clrBit(PRR, PRSPI);
 641               		.loc 1 94 5 view .LVU164
  96:main.cpp      ****     setBit(DDRB, (uint8_t)PinIndex::P2); // SS
 642               		.loc 1 96 5 view .LVU165
GAS LISTING /tmp/ccOPlziU.s 			page 36


  96:main.cpp      ****     setBit(DDRB, (uint8_t)PinIndex::P2); // SS
 643               		.loc 1 96 5 view .LVU166
 644 0072 84B1      		in r24,0x4
 645 0074 8460      		ori r24,lo8(4)
 646 0076 84B9      		out 0x4,r24
  96:main.cpp      ****     setBit(DDRB, (uint8_t)PinIndex::P2); // SS
 647               		.loc 1 96 5 view .LVU167
  97:main.cpp      ****     setBit(DDRB, (uint8_t)PinIndex::P3); // MOSI
 648               		.loc 1 97 5 view .LVU168
  97:main.cpp      ****     setBit(DDRB, (uint8_t)PinIndex::P3); // MOSI
 649               		.loc 1 97 5 view .LVU169
 650 0078 84B1      		in r24,0x4
 651 007a 8860      		ori r24,lo8(8)
 652 007c 84B9      		out 0x4,r24
  97:main.cpp      ****     setBit(DDRB, (uint8_t)PinIndex::P3); // MOSI
 653               		.loc 1 97 5 view .LVU170
  98:main.cpp      ****     clrBit(DDRB, (uint8_t)PinIndex::P4); // MISO
 654               		.loc 1 98 5 view .LVU171
  98:main.cpp      ****     clrBit(DDRB, (uint8_t)PinIndex::P4); // MISO
 655               		.loc 1 98 5 view .LVU172
 656 007e 84B1      		in r24,0x4
 657 0080 8F7E      		andi r24,lo8(-17)
 658 0082 84B9      		out 0x4,r24
  98:main.cpp      ****     clrBit(DDRB, (uint8_t)PinIndex::P4); // MISO
 659               		.loc 1 98 5 view .LVU173
  99:main.cpp      ****     setBit(DDRB, (uint8_t)PinIndex::P5); // SCK
 660               		.loc 1 99 5 view .LVU174
  99:main.cpp      ****     setBit(DDRB, (uint8_t)PinIndex::P5); // SCK
 661               		.loc 1 99 5 view .LVU175
 662 0084 84B1      		in r24,0x4
 663 0086 8062      		ori r24,lo8(32)
 664 0088 84B9      		out 0x4,r24
  99:main.cpp      ****     setBit(DDRB, (uint8_t)PinIndex::P5); // SCK
 665               		.loc 1 99 5 view .LVU176
 110:main.cpp      ****     SPCR = 0b1010001;
 666               		.loc 1 110 5 view .LVU177
 110:main.cpp      ****     SPCR = 0b1010001;
 667               		.loc 1 110 10 is_stmt 0 view .LVU178
 668 008a 81E5      		ldi r24,lo8(81)
 669 008c 8CBD      		out 0x2c,r24
 114:main.cpp      ****     {
 670               		.loc 1 114 5 is_stmt 1 view .LVU179
 115:main.cpp      ****     timer0.init(Timer0::Mode::CTC_OCRA, //Colocamos quantos ciclos pra chegar na interrupção
 671               		.loc 1 115 5 view .LVU180
 672               	.LBB107:
 673               	.LBI107:
 674               		.file 4 "funsape/peripheral/timer0.hpp"
   1:funsape/peripheral/timer0.hpp **** //!
   2:funsape/peripheral/timer0.hpp **** //! ****************************************************************************
   3:funsape/peripheral/timer0.hpp **** //! @file           timer0.hpp
   4:funsape/peripheral/timer0.hpp **** //! @author         Leandro Schwarz (bladabuska+funsapeavr8lib@gmail.com)
   5:funsape/peripheral/timer0.hpp **** //! @brief          TIMER0 peripheral control.
   6:funsape/peripheral/timer0.hpp **** //! @details        This file provides peripheral control for the TIMER0 module
   7:funsape/peripheral/timer0.hpp **** //!                     for the FunSAPE++ AVR8 Library.
   8:funsape/peripheral/timer0.hpp **** //! @date           2026-04-03
   9:funsape/peripheral/timer0.hpp **** //! @version        26.04
  10:funsape/peripheral/timer0.hpp **** //! @copyright      MIT License
GAS LISTING /tmp/ccOPlziU.s 			page 37


  11:funsape/peripheral/timer0.hpp **** //! @note           No notes at this time.
  12:funsape/peripheral/timer0.hpp **** //! @todo           No items in todo list yet.
  13:funsape/peripheral/timer0.hpp **** //! @bug            No bugs detected yet.
  14:funsape/peripheral/timer0.hpp **** //! ****************************************************************************
  15:funsape/peripheral/timer0.hpp **** //! @attention
  16:funsape/peripheral/timer0.hpp **** //!
  17:funsape/peripheral/timer0.hpp **** //! MIT License
  18:funsape/peripheral/timer0.hpp **** //!
  19:funsape/peripheral/timer0.hpp **** //! Copyright (c) 2026 Leandro Schwarz
  20:funsape/peripheral/timer0.hpp **** //!
  21:funsape/peripheral/timer0.hpp **** //! Permission is hereby granted, free of charge, to any person obtaining a copy
  22:funsape/peripheral/timer0.hpp **** //!     of this software and associated documentation files (the "Software"), to
  23:funsape/peripheral/timer0.hpp **** //!     deal in the Software without restriction, including without limitation
  24:funsape/peripheral/timer0.hpp **** //!     the rights to use, copy, modify, merge, publish, distribute, sublicense,
  25:funsape/peripheral/timer0.hpp **** //!     and/or sell copies of the Software, and to permit persons to whom the
  26:funsape/peripheral/timer0.hpp **** //!     Software is furnished to do so, subject to the following conditions:
  27:funsape/peripheral/timer0.hpp **** //!
  28:funsape/peripheral/timer0.hpp **** //! The above copyright notice and this permission notice shall be included in
  29:funsape/peripheral/timer0.hpp **** //!     all copies or substantial portions of the Software.
  30:funsape/peripheral/timer0.hpp **** //!
  31:funsape/peripheral/timer0.hpp **** //! THE SOFTWARE IS PROVIDED "AS IS", WITHOUT WARRANTY OF ANY KIND, EXPRESS OR
  32:funsape/peripheral/timer0.hpp **** //!     IMPLIED, INCLUDING BUT NOT LIMITED TO THE WARRANTIES OF MERCHANTABILITY,
  33:funsape/peripheral/timer0.hpp **** //!     FITNESS FOR A PARTICULAR PURPOSE AND NONINFRINGEMENT. IN NO EVENT SHALL
  34:funsape/peripheral/timer0.hpp **** //!     THE AUTHORS OR COPYRIGHT HOLDERS BE LIABLE FOR ANY CLAIM, DAMAGES OR
  35:funsape/peripheral/timer0.hpp **** //!     OTHER LIABILITY, WHETHER IN AN ACTION OF CONTRACT, TORT OR OTHERWISE,
  36:funsape/peripheral/timer0.hpp **** //!     ARISING FROM, OUT OF OR IN CONNECTION WITH THE SOFTWARE OR THE USE OR
  37:funsape/peripheral/timer0.hpp **** //!     OTHER DEALINGS IN THE SOFTWARE.
  38:funsape/peripheral/timer0.hpp **** //!
  39:funsape/peripheral/timer0.hpp **** //! ****************************************************************************
  40:funsape/peripheral/timer0.hpp **** //!
  41:funsape/peripheral/timer0.hpp **** 
  42:funsape/peripheral/timer0.hpp **** // =============================================================================
  43:funsape/peripheral/timer0.hpp **** // Include guard (START)
  44:funsape/peripheral/timer0.hpp **** // =============================================================================
  45:funsape/peripheral/timer0.hpp **** 
  46:funsape/peripheral/timer0.hpp **** #ifndef __TIMER0_HPP
  47:funsape/peripheral/timer0.hpp **** #define __TIMER0_HPP                    2604
  48:funsape/peripheral/timer0.hpp **** 
  49:funsape/peripheral/timer0.hpp **** // =============================================================================
  50:funsape/peripheral/timer0.hpp **** // Dependencies
  51:funsape/peripheral/timer0.hpp **** // =============================================================================
  52:funsape/peripheral/timer0.hpp **** 
  53:funsape/peripheral/timer0.hpp **** //     /////////////////     GLOBAL DEFINITIONS FILE    /////////////////     //
  54:funsape/peripheral/timer0.hpp **** 
  55:funsape/peripheral/timer0.hpp **** #include "../globalDefines.hpp"
  56:funsape/peripheral/timer0.hpp **** #if !defined(__GLOBAL_DEFINES_HPP)
  57:funsape/peripheral/timer0.hpp **** #   error [timer0.hpp] Error 1 - Header file (globalDefines.hpp) is missing or corrupted!
  58:funsape/peripheral/timer0.hpp **** #elif __GLOBAL_DEFINES_HPP != __TIMER0_HPP
  59:funsape/peripheral/timer0.hpp **** #   error [timer0.hpp] Error 2 - Build mismatch between file (timer0.hpp) and global definitions fi
  60:funsape/peripheral/timer0.hpp **** #endif
  61:funsape/peripheral/timer0.hpp **** 
  62:funsape/peripheral/timer0.hpp **** //     //////////////////     LIBRARY DEPENDENCIES     //////////////////     //
  63:funsape/peripheral/timer0.hpp **** 
  64:funsape/peripheral/timer0.hpp **** #include "../util/debug.hpp"
  65:funsape/peripheral/timer0.hpp **** #if !defined(__DEBUG_HPP)
  66:funsape/peripheral/timer0.hpp **** #   error [timer0.hpp] Error 1 - Header file (debug.hpp) is missing or corrupted!
  67:funsape/peripheral/timer0.hpp **** #elif __DEBUG_HPP != __TIMER0_HPP
GAS LISTING /tmp/ccOPlziU.s 			page 38


  68:funsape/peripheral/timer0.hpp **** #   error [timer0.hpp] Error 5 - Build mismatch between file (timer0.hpp) and library dependency (d
  69:funsape/peripheral/timer0.hpp **** #endif
  70:funsape/peripheral/timer0.hpp **** 
  71:funsape/peripheral/timer0.hpp **** //     ///////////////////     STANDARD C LIBRARY     ///////////////////     //
  72:funsape/peripheral/timer0.hpp **** 
  73:funsape/peripheral/timer0.hpp **** // NONE
  74:funsape/peripheral/timer0.hpp **** 
  75:funsape/peripheral/timer0.hpp **** //     ////////////////////    AVR LIBRARY FILES     ////////////////////     //
  76:funsape/peripheral/timer0.hpp **** 
  77:funsape/peripheral/timer0.hpp **** // NONE
  78:funsape/peripheral/timer0.hpp **** 
  79:funsape/peripheral/timer0.hpp **** // =============================================================================
  80:funsape/peripheral/timer0.hpp **** // Checks peripheral existance
  81:funsape/peripheral/timer0.hpp **** // =============================================================================
  82:funsape/peripheral/timer0.hpp **** 
  83:funsape/peripheral/timer0.hpp **** #if !defined(MCU_TIMER0_PERIPHERAL_EXISTS)
  84:funsape/peripheral/timer0.hpp **** #   error [timer0.hpp] Error X - Peripheral TIMER0 is not avalilable in selected device!
  85:funsape/peripheral/timer0.hpp **** #endif
  86:funsape/peripheral/timer0.hpp **** 
  87:funsape/peripheral/timer0.hpp **** // +++++++++++++++++++++++++++++++++++++++++++++++++++++++++++++++++++++++++++++
  88:funsape/peripheral/timer0.hpp **** // Doxygen: Start main group "Peripherals"
  89:funsape/peripheral/timer0.hpp **** // +++++++++++++++++++++++++++++++++++++++++++++++++++++++++++++++++++++++++++++
  90:funsape/peripheral/timer0.hpp **** 
  91:funsape/peripheral/timer0.hpp **** //!
  92:funsape/peripheral/timer0.hpp **** //! @addtogroup     Peripherals
  93:funsape/peripheral/timer0.hpp **** //! @brief          Microcontroller peripherals.
  94:funsape/peripheral/timer0.hpp **** //! @{
  95:funsape/peripheral/timer0.hpp **** //!
  96:funsape/peripheral/timer0.hpp **** 
  97:funsape/peripheral/timer0.hpp **** // +++++++++++++++++++++++++++++++++++++++++++++++++++++++++++++++++++++++++++++
  98:funsape/peripheral/timer0.hpp **** // Doxygen: Start subgroup "Timer0" in "Peripherals"
  99:funsape/peripheral/timer0.hpp **** // +++++++++++++++++++++++++++++++++++++++++++++++++++++++++++++++++++++++++++++
 100:funsape/peripheral/timer0.hpp **** 
 101:funsape/peripheral/timer0.hpp **** //!
 102:funsape/peripheral/timer0.hpp **** //! @addtogroup     Timer0
 103:funsape/peripheral/timer0.hpp **** //! @brief          Timer/Counter 0 (TIMER0) controller module.
 104:funsape/peripheral/timer0.hpp **** //! @{
 105:funsape/peripheral/timer0.hpp **** //!
 106:funsape/peripheral/timer0.hpp **** 
 107:funsape/peripheral/timer0.hpp **** // =============================================================================
 108:funsape/peripheral/timer0.hpp **** // Undefining previous definitions
 109:funsape/peripheral/timer0.hpp **** // =============================================================================
 110:funsape/peripheral/timer0.hpp **** 
 111:funsape/peripheral/timer0.hpp **** // NONE
 112:funsape/peripheral/timer0.hpp **** 
 113:funsape/peripheral/timer0.hpp **** // =============================================================================
 114:funsape/peripheral/timer0.hpp **** // Constant definitions
 115:funsape/peripheral/timer0.hpp **** // =============================================================================
 116:funsape/peripheral/timer0.hpp **** 
 117:funsape/peripheral/timer0.hpp **** // NONE
 118:funsape/peripheral/timer0.hpp **** 
 119:funsape/peripheral/timer0.hpp **** // =============================================================================
 120:funsape/peripheral/timer0.hpp **** // New data types
 121:funsape/peripheral/timer0.hpp **** // =============================================================================
 122:funsape/peripheral/timer0.hpp **** 
 123:funsape/peripheral/timer0.hpp **** // NONE
 124:funsape/peripheral/timer0.hpp **** 
GAS LISTING /tmp/ccOPlziU.s 			page 39


 125:funsape/peripheral/timer0.hpp **** // =============================================================================
 126:funsape/peripheral/timer0.hpp **** // Interrupt callback functions declarations
 127:funsape/peripheral/timer0.hpp **** // =============================================================================
 128:funsape/peripheral/timer0.hpp **** 
 129:funsape/peripheral/timer0.hpp **** //!
 130:funsape/peripheral/timer0.hpp **** //! @brief          TIMER0 compare A match interrupt callback function.
 131:funsape/peripheral/timer0.hpp **** //! @details        This function is called when the TIMER0 compare A match
 132:funsape/peripheral/timer0.hpp **** //!                     interrupt is treated. It is a weak function that can be
 133:funsape/peripheral/timer0.hpp **** //!                     overwritten by user code.
 134:funsape/peripheral/timer0.hpp **** //!
 135:funsape/peripheral/timer0.hpp **** void timer0CompareACallback(void);
 136:funsape/peripheral/timer0.hpp **** 
 137:funsape/peripheral/timer0.hpp **** //!
 138:funsape/peripheral/timer0.hpp **** //! @brief          TIMER0 compare B match interrupt callback function.
 139:funsape/peripheral/timer0.hpp **** //! @details        This function is called when the TIMER0 compare B match
 140:funsape/peripheral/timer0.hpp **** //!                     interrupt is treated. It is a weak function that can be
 141:funsape/peripheral/timer0.hpp **** //!                     overwritten by user code.
 142:funsape/peripheral/timer0.hpp **** //!
 143:funsape/peripheral/timer0.hpp **** void timer0CompareBCallback(void);
 144:funsape/peripheral/timer0.hpp **** 
 145:funsape/peripheral/timer0.hpp **** //!
 146:funsape/peripheral/timer0.hpp **** //! @brief          TIMER0 overflow interrupt callback function.
 147:funsape/peripheral/timer0.hpp **** //! @details        This function is called when the TIMER0 overflow interrupt
 148:funsape/peripheral/timer0.hpp **** //!                     is treated. It is a weak function that can be
 149:funsape/peripheral/timer0.hpp **** //!                     overwritten by user code.
 150:funsape/peripheral/timer0.hpp **** //!
 151:funsape/peripheral/timer0.hpp **** void timer0OverflowCallback(void);
 152:funsape/peripheral/timer0.hpp **** 
 153:funsape/peripheral/timer0.hpp **** // =============================================================================
 154:funsape/peripheral/timer0.hpp **** // Public functions declarations
 155:funsape/peripheral/timer0.hpp **** // =============================================================================
 156:funsape/peripheral/timer0.hpp **** 
 157:funsape/peripheral/timer0.hpp **** // NONE
 158:funsape/peripheral/timer0.hpp **** 
 159:funsape/peripheral/timer0.hpp **** // =============================================================================
 160:funsape/peripheral/timer0.hpp **** // Classes
 161:funsape/peripheral/timer0.hpp **** // =============================================================================
 162:funsape/peripheral/timer0.hpp **** 
 163:funsape/peripheral/timer0.hpp **** //!
 164:funsape/peripheral/timer0.hpp **** //! @brief          Timer0 class
 165:funsape/peripheral/timer0.hpp **** //! @details        This class manages the Timer/Counter 0 (TIMER0) peripheral.
 166:funsape/peripheral/timer0.hpp **** //! @attention      The @ref timer0 instance of this class is already defined as
 167:funsape/peripheral/timer0.hpp **** //!                     a singleton global object.
 168:funsape/peripheral/timer0.hpp **** //!
 169:funsape/peripheral/timer0.hpp **** class Timer0
 170:funsape/peripheral/timer0.hpp **** {
 171:funsape/peripheral/timer0.hpp ****     // -------------------------------------------------------------------------
 172:funsape/peripheral/timer0.hpp ****     // New data types ----------------------------------------------------------
 173:funsape/peripheral/timer0.hpp **** 
 174:funsape/peripheral/timer0.hpp **** public:
 175:funsape/peripheral/timer0.hpp ****     //!
 176:funsape/peripheral/timer0.hpp ****     //! @enum       ClockSource
 177:funsape/peripheral/timer0.hpp ****     //! @brief      Clock prescaler enumeration.
 178:funsape/peripheral/timer0.hpp ****     //! @details    Clock prescaler options associated with TIMER0.
 179:funsape/peripheral/timer0.hpp ****     //! @warning    The value associate with the symbolic names may change
 180:funsape/peripheral/timer0.hpp ****     //!                 between builds and might not reflect the register/bits
 181:funsape/peripheral/timer0.hpp ****     //!                 real values. In order to ensure compatibility between
GAS LISTING /tmp/ccOPlziU.s 			page 40


 182:funsape/peripheral/timer0.hpp ****     //!                 builds, always refer to the SYMBOLIC NAME, instead of
 183:funsape/peripheral/timer0.hpp ****     //!                 its VALUE.
 184:funsape/peripheral/timer0.hpp ****     //!
 185:funsape/peripheral/timer0.hpp ****     enum class ClockSource : uint8_t {
 186:funsape/peripheral/timer0.hpp ****         DISABLED = 0,           //!< Disables clock, timer is off.
 187:funsape/peripheral/timer0.hpp ****         PRESCALER_1 = 1,        //!< Disables prescaler, timer clock frequency will be equal to CPU
 188:funsape/peripheral/timer0.hpp ****         PRESCALER_8 = 2,        //!< Timer clock frequency will be CPU clock divided by 8.
 189:funsape/peripheral/timer0.hpp ****         PRESCALER_64 = 3,       //!< Timer clock frequency will be CPU clock divided by 64.
 190:funsape/peripheral/timer0.hpp ****         PRESCALER_256 = 4,      //!< Timer clock frequency will be CPU clock divided by 256.
 191:funsape/peripheral/timer0.hpp ****         PRESCALER_1024 = 5,     //!< Timer clock frequency will be CPU clock divided by 1024.
 192:funsape/peripheral/timer0.hpp ****         T0_FALLING_EDGE = 6,    //!< Timer clock will be based on the falling edge of a signal plac
 193:funsape/peripheral/timer0.hpp ****         T0_RISING_EDGE = 7      //!< Timer clock will be based on the rising edge of a signal place
 194:funsape/peripheral/timer0.hpp ****     };
 195:funsape/peripheral/timer0.hpp **** 
 196:funsape/peripheral/timer0.hpp ****     //!
 197:funsape/peripheral/timer0.hpp ****     //! @enum       Mode
 198:funsape/peripheral/timer0.hpp ****     //! @brief      Operation mode enumeration.
 199:funsape/peripheral/timer0.hpp ****     //! @details    Operation mode options associated with TIMER0.
 200:funsape/peripheral/timer0.hpp ****     //! @warning    The value associate with the symbolic names may change
 201:funsape/peripheral/timer0.hpp ****     //!                 between builds and might not reflect the register/bits
 202:funsape/peripheral/timer0.hpp ****     //!                 real values. In order to ensure compatibility between
 203:funsape/peripheral/timer0.hpp ****     //!                 builds, always refer to the SYMBOLIC NAME, instead of
 204:funsape/peripheral/timer0.hpp ****     //!                 its VALUE.
 205:funsape/peripheral/timer0.hpp ****     //!
 206:funsape/peripheral/timer0.hpp ****     enum class Mode : uint8_t {
 207:funsape/peripheral/timer0.hpp ****         NORMAL = 0,                     //!< Normal mode (direction = UP / TOP = 0xFF / UPDATE OCR0
 208:funsape/peripheral/timer0.hpp ****         PWM_PHASE_CORRECTED_MAX = 1,    //!< PWM mode with phase correction (direction = DOWN then 
 209:funsape/peripheral/timer0.hpp ****         CTC_OCRA = 2,                   //!< CTC mode (direction = UP / TOP = MCU_TIMER0_OCR0A_REG 
 210:funsape/peripheral/timer0.hpp ****         PWM_FAST_MAX = 3,               //!< PWM mode fast (direction = UP / TOP = 0xFF / UPDATE OC
 211:funsape/peripheral/timer0.hpp ****         // RESERVED                     = 4,
 212:funsape/peripheral/timer0.hpp ****         PWM_PHASE_CORRECTED_OCRA = 5,   //!< PWM mode fast (direction = UP / TOP = MCU_TIMER0_OCR0A
 213:funsape/peripheral/timer0.hpp ****         // RESERVED                     = 6,
 214:funsape/peripheral/timer0.hpp ****         PWM_FAST_OCRA = 7,              //!< PWM mode with phase correction (direction = DOWN then 
 215:funsape/peripheral/timer0.hpp ****     };
 216:funsape/peripheral/timer0.hpp **** 
 217:funsape/peripheral/timer0.hpp ****     //!
 218:funsape/peripheral/timer0.hpp ****     //! @enum       OutputMode
 219:funsape/peripheral/timer0.hpp ****     //! @brief      Output mode enumeration.
 220:funsape/peripheral/timer0.hpp ****     //! @details    Output Mmode options associated with TIMER0.
 221:funsape/peripheral/timer0.hpp ****     //! @warning    The value associate with the symbolic names may change
 222:funsape/peripheral/timer0.hpp ****     //!                 between builds and might not reflect the register/bits
 223:funsape/peripheral/timer0.hpp ****     //!                 real values. In order to ensure compatibility between
 224:funsape/peripheral/timer0.hpp ****     //!                 builds, always refer to the SYMBOLIC NAME, instead of
 225:funsape/peripheral/timer0.hpp ****     //!                 its VALUE.
 226:funsape/peripheral/timer0.hpp ****     //!
 227:funsape/peripheral/timer0.hpp ****     enum class OutputMode : uint8_t {
 228:funsape/peripheral/timer0.hpp ****         NORMAL_GPIO_OPERATION = 0,      //!< OC0x disabled. Normal GPIO port operation.
 229:funsape/peripheral/timer0.hpp ****         TOGGLE_ON_COMPARE = 1,          //!< OC0x will toggle on OCR0x compare match.
 230:funsape/peripheral/timer0.hpp ****         CLEAR_ON_COMPARE = 2,           //!< OC0x will clear on OCR0x compare match.
 231:funsape/peripheral/timer0.hpp ****         SET_ON_COMPARE = 3,             //!< OC0x will set on OCR0x compare match.
 232:funsape/peripheral/timer0.hpp ****         NON_INVERTING_MODE = 2,         //!< OC0x will produce a non-inverted PWM signal.
 233:funsape/peripheral/timer0.hpp ****         INVERTING_MODE = 3,             //!< OC0x will produce a inverted PWM signal.
 234:funsape/peripheral/timer0.hpp ****     };
 235:funsape/peripheral/timer0.hpp **** 
 236:funsape/peripheral/timer0.hpp **** private:
 237:funsape/peripheral/timer0.hpp ****     // NONE
 238:funsape/peripheral/timer0.hpp **** 
GAS LISTING /tmp/ccOPlziU.s 			page 41


 239:funsape/peripheral/timer0.hpp **** protected:
 240:funsape/peripheral/timer0.hpp ****     // NONE
 241:funsape/peripheral/timer0.hpp **** 
 242:funsape/peripheral/timer0.hpp **** // -------------------------------------------------------------------------
 243:funsape/peripheral/timer0.hpp **** // Constructors ------------------------------------------------------------
 244:funsape/peripheral/timer0.hpp **** 
 245:funsape/peripheral/timer0.hpp **** public:
 246:funsape/peripheral/timer0.hpp ****     //!
 247:funsape/peripheral/timer0.hpp ****     //! @brief      Timer0 class destructor.
 248:funsape/peripheral/timer0.hpp ****     //! @details    Destroys a Timer0 object.
 249:funsape/peripheral/timer0.hpp ****     //!
 250:funsape/peripheral/timer0.hpp ****     ~Timer0(
 251:funsape/peripheral/timer0.hpp ****             void
 252:funsape/peripheral/timer0.hpp ****     );
 253:funsape/peripheral/timer0.hpp **** 
 254:funsape/peripheral/timer0.hpp **** private:
 255:funsape/peripheral/timer0.hpp ****     //!
 256:funsape/peripheral/timer0.hpp ****     //! @brief      Timer0 class constructor.
 257:funsape/peripheral/timer0.hpp ****     //! @details    Creates a Timer0 object. The object is loaded with the
 258:funsape/peripheral/timer0.hpp ****     //!                 default register values:
 259:funsape/peripheral/timer0.hpp ****     //!                 @ref Timer0::ClockSource::DISABLED and
 260:funsape/peripheral/timer0.hpp ****     //!                 @ref Timer0::Mode::NORMAL. The object still must be
 261:funsape/peripheral/timer0.hpp ****     //!                 initialized before use.
 262:funsape/peripheral/timer0.hpp ****     //! @see        init(const Timer0::Mode mode_p, const Timer0::ClockSource clockSource_p).
 263:funsape/peripheral/timer0.hpp ****     //! @par Error codes:
 264:funsape/peripheral/timer0.hpp ****     //!
 265:funsape/peripheral/timer0.hpp ****     //! | Error code       | Meaning                           |
 266:funsape/peripheral/timer0.hpp ****     //! |: ----------------|: ---------------------------------|
 267:funsape/peripheral/timer0.hpp ****     //! | @ref Error::NONE | Success. No errors were detected. |
 268:funsape/peripheral/timer0.hpp ****     //!
 269:funsape/peripheral/timer0.hpp ****     Timer0(
 270:funsape/peripheral/timer0.hpp ****             void
 271:funsape/peripheral/timer0.hpp ****     );
 272:funsape/peripheral/timer0.hpp **** 
 273:funsape/peripheral/timer0.hpp ****     //!
 274:funsape/peripheral/timer0.hpp ****     //! @brief      Copy constructor (deleted).
 275:funsape/peripheral/timer0.hpp ****     //! @details    Deleted to prevent cloning the Singleton instance.
 276:funsape/peripheral/timer0.hpp ****     //!
 277:funsape/peripheral/timer0.hpp ****     Timer0(
 278:funsape/peripheral/timer0.hpp ****             const Timer0 &
 279:funsape/peripheral/timer0.hpp ****     ) = delete;
 280:funsape/peripheral/timer0.hpp **** 
 281:funsape/peripheral/timer0.hpp ****     //!
 282:funsape/peripheral/timer0.hpp ****     //! @brief      Copy assignment operator (deleted).
 283:funsape/peripheral/timer0.hpp ****     //! @details    Deleted to prevent assignment of the Singleton instance.
 284:funsape/peripheral/timer0.hpp ****     //!
 285:funsape/peripheral/timer0.hpp ****     Timer0 &operator=(
 286:funsape/peripheral/timer0.hpp ****             const Timer0 &
 287:funsape/peripheral/timer0.hpp ****     ) = delete;
 288:funsape/peripheral/timer0.hpp **** 
 289:funsape/peripheral/timer0.hpp **** protected:
 290:funsape/peripheral/timer0.hpp ****     // NONE
 291:funsape/peripheral/timer0.hpp **** 
 292:funsape/peripheral/timer0.hpp ****     // -------------------------------------------------------------------------
 293:funsape/peripheral/timer0.hpp ****     // Methods - Inherited methods ---------------------------------------------
 294:funsape/peripheral/timer0.hpp **** 
 295:funsape/peripheral/timer0.hpp **** public:
GAS LISTING /tmp/ccOPlziU.s 			page 42


 296:funsape/peripheral/timer0.hpp ****     // NONE
 297:funsape/peripheral/timer0.hpp **** 
 298:funsape/peripheral/timer0.hpp **** protected:
 299:funsape/peripheral/timer0.hpp ****     // NONE
 300:funsape/peripheral/timer0.hpp **** 
 301:funsape/peripheral/timer0.hpp ****     // -------------------------------------------------------------------------
 302:funsape/peripheral/timer0.hpp ****     // Methods - class own methods ---------------------------------------------
 303:funsape/peripheral/timer0.hpp **** 
 304:funsape/peripheral/timer0.hpp **** public:
 305:funsape/peripheral/timer0.hpp ****     //     ///////////////////    SINGLETON ACCESS    ///////////////////     //
 306:funsape/peripheral/timer0.hpp **** 
 307:funsape/peripheral/timer0.hpp ****     //!
 308:funsape/peripheral/timer0.hpp ****     //! @brief      Returns the Singleton instance.
 309:funsape/peripheral/timer0.hpp ****     //! @details    Provides global access to the single instance of the Timer0
 310:funsape/peripheral/timer0.hpp ****     //!                 class. This method is tightly inlined to ensure
 311:funsape/peripheral/timer0.hpp ****     //!                 zero-overhead during execution.
 312:funsape/peripheral/timer0.hpp ****     //! @return     Reference to the single Timer0 instance.
 313:funsape/peripheral/timer0.hpp ****     //!
 314:funsape/peripheral/timer0.hpp ****     static inlined Timer0 &getInstance(
 315:funsape/peripheral/timer0.hpp ****             void
 316:funsape/peripheral/timer0.hpp ****     );
 317:funsape/peripheral/timer0.hpp **** 
 318:funsape/peripheral/timer0.hpp ****     //     /////////////////     CONTROL AND STATUS     /////////////////     //
 319:funsape/peripheral/timer0.hpp **** 
 320:funsape/peripheral/timer0.hpp ****     //!
 321:funsape/peripheral/timer0.hpp ****     //! @brief      Returns the last error.
 322:funsape/peripheral/timer0.hpp ****     //! @details    Returns the last error.
 323:funsape/peripheral/timer0.hpp ****     //! @return     @ref Error          Error status of the last operation.
 324:funsape/peripheral/timer0.hpp ****     //!
 325:funsape/peripheral/timer0.hpp ****     Error inlined getLastError(
 326:funsape/peripheral/timer0.hpp ****             void
 327:funsape/peripheral/timer0.hpp ****     ) const;
 328:funsape/peripheral/timer0.hpp **** 
 329:funsape/peripheral/timer0.hpp ****     //!
 330:funsape/peripheral/timer0.hpp ****     //! @brief      Initializes the Timer0 module.
 331:funsape/peripheral/timer0.hpp ****     //! @details    Initializes the Timer0 module.
 332:funsape/peripheral/timer0.hpp ****     //! @param[in]  mode_p              Operation mode.
 333:funsape/peripheral/timer0.hpp ****     //! @param[in]  clockSource_p       Clock source and prescaler.
 334:funsape/peripheral/timer0.hpp ****     //! @retval     true                if success.
 335:funsape/peripheral/timer0.hpp ****     //! @retval     false               if an error occurred. Retrieve the error
 336:funsape/peripheral/timer0.hpp ****     //!                                     by calling
 337:funsape/peripheral/timer0.hpp ****     //!                                     @ref Timer0::getLastError().
 338:funsape/peripheral/timer0.hpp ****     //! @par Error codes:
 339:funsape/peripheral/timer0.hpp ****     //!
 340:funsape/peripheral/timer0.hpp ****     //! | Error code       | Meaning                          |
 341:funsape/peripheral/timer0.hpp ****     //! |:-----------------|:---------------------------------|
 342:funsape/peripheral/timer0.hpp ****     //! | @ref Error::NONE | Success. No erros were detected. |
 343:funsape/peripheral/timer0.hpp ****     //!
 344:funsape/peripheral/timer0.hpp ****     bool_t init(
 345:funsape/peripheral/timer0.hpp ****             const Timer0::Mode mode_p,
 346:funsape/peripheral/timer0.hpp ****             const Timer0::ClockSource clockSource_p
 347:funsape/peripheral/timer0.hpp ****     );
 348:funsape/peripheral/timer0.hpp **** 
 349:funsape/peripheral/timer0.hpp ****     //!
 350:funsape/peripheral/timer0.hpp ****     //! @brief       Configures the clock source and prescaler.
 351:funsape/peripheral/timer0.hpp ****     //! @details     Configures the clock source and prescaler.
 352:funsape/peripheral/timer0.hpp ****     //! @param[in]   clockSource_p       Clock source and prescaler.
GAS LISTING /tmp/ccOPlziU.s 			page 43


 353:funsape/peripheral/timer0.hpp ****     //! @retval      true                if success.
 354:funsape/peripheral/timer0.hpp ****     //! @retval      false               if an error occurred. Retrieve the error
 355:funsape/peripheral/timer0.hpp ****     //!                                      by calling
 356:funsape/peripheral/timer0.hpp ****     //!                                     @ref Timer0::getLastError().
 357:funsape/peripheral/timer0.hpp ****     //! @par Error codes:
 358:funsape/peripheral/timer0.hpp ****     //!
 359:funsape/peripheral/timer0.hpp ****     //! | Error code       | Meaning                          |
 360:funsape/peripheral/timer0.hpp ****     //! |:-----------------|:---------------------------------|
 361:funsape/peripheral/timer0.hpp ****     //! | @ref Error::NONE | Success. No erros were detected. |
 362:funsape/peripheral/timer0.hpp ****     //!
 363:funsape/peripheral/timer0.hpp ****     bool_t setClockSource(
 364:funsape/peripheral/timer0.hpp ****             const Timer0::ClockSource clockSource_p
 365:funsape/peripheral/timer0.hpp ****     );
 366:funsape/peripheral/timer0.hpp **** 
 367:funsape/peripheral/timer0.hpp ****     //!
 368:funsape/peripheral/timer0.hpp ****     //! @brief      Configures the operation mode.
 369:funsape/peripheral/timer0.hpp ****     //! @details    Configures the operation mode.
 370:funsape/peripheral/timer0.hpp ****     //! @param[in]  mode_p              Operation mode.
 371:funsape/peripheral/timer0.hpp ****     //! @retval     true                if success.
 372:funsape/peripheral/timer0.hpp ****     //! @retval     false               if an error occurred. Retrieve the error
 373:funsape/peripheral/timer0.hpp ****     //!                                     by calling
 374:funsape/peripheral/timer0.hpp ****     //!                                     @ref Timer0::getLastError().
 375:funsape/peripheral/timer0.hpp ****     //! @par Error codes:
 376:funsape/peripheral/timer0.hpp ****     //!
 377:funsape/peripheral/timer0.hpp ****     //! | Error code       | Meaning                          |
 378:funsape/peripheral/timer0.hpp ****     //! |:-----------------|:---------------------------------|
 379:funsape/peripheral/timer0.hpp ****     //! | @ref Error::NONE | Success. No erros were detected. |
 380:funsape/peripheral/timer0.hpp ****     //!
 381:funsape/peripheral/timer0.hpp ****     bool_t setMode(
 382:funsape/peripheral/timer0.hpp ****             const Timer0::Mode mode_p
 383:funsape/peripheral/timer0.hpp ****     );
 384:funsape/peripheral/timer0.hpp **** 
 385:funsape/peripheral/timer0.hpp ****     //!
 386:funsape/peripheral/timer0.hpp ****     //! @brief      Configures the output compare pins mode.
 387:funsape/peripheral/timer0.hpp ****     //! @details    Configures the desired behavior of @c OC0x pins during
 388:funsape/peripheral/timer0.hpp ****     //!                 compare match.
 389:funsape/peripheral/timer0.hpp ****     //! @param[in]  compA_p             Behavior of @c OC0A pin during a compare
 390:funsape/peripheral/timer0.hpp ****     //!                                     A match.
 391:funsape/peripheral/timer0.hpp ****     //! @param[in]  compB_p             Behavior of @c OC0B pin during a compare
 392:funsape/peripheral/timer0.hpp ****     //!                                     B match.
 393:funsape/peripheral/timer0.hpp ****     //! @retval     true                if success.
 394:funsape/peripheral/timer0.hpp ****     //! @retval     false               if an error occurred. Retrieve the error
 395:funsape/peripheral/timer0.hpp ****     //!                                     by calling
 396:funsape/peripheral/timer0.hpp ****     //!                                     @ref Timer0::getLastError().
 397:funsape/peripheral/timer0.hpp ****     //! @par Error codes:
 398:funsape/peripheral/timer0.hpp ****     //!
 399:funsape/peripheral/timer0.hpp ****     //! | Error code       | Meaning                          |
 400:funsape/peripheral/timer0.hpp ****     //! |:-----------------|:---------------------------------|
 401:funsape/peripheral/timer0.hpp ****     //! | @ref Error::NONE | Success. No erros were detected. |
 402:funsape/peripheral/timer0.hpp ****     //!
 403:funsape/peripheral/timer0.hpp ****     bool_t setOutputMode(
 404:funsape/peripheral/timer0.hpp ****             const Timer0::OutputMode compA_p,
 405:funsape/peripheral/timer0.hpp ****             const Timer0::OutputMode compB_p
 406:funsape/peripheral/timer0.hpp ****     );
 407:funsape/peripheral/timer0.hpp **** 
 408:funsape/peripheral/timer0.hpp ****     //     /////////////////////     COMPARE A     //////////////////////     //
 409:funsape/peripheral/timer0.hpp **** 
GAS LISTING /tmp/ccOPlziU.s 			page 44


 410:funsape/peripheral/timer0.hpp ****     //!
 411:funsape/peripheral/timer0.hpp ****     //! @brief      Activates Compare A Match interrupt.
 412:funsape/peripheral/timer0.hpp ****     //! @details    Activates Compare A Match interrupt. If an interrupt request
 413:funsape/peripheral/timer0.hpp ****     //!                 is pending, an interrupt will be triggered when
 414:funsape/peripheral/timer0.hpp ****     //!                 activated. In most applications, it is recommended to
 415:funsape/peripheral/timer0.hpp ****     //!                 ignore an old interrupt request prior to activate the
 416:funsape/peripheral/timer0.hpp ****     //!                 interrupt. This can be done by calling
 417:funsape/peripheral/timer0.hpp ****     //!                 @ref Timer0::clearCompareAInterruptRequest() function
 418:funsape/peripheral/timer0.hpp ****     //!                 imediatelly before activating the interrupt.
 419:funsape/peripheral/timer0.hpp ****     //!
 420:funsape/peripheral/timer0.hpp ****     void inlined activateCompareAInterrupt(
 421:funsape/peripheral/timer0.hpp ****             void
 422:funsape/peripheral/timer0.hpp ****     ) const;
 423:funsape/peripheral/timer0.hpp **** 
 424:funsape/peripheral/timer0.hpp ****     //!
 425:funsape/peripheral/timer0.hpp ****     //! @brief      Clears Compare A Match interrupt flag.
 426:funsape/peripheral/timer0.hpp ****     //! @details    Clears Compare A Match interrupt flag, dismissing any
 427:funsape/peripheral/timer0.hpp ****     //!                 pending interrupt request.
 428:funsape/peripheral/timer0.hpp ****     //!
 429:funsape/peripheral/timer0.hpp ****     void inlined clearCompareAInterruptRequest(
 430:funsape/peripheral/timer0.hpp ****             void
 431:funsape/peripheral/timer0.hpp ****     ) const;
 432:funsape/peripheral/timer0.hpp **** 
 433:funsape/peripheral/timer0.hpp ****     //!
 434:funsape/peripheral/timer0.hpp ****     //! @brief      Deactivates Compare A Match interrupt.
 435:funsape/peripheral/timer0.hpp ****     //! @details    Deactivates Compare A Match interrupt. This function does
 436:funsape/peripheral/timer0.hpp ****     //!                 not clears any pending interrupt request.
 437:funsape/peripheral/timer0.hpp ****     //!
 438:funsape/peripheral/timer0.hpp ****     void inlined deactivateCompareAInterrupt(
 439:funsape/peripheral/timer0.hpp ****             void
 440:funsape/peripheral/timer0.hpp ****     ) const;
 441:funsape/peripheral/timer0.hpp **** 
 442:funsape/peripheral/timer0.hpp ****     //!
 443:funsape/peripheral/timer0.hpp ****     //! @brief      Forces a Compare A Match condition on output pin.
 444:funsape/peripheral/timer0.hpp ****     //! @details    Forces a Compare A Match condition on output pin. No
 445:funsape/peripheral/timer0.hpp ****     //!                 interrupt will be generated.
 446:funsape/peripheral/timer0.hpp ****     //!
 447:funsape/peripheral/timer0.hpp ****     void inlined forceCompareA(
 448:funsape/peripheral/timer0.hpp ****             void
 449:funsape/peripheral/timer0.hpp ****     ) const;
 450:funsape/peripheral/timer0.hpp **** 
 451:funsape/peripheral/timer0.hpp ****     //!
 452:funsape/peripheral/timer0.hpp ****     //! @brief      Returns the Compare A Match value.
 453:funsape/peripheral/timer0.hpp ****     //! @details    Returns the Compare A Match value at @c OCR0A register.
 454:funsape/peripheral/timer0.hpp ****     //! @return     the value of the Compare A Match, i.e. the value of @c OCR0A
 455:funsape/peripheral/timer0.hpp ****     //!                 register.
 456:funsape/peripheral/timer0.hpp ****     //!
 457:funsape/peripheral/timer0.hpp ****     uint8_t inlined getCompareAValue(
 458:funsape/peripheral/timer0.hpp ****             void
 459:funsape/peripheral/timer0.hpp ****     ) const;
 460:funsape/peripheral/timer0.hpp **** 
 461:funsape/peripheral/timer0.hpp ****     //!
 462:funsape/peripheral/timer0.hpp ****     //! @brief      Sets the Compare A Match value.
 463:funsape/peripheral/timer0.hpp ****     //! @details    Sets the Compare A Match value at @c OCR0A register.
 464:funsape/peripheral/timer0.hpp ****     //! @param[in]  value_p             Compare A Match value.
 465:funsape/peripheral/timer0.hpp ****     //!
 466:funsape/peripheral/timer0.hpp ****     void inlined setCompareAValue(
GAS LISTING /tmp/ccOPlziU.s 			page 45


 467:funsape/peripheral/timer0.hpp ****             cuint8_t value_p
 468:funsape/peripheral/timer0.hpp ****     ) const;
 469:funsape/peripheral/timer0.hpp **** 
 470:funsape/peripheral/timer0.hpp ****     //     /////////////////////     COMPARE B     //////////////////////     //
 471:funsape/peripheral/timer0.hpp **** 
 472:funsape/peripheral/timer0.hpp ****     //!
 473:funsape/peripheral/timer0.hpp ****     //! @brief      Activates Compare B Match interrupt.
 474:funsape/peripheral/timer0.hpp ****     //! @details    Activates Compare B Match interrupt. If an interrupt request
 475:funsape/peripheral/timer0.hpp ****     //!                 is pending, an interrupt will be triggered when
 476:funsape/peripheral/timer0.hpp ****     //!                 activated. In most applications, it is recommended to
 477:funsape/peripheral/timer0.hpp ****     //!                 ignore an old interrupt request prior to activate the
 478:funsape/peripheral/timer0.hpp ****     //!                 interrupt. This can be done by calling
 479:funsape/peripheral/timer0.hpp ****     //!                 @ref Timer0::clearCompareBInterruptRequest() function
 480:funsape/peripheral/timer0.hpp ****     //!                 imediatelly before activating the interrupt.
 481:funsape/peripheral/timer0.hpp ****     //!
 482:funsape/peripheral/timer0.hpp ****     void inlined activateCompareBInterrupt(
 483:funsape/peripheral/timer0.hpp ****             void
 484:funsape/peripheral/timer0.hpp ****     ) const;
 485:funsape/peripheral/timer0.hpp **** 
 486:funsape/peripheral/timer0.hpp ****     //!
 487:funsape/peripheral/timer0.hpp ****     //! @brief      Clears Compare B Match interrupt flag.
 488:funsape/peripheral/timer0.hpp ****     //! @details    Clears Compare B Match interrupt flag, dismissing any
 489:funsape/peripheral/timer0.hpp ****     //!                 pending interrupt request.
 490:funsape/peripheral/timer0.hpp ****     //!
 491:funsape/peripheral/timer0.hpp ****     void inlined clearCompareBInterruptRequest(
 492:funsape/peripheral/timer0.hpp ****             void
 493:funsape/peripheral/timer0.hpp ****     ) const;
 494:funsape/peripheral/timer0.hpp **** 
 495:funsape/peripheral/timer0.hpp ****     //!
 496:funsape/peripheral/timer0.hpp ****     //! @brief      Deactivates Compare B Match interrupt.
 497:funsape/peripheral/timer0.hpp ****     //! @details    Deactivates Compare B Match interrupt. This function does
 498:funsape/peripheral/timer0.hpp ****     //!                 not clears any pending interrupt request.
 499:funsape/peripheral/timer0.hpp ****     //!
 500:funsape/peripheral/timer0.hpp ****     void inlined deactivateCompareBInterrupt(
 501:funsape/peripheral/timer0.hpp ****             void
 502:funsape/peripheral/timer0.hpp ****     ) const;
 503:funsape/peripheral/timer0.hpp **** 
 504:funsape/peripheral/timer0.hpp ****     //!
 505:funsape/peripheral/timer0.hpp ****     //! @brief      Forces a Compare B Match condition on output pin.
 506:funsape/peripheral/timer0.hpp ****     //! @details    Forces a Compare B Match condition on output pin. No
 507:funsape/peripheral/timer0.hpp ****     //!                 interrupt will be generated.
 508:funsape/peripheral/timer0.hpp ****     //!
 509:funsape/peripheral/timer0.hpp ****     void inlined forceCompareB(
 510:funsape/peripheral/timer0.hpp ****             void
 511:funsape/peripheral/timer0.hpp ****     ) const;
 512:funsape/peripheral/timer0.hpp **** 
 513:funsape/peripheral/timer0.hpp ****     //!
 514:funsape/peripheral/timer0.hpp ****     //! @brief      Returns the Compare B Match value.
 515:funsape/peripheral/timer0.hpp ****     //! @details    Returns the Compare B Match value at @c OCR0B register.
 516:funsape/peripheral/timer0.hpp ****     //! @return     the value of the Compare B Match, i.e. the value of @c OCR0B
 517:funsape/peripheral/timer0.hpp ****     //!                 register.
 518:funsape/peripheral/timer0.hpp ****     //!
 519:funsape/peripheral/timer0.hpp ****     uint8_t inlined getCompareBValue(
 520:funsape/peripheral/timer0.hpp ****             void
 521:funsape/peripheral/timer0.hpp ****     ) const;
 522:funsape/peripheral/timer0.hpp **** 
 523:funsape/peripheral/timer0.hpp ****     //!
GAS LISTING /tmp/ccOPlziU.s 			page 46


 524:funsape/peripheral/timer0.hpp ****     //! @brief      Sets the Compare B Match value.
 525:funsape/peripheral/timer0.hpp ****     //! @details    Sets the Compare B Match value at @c OCR0B register.
 526:funsape/peripheral/timer0.hpp ****     //! @param[in]  value_p             Compare B Match value.
 527:funsape/peripheral/timer0.hpp ****     //!
 528:funsape/peripheral/timer0.hpp ****     void inlined setCompareBValue(
 529:funsape/peripheral/timer0.hpp ****             cuint8_t value_p
 530:funsape/peripheral/timer0.hpp ****     ) const;
 531:funsape/peripheral/timer0.hpp **** 
 532:funsape/peripheral/timer0.hpp ****     //     //////////////////////     OVERFLOW    ///////////////////////     //
 533:funsape/peripheral/timer0.hpp **** 
 534:funsape/peripheral/timer0.hpp ****     //!
 535:funsape/peripheral/timer0.hpp ****     //! @brief      Activates Timer Overflow interrupt.
 536:funsape/peripheral/timer0.hpp ****     //! @details    Activates Timer Overflow interrupt. If an interrupt request
 537:funsape/peripheral/timer0.hpp ****     //!                 is pending, an interrupt will be triggered when
 538:funsape/peripheral/timer0.hpp ****     //!                 activated. In most applications, it is recommended to
 539:funsape/peripheral/timer0.hpp ****     //!                 ignore an old interrupt request prior to activate the
 540:funsape/peripheral/timer0.hpp ****     //!                 interrupt. This can be done by calling
 541:funsape/peripheral/timer0.hpp ****     //!                 @ref Timer0::clearOverflowInterruptRequest() function
 542:funsape/peripheral/timer0.hpp ****     //!                 imediatelly before activating the interrupt.
 543:funsape/peripheral/timer0.hpp ****     //!
 544:funsape/peripheral/timer0.hpp ****     void inlined activateOverflowInterrupt(
 545:funsape/peripheral/timer0.hpp ****             void
 546:funsape/peripheral/timer0.hpp ****     ) const;
 547:funsape/peripheral/timer0.hpp **** 
 548:funsape/peripheral/timer0.hpp ****     //!
 549:funsape/peripheral/timer0.hpp ****     //! @brief      Clears Timer Overflow interrupt flag.
 550:funsape/peripheral/timer0.hpp ****     //! @details    Clears Timer Overflow interrupt flag, dismissing any
 551:funsape/peripheral/timer0.hpp ****     //!                 pending interrupt request.
 552:funsape/peripheral/timer0.hpp ****     //!
 553:funsape/peripheral/timer0.hpp ****     void inlined clearOverflowInterruptRequest(
 554:funsape/peripheral/timer0.hpp ****             void
 555:funsape/peripheral/timer0.hpp ****     ) const;
 556:funsape/peripheral/timer0.hpp **** 
 557:funsape/peripheral/timer0.hpp ****     //!
 558:funsape/peripheral/timer0.hpp ****     //! @brief      Deactivates Timer Overflow interrupt.
 559:funsape/peripheral/timer0.hpp ****     //! @details    Deactivates Timer Overflow interrupt. This function does not
 560:funsape/peripheral/timer0.hpp ****     //!                 clears any pending interrupt request.
 561:funsape/peripheral/timer0.hpp ****     //!
 562:funsape/peripheral/timer0.hpp ****     void inlined deactivateOverflowInterrupt(
 563:funsape/peripheral/timer0.hpp ****             void
 564:funsape/peripheral/timer0.hpp ****     ) const;
 565:funsape/peripheral/timer0.hpp **** 
 566:funsape/peripheral/timer0.hpp ****     //!
 567:funsape/peripheral/timer0.hpp ****     //! @brief      Returns the Timer Counter value.
 568:funsape/peripheral/timer0.hpp ****     //! @details    Returns the Timer Counter value at @c TCNT0 register.
 569:funsape/peripheral/timer0.hpp ****     //! @return     the value of the Timer Counter, i.e. the value of @c TCNT0
 570:funsape/peripheral/timer0.hpp ****     //!                 register.
 571:funsape/peripheral/timer0.hpp ****     //!
 572:funsape/peripheral/timer0.hpp ****     uint8_t inlined getCounterValue(
 573:funsape/peripheral/timer0.hpp ****             void
 574:funsape/peripheral/timer0.hpp ****     ) const;
 575:funsape/peripheral/timer0.hpp **** 
 576:funsape/peripheral/timer0.hpp ****     //!
 577:funsape/peripheral/timer0.hpp ****     //! @brief      Sets the Timer Counter value.
 578:funsape/peripheral/timer0.hpp ****     //! @details    Sets the Timer Counter value at @c TCNT0 register.
 579:funsape/peripheral/timer0.hpp ****     //! @param[in]  value_p             Timer Counter value.
 580:funsape/peripheral/timer0.hpp ****     //!
GAS LISTING /tmp/ccOPlziU.s 			page 47


 581:funsape/peripheral/timer0.hpp ****     void inlined setCounterValue(
 582:funsape/peripheral/timer0.hpp ****             cuint8_t value_p
 583:funsape/peripheral/timer0.hpp ****     ) const;
 584:funsape/peripheral/timer0.hpp **** 
 585:funsape/peripheral/timer0.hpp **** private:
 586:funsape/peripheral/timer0.hpp ****     // NONE
 587:funsape/peripheral/timer0.hpp **** 
 588:funsape/peripheral/timer0.hpp **** protected:
 589:funsape/peripheral/timer0.hpp ****     // NONE
 590:funsape/peripheral/timer0.hpp **** 
 591:funsape/peripheral/timer0.hpp **** // -------------------------------------------------------------------------
 592:funsape/peripheral/timer0.hpp **** // Properties --------------------------------------------------------------
 593:funsape/peripheral/timer0.hpp **** 
 594:funsape/peripheral/timer0.hpp **** private:
 595:funsape/peripheral/timer0.hpp ****     //     /////////////////    SINGLETON INSTANCE     //////////////////     //
 596:funsape/peripheral/timer0.hpp ****     static Timer0   _instance;                  //|< Static private instance
 597:funsape/peripheral/timer0.hpp **** 
 598:funsape/peripheral/timer0.hpp ****     //     /////////////////    CONTROL AND STATUS     //////////////////     //
 599:funsape/peripheral/timer0.hpp ****     bool_t          _isInitialized      : 1;    //!< Initialization flag.
 600:funsape/peripheral/timer0.hpp ****     Error           _lastError;                 //!< Last error.
 601:funsape/peripheral/timer0.hpp **** 
 602:funsape/peripheral/timer0.hpp ****     //     ////////////////////   CONFIGURATION     /////////////////////     //
 603:funsape/peripheral/timer0.hpp ****     Timer0::ClockSource     _clockSource;       //!< Clock source and prescaler.
 604:funsape/peripheral/timer0.hpp ****     Timer0::Mode            _mode;              //!< Operation mode.
 605:funsape/peripheral/timer0.hpp **** 
 606:funsape/peripheral/timer0.hpp **** protected:
 607:funsape/peripheral/timer0.hpp ****     // NONE
 608:funsape/peripheral/timer0.hpp **** 
 609:funsape/peripheral/timer0.hpp **** }; // class Timer0
 610:funsape/peripheral/timer0.hpp **** 
 611:funsape/peripheral/timer0.hpp **** // =============================================================================
 612:funsape/peripheral/timer0.hpp **** // Inlined class functions
 613:funsape/peripheral/timer0.hpp **** // =============================================================================
 614:funsape/peripheral/timer0.hpp **** 
 615:funsape/peripheral/timer0.hpp **** //!
 616:funsape/peripheral/timer0.hpp **** //! @cond
 617:funsape/peripheral/timer0.hpp **** //!
 618:funsape/peripheral/timer0.hpp **** 
 619:funsape/peripheral/timer0.hpp **** //     /////////////////////    SINGLETON ACCESS    /////////////////////     //
 620:funsape/peripheral/timer0.hpp **** 
 621:funsape/peripheral/timer0.hpp **** Timer0 inlined &Timer0::getInstance(void)
 675               		.loc 4 621 17 view .LVU181
 622:funsape/peripheral/timer0.hpp **** {
 623:funsape/peripheral/timer0.hpp ****     return Timer0::_instance;
 676               		.loc 4 623 5 view .LVU182
 677               	.LBE107:
 115:main.cpp      ****     timer0.init(Timer0::Mode::CTC_OCRA, //Colocamos quantos ciclos pra chegar na interrupção
 678               		.loc 1 115 16 is_stmt 0 discriminator 1 view .LVU183
 679 008e 43E0      		ldi r20,lo8(3)
 680 0090 62E0      		ldi r22,lo8(2)
 681 0092 80E0      		ldi r24,lo8(_ZN6Timer09_instanceE)
 682 0094 90E0      		ldi r25,hi8(_ZN6Timer09_instanceE)
 683 0096 0E94 0000 		call _ZN6Timer04initENS_4ModeENS_11ClockSourceE
 684               	.LVL42:
 117:main.cpp      ****     timer0.setCompareAValue(249); //Fala quantos ticks precisam para chegar a 10ms
 685               		.loc 1 117 5 is_stmt 1 view .LVU184
 686               	.LBB108:
GAS LISTING /tmp/ccOPlziU.s 			page 48


 687               	.LBI108:
 624:funsape/peripheral/timer0.hpp **** }
 625:funsape/peripheral/timer0.hpp **** 
 626:funsape/peripheral/timer0.hpp **** //     ///////////////////////     COMPARE A     ////////////////////////     //
 627:funsape/peripheral/timer0.hpp **** 
 628:funsape/peripheral/timer0.hpp **** void inlined Timer0::activateCompareAInterrupt(void) const
 629:funsape/peripheral/timer0.hpp **** {
 630:funsape/peripheral/timer0.hpp ****     setBit(MCU_TIMER0_ENABLE_REG, MCU_TIMER0_ENABLE_COMPA_BIT_OFFSET);
 631:funsape/peripheral/timer0.hpp ****     return;
 632:funsape/peripheral/timer0.hpp **** }
 633:funsape/peripheral/timer0.hpp **** 
 634:funsape/peripheral/timer0.hpp **** void inlined Timer0::clearCompareAInterruptRequest(void) const
 635:funsape/peripheral/timer0.hpp **** {
 636:funsape/peripheral/timer0.hpp ****     setBit(MCU_TIMER0_FLAG_REG, MCU_TIMER0_FLAG_COMPA_BIT_POS);
 637:funsape/peripheral/timer0.hpp ****     return;
 638:funsape/peripheral/timer0.hpp **** }
 639:funsape/peripheral/timer0.hpp **** 
 640:funsape/peripheral/timer0.hpp **** void inlined Timer0::deactivateCompareAInterrupt(void) const
 641:funsape/peripheral/timer0.hpp **** {
 642:funsape/peripheral/timer0.hpp ****     clrBit(MCU_TIMER0_ENABLE_REG, MCU_TIMER0_ENABLE_COMPA_BIT_OFFSET);
 643:funsape/peripheral/timer0.hpp ****     return;
 644:funsape/peripheral/timer0.hpp **** }
 645:funsape/peripheral/timer0.hpp **** 
 646:funsape/peripheral/timer0.hpp **** void inlined Timer0::forceCompareA(void) const
 647:funsape/peripheral/timer0.hpp **** {
 648:funsape/peripheral/timer0.hpp ****     setBit(MCU_TIMER0_CTRL_B_REG, MCU_TIMER0_FORCE_COMPA_BIT_OFFSET);
 649:funsape/peripheral/timer0.hpp ****     return;
 650:funsape/peripheral/timer0.hpp **** }
 651:funsape/peripheral/timer0.hpp **** 
 652:funsape/peripheral/timer0.hpp **** uint8_t inlined Timer0::getCompareAValue(void) const
 653:funsape/peripheral/timer0.hpp **** {
 654:funsape/peripheral/timer0.hpp ****     return MCU_TIMER0_OCR0A_REG;
 655:funsape/peripheral/timer0.hpp **** }
 656:funsape/peripheral/timer0.hpp **** 
 657:funsape/peripheral/timer0.hpp **** void inlined Timer0::setCompareAValue(cuint8_t value_p) const
 688               		.loc 4 657 14 view .LVU185
 689               	.LBB109:
 658:funsape/peripheral/timer0.hpp **** {
 659:funsape/peripheral/timer0.hpp ****     MCU_TIMER0_OCR0A_REG = value_p;
 690               		.loc 4 659 5 view .LVU186
 691               		.loc 4 659 26 is_stmt 0 view .LVU187
 692 009a 89EF      		ldi r24,lo8(-7)
 693 009c 87BD      		out 0x27,r24
 660:funsape/peripheral/timer0.hpp ****     return;
 694               		.loc 4 660 5 is_stmt 1 view .LVU188
 695               	.LVL43:
 696               		.loc 4 660 5 is_stmt 0 view .LVU189
 697               	.LBE109:
 698               	.LBE108:
 118:main.cpp      ****     timer0.clearCompareAInterruptRequest(); //Limpar o pre interrupt
 699               		.loc 1 118 5 is_stmt 1 view .LVU190
 700               	.LBB110:
 701               	.LBI110:
 634:funsape/peripheral/timer0.hpp **** {
 702               		.loc 4 634 14 view .LVU191
 703               	.LBB111:
 636:funsape/peripheral/timer0.hpp ****     return;
GAS LISTING /tmp/ccOPlziU.s 			page 49


 704               		.loc 4 636 5 view .LVU192
 636:funsape/peripheral/timer0.hpp ****     return;
 705               		.loc 4 636 5 view .LVU193
 706 009e 85B3      		in r24,0x15
 707 00a0 8260      		ori r24,lo8(2)
 708 00a2 85BB      		out 0x15,r24
 636:funsape/peripheral/timer0.hpp ****     return;
 709               		.loc 4 636 5 view .LVU194
 637:funsape/peripheral/timer0.hpp **** }
 710               		.loc 4 637 5 view .LVU195
 711               	.LVL44:
 637:funsape/peripheral/timer0.hpp **** }
 712               		.loc 4 637 5 is_stmt 0 view .LVU196
 713               	.LBE111:
 714               	.LBE110:
 119:main.cpp      ****     timer0.activateCompareAInterrupt();
 715               		.loc 1 119 5 is_stmt 1 view .LVU197
 716               	.LBB112:
 717               	.LBI112:
 628:funsape/peripheral/timer0.hpp **** {
 718               		.loc 4 628 14 view .LVU198
 719               	.LBB113:
 630:funsape/peripheral/timer0.hpp ****     return;
 720               		.loc 4 630 5 view .LVU199
 630:funsape/peripheral/timer0.hpp ****     return;
 721               		.loc 4 630 5 view .LVU200
 722 00a4 EEE6      		ldi r30,lo8(110)
 723 00a6 F0E0      		ldi r31,0
 724 00a8 8081      		ld r24,Z
 725 00aa 8260      		ori r24,lo8(2)
 726 00ac 8083      		st Z,r24
 630:funsape/peripheral/timer0.hpp ****     return;
 727               		.loc 4 630 5 view .LVU201
 631:funsape/peripheral/timer0.hpp **** }
 728               		.loc 4 631 5 view .LVU202
 729               	.LVL45:
 631:funsape/peripheral/timer0.hpp **** }
 730               		.loc 4 631 5 is_stmt 0 view .LVU203
 731               	.LBE113:
 732               	.LBE112:
 123:main.cpp      ****     {
 733               		.loc 1 123 5 is_stmt 1 view .LVU204
 124:main.cpp      ****     timer1.init(Timer1::Mode::CTC_OCRA, //Colocamos quantos ciclos pra chegar na interrupção
 734               		.loc 1 124 5 view .LVU205
 735               	.LBB114:
 736               	.LBI114:
 737               		.file 5 "funsape/peripheral/timer1.hpp"
   1:funsape/peripheral/timer1.hpp **** //!
   2:funsape/peripheral/timer1.hpp **** //! ****************************************************************************
   3:funsape/peripheral/timer1.hpp **** //! @file           timer1.hpp
   4:funsape/peripheral/timer1.hpp **** //! @author         Leandro Schwarz (bladabuska+funsapeavr8lib@gmail.com)
   5:funsape/peripheral/timer1.hpp **** //! @brief          TIMER1 peripheral control.
   6:funsape/peripheral/timer1.hpp **** //! @details        This file provides peripheral control for the TIMER1 module
   7:funsape/peripheral/timer1.hpp **** //!                     for the FunSAPE++ AVR8 Library.
   8:funsape/peripheral/timer1.hpp **** //! @date           2026-04-03
   9:funsape/peripheral/timer1.hpp **** //! @version        26.04
  10:funsape/peripheral/timer1.hpp **** //! @copyright      MIT License
GAS LISTING /tmp/ccOPlziU.s 			page 50


  11:funsape/peripheral/timer1.hpp **** //! @note           No notes at this time.
  12:funsape/peripheral/timer1.hpp **** //! @todo           No items in todo list yet.
  13:funsape/peripheral/timer1.hpp **** //! @bug            No bugs detected yet.
  14:funsape/peripheral/timer1.hpp **** //! ****************************************************************************
  15:funsape/peripheral/timer1.hpp **** //! @attention
  16:funsape/peripheral/timer1.hpp **** //!
  17:funsape/peripheral/timer1.hpp **** //! MIT License
  18:funsape/peripheral/timer1.hpp **** //!
  19:funsape/peripheral/timer1.hpp **** //! Copyright (c) 2026 Leandro Schwarz
  20:funsape/peripheral/timer1.hpp **** //!
  21:funsape/peripheral/timer1.hpp **** //! Permission is hereby granted, free of charge, to any person obtaining a copy
  22:funsape/peripheral/timer1.hpp **** //!     of this software and associated documentation files (the "Software"), to
  23:funsape/peripheral/timer1.hpp **** //!     deal in the Software without restriction, including without limitation
  24:funsape/peripheral/timer1.hpp **** //!     the rights to use, copy, modify, merge, publish, distribute, sublicense,
  25:funsape/peripheral/timer1.hpp **** //!     and/or sell copies of the Software, and to permit persons to whom the
  26:funsape/peripheral/timer1.hpp **** //!     Software is furnished to do so, subject to the following conditions:
  27:funsape/peripheral/timer1.hpp **** //!
  28:funsape/peripheral/timer1.hpp **** //! The above copyright notice and this permission notice shall be included in
  29:funsape/peripheral/timer1.hpp **** //!     all copies or substantial portions of the Software.
  30:funsape/peripheral/timer1.hpp **** //!
  31:funsape/peripheral/timer1.hpp **** //! THE SOFTWARE IS PROVIDED "AS IS", WITHOUT WARRANTY OF ANY KIND, EXPRESS OR
  32:funsape/peripheral/timer1.hpp **** //!     IMPLIED, INCLUDING BUT NOT LIMITED TO THE WARRANTIES OF MERCHANTABILITY,
  33:funsape/peripheral/timer1.hpp **** //!     FITNESS FOR A PARTICULAR PURPOSE AND NONINFRINGEMENT. IN NO EVENT SHALL
  34:funsape/peripheral/timer1.hpp **** //!     THE AUTHORS OR COPYRIGHT HOLDERS BE LIABLE FOR ANY CLAIM, DAMAGES OR
  35:funsape/peripheral/timer1.hpp **** //!     OTHER LIABILITY, WHETHER IN AN ACTION OF CONTRACT, TORT OR OTHERWISE,
  36:funsape/peripheral/timer1.hpp **** //!     ARISING FROM, OUT OF OR IN CONNECTION WITH THE SOFTWARE OR THE USE OR
  37:funsape/peripheral/timer1.hpp **** //!     OTHER DEALINGS IN THE SOFTWARE.
  38:funsape/peripheral/timer1.hpp **** //!
  39:funsape/peripheral/timer1.hpp **** //! ****************************************************************************
  40:funsape/peripheral/timer1.hpp **** //!
  41:funsape/peripheral/timer1.hpp **** 
  42:funsape/peripheral/timer1.hpp **** // =============================================================================
  43:funsape/peripheral/timer1.hpp **** // Include guard (START)
  44:funsape/peripheral/timer1.hpp **** // =============================================================================
  45:funsape/peripheral/timer1.hpp **** 
  46:funsape/peripheral/timer1.hpp **** #ifndef __TIMER1_HPP
  47:funsape/peripheral/timer1.hpp **** #define __TIMER1_HPP                    2604
  48:funsape/peripheral/timer1.hpp **** 
  49:funsape/peripheral/timer1.hpp **** // =============================================================================
  50:funsape/peripheral/timer1.hpp **** // Dependencies
  51:funsape/peripheral/timer1.hpp **** // =============================================================================
  52:funsape/peripheral/timer1.hpp **** 
  53:funsape/peripheral/timer1.hpp **** //     /////////////////     GLOBAL DEFINITIONS FILE    /////////////////     //
  54:funsape/peripheral/timer1.hpp **** 
  55:funsape/peripheral/timer1.hpp **** #include "../globalDefines.hpp"
  56:funsape/peripheral/timer1.hpp **** #if !defined(__GLOBAL_DEFINES_HPP)
  57:funsape/peripheral/timer1.hpp **** #   error [timer1.hpp] Error 1 - Header file (globalDefines.hpp) is missing or corrupted!
  58:funsape/peripheral/timer1.hpp **** #elif __GLOBAL_DEFINES_HPP != __TIMER1_HPP
  59:funsape/peripheral/timer1.hpp **** #   error [timer1.hpp] Error 2 - Build mismatch between file (timer1.hpp) and global definitions fi
  60:funsape/peripheral/timer1.hpp **** #endif
  61:funsape/peripheral/timer1.hpp **** 
  62:funsape/peripheral/timer1.hpp **** //     //////////////////     LIBRARY DEPENDENCIES     //////////////////     //
  63:funsape/peripheral/timer1.hpp **** 
  64:funsape/peripheral/timer1.hpp **** #include "../util/debug.hpp"
  65:funsape/peripheral/timer1.hpp **** #if !defined(__DEBUG_HPP)
  66:funsape/peripheral/timer1.hpp **** #   error [timer1.hpp] Error 1 - Header file (debug.hpp) is missing or corrupted!
  67:funsape/peripheral/timer1.hpp **** #elif __DEBUG_HPP != __TIMER1_HPP
GAS LISTING /tmp/ccOPlziU.s 			page 51


  68:funsape/peripheral/timer1.hpp **** #   error [timer1.hpp] Error 5 - Build mismatch between file (timer1.hpp) and library dependency (d
  69:funsape/peripheral/timer1.hpp **** #endif
  70:funsape/peripheral/timer1.hpp **** 
  71:funsape/peripheral/timer1.hpp **** //     ///////////////////     STANDARD C LIBRARY     ///////////////////     //
  72:funsape/peripheral/timer1.hpp **** 
  73:funsape/peripheral/timer1.hpp **** // NONE
  74:funsape/peripheral/timer1.hpp **** 
  75:funsape/peripheral/timer1.hpp **** //     ////////////////////    AVR LIBRARY FILES     ////////////////////     //
  76:funsape/peripheral/timer1.hpp **** 
  77:funsape/peripheral/timer1.hpp **** // NONE
  78:funsape/peripheral/timer1.hpp **** 
  79:funsape/peripheral/timer1.hpp **** // =============================================================================
  80:funsape/peripheral/timer1.hpp **** // Checks peripheral existance
  81:funsape/peripheral/timer1.hpp **** // =============================================================================
  82:funsape/peripheral/timer1.hpp **** 
  83:funsape/peripheral/timer1.hpp **** #if !defined(MCU_TIMER1_PERIPHERAL_EXISTS)
  84:funsape/peripheral/timer1.hpp **** #   error [timer1.hpp] Error X - Peripheral TIMER1 is not avalilable in selected device!
  85:funsape/peripheral/timer1.hpp **** #endif
  86:funsape/peripheral/timer1.hpp **** 
  87:funsape/peripheral/timer1.hpp **** // +++++++++++++++++++++++++++++++++++++++++++++++++++++++++++++++++++++++++++++
  88:funsape/peripheral/timer1.hpp **** // Doxygen: Start main group "Peripherals"
  89:funsape/peripheral/timer1.hpp **** // +++++++++++++++++++++++++++++++++++++++++++++++++++++++++++++++++++++++++++++
  90:funsape/peripheral/timer1.hpp **** 
  91:funsape/peripheral/timer1.hpp **** //!
  92:funsape/peripheral/timer1.hpp **** //! @addtogroup     Peripherals
  93:funsape/peripheral/timer1.hpp **** //! @brief          Microcontroller peripherals.
  94:funsape/peripheral/timer1.hpp **** //! @{
  95:funsape/peripheral/timer1.hpp **** //!
  96:funsape/peripheral/timer1.hpp **** 
  97:funsape/peripheral/timer1.hpp **** // +++++++++++++++++++++++++++++++++++++++++++++++++++++++++++++++++++++++++++++
  98:funsape/peripheral/timer1.hpp **** // Doxygen: Start subgroup "Timer1" in "Peripherals"
  99:funsape/peripheral/timer1.hpp **** // +++++++++++++++++++++++++++++++++++++++++++++++++++++++++++++++++++++++++++++
 100:funsape/peripheral/timer1.hpp **** 
 101:funsape/peripheral/timer1.hpp **** //!
 102:funsape/peripheral/timer1.hpp **** //! @addtogroup     Timer1
 103:funsape/peripheral/timer1.hpp **** //! @brief          Timer/Counter 1 (TIMER1) controller module.
 104:funsape/peripheral/timer1.hpp **** //! @{
 105:funsape/peripheral/timer1.hpp **** //!
 106:funsape/peripheral/timer1.hpp **** 
 107:funsape/peripheral/timer1.hpp **** // =============================================================================
 108:funsape/peripheral/timer1.hpp **** // Undefining previous definitions
 109:funsape/peripheral/timer1.hpp **** // =============================================================================
 110:funsape/peripheral/timer1.hpp **** 
 111:funsape/peripheral/timer1.hpp **** // NONE
 112:funsape/peripheral/timer1.hpp **** 
 113:funsape/peripheral/timer1.hpp **** // =============================================================================
 114:funsape/peripheral/timer1.hpp **** // Constant definitions
 115:funsape/peripheral/timer1.hpp **** // =============================================================================
 116:funsape/peripheral/timer1.hpp **** 
 117:funsape/peripheral/timer1.hpp **** // NONE
 118:funsape/peripheral/timer1.hpp **** 
 119:funsape/peripheral/timer1.hpp **** // =============================================================================
 120:funsape/peripheral/timer1.hpp **** // New data types
 121:funsape/peripheral/timer1.hpp **** // =============================================================================
 122:funsape/peripheral/timer1.hpp **** 
 123:funsape/peripheral/timer1.hpp **** // NONE
 124:funsape/peripheral/timer1.hpp **** 
GAS LISTING /tmp/ccOPlziU.s 			page 52


 125:funsape/peripheral/timer1.hpp **** // =============================================================================
 126:funsape/peripheral/timer1.hpp **** // Interrupt callback functions declarations
 127:funsape/peripheral/timer1.hpp **** // =============================================================================
 128:funsape/peripheral/timer1.hpp **** 
 129:funsape/peripheral/timer1.hpp **** //!
 130:funsape/peripheral/timer1.hpp **** //! @brief          TIMER1 compare A match interrupt callback function.
 131:funsape/peripheral/timer1.hpp **** //! @details        This function is called when the TIMER1 compare A match
 132:funsape/peripheral/timer1.hpp **** //!                     interrupt is treated. It is a weak function that can be
 133:funsape/peripheral/timer1.hpp **** //!                     overwritten by user code.
 134:funsape/peripheral/timer1.hpp **** //!
 135:funsape/peripheral/timer1.hpp **** void timer1CompareACallback(void);
 136:funsape/peripheral/timer1.hpp **** 
 137:funsape/peripheral/timer1.hpp **** //!
 138:funsape/peripheral/timer1.hpp **** //! @brief          TIMER1 compare B match interrupt callback function.
 139:funsape/peripheral/timer1.hpp **** //! @details        This function is called when the TIMER1 compare B match
 140:funsape/peripheral/timer1.hpp **** //!                     interrupt is treated. It is a weak function that can be
 141:funsape/peripheral/timer1.hpp **** //!                     overwritten by user code.
 142:funsape/peripheral/timer1.hpp **** //!
 143:funsape/peripheral/timer1.hpp **** void timer1CompareBCallback(void);
 144:funsape/peripheral/timer1.hpp **** 
 145:funsape/peripheral/timer1.hpp **** //!
 146:funsape/peripheral/timer1.hpp **** //! @brief          TIMER1 Input Capture interrupt callback function.
 147:funsape/peripheral/timer1.hpp **** //! @details        This function is called when the TIMER1 input capture
 148:funsape/peripheral/timer1.hpp **** //!                     interrupt is treated. It is a weak function that can be
 149:funsape/peripheral/timer1.hpp **** //!                     overwritten by user code.
 150:funsape/peripheral/timer1.hpp **** //!
 151:funsape/peripheral/timer1.hpp **** void timer1InputCaptureCallback(void);
 152:funsape/peripheral/timer1.hpp **** 
 153:funsape/peripheral/timer1.hpp **** //!
 154:funsape/peripheral/timer1.hpp **** //! @brief          TIMER1 overflow interrupt callback function.
 155:funsape/peripheral/timer1.hpp **** //! @details        This function is called when the TIMER1 overflow interrupt
 156:funsape/peripheral/timer1.hpp **** //!                     is treated. It is a weak function that can be
 157:funsape/peripheral/timer1.hpp **** //!                     overwritten by user code.
 158:funsape/peripheral/timer1.hpp **** //!
 159:funsape/peripheral/timer1.hpp **** void timer1OverflowCallback(void);
 160:funsape/peripheral/timer1.hpp **** 
 161:funsape/peripheral/timer1.hpp **** // =============================================================================
 162:funsape/peripheral/timer1.hpp **** // Public functions declarations
 163:funsape/peripheral/timer1.hpp **** // =============================================================================
 164:funsape/peripheral/timer1.hpp **** 
 165:funsape/peripheral/timer1.hpp **** // NONE
 166:funsape/peripheral/timer1.hpp **** 
 167:funsape/peripheral/timer1.hpp **** // =============================================================================
 168:funsape/peripheral/timer1.hpp **** // Classes
 169:funsape/peripheral/timer1.hpp **** // =============================================================================
 170:funsape/peripheral/timer1.hpp **** 
 171:funsape/peripheral/timer1.hpp **** //!
 172:funsape/peripheral/timer1.hpp **** //! @brief          Timer1 class
 173:funsape/peripheral/timer1.hpp **** //! @details        This class manages the Timer/Counter 1 (TIMER1) peripheral.
 174:funsape/peripheral/timer1.hpp **** //! @attention      The @ref timer1 instance of this class is already defined as
 175:funsape/peripheral/timer1.hpp **** //!                     a singleton global object.
 176:funsape/peripheral/timer1.hpp **** //!
 177:funsape/peripheral/timer1.hpp **** class Timer1
 178:funsape/peripheral/timer1.hpp **** {
 179:funsape/peripheral/timer1.hpp ****     // -------------------------------------------------------------------------
 180:funsape/peripheral/timer1.hpp ****     // New data types ----------------------------------------------------------
 181:funsape/peripheral/timer1.hpp **** 
GAS LISTING /tmp/ccOPlziU.s 			page 53


 182:funsape/peripheral/timer1.hpp **** public:
 183:funsape/peripheral/timer1.hpp ****     //!
 184:funsape/peripheral/timer1.hpp ****     //! @enum       ClockSource
 185:funsape/peripheral/timer1.hpp ****     //! @brief      Clock prescaler enumeration.
 186:funsape/peripheral/timer1.hpp ****     //! @details    Clock prescaler options associated with TIMER1.
 187:funsape/peripheral/timer1.hpp ****     //! @warning    The value associate with the symbolic names may change
 188:funsape/peripheral/timer1.hpp ****     //!                 between builds and might not reflect the register/bits
 189:funsape/peripheral/timer1.hpp ****     //!                 real values. In order to ensure compatibility between
 190:funsape/peripheral/timer1.hpp ****     //!                 builds, always refer to the SYMBOLIC NAME, instead of
 191:funsape/peripheral/timer1.hpp ****     //!                 its VALUE.
 192:funsape/peripheral/timer1.hpp ****     //!
 193:funsape/peripheral/timer1.hpp ****     enum class ClockSource : uint8_t {
 194:funsape/peripheral/timer1.hpp ****         DISABLED = 0,           //!< Disables clock, timer is off.
 195:funsape/peripheral/timer1.hpp ****         PRESCALER_1 = 1,        //!< Disables prescaler, timer clock frequency will be equal to CPU
 196:funsape/peripheral/timer1.hpp ****         PRESCALER_8 = 2,        //!< Timer clock frequency will be CPU clock divided by 8.
 197:funsape/peripheral/timer1.hpp ****         PRESCALER_64 = 3,       //!< Timer clock frequency will be CPU clock divided by 64.
 198:funsape/peripheral/timer1.hpp ****         PRESCALER_256 = 4,      //!< Timer clock frequency will be CPU clock divided by 256.
 199:funsape/peripheral/timer1.hpp ****         PRESCALER_1024 = 5,     //!< Timer clock frequency will be CPU clock divided by 1024.
 200:funsape/peripheral/timer1.hpp ****         T1_FALLING_EDGE = 6,    //!< Timer clock will be based on the falling edge of a signal plac
 201:funsape/peripheral/timer1.hpp ****         T1_RISING_EDGE = 7      //!< Timer clock will be based on the rising edge of a signal place
 202:funsape/peripheral/timer1.hpp ****     };
 203:funsape/peripheral/timer1.hpp **** 
 204:funsape/peripheral/timer1.hpp ****     //!
 205:funsape/peripheral/timer1.hpp ****     //! @enum       Mode
 206:funsape/peripheral/timer1.hpp ****     //! @brief      Operation mode enumeration.
 207:funsape/peripheral/timer1.hpp ****     //! @details    Operation mode options associated with TIMER1.
 208:funsape/peripheral/timer1.hpp ****     //! @warning    The value associate with the symbolic names may change
 209:funsape/peripheral/timer1.hpp ****     //!                 between builds and might not reflect the register/bits
 210:funsape/peripheral/timer1.hpp ****     //!                 real values. In order to ensure compatibility between
 211:funsape/peripheral/timer1.hpp ****     //!                 builds, always refer to the SYMBOLIC NAME, instead of
 212:funsape/peripheral/timer1.hpp ****     //!                 its VALUE.
 213:funsape/peripheral/timer1.hpp ****     //!
 214:funsape/peripheral/timer1.hpp ****     enum class Mode : uint8_t {
 215:funsape/peripheral/timer1.hpp ****         NORMAL                          = 0,    //!< Normal mode (direction = UP / TOP = 0x00FF / U
 216:funsape/peripheral/timer1.hpp ****         PWM_PHASE_CORRECTED_8_BITS      = 1,    //!< PWM mode with phase correction (direction = DO
 217:funsape/peripheral/timer1.hpp ****         PWM_PHASE_CORRECTED_9_BITS      = 2,    //!< PWM mode with phase correction (direction = DO
 218:funsape/peripheral/timer1.hpp ****         PWM_PHASE_CORRECTED_10_BITS     = 3,    //!< PWM mode with phase correction (direction = DO
 219:funsape/peripheral/timer1.hpp ****         CTC_OCRA                        = 4,    //!< CTC mode (direction = UP / TOP = OCR1A / UPDAT
 220:funsape/peripheral/timer1.hpp ****         PWM_FAST_8_BITS                 = 5,    //!< PWM mode fast (direction = UP / TOP = 0x00FF /
 221:funsape/peripheral/timer1.hpp ****         PWM_FAST_9_BITS                 = 6,    //!< PWM mode fast (direction = UP / TOP = 0x01FF /
 222:funsape/peripheral/timer1.hpp ****         PWM_FAST_10_BITS                = 7,    //!< PWM mode fast (direction = UP / TOP = 0x03FF /
 223:funsape/peripheral/timer1.hpp ****         PWM_PHASE_FREQ_CORRECTED_ICR    = 8,    //!< PWM mode with phase and frequency correction (
 224:funsape/peripheral/timer1.hpp ****         PWM_PHASE_FREQ_CORRECTED_OCRA   = 9,    //!< PWM mode with phase and frequency correction (
 225:funsape/peripheral/timer1.hpp ****         PWM_PHASE_CORRECTED_ICR         = 10,   //!< PWM mode with phase correction (direction = DO
 226:funsape/peripheral/timer1.hpp ****         PWM_PHASE_CORRECTED_OCRA        = 11,   //!< PWM mode with phase correction (direction = DO
 227:funsape/peripheral/timer1.hpp ****         CTC_ICR                         = 12,    //!< CTC mode (direction = UP / TOP = ICR1A / UPDA
 228:funsape/peripheral/timer1.hpp ****         // RESERVED                     = 13,
 229:funsape/peripheral/timer1.hpp ****         PWM_FAST_ICR                    = 14,   //!< PWM mode fast (direction = UP / TOP = ICR1 / U
 230:funsape/peripheral/timer1.hpp ****         PWM_FAST_OCRA                   = 15    //!< PWM mode fast (direction = UP / TOP = OCR1A / 
 231:funsape/peripheral/timer1.hpp ****     };
 232:funsape/peripheral/timer1.hpp **** 
 233:funsape/peripheral/timer1.hpp ****     //!
 234:funsape/peripheral/timer1.hpp ****     //! @enum       OutputMode
 235:funsape/peripheral/timer1.hpp ****     //! @brief      Output mode enumeration.
 236:funsape/peripheral/timer1.hpp ****     //! @details    Output Mmode options associated with TIMER1.
 237:funsape/peripheral/timer1.hpp ****     //! @warning    The value associate with the symbolic names may change
 238:funsape/peripheral/timer1.hpp ****     //!                 between builds and might not reflect the register/bits
GAS LISTING /tmp/ccOPlziU.s 			page 54


 239:funsape/peripheral/timer1.hpp ****     //!                 real values. In order to ensure compatibility between
 240:funsape/peripheral/timer1.hpp ****     //!                 builds, always refer to the SYMBOLIC NAME, instead of
 241:funsape/peripheral/timer1.hpp ****     //!                 its VALUE.
 242:funsape/peripheral/timer1.hpp ****     //!
 243:funsape/peripheral/timer1.hpp ****     enum class OutputMode : uint8_t {
 244:funsape/peripheral/timer1.hpp ****         NORMAL_GPIO_OPERATION = 0,      //!< OC1x disabled. Normal GPIO port operation.
 245:funsape/peripheral/timer1.hpp ****         TOGGLE_ON_COMPARE = 1,          //!< OC1x will toggle on OCR1x compare match.
 246:funsape/peripheral/timer1.hpp ****         CLEAR_ON_COMPARE = 2,           //!< OC1x will clear on OCR1x compare match.
 247:funsape/peripheral/timer1.hpp ****         SET_ON_COMPARE = 3,             //!< OC1x will set on OCR1x compare match.
 248:funsape/peripheral/timer1.hpp ****         NON_INVERTING_MODE = 2,         //!< OC1x will produce a non-inverted PWM signal.
 249:funsape/peripheral/timer1.hpp ****         INVERTING_MODE = 3,             //!< OC1x will produce a inverted PWM signal.
 250:funsape/peripheral/timer1.hpp ****     };
 251:funsape/peripheral/timer1.hpp **** 
 252:funsape/peripheral/timer1.hpp **** private:
 253:funsape/peripheral/timer1.hpp ****     // NONE
 254:funsape/peripheral/timer1.hpp **** 
 255:funsape/peripheral/timer1.hpp **** protected:
 256:funsape/peripheral/timer1.hpp ****     // NONE
 257:funsape/peripheral/timer1.hpp **** 
 258:funsape/peripheral/timer1.hpp **** // -------------------------------------------------------------------------
 259:funsape/peripheral/timer1.hpp **** // Constructors ------------------------------------------------------------
 260:funsape/peripheral/timer1.hpp **** 
 261:funsape/peripheral/timer1.hpp **** public:
 262:funsape/peripheral/timer1.hpp ****     //!
 263:funsape/peripheral/timer1.hpp ****     //! @brief      Timer1 class destructor.
 264:funsape/peripheral/timer1.hpp ****     //! @details    Destroys a Timer1 object.
 265:funsape/peripheral/timer1.hpp ****     //!
 266:funsape/peripheral/timer1.hpp ****     ~Timer1(
 267:funsape/peripheral/timer1.hpp ****             void
 268:funsape/peripheral/timer1.hpp ****     );
 269:funsape/peripheral/timer1.hpp **** 
 270:funsape/peripheral/timer1.hpp **** private:
 271:funsape/peripheral/timer1.hpp ****     //!
 272:funsape/peripheral/timer1.hpp ****     //! @brief      Timer1 class constructor.
 273:funsape/peripheral/timer1.hpp ****     //! @details    Creates a Timer1 object. The object is loaded with the
 274:funsape/peripheral/timer1.hpp ****     //!                 default register values:
 275:funsape/peripheral/timer1.hpp ****     //!                 @ref Timer1::ClockSource::DISABLED and
 276:funsape/peripheral/timer1.hpp ****     //!                 @ref Timer1::Mode::NORMAL. The object still must be
 277:funsape/peripheral/timer1.hpp ****     //!                 initialized before use.
 278:funsape/peripheral/timer1.hpp ****     //! @see        init(const Timer1::Mode mode_p, const Timer1::ClockSource clockSource_p).
 279:funsape/peripheral/timer1.hpp ****     //! @par Error codes:
 280:funsape/peripheral/timer1.hpp ****     //!
 281:funsape/peripheral/timer1.hpp ****     //! | Error code       | Meaning                           |
 282:funsape/peripheral/timer1.hpp ****     //! |: ----------------|: ---------------------------------|
 283:funsape/peripheral/timer1.hpp ****     //! | @ref Error::NONE | Success. No errors were detected. |
 284:funsape/peripheral/timer1.hpp ****     //!
 285:funsape/peripheral/timer1.hpp ****     Timer1(
 286:funsape/peripheral/timer1.hpp ****             void
 287:funsape/peripheral/timer1.hpp ****     );
 288:funsape/peripheral/timer1.hpp **** 
 289:funsape/peripheral/timer1.hpp ****     //!
 290:funsape/peripheral/timer1.hpp ****     //! @brief      Copy constructor (deleted).
 291:funsape/peripheral/timer1.hpp ****     //! @details    Deleted to prevent cloning the Singleton instance.
 292:funsape/peripheral/timer1.hpp ****     //!
 293:funsape/peripheral/timer1.hpp ****     Timer1(
 294:funsape/peripheral/timer1.hpp ****             const Timer1 &
 295:funsape/peripheral/timer1.hpp ****     ) = delete;
GAS LISTING /tmp/ccOPlziU.s 			page 55


 296:funsape/peripheral/timer1.hpp **** 
 297:funsape/peripheral/timer1.hpp ****     //!
 298:funsape/peripheral/timer1.hpp ****     //! @brief      Copy assignment operator (deleted).
 299:funsape/peripheral/timer1.hpp ****     //! @details    Deleted to prevent assignment of the Singleton instance.
 300:funsape/peripheral/timer1.hpp ****     //!
 301:funsape/peripheral/timer1.hpp ****     Timer1 &operator=(
 302:funsape/peripheral/timer1.hpp ****             const Timer1 &
 303:funsape/peripheral/timer1.hpp ****     ) = delete;
 304:funsape/peripheral/timer1.hpp **** 
 305:funsape/peripheral/timer1.hpp **** protected:
 306:funsape/peripheral/timer1.hpp ****     // NONE
 307:funsape/peripheral/timer1.hpp **** 
 308:funsape/peripheral/timer1.hpp ****     // -------------------------------------------------------------------------
 309:funsape/peripheral/timer1.hpp ****     // Methods - Inherited methods ---------------------------------------------
 310:funsape/peripheral/timer1.hpp **** 
 311:funsape/peripheral/timer1.hpp **** public:
 312:funsape/peripheral/timer1.hpp ****     // NONE
 313:funsape/peripheral/timer1.hpp **** 
 314:funsape/peripheral/timer1.hpp **** protected:
 315:funsape/peripheral/timer1.hpp ****     // NONE
 316:funsape/peripheral/timer1.hpp **** 
 317:funsape/peripheral/timer1.hpp ****     // -------------------------------------------------------------------------
 318:funsape/peripheral/timer1.hpp ****     // Methods - class own methods ---------------------------------------------
 319:funsape/peripheral/timer1.hpp **** 
 320:funsape/peripheral/timer1.hpp **** public:
 321:funsape/peripheral/timer1.hpp ****     //     ///////////////////    SINGLETON ACCESS    ///////////////////     //
 322:funsape/peripheral/timer1.hpp **** 
 323:funsape/peripheral/timer1.hpp ****     //!
 324:funsape/peripheral/timer1.hpp ****     //! @brief      Returns the Singleton instance.
 325:funsape/peripheral/timer1.hpp ****     //! @details    Provides global access to the single instance of the Timer1
 326:funsape/peripheral/timer1.hpp ****     //!                 class. This method is tightly inlined to ensure
 327:funsape/peripheral/timer1.hpp ****     //!                 zero-overhead during execution.
 328:funsape/peripheral/timer1.hpp ****     //! @return     Reference to the single Timer1 instance.
 329:funsape/peripheral/timer1.hpp ****     //!
 330:funsape/peripheral/timer1.hpp ****     static inlined Timer1 &getInstance(
 331:funsape/peripheral/timer1.hpp ****             void
 332:funsape/peripheral/timer1.hpp ****     );
 333:funsape/peripheral/timer1.hpp **** 
 334:funsape/peripheral/timer1.hpp ****     //     /////////////////     CONTROL AND STATUS     /////////////////     //
 335:funsape/peripheral/timer1.hpp **** 
 336:funsape/peripheral/timer1.hpp ****     //!
 337:funsape/peripheral/timer1.hpp ****     //! @brief      Returns the last error.
 338:funsape/peripheral/timer1.hpp ****     //! @details    Returns the last error.
 339:funsape/peripheral/timer1.hpp ****     //! @return     @ref Error          Error status of the last operation.
 340:funsape/peripheral/timer1.hpp ****     //!
 341:funsape/peripheral/timer1.hpp ****     Error inlined getLastError(
 342:funsape/peripheral/timer1.hpp ****             void
 343:funsape/peripheral/timer1.hpp ****     ) const;
 344:funsape/peripheral/timer1.hpp **** 
 345:funsape/peripheral/timer1.hpp ****     //!
 346:funsape/peripheral/timer1.hpp ****     //! @brief      Initializes the Timer1 module.
 347:funsape/peripheral/timer1.hpp ****     //! @details    Initializes the Timer1 module.
 348:funsape/peripheral/timer1.hpp ****     //! @param[in]  mode_p              Operation mode.
 349:funsape/peripheral/timer1.hpp ****     //! @param[in]  clockSource_p       Clock source and prescaler.
 350:funsape/peripheral/timer1.hpp ****     //! @retval     true                if success.
 351:funsape/peripheral/timer1.hpp ****     //! @retval     false               if an error occurred. Retrieve the error
 352:funsape/peripheral/timer1.hpp ****     //!                                     by calling
GAS LISTING /tmp/ccOPlziU.s 			page 56


 353:funsape/peripheral/timer1.hpp ****     //!                                     @ref Timer1::getLastError().
 354:funsape/peripheral/timer1.hpp ****     //! @par Error codes:
 355:funsape/peripheral/timer1.hpp ****     //!
 356:funsape/peripheral/timer1.hpp ****     //! | Error code       | Meaning                          |
 357:funsape/peripheral/timer1.hpp ****     //! |:-----------------|:---------------------------------|
 358:funsape/peripheral/timer1.hpp ****     //! | @ref Error::NONE | Success. No erros were detected. |
 359:funsape/peripheral/timer1.hpp ****     //!
 360:funsape/peripheral/timer1.hpp ****     bool_t init(
 361:funsape/peripheral/timer1.hpp ****             const Timer1::Mode mode_p,
 362:funsape/peripheral/timer1.hpp ****             const Timer1::ClockSource clockSource_p
 363:funsape/peripheral/timer1.hpp ****     );
 364:funsape/peripheral/timer1.hpp **** 
 365:funsape/peripheral/timer1.hpp ****     //!
 366:funsape/peripheral/timer1.hpp ****     //! @brief       Configures the clock source and prescaler.
 367:funsape/peripheral/timer1.hpp ****     //! @details     Configures the clock source and prescaler.
 368:funsape/peripheral/timer1.hpp ****     //! @param[in]   clockSource_p       Clock source and prescaler.
 369:funsape/peripheral/timer1.hpp ****     //! @retval      true                if success.
 370:funsape/peripheral/timer1.hpp ****     //! @retval      false               if an error occurred. Retrieve the error
 371:funsape/peripheral/timer1.hpp ****     //!                                      by calling
 372:funsape/peripheral/timer1.hpp ****     //!                                     @ref Timer1::getLastError().
 373:funsape/peripheral/timer1.hpp ****     //! @par Error codes:
 374:funsape/peripheral/timer1.hpp ****     //!
 375:funsape/peripheral/timer1.hpp ****     //! | Error code       | Meaning                          |
 376:funsape/peripheral/timer1.hpp ****     //! |:-----------------|:---------------------------------|
 377:funsape/peripheral/timer1.hpp ****     //! | @ref Error::NONE | Success. No erros were detected. |
 378:funsape/peripheral/timer1.hpp ****     //!
 379:funsape/peripheral/timer1.hpp ****     bool_t setClockSource(
 380:funsape/peripheral/timer1.hpp ****             const Timer1::ClockSource clockSource_p
 381:funsape/peripheral/timer1.hpp ****     );
 382:funsape/peripheral/timer1.hpp **** 
 383:funsape/peripheral/timer1.hpp ****     //!
 384:funsape/peripheral/timer1.hpp ****     //! @brief      Configures the input capture mode.
 385:funsape/peripheral/timer1.hpp ****     //! @details    Configures the input capture mode.
 386:funsape/peripheral/timer1.hpp ****     //! @param[in]  edgeSelection_p     edge of the input capture signal.
 387:funsape/peripheral/timer1.hpp ****     //! @param[in]  noiseCanceler_p     state of the noise canceler circuit.
 388:funsape/peripheral/timer1.hpp ****     //! @retval     true                if success.
 389:funsape/peripheral/timer1.hpp ****     //! @retval     false               if an error occurred. Retrieve the error
 390:funsape/peripheral/timer1.hpp ****     //!                                     by calling
 391:funsape/peripheral/timer1.hpp ****     //!                                     @ref Timer1::getLastError().
 392:funsape/peripheral/timer1.hpp ****     //! @par Error codes:
 393:funsape/peripheral/timer1.hpp ****     //!
 394:funsape/peripheral/timer1.hpp ****     //! | Error code       | Meaning                          |
 395:funsape/peripheral/timer1.hpp ****     //! |:-----------------|:---------------------------------|
 396:funsape/peripheral/timer1.hpp ****     //! | @ref Error::NONE | Success. No erros were detected. |
 397:funsape/peripheral/timer1.hpp ****     //!
 398:funsape/peripheral/timer1.hpp ****     //!
 399:funsape/peripheral/timer1.hpp ****     bool_t setInputCaptureMode(
 400:funsape/peripheral/timer1.hpp ****             const Edge edgeSelection_p,
 401:funsape/peripheral/timer1.hpp ****             cbool_t noiseCanceler_p
 402:funsape/peripheral/timer1.hpp ****     );
 403:funsape/peripheral/timer1.hpp **** 
 404:funsape/peripheral/timer1.hpp ****     //!
 405:funsape/peripheral/timer1.hpp ****     //! @brief      Configures the operation mode.
 406:funsape/peripheral/timer1.hpp ****     //! @details    Configures the operation mode.
 407:funsape/peripheral/timer1.hpp ****     //! @param[in]  mode_p              Operation mode.
 408:funsape/peripheral/timer1.hpp ****     //! @retval     true                if success.
 409:funsape/peripheral/timer1.hpp ****     //! @retval     false               if an error occurred. Retrieve the error
GAS LISTING /tmp/ccOPlziU.s 			page 57


 410:funsape/peripheral/timer1.hpp ****     //!                                     by calling
 411:funsape/peripheral/timer1.hpp ****     //!                                     @ref Timer1::getLastError().
 412:funsape/peripheral/timer1.hpp ****     //! @par Error codes:
 413:funsape/peripheral/timer1.hpp ****     //!
 414:funsape/peripheral/timer1.hpp ****     //! | Error code       | Meaning                          |
 415:funsape/peripheral/timer1.hpp ****     //! |:-----------------|:---------------------------------|
 416:funsape/peripheral/timer1.hpp ****     //! | @ref Error::NONE | Success. No erros were detected. |
 417:funsape/peripheral/timer1.hpp ****     //!
 418:funsape/peripheral/timer1.hpp ****     bool_t setMode(
 419:funsape/peripheral/timer1.hpp ****             const Timer1::Mode mode_p
 420:funsape/peripheral/timer1.hpp ****     );
 421:funsape/peripheral/timer1.hpp **** 
 422:funsape/peripheral/timer1.hpp ****     //!
 423:funsape/peripheral/timer1.hpp ****     //! @brief      Configures the output compare pins mode.
 424:funsape/peripheral/timer1.hpp ****     //! @details    Configures the desired behavior of @c OC1x pins during
 425:funsape/peripheral/timer1.hpp ****     //!                 compare match.
 426:funsape/peripheral/timer1.hpp ****     //! @param[in]  compA_p             Behavior of @c OC1A pin during a compare
 427:funsape/peripheral/timer1.hpp ****     //!                                     A match.
 428:funsape/peripheral/timer1.hpp ****     //! @param[in]  compB_p             Behavior of @c OC1B pin during a compare
 429:funsape/peripheral/timer1.hpp ****     //!                                     B match.
 430:funsape/peripheral/timer1.hpp ****     //! @retval     true                if success.
 431:funsape/peripheral/timer1.hpp ****     //! @retval     false               if an error occurred. Retrieve the error
 432:funsape/peripheral/timer1.hpp ****     //!                                     by calling
 433:funsape/peripheral/timer1.hpp ****     //!                                     @ref Timer1::getLastError().
 434:funsape/peripheral/timer1.hpp ****     //! @par Error codes:
 435:funsape/peripheral/timer1.hpp ****     //!
 436:funsape/peripheral/timer1.hpp ****     //! | Error code       | Meaning                          |
 437:funsape/peripheral/timer1.hpp ****     //! |:-----------------|:---------------------------------|
 438:funsape/peripheral/timer1.hpp ****     //! | @ref Error::NONE | Success. No erros were detected. |
 439:funsape/peripheral/timer1.hpp ****     //!
 440:funsape/peripheral/timer1.hpp ****     bool_t setOutputMode(
 441:funsape/peripheral/timer1.hpp ****             const Timer1::OutputMode compA_p,
 442:funsape/peripheral/timer1.hpp ****             const Timer1::OutputMode compB_p
 443:funsape/peripheral/timer1.hpp ****     );
 444:funsape/peripheral/timer1.hpp **** 
 445:funsape/peripheral/timer1.hpp ****     //     /////////////////////     COMPARE A     //////////////////////     //
 446:funsape/peripheral/timer1.hpp **** 
 447:funsape/peripheral/timer1.hpp ****     //!
 448:funsape/peripheral/timer1.hpp ****     //! @brief      Activates Compare A Match interrupt.
 449:funsape/peripheral/timer1.hpp ****     //! @details    Activates Compare A Match interrupt. If an interrupt request
 450:funsape/peripheral/timer1.hpp ****     //!                 is pending, an interrupt will be triggered when
 451:funsape/peripheral/timer1.hpp ****     //!                 activated. In most applications, it is recommended to
 452:funsape/peripheral/timer1.hpp ****     //!                 ignore an old interrupt request prior to activate the
 453:funsape/peripheral/timer1.hpp ****     //!                 interrupt. This can be done by calling
 454:funsape/peripheral/timer1.hpp ****     //!                 @ref Timer1::clearCompareAInterruptRequest() function
 455:funsape/peripheral/timer1.hpp ****     //!                 imediatelly before activating the interrupt.
 456:funsape/peripheral/timer1.hpp ****     //!
 457:funsape/peripheral/timer1.hpp ****     void inlined activateCompareAInterrupt(
 458:funsape/peripheral/timer1.hpp ****             void
 459:funsape/peripheral/timer1.hpp ****     ) const;
 460:funsape/peripheral/timer1.hpp **** 
 461:funsape/peripheral/timer1.hpp ****     //!
 462:funsape/peripheral/timer1.hpp ****     //! @brief      Clears Compare A Match interrupt flag.
 463:funsape/peripheral/timer1.hpp ****     //! @details    Clears Compare A Match interrupt flag, dismissing any
 464:funsape/peripheral/timer1.hpp ****     //!                 pending interrupt request.
 465:funsape/peripheral/timer1.hpp ****     //!
 466:funsape/peripheral/timer1.hpp ****     void inlined clearCompareAInterruptRequest(
GAS LISTING /tmp/ccOPlziU.s 			page 58


 467:funsape/peripheral/timer1.hpp ****             void
 468:funsape/peripheral/timer1.hpp ****     ) const;
 469:funsape/peripheral/timer1.hpp **** 
 470:funsape/peripheral/timer1.hpp ****     //!
 471:funsape/peripheral/timer1.hpp ****     //! @brief      Deactivates Compare A Match interrupt.
 472:funsape/peripheral/timer1.hpp ****     //! @details    Deactivates Compare A Match interrupt. This function does
 473:funsape/peripheral/timer1.hpp ****     //!                 not clears any pending interrupt request.
 474:funsape/peripheral/timer1.hpp ****     //!
 475:funsape/peripheral/timer1.hpp ****     void inlined deactivateCompareAInterrupt(
 476:funsape/peripheral/timer1.hpp ****             void
 477:funsape/peripheral/timer1.hpp ****     ) const;
 478:funsape/peripheral/timer1.hpp **** 
 479:funsape/peripheral/timer1.hpp ****     //!
 480:funsape/peripheral/timer1.hpp ****     //! @brief      Forces a Compare A Match condition on output pin.
 481:funsape/peripheral/timer1.hpp ****     //! @details    Forces a Compare A Match condition on output pin. No
 482:funsape/peripheral/timer1.hpp ****     //!                 interrupt will be generated.
 483:funsape/peripheral/timer1.hpp ****     //!
 484:funsape/peripheral/timer1.hpp ****     void inlined forceCompareA(
 485:funsape/peripheral/timer1.hpp ****             void
 486:funsape/peripheral/timer1.hpp ****     ) const;
 487:funsape/peripheral/timer1.hpp **** 
 488:funsape/peripheral/timer1.hpp ****     //!
 489:funsape/peripheral/timer1.hpp ****     //! @brief      Returns the Compare A Match value.
 490:funsape/peripheral/timer1.hpp ****     //! @details    Returns the Compare A Match value at @c OCR1A register.
 491:funsape/peripheral/timer1.hpp ****     //! @return     the value of the Compare A Match, i.e. the value of @c OCR1A
 492:funsape/peripheral/timer1.hpp ****     //!                 register.
 493:funsape/peripheral/timer1.hpp ****     //!
 494:funsape/peripheral/timer1.hpp ****     uint16_t inlined getCompareAValue(
 495:funsape/peripheral/timer1.hpp ****             void
 496:funsape/peripheral/timer1.hpp ****     ) const;
 497:funsape/peripheral/timer1.hpp **** 
 498:funsape/peripheral/timer1.hpp ****     //!
 499:funsape/peripheral/timer1.hpp ****     //! @brief      Sets the Compare A Match value.
 500:funsape/peripheral/timer1.hpp ****     //! @details    Sets the Compare A Match value at @c OCR1A register.
 501:funsape/peripheral/timer1.hpp ****     //! @param[in]  value_p             Compare A Match value.
 502:funsape/peripheral/timer1.hpp ****     //!
 503:funsape/peripheral/timer1.hpp ****     void inlined setCompareAValue(
 504:funsape/peripheral/timer1.hpp ****             cuint16_t value_p
 505:funsape/peripheral/timer1.hpp ****     ) const;
 506:funsape/peripheral/timer1.hpp **** 
 507:funsape/peripheral/timer1.hpp ****     //     /////////////////////     COMPARE B     //////////////////////     //
 508:funsape/peripheral/timer1.hpp **** 
 509:funsape/peripheral/timer1.hpp ****     //!
 510:funsape/peripheral/timer1.hpp ****     //! @brief      Activates Compare B Match interrupt.
 511:funsape/peripheral/timer1.hpp ****     //! @details    Activates Compare B Match interrupt. If an interrupt request
 512:funsape/peripheral/timer1.hpp ****     //!                 is pending, an interrupt will be triggered when
 513:funsape/peripheral/timer1.hpp ****     //!                 activated. In most applications, it is recommended to
 514:funsape/peripheral/timer1.hpp ****     //!                 ignore an old interrupt request prior to activate the
 515:funsape/peripheral/timer1.hpp ****     //!                 interrupt. This can be done by calling
 516:funsape/peripheral/timer1.hpp ****     //!                 @ref Timer1::clearCompareBInterruptRequest() function
 517:funsape/peripheral/timer1.hpp ****     //!                 imediatelly before activating the interrupt.
 518:funsape/peripheral/timer1.hpp ****     //!
 519:funsape/peripheral/timer1.hpp ****     void inlined activateCompareBInterrupt(
 520:funsape/peripheral/timer1.hpp ****             void
 521:funsape/peripheral/timer1.hpp ****     ) const;
 522:funsape/peripheral/timer1.hpp **** 
 523:funsape/peripheral/timer1.hpp ****     //!
GAS LISTING /tmp/ccOPlziU.s 			page 59


 524:funsape/peripheral/timer1.hpp ****     //! @brief      Clears Compare B Match interrupt flag.
 525:funsape/peripheral/timer1.hpp ****     //! @details    Clears Compare B Match interrupt flag, dismissing any
 526:funsape/peripheral/timer1.hpp ****     //!                 pending interrupt request.
 527:funsape/peripheral/timer1.hpp ****     //!
 528:funsape/peripheral/timer1.hpp ****     void inlined clearCompareBInterruptRequest(
 529:funsape/peripheral/timer1.hpp ****             void
 530:funsape/peripheral/timer1.hpp ****     ) const;
 531:funsape/peripheral/timer1.hpp **** 
 532:funsape/peripheral/timer1.hpp ****     //!
 533:funsape/peripheral/timer1.hpp ****     //! @brief      Deactivates Compare B Match interrupt.
 534:funsape/peripheral/timer1.hpp ****     //! @details    Deactivates Compare B Match interrupt. This function does
 535:funsape/peripheral/timer1.hpp ****     //!                 not clears any pending interrupt request.
 536:funsape/peripheral/timer1.hpp ****     //!
 537:funsape/peripheral/timer1.hpp ****     void inlined deactivateCompareBInterrupt(
 538:funsape/peripheral/timer1.hpp ****             void
 539:funsape/peripheral/timer1.hpp ****     ) const;
 540:funsape/peripheral/timer1.hpp **** 
 541:funsape/peripheral/timer1.hpp ****     //!
 542:funsape/peripheral/timer1.hpp ****     //! @brief      Forces a Compare B Match condition on output pin.
 543:funsape/peripheral/timer1.hpp ****     //! @details    Forces a Compare B Match condition on output pin. No
 544:funsape/peripheral/timer1.hpp ****     //!                 interrupt will be generated.
 545:funsape/peripheral/timer1.hpp ****     //!
 546:funsape/peripheral/timer1.hpp ****     void inlined forceCompareB(
 547:funsape/peripheral/timer1.hpp ****             void
 548:funsape/peripheral/timer1.hpp ****     ) const;
 549:funsape/peripheral/timer1.hpp **** 
 550:funsape/peripheral/timer1.hpp ****     //!
 551:funsape/peripheral/timer1.hpp ****     //! @brief      Returns the Compare B Match value.
 552:funsape/peripheral/timer1.hpp ****     //! @details    Returns the Compare B Match value at @c OCR1B register.
 553:funsape/peripheral/timer1.hpp ****     //! @return     the value of the Compare B Match, i.e. the value of @c OCR1B
 554:funsape/peripheral/timer1.hpp ****     //!                 register.
 555:funsape/peripheral/timer1.hpp ****     //!
 556:funsape/peripheral/timer1.hpp ****     uint16_t inlined getCompareBValue(
 557:funsape/peripheral/timer1.hpp ****             void
 558:funsape/peripheral/timer1.hpp ****     ) const;
 559:funsape/peripheral/timer1.hpp **** 
 560:funsape/peripheral/timer1.hpp ****     //!
 561:funsape/peripheral/timer1.hpp ****     //! @brief      Sets the Compare B Match value.
 562:funsape/peripheral/timer1.hpp ****     //! @details    Sets the Compare B Match value at @c OCR1B register.
 563:funsape/peripheral/timer1.hpp ****     //! @param[in]  value_p             Compare B Match value.
 564:funsape/peripheral/timer1.hpp ****     //!
 565:funsape/peripheral/timer1.hpp ****     void inlined setCompareBValue(
 566:funsape/peripheral/timer1.hpp ****             cuint16_t value_p
 567:funsape/peripheral/timer1.hpp ****     ) const;
 568:funsape/peripheral/timer1.hpp **** 
 569:funsape/peripheral/timer1.hpp ****     //     ///////////////////     INPUT CAPTURE     ////////////////////     //
 570:funsape/peripheral/timer1.hpp **** 
 571:funsape/peripheral/timer1.hpp ****     //!
 572:funsape/peripheral/timer1.hpp ****     //! @brief      Activates Input Capture interrupt.
 573:funsape/peripheral/timer1.hpp ****     //! @details    Activates Input Capture interrupt. If an interrupt request
 574:funsape/peripheral/timer1.hpp ****     //!                 is pending, an interrupt will be triggered when
 575:funsape/peripheral/timer1.hpp ****     //!                 activated. In most applications, it is recommended to
 576:funsape/peripheral/timer1.hpp ****     //!                 ignore an old interrupt request prior to activate the
 577:funsape/peripheral/timer1.hpp ****     //!                 interrupt. This can be done by calling
 578:funsape/peripheral/timer1.hpp ****     //!                 @ref clearInputCaptureInterruptRequest() function
 579:funsape/peripheral/timer1.hpp ****     //!                 imediatelly before activating the interrupt.
 580:funsape/peripheral/timer1.hpp ****     //!
GAS LISTING /tmp/ccOPlziU.s 			page 60


 581:funsape/peripheral/timer1.hpp ****     void inlined activateInputCaptureInterrupt(
 582:funsape/peripheral/timer1.hpp ****             void
 583:funsape/peripheral/timer1.hpp ****     ) const;
 584:funsape/peripheral/timer1.hpp **** 
 585:funsape/peripheral/timer1.hpp ****     //!
 586:funsape/peripheral/timer1.hpp ****     //! @brief      Clears Input Capture interrupt flag.
 587:funsape/peripheral/timer1.hpp ****     //! @details    Clears Input Capture interrupt flag, dismissing any
 588:funsape/peripheral/timer1.hpp ****     //!                 pending interrupt request.
 589:funsape/peripheral/timer1.hpp ****     //!
 590:funsape/peripheral/timer1.hpp ****     void inlined clearInputCaptureInterruptRequest(
 591:funsape/peripheral/timer1.hpp ****             void
 592:funsape/peripheral/timer1.hpp ****     ) const;
 593:funsape/peripheral/timer1.hpp **** 
 594:funsape/peripheral/timer1.hpp ****     //!
 595:funsape/peripheral/timer1.hpp ****     //! @brief      Deactivates Input Capture interrupt.
 596:funsape/peripheral/timer1.hpp ****     //! @details    Deactivates Input Capture interrupt. This function does not
 597:funsape/peripheral/timer1.hpp ****     //!                 clears any pending interrupt request.
 598:funsape/peripheral/timer1.hpp ****     //!
 599:funsape/peripheral/timer1.hpp ****     void inlined deactivateInputCaptureInterrupt(
 600:funsape/peripheral/timer1.hpp ****             void
 601:funsape/peripheral/timer1.hpp ****     ) const;
 602:funsape/peripheral/timer1.hpp **** 
 603:funsape/peripheral/timer1.hpp ****     //!
 604:funsape/peripheral/timer1.hpp ****     //! @brief      Returns the Input Capture value.
 605:funsape/peripheral/timer1.hpp ****     //! @details    Returns the Input Capture value at @c ICR1 register.
 606:funsape/peripheral/timer1.hpp ****     //! @return     the value of the Input Capture, i.e. the value of @c ICR1
 607:funsape/peripheral/timer1.hpp ****     //!                  register.
 608:funsape/peripheral/timer1.hpp ****     //!
 609:funsape/peripheral/timer1.hpp ****     uint16_t inlined getInputCaptureValue(
 610:funsape/peripheral/timer1.hpp ****             void
 611:funsape/peripheral/timer1.hpp ****     ) const;
 612:funsape/peripheral/timer1.hpp **** 
 613:funsape/peripheral/timer1.hpp ****     //!
 614:funsape/peripheral/timer1.hpp ****     //! @brief      Sets the Input Capture value.
 615:funsape/peripheral/timer1.hpp ****     //! @details    Sets the Input Capture value at @c ICR1 register.
 616:funsape/peripheral/timer1.hpp ****     //! @param[in]  value_p             Input Capture value.
 617:funsape/peripheral/timer1.hpp ****     //!
 618:funsape/peripheral/timer1.hpp ****     void inlined setInputCaptureValue(
 619:funsape/peripheral/timer1.hpp ****             cuint16_t value_p
 620:funsape/peripheral/timer1.hpp ****     ) const;
 621:funsape/peripheral/timer1.hpp **** 
 622:funsape/peripheral/timer1.hpp ****     //     //////////////////////     OVERFLOW    ///////////////////////     //
 623:funsape/peripheral/timer1.hpp **** 
 624:funsape/peripheral/timer1.hpp ****     //!
 625:funsape/peripheral/timer1.hpp ****     //! @brief      Activates Timer Overflow interrupt.
 626:funsape/peripheral/timer1.hpp ****     //! @details    Activates Timer Overflow interrupt. If an interrupt request
 627:funsape/peripheral/timer1.hpp ****     //!                 is pending, an interrupt will be triggered when
 628:funsape/peripheral/timer1.hpp ****     //!                 activated. In most applications, it is recommended to
 629:funsape/peripheral/timer1.hpp ****     //!                 ignore an old interrupt request prior to activate the
 630:funsape/peripheral/timer1.hpp ****     //!                 interrupt. This can be done by calling
 631:funsape/peripheral/timer1.hpp ****     //!                 @ref Timer1::clearOverflowInterruptRequest() function
 632:funsape/peripheral/timer1.hpp ****     //!                 imediatelly before activating the interrupt.
 633:funsape/peripheral/timer1.hpp ****     //!
 634:funsape/peripheral/timer1.hpp ****     void inlined activateOverflowInterrupt(
 635:funsape/peripheral/timer1.hpp ****             void
 636:funsape/peripheral/timer1.hpp ****     ) const;
 637:funsape/peripheral/timer1.hpp **** 
GAS LISTING /tmp/ccOPlziU.s 			page 61


 638:funsape/peripheral/timer1.hpp ****     //!
 639:funsape/peripheral/timer1.hpp ****     //! @brief      Clears Timer Overflow interrupt flag.
 640:funsape/peripheral/timer1.hpp ****     //! @details    Clears Timer Overflow interrupt flag, dismissing any
 641:funsape/peripheral/timer1.hpp ****     //!                 pending interrupt request.
 642:funsape/peripheral/timer1.hpp ****     //!
 643:funsape/peripheral/timer1.hpp ****     void inlined clearOverflowInterruptRequest(
 644:funsape/peripheral/timer1.hpp ****             void
 645:funsape/peripheral/timer1.hpp ****     ) const;
 646:funsape/peripheral/timer1.hpp **** 
 647:funsape/peripheral/timer1.hpp ****     //!
 648:funsape/peripheral/timer1.hpp ****     //! @brief      Deactivates Timer Overflow interrupt.
 649:funsape/peripheral/timer1.hpp ****     //! @details    Deactivates Timer Overflow interrupt. This function does not
 650:funsape/peripheral/timer1.hpp ****     //!                 clears any pending interrupt request.
 651:funsape/peripheral/timer1.hpp ****     //!
 652:funsape/peripheral/timer1.hpp ****     void inlined deactivateOverflowInterrupt(
 653:funsape/peripheral/timer1.hpp ****             void
 654:funsape/peripheral/timer1.hpp ****     ) const;
 655:funsape/peripheral/timer1.hpp **** 
 656:funsape/peripheral/timer1.hpp ****     //!
 657:funsape/peripheral/timer1.hpp ****     //! @brief      Returns the Timer Counter value.
 658:funsape/peripheral/timer1.hpp ****     //! @details    Returns the Timer Counter value at @c TCNT1 register.
 659:funsape/peripheral/timer1.hpp ****     //! @return     the value of the Timer Counter, i.e. the value of @c TCNT1
 660:funsape/peripheral/timer1.hpp ****     //!                 register.
 661:funsape/peripheral/timer1.hpp ****     //!
 662:funsape/peripheral/timer1.hpp ****     uint16_t inlined getCounterValue(
 663:funsape/peripheral/timer1.hpp ****             void
 664:funsape/peripheral/timer1.hpp ****     ) const;
 665:funsape/peripheral/timer1.hpp **** 
 666:funsape/peripheral/timer1.hpp ****     //!
 667:funsape/peripheral/timer1.hpp ****     //! @brief      Sets the Timer Counter value.
 668:funsape/peripheral/timer1.hpp ****     //! @details    Sets the Timer Counter value at @c MCU_TIMER1_COUNTER_REG register.
 669:funsape/peripheral/timer1.hpp ****     //! @param[in]  value_p             Timer Counter value.
 670:funsape/peripheral/timer1.hpp ****     //!
 671:funsape/peripheral/timer1.hpp ****     void inlined setCounterValue(
 672:funsape/peripheral/timer1.hpp ****             cuint16_t value_p
 673:funsape/peripheral/timer1.hpp ****     ) const;
 674:funsape/peripheral/timer1.hpp **** 
 675:funsape/peripheral/timer1.hpp **** private:
 676:funsape/peripheral/timer1.hpp ****     // NONE
 677:funsape/peripheral/timer1.hpp **** 
 678:funsape/peripheral/timer1.hpp **** protected:
 679:funsape/peripheral/timer1.hpp ****     // NONE
 680:funsape/peripheral/timer1.hpp **** 
 681:funsape/peripheral/timer1.hpp **** // -------------------------------------------------------------------------
 682:funsape/peripheral/timer1.hpp **** // Properties --------------------------------------------------------------
 683:funsape/peripheral/timer1.hpp **** 
 684:funsape/peripheral/timer1.hpp **** private:
 685:funsape/peripheral/timer1.hpp ****     //     /////////////////    SINGLETON INSTANCE     //////////////////     //
 686:funsape/peripheral/timer1.hpp ****     static Timer1   _instance;                  //|< Static private instance
 687:funsape/peripheral/timer1.hpp **** 
 688:funsape/peripheral/timer1.hpp ****     //     /////////////////    CONTROL AND STATUS     //////////////////     //
 689:funsape/peripheral/timer1.hpp ****     bool_t          _isInitialized      : 1;    //!< Initialization flag.
 690:funsape/peripheral/timer1.hpp ****     Error           _lastError;                 //!< Last error.
 691:funsape/peripheral/timer1.hpp **** 
 692:funsape/peripheral/timer1.hpp ****     //     ////////////////////   CONFIGURATION     /////////////////////     //
 693:funsape/peripheral/timer1.hpp ****     Timer1::ClockSource     _clockSource;       //!< Clock source and prescaler.
 694:funsape/peripheral/timer1.hpp ****     Timer1::Mode            _mode;              //!< Operation mode.
GAS LISTING /tmp/ccOPlziU.s 			page 62


 695:funsape/peripheral/timer1.hpp **** 
 696:funsape/peripheral/timer1.hpp **** protected:
 697:funsape/peripheral/timer1.hpp ****     // NONE
 698:funsape/peripheral/timer1.hpp **** 
 699:funsape/peripheral/timer1.hpp **** }; // class Timer1
 700:funsape/peripheral/timer1.hpp **** 
 701:funsape/peripheral/timer1.hpp **** // =============================================================================
 702:funsape/peripheral/timer1.hpp **** // Inlined class functions
 703:funsape/peripheral/timer1.hpp **** // =============================================================================
 704:funsape/peripheral/timer1.hpp **** 
 705:funsape/peripheral/timer1.hpp **** //!
 706:funsape/peripheral/timer1.hpp **** //! @cond
 707:funsape/peripheral/timer1.hpp **** //!
 708:funsape/peripheral/timer1.hpp **** 
 709:funsape/peripheral/timer1.hpp **** //     /////////////////////    SINGLETON ACCESS    /////////////////////     //
 710:funsape/peripheral/timer1.hpp **** 
 711:funsape/peripheral/timer1.hpp **** Timer1 inlined &Timer1::getInstance(void)
 738               		.loc 5 711 17 view .LVU206
 712:funsape/peripheral/timer1.hpp **** {
 713:funsape/peripheral/timer1.hpp ****     return Timer1::_instance;
 739               		.loc 5 713 5 view .LVU207
 740               	.LBE114:
 124:main.cpp      ****     timer1.init(Timer1::Mode::CTC_OCRA, //Colocamos quantos ciclos pra chegar na interrupção
 741               		.loc 1 124 16 is_stmt 0 discriminator 1 view .LVU208
 742 00ae 43E0      		ldi r20,lo8(3)
 743 00b0 64E0      		ldi r22,lo8(4)
 744 00b2 80E0      		ldi r24,lo8(_ZN6Timer19_instanceE)
 745 00b4 90E0      		ldi r25,hi8(_ZN6Timer19_instanceE)
 746 00b6 0E94 0000 		call _ZN6Timer14initENS_4ModeENS_11ClockSourceE
 747               	.LVL46:
 126:main.cpp      ****     timer1.setCompareAValue(1250*4); // 50ms
 748               		.loc 1 126 5 is_stmt 1 view .LVU209
 749               	.LBB115:
 750               	.LBI115:
 714:funsape/peripheral/timer1.hpp **** }
 715:funsape/peripheral/timer1.hpp **** 
 716:funsape/peripheral/timer1.hpp **** //     ///////////////////////     COMPARE A     ////////////////////////     //
 717:funsape/peripheral/timer1.hpp **** 
 718:funsape/peripheral/timer1.hpp **** void inlined Timer1::activateCompareAInterrupt(void) const
 719:funsape/peripheral/timer1.hpp **** {
 720:funsape/peripheral/timer1.hpp ****     setBit(MCU_TIMER1_ENABLE_REG, MCU_TIMER1_ENABLE_COMPA_BIT_OFFSET);
 721:funsape/peripheral/timer1.hpp ****     return;
 722:funsape/peripheral/timer1.hpp **** }
 723:funsape/peripheral/timer1.hpp **** 
 724:funsape/peripheral/timer1.hpp **** void inlined Timer1::clearCompareAInterruptRequest(void) const
 725:funsape/peripheral/timer1.hpp **** {
 726:funsape/peripheral/timer1.hpp ****     setBit(MCU_TIMER1_FLAG_REG, MCU_TIMER1_FLAG_COMPA_BIT_POS);
 727:funsape/peripheral/timer1.hpp ****     return;
 728:funsape/peripheral/timer1.hpp **** }
 729:funsape/peripheral/timer1.hpp **** 
 730:funsape/peripheral/timer1.hpp **** void inlined Timer1::deactivateCompareAInterrupt(void) const
 731:funsape/peripheral/timer1.hpp **** {
 732:funsape/peripheral/timer1.hpp ****     clrBit(MCU_TIMER1_ENABLE_REG, MCU_TIMER1_ENABLE_COMPA_BIT_OFFSET);
 733:funsape/peripheral/timer1.hpp ****     return;
 734:funsape/peripheral/timer1.hpp **** }
 735:funsape/peripheral/timer1.hpp **** 
 736:funsape/peripheral/timer1.hpp **** void inlined Timer1::forceCompareA(void) const
GAS LISTING /tmp/ccOPlziU.s 			page 63


 737:funsape/peripheral/timer1.hpp **** {
 738:funsape/peripheral/timer1.hpp ****     setBit(MCU_TIMER1_CTRL_C_REG, MCU_TIMER1_FORCE_COMPA_BIT_OFFSET);
 739:funsape/peripheral/timer1.hpp ****     return;
 740:funsape/peripheral/timer1.hpp **** }
 741:funsape/peripheral/timer1.hpp **** 
 742:funsape/peripheral/timer1.hpp **** uint16_t inlined Timer1::getCompareAValue(void) const
 743:funsape/peripheral/timer1.hpp **** {
 744:funsape/peripheral/timer1.hpp ****     uint16_t aux16 = 0;
 745:funsape/peripheral/timer1.hpp **** 
 746:funsape/peripheral/timer1.hpp ****     ATOMIC_BLOCK(ATOMIC_RESTORESTATE) {
 747:funsape/peripheral/timer1.hpp ****         aux16 = MCU_TIMER1_OCR1A_REG;
 748:funsape/peripheral/timer1.hpp ****     }
 749:funsape/peripheral/timer1.hpp **** 
 750:funsape/peripheral/timer1.hpp ****     return aux16;
 751:funsape/peripheral/timer1.hpp **** }
 752:funsape/peripheral/timer1.hpp **** 
 753:funsape/peripheral/timer1.hpp **** void inlined Timer1::setCompareAValue(cuint16_t value_p) const
 751               		.loc 5 753 14 view .LVU210
 754:funsape/peripheral/timer1.hpp **** {
 755:funsape/peripheral/timer1.hpp ****     ATOMIC_BLOCK(ATOMIC_RESTORESTATE) {
 752               		.loc 5 755 5 view .LVU211
 753               	.LBB116:
 754 00ba 8FB7      		in r24,__SREG__
 755               	.LVL47:
 756               	.LBB117:
 757               	.LBI117:
 758               		.file 6 "/usr/avr/include/util/atomic.h"
   1:/usr/avr/include/util/atomic.h **** /* Copyright (c) 2007 Dean Camera
   2:/usr/avr/include/util/atomic.h ****    All rights reserved.
   3:/usr/avr/include/util/atomic.h **** 
   4:/usr/avr/include/util/atomic.h ****    Redistribution and use in source and binary forms, with or without
   5:/usr/avr/include/util/atomic.h ****    modification, are permitted provided that the following conditions are met:
   6:/usr/avr/include/util/atomic.h **** 
   7:/usr/avr/include/util/atomic.h ****    * Redistributions of source code must retain the above copyright
   8:/usr/avr/include/util/atomic.h ****      notice, this list of conditions and the following disclaimer.
   9:/usr/avr/include/util/atomic.h **** 
  10:/usr/avr/include/util/atomic.h ****    * Redistributions in binary form must reproduce the above copyright
  11:/usr/avr/include/util/atomic.h ****      notice, this list of conditions and the following disclaimer in
  12:/usr/avr/include/util/atomic.h ****      the documentation and/or other materials provided with the
  13:/usr/avr/include/util/atomic.h ****      distribution.
  14:/usr/avr/include/util/atomic.h **** 
  15:/usr/avr/include/util/atomic.h ****    * Neither the name of the copyright holders nor the names of
  16:/usr/avr/include/util/atomic.h ****      contributors may be used to endorse or promote products derived
  17:/usr/avr/include/util/atomic.h ****      from this software without specific prior written permission.
  18:/usr/avr/include/util/atomic.h **** 
  19:/usr/avr/include/util/atomic.h ****   THIS SOFTWARE IS PROVIDED BY THE COPYRIGHT HOLDERS AND CONTRIBUTORS "AS IS"
  20:/usr/avr/include/util/atomic.h ****   AND ANY EXPRESS OR IMPLIED WARRANTIES, INCLUDING, BUT NOT LIMITED TO, THE
  21:/usr/avr/include/util/atomic.h ****   IMPLIED WARRANTIES OF MERCHANTABILITY AND FITNESS FOR A PARTICULAR PURPOSE
  22:/usr/avr/include/util/atomic.h ****   ARE DISCLAIMED. IN NO EVENT SHALL THE COPYRIGHT OWNER OR CONTRIBUTORS BE
  23:/usr/avr/include/util/atomic.h ****   LIABLE FOR ANY DIRECT, INDIRECT, INCIDENTAL, SPECIAL, EXEMPLARY, OR
  24:/usr/avr/include/util/atomic.h ****   CONSEQUENTIAL DAMAGES (INCLUDING, BUT NOT LIMITED TO, PROCUREMENT OF
  25:/usr/avr/include/util/atomic.h ****   SUBSTITUTE GOODS OR SERVICES; LOSS OF USE, DATA, OR PROFITS; OR BUSINESS
  26:/usr/avr/include/util/atomic.h ****   INTERRUPTION) HOWEVER CAUSED AND ON ANY THEORY OF LIABILITY, WHETHER IN
  27:/usr/avr/include/util/atomic.h ****   CONTRACT, STRICT LIABILITY, OR TORT (INCLUDING NEGLIGENCE OR OTHERWISE)
  28:/usr/avr/include/util/atomic.h ****   ARISING IN ANY WAY OUT OF THE USE OF THIS SOFTWARE, EVEN IF ADVISED OF THE
  29:/usr/avr/include/util/atomic.h ****   POSSIBILITY OF SUCH DAMAGE. */
  30:/usr/avr/include/util/atomic.h **** 
GAS LISTING /tmp/ccOPlziU.s 			page 64


  31:/usr/avr/include/util/atomic.h **** #ifndef _UTIL_ATOMIC_H_
  32:/usr/avr/include/util/atomic.h **** #define _UTIL_ATOMIC_H_ 1
  33:/usr/avr/include/util/atomic.h **** 
  34:/usr/avr/include/util/atomic.h **** #include <avr/io.h>
  35:/usr/avr/include/util/atomic.h **** #include <avr/interrupt.h>
  36:/usr/avr/include/util/atomic.h **** #include <bits/attribs.h>
  37:/usr/avr/include/util/atomic.h **** 
  38:/usr/avr/include/util/atomic.h **** #if !defined(__DOXYGEN__)
  39:/usr/avr/include/util/atomic.h **** /* Internal helper functions. */
  40:/usr/avr/include/util/atomic.h **** static __ATTR_ALWAYS_INLINE__ uint8_t __iSeiRetVal(void)
  41:/usr/avr/include/util/atomic.h **** {
  42:/usr/avr/include/util/atomic.h ****     sei();
  43:/usr/avr/include/util/atomic.h ****     return 1;
  44:/usr/avr/include/util/atomic.h **** }
  45:/usr/avr/include/util/atomic.h **** 
  46:/usr/avr/include/util/atomic.h **** static __ATTR_ALWAYS_INLINE__ uint8_t __iCliRetVal(void)
 759               		.loc 6 46 39 view .LVU212
 760               	.LBB118:
  47:/usr/avr/include/util/atomic.h **** {
  48:/usr/avr/include/util/atomic.h ****     cli();
 761               		.loc 6 48 5 view .LVU213
 762               	/* #APP */
 763               	 ;  48 "/usr/avr/include/util/atomic.h" 1
 764 00bc F894      		cli ; [[len=1]]
 765               	 ;  0 "" 2
  49:/usr/avr/include/util/atomic.h ****     return 1;
 766               		.loc 6 49 5 view .LVU214
 767               	.LVL48:
 768               		.loc 6 49 5 is_stmt 0 view .LVU215
 769               	/* #NOAPP */
 770               	.LBE118:
 771               	.LBE117:
 772               		.loc 5 755 5 is_stmt 1 discriminator 3 view .LVU216
 756:funsape/peripheral/timer1.hpp ****         MCU_TIMER1_OCR1A_REG = value_p;
 773               		.loc 5 756 9 view .LVU217
 774               		.loc 5 756 30 is_stmt 0 view .LVU218
 775 00be 28E8      		ldi r18,lo8(-120)
 776 00c0 33E1      		ldi r19,lo8(19)
 777 00c2 3093 8900 		sts 136+1,r19
 778 00c6 2093 8800 		sts 136,r18
 755:funsape/peripheral/timer1.hpp ****         MCU_TIMER1_OCR1A_REG = value_p;
 779               		.loc 5 755 5 is_stmt 1 discriminator 2 view .LVU219
 780               	.LVL49:
 755:funsape/peripheral/timer1.hpp ****         MCU_TIMER1_OCR1A_REG = value_p;
 781               		.loc 5 755 5 discriminator 3 view .LVU220
 782               	.LBB119:
 783               	.LBI119:
  50:/usr/avr/include/util/atomic.h **** }
  51:/usr/avr/include/util/atomic.h **** 
  52:/usr/avr/include/util/atomic.h **** static __ATTR_ALWAYS_INLINE__ void __iSeiParam(const uint8_t *__s)
  53:/usr/avr/include/util/atomic.h **** {
  54:/usr/avr/include/util/atomic.h ****     sei();
  55:/usr/avr/include/util/atomic.h ****     (void)__s;
  56:/usr/avr/include/util/atomic.h **** }
  57:/usr/avr/include/util/atomic.h **** 
  58:/usr/avr/include/util/atomic.h **** static __ATTR_ALWAYS_INLINE__ void __iCliParam(const uint8_t *__s)
  59:/usr/avr/include/util/atomic.h **** {
GAS LISTING /tmp/ccOPlziU.s 			page 65


  60:/usr/avr/include/util/atomic.h ****     cli();
  61:/usr/avr/include/util/atomic.h ****     (void)__s;
  62:/usr/avr/include/util/atomic.h **** }
  63:/usr/avr/include/util/atomic.h **** 
  64:/usr/avr/include/util/atomic.h **** static __ATTR_ALWAYS_INLINE__ void __iRestore(const  uint8_t *__s)
 784               		.loc 6 64 36 view .LVU221
 785               	.LBB120:
  65:/usr/avr/include/util/atomic.h **** {
  66:/usr/avr/include/util/atomic.h ****     SREG = *__s;
 786               		.loc 6 66 5 view .LVU222
 787               		.loc 6 66 10 is_stmt 0 view .LVU223
 788 00ca 8FBF      		out __SREG__,r24
  67:/usr/avr/include/util/atomic.h ****     __asm__ __volatile__ ("" ::: "memory");
 789               		.loc 6 67 5 is_stmt 1 view .LVU224
 790               	.LVL50:
 791               		.loc 6 67 5 is_stmt 0 view .LVU225
 792               	.LBE120:
 793               	.LBE119:
 794               	.LBE116:
 757:funsape/peripheral/timer1.hpp ****     }
 758:funsape/peripheral/timer1.hpp **** 
 759:funsape/peripheral/timer1.hpp ****     return;
 795               		.loc 5 759 5 is_stmt 1 view .LVU226
 796               		.loc 5 759 5 is_stmt 0 view .LVU227
 797               	.LBE115:
 127:main.cpp      ****     timer1.clearCompareAInterruptRequest(); //Limpar o pre interrupt
 798               		.loc 1 127 5 is_stmt 1 view .LVU228
 799               	.LBB121:
 800               	.LBI121:
 724:funsape/peripheral/timer1.hpp **** {
 801               		.loc 5 724 14 view .LVU229
 802               	.LBB122:
 726:funsape/peripheral/timer1.hpp ****     return;
 803               		.loc 5 726 5 view .LVU230
 726:funsape/peripheral/timer1.hpp ****     return;
 804               		.loc 5 726 5 view .LVU231
 805 00cc 86B3      		in r24,0x16
 806 00ce 8260      		ori r24,lo8(2)
 807 00d0 86BB      		out 0x16,r24
