GAS LISTING /tmp/cc6dFWRL.s 			page 1


   1               		.file	"pcint1.cpp"
   2               	__SP_H__ = 0x3e
   3               	__SP_L__ = 0x3d
   4               	__SREG__ = 0x3f
   5               	__tmp_reg__ = 0
   6               	__zero_reg__ = 1
   7               		.text
   8               	.Ltext0:
   9               		.cfi_sections	.debug_frame
  10               		.file 1 "funsape/peripheral/pcint1.cpp"
  11               		.section	.text._ZN6Pcint1C2Ev,"ax",@progbits
  12               	.global	_ZN6Pcint1C2Ev
  14               	_ZN6Pcint1C2Ev:
  15               	.LVL0:
  16               	.LFB137:
   1:funsape/peripheral/pcint1.cpp **** //!
   2:funsape/peripheral/pcint1.cpp **** //! ****************************************************************************
   3:funsape/peripheral/pcint1.cpp **** //! @file           pcint1.cpp
   4:funsape/peripheral/pcint1.cpp **** //! @author         Leandro Schwarz (bladabuska+funsapeavr8lib@gmail.com)
   5:funsape/peripheral/pcint1.cpp **** //! @brief          Pin Change Interrupt 1 PCINT1 peripheral control.
   6:funsape/peripheral/pcint1.cpp **** //! @details        This file provides peripheral control for the PCINT1
   7:funsape/peripheral/pcint1.cpp **** //!                     peripheral control for the FunSAPE++ AVR8 Library.
   8:funsape/peripheral/pcint1.cpp **** //! @date           2026-04-03
   9:funsape/peripheral/pcint1.cpp **** //! @version        26.04
  10:funsape/peripheral/pcint1.cpp **** //! @copyright      MIT License
  11:funsape/peripheral/pcint1.cpp **** //! @note           No notes at this time.
  12:funsape/peripheral/pcint1.cpp **** //! @todo           No items in todo list yet.
  13:funsape/peripheral/pcint1.cpp **** //! @bug            No bugs detected yet.
  14:funsape/peripheral/pcint1.cpp **** //! ****************************************************************************
  15:funsape/peripheral/pcint1.cpp **** //! @attention
  16:funsape/peripheral/pcint1.cpp **** //!
  17:funsape/peripheral/pcint1.cpp **** //! MIT License
  18:funsape/peripheral/pcint1.cpp **** //!
  19:funsape/peripheral/pcint1.cpp **** //! Copyright (c) 2026 Leandro Schwarz
  20:funsape/peripheral/pcint1.cpp **** //!
  21:funsape/peripheral/pcint1.cpp **** //! Permission is hereby granted, free of charge, to any person obtaining a copy
  22:funsape/peripheral/pcint1.cpp **** //!     of this software and associated documentation files (the "Software"), to
  23:funsape/peripheral/pcint1.cpp **** //!     deal in the Software without restriction, including without limitation
  24:funsape/peripheral/pcint1.cpp **** //!     the rights to use, copy, modify, merge, publish, distribute, sublicense,
  25:funsape/peripheral/pcint1.cpp **** //!     and/or sell copies of the Software, and to permit persons to whom the
  26:funsape/peripheral/pcint1.cpp **** //!     Software is furnished to do so, subject to the following conditions:
  27:funsape/peripheral/pcint1.cpp **** //!
  28:funsape/peripheral/pcint1.cpp **** //! The above copyright notice and this permission notice shall be included in
  29:funsape/peripheral/pcint1.cpp **** //!     all copies or substantial portions of the Software.
  30:funsape/peripheral/pcint1.cpp **** //!
  31:funsape/peripheral/pcint1.cpp **** //! THE SOFTWARE IS PROVIDED "AS IS", WITHOUT WARRANTY OF ANY KIND, EXPRESS OR
  32:funsape/peripheral/pcint1.cpp **** //!     IMPLIED, INCLUDING BUT NOT LIMITED TO THE WARRANTIES OF MERCHANTABILITY,
  33:funsape/peripheral/pcint1.cpp **** //!     FITNESS FOR A PARTICULAR PURPOSE AND NONINFRINGEMENT. IN NO EVENT SHALL
  34:funsape/peripheral/pcint1.cpp **** //!     THE AUTHORS OR COPYRIGHT HOLDERS BE LIABLE FOR ANY CLAIM, DAMAGES OR
  35:funsape/peripheral/pcint1.cpp **** //!     OTHER LIABILITY, WHETHER IN AN ACTION OF CONTRACT, TORT OR OTHERWISE,
  36:funsape/peripheral/pcint1.cpp **** //!     ARISING FROM, OUT OF OR IN CONNECTION WITH THE SOFTWARE OR THE USE OR
  37:funsape/peripheral/pcint1.cpp **** //!     OTHER DEALINGS IN THE SOFTWARE.
  38:funsape/peripheral/pcint1.cpp **** //!
  39:funsape/peripheral/pcint1.cpp **** //! ****************************************************************************
  40:funsape/peripheral/pcint1.cpp **** //!
  41:funsape/peripheral/pcint1.cpp **** 
  42:funsape/peripheral/pcint1.cpp **** // =============================================================================
GAS LISTING /tmp/cc6dFWRL.s 			page 2


  43:funsape/peripheral/pcint1.cpp **** // System file dependencies
  44:funsape/peripheral/pcint1.cpp **** // =============================================================================
  45:funsape/peripheral/pcint1.cpp **** 
  46:funsape/peripheral/pcint1.cpp **** #include "pcint1.hpp"
  47:funsape/peripheral/pcint1.cpp **** #if !defined(__PCINT1_HPP)
  48:funsape/peripheral/pcint1.cpp **** #    error Error 1 - Header file (pcint1.hpp) is missing or corrupted!
  49:funsape/peripheral/pcint1.cpp **** #elif __PCINT1_HPP != 2604
  50:funsape/peripheral/pcint1.cpp **** #    error Error 6 - Build mismatch between header file (pcint1.hpp) and source file (pcint1.cpp)!
  51:funsape/peripheral/pcint1.cpp **** #endif
  52:funsape/peripheral/pcint1.cpp **** 
  53:funsape/peripheral/pcint1.cpp **** // =============================================================================
  54:funsape/peripheral/pcint1.cpp **** // File exclusive - Constants
  55:funsape/peripheral/pcint1.cpp **** // =============================================================================
  56:funsape/peripheral/pcint1.cpp **** 
  57:funsape/peripheral/pcint1.cpp **** // NONE
  58:funsape/peripheral/pcint1.cpp **** 
  59:funsape/peripheral/pcint1.cpp **** // =============================================================================
  60:funsape/peripheral/pcint1.cpp **** // File exclusive - New data types
  61:funsape/peripheral/pcint1.cpp **** // =============================================================================
  62:funsape/peripheral/pcint1.cpp **** 
  63:funsape/peripheral/pcint1.cpp **** // NONE
  64:funsape/peripheral/pcint1.cpp **** 
  65:funsape/peripheral/pcint1.cpp **** // =============================================================================
  66:funsape/peripheral/pcint1.cpp **** // File exclusive - Macro-functions
  67:funsape/peripheral/pcint1.cpp **** // =============================================================================
  68:funsape/peripheral/pcint1.cpp **** 
  69:funsape/peripheral/pcint1.cpp **** // NONE
  70:funsape/peripheral/pcint1.cpp **** 
  71:funsape/peripheral/pcint1.cpp **** // =============================================================================
  72:funsape/peripheral/pcint1.cpp **** // Global variables
  73:funsape/peripheral/pcint1.cpp **** // =============================================================================
  74:funsape/peripheral/pcint1.cpp **** 
  75:funsape/peripheral/pcint1.cpp **** Pcint1 Pcint1::_instance;
  76:funsape/peripheral/pcint1.cpp **** 
  77:funsape/peripheral/pcint1.cpp **** // =============================================================================
  78:funsape/peripheral/pcint1.cpp **** // Static functions declarations
  79:funsape/peripheral/pcint1.cpp **** // =============================================================================
  80:funsape/peripheral/pcint1.cpp **** 
  81:funsape/peripheral/pcint1.cpp **** // NONE
  82:funsape/peripheral/pcint1.cpp **** 
  83:funsape/peripheral/pcint1.cpp **** // =============================================================================
  84:funsape/peripheral/pcint1.cpp **** // Public function definitions
  85:funsape/peripheral/pcint1.cpp **** // =============================================================================
  86:funsape/peripheral/pcint1.cpp **** 
  87:funsape/peripheral/pcint1.cpp **** // NONE
  88:funsape/peripheral/pcint1.cpp **** 
  89:funsape/peripheral/pcint1.cpp **** // =============================================================================
  90:funsape/peripheral/pcint1.cpp **** // Class constructors
  91:funsape/peripheral/pcint1.cpp **** // =============================================================================
  92:funsape/peripheral/pcint1.cpp **** 
  93:funsape/peripheral/pcint1.cpp **** Pcint1::Pcint1() :
  17               		.loc 1 93 1 view -0
  18               		.cfi_startproc
  19               	/* prologue: function */
  20               	/* frame size = 0 */
  21               	/* stack size = 0 */
  22               	.L__stack_usage = 0
GAS LISTING /tmp/cc6dFWRL.s 			page 3


  23               		.loc 1 93 1 is_stmt 0 view .LVU1
  24 0000 FC01      		movw r30,r24
  25               	.LBB16:
  94:funsape/peripheral/pcint1.cpp ****     _isInitialized(false),
  26               		.loc 1 94 5 view .LVU2
  27 0002 8081      		ld r24,Z
  28               	.LVL1:
  29               		.loc 1 94 5 view .LVU3
  30 0004 8E7F      		andi r24,lo8(~(1<<0))
  31 0006 8083      		st Z,r24
  95:funsape/peripheral/pcint1.cpp ****     _lastError(Error::NONE),
  32               		.loc 1 95 5 view .LVU4
  33 0008 1282      		std Z+2,__zero_reg__
  34 000a 1182      		std Z+1,__zero_reg__
  96:funsape/peripheral/pcint1.cpp ****     _enabledPins((Pcint1::Pin)0)
  35               		.loc 1 96 5 view .LVU5
  36 000c 1382      		std Z+3,__zero_reg__
  97:funsape/peripheral/pcint1.cpp **** {
  98:funsape/peripheral/pcint1.cpp ****     // Mark passage for debugging purpose
  99:funsape/peripheral/pcint1.cpp ****     debugMark(PSTR("Pcint1::Pcint1(void)"), Debug::CodeIndex::PCINT1_MODULE);
  37               		.loc 1 99 5 is_stmt 1 view .LVU6
 100:funsape/peripheral/pcint1.cpp **** 
 101:funsape/peripheral/pcint1.cpp ****     // Returns successfully
 102:funsape/peripheral/pcint1.cpp ****     this->_lastError = Error::NONE;
  38               		.loc 1 102 5 view .LVU7
 103:funsape/peripheral/pcint1.cpp ****     debugMessage(Error::NONE, Debug::CodeIndex::PCINT1_MODULE);
  39               		.loc 1 103 5 view .LVU8
 104:funsape/peripheral/pcint1.cpp ****     return;
  40               		.loc 1 104 5 view .LVU9
  41               	/* epilogue start */
  42               	.LBE16:
 105:funsape/peripheral/pcint1.cpp **** }
  43               		.loc 1 105 1 is_stmt 0 view .LVU10
  44 000e 0895      		ret
  45               		.cfi_endproc
  46               	.LFE137:
  48               	.global	_ZN6Pcint1C1Ev
  49               		.set	_ZN6Pcint1C1Ev,_ZN6Pcint1C2Ev
  50               		.section	.text._Z41__static_initialization_and_destruction_0v,"ax",@progbits
  52               	_Z41__static_initialization_and_destruction_0v:
  53               	.LFB148:
 106:funsape/peripheral/pcint1.cpp **** 
 107:funsape/peripheral/pcint1.cpp **** Pcint1::~Pcint1()
 108:funsape/peripheral/pcint1.cpp **** {
 109:funsape/peripheral/pcint1.cpp ****     // Mark passage for debugging purpose
 110:funsape/peripheral/pcint1.cpp ****     debugMark(PSTR("Pcint1::~Pcint1(void)"), Debug::CodeIndex::PCINT1_MODULE);
 111:funsape/peripheral/pcint1.cpp **** 
 112:funsape/peripheral/pcint1.cpp ****     // Returns successfully
 113:funsape/peripheral/pcint1.cpp ****     debugMessage(Error::NONE, Debug::CodeIndex::PCINT1_MODULE);
 114:funsape/peripheral/pcint1.cpp ****     return;
 115:funsape/peripheral/pcint1.cpp **** }
 116:funsape/peripheral/pcint1.cpp **** 
 117:funsape/peripheral/pcint1.cpp **** // =============================================================================
 118:funsape/peripheral/pcint1.cpp **** // Class own methods - Public
 119:funsape/peripheral/pcint1.cpp **** // =============================================================================
 120:funsape/peripheral/pcint1.cpp **** 
 121:funsape/peripheral/pcint1.cpp **** //     ///////////////////     CONTROL AND STATUS     ///////////////////     //
GAS LISTING /tmp/cc6dFWRL.s 			page 4


 122:funsape/peripheral/pcint1.cpp **** 
 123:funsape/peripheral/pcint1.cpp **** bool_t Pcint1::disablePins(const Pcint1::Pin disablePins_p)
 124:funsape/peripheral/pcint1.cpp **** {
 125:funsape/peripheral/pcint1.cpp ****     // Mark passage for debugging purpose
 126:funsape/peripheral/pcint1.cpp ****     debugMark(PSTR("Pcint1::disablePins(const Pcint1::Pin)"), Debug::CodeIndex::PCINT1_MODULE);
 127:funsape/peripheral/pcint1.cpp **** 
 128:funsape/peripheral/pcint1.cpp ****     // Local variables
 129:funsape/peripheral/pcint1.cpp ****     uint8_t auxPcmsk1   = MCU_PCINT1_SELECTION_REG;
 130:funsape/peripheral/pcint1.cpp ****     uint8_t aux8        = (uint8_t)this->_enabledPins;
 131:funsape/peripheral/pcint1.cpp **** 
 132:funsape/peripheral/pcint1.cpp ****     // Configure mode
 133:funsape/peripheral/pcint1.cpp ****     clrMaskOffset(auxPcmsk1, MCU_PCINT1_SELECTION_BIT_MASK, MCU_PCINT1_SELECTION_BIT_POS);
 134:funsape/peripheral/pcint1.cpp ****     clrMask(aux8, (uint8_t)disablePins_p);
 135:funsape/peripheral/pcint1.cpp ****     setMaskOffset(auxPcmsk1, aux8, MCU_PCINT1_SELECTION_BIT_POS);
 136:funsape/peripheral/pcint1.cpp **** 
 137:funsape/peripheral/pcint1.cpp ****     // Update registers
 138:funsape/peripheral/pcint1.cpp ****     MCU_PCINT1_SELECTION_REG            = auxPcmsk1;
 139:funsape/peripheral/pcint1.cpp **** 
 140:funsape/peripheral/pcint1.cpp ****     // Update class members
 141:funsape/peripheral/pcint1.cpp ****     this->_enabledPins  = (Pcint1::Pin)aux8;
 142:funsape/peripheral/pcint1.cpp **** 
 143:funsape/peripheral/pcint1.cpp ****     // Returns successfully
 144:funsape/peripheral/pcint1.cpp ****     this->_lastError = Error::NONE;
 145:funsape/peripheral/pcint1.cpp ****     debugMessage(Error::NONE, Debug::CodeIndex::PCINT1_MODULE);
 146:funsape/peripheral/pcint1.cpp ****     return true;
 147:funsape/peripheral/pcint1.cpp **** }
 148:funsape/peripheral/pcint1.cpp **** 
 149:funsape/peripheral/pcint1.cpp **** bool_t Pcint1::enablePins(const Pcint1::Pin enablePins_p)
 150:funsape/peripheral/pcint1.cpp **** {
 151:funsape/peripheral/pcint1.cpp ****     // Mark passage for debugging purpose
 152:funsape/peripheral/pcint1.cpp ****     debugMark(PSTR("Pcint1::enablePins(Pcint1::Pin)"), Debug::CodeIndex::PCINT1_MODULE);
 153:funsape/peripheral/pcint1.cpp **** 
 154:funsape/peripheral/pcint1.cpp ****     // Local variables
 155:funsape/peripheral/pcint1.cpp ****     uint8_t auxPcmsk1   = MCU_PCINT1_SELECTION_REG;
 156:funsape/peripheral/pcint1.cpp ****     uint8_t aux8        = (uint8_t)this->_enabledPins;
 157:funsape/peripheral/pcint1.cpp **** 
 158:funsape/peripheral/pcint1.cpp ****     // Configure mode
 159:funsape/peripheral/pcint1.cpp ****     clrMaskOffset(auxPcmsk1, MCU_PCINT1_SELECTION_BIT_MASK, MCU_PCINT1_SELECTION_BIT_POS);
 160:funsape/peripheral/pcint1.cpp ****     setMask(aux8, (uint8_t)enablePins_p);
 161:funsape/peripheral/pcint1.cpp ****     setMaskOffset(auxPcmsk1, aux8, MCU_PCINT1_SELECTION_BIT_POS);
 162:funsape/peripheral/pcint1.cpp **** 
 163:funsape/peripheral/pcint1.cpp ****     // Update registers
 164:funsape/peripheral/pcint1.cpp ****     MCU_PCINT1_SELECTION_REG            = auxPcmsk1;
 165:funsape/peripheral/pcint1.cpp **** 
 166:funsape/peripheral/pcint1.cpp ****     // Update class members
 167:funsape/peripheral/pcint1.cpp ****     this->_enabledPins  = (Pcint1::Pin)aux8;
 168:funsape/peripheral/pcint1.cpp **** 
 169:funsape/peripheral/pcint1.cpp ****     // Returns successfully
 170:funsape/peripheral/pcint1.cpp ****     this->_lastError = Error::NONE;
 171:funsape/peripheral/pcint1.cpp ****     debugMessage(Error::NONE, Debug::CodeIndex::PCINT1_MODULE);
 172:funsape/peripheral/pcint1.cpp ****     return true;
 173:funsape/peripheral/pcint1.cpp **** }
 174:funsape/peripheral/pcint1.cpp **** 
 175:funsape/peripheral/pcint1.cpp **** bool_t Pcint1::init(const Pcint1::Pin enablePins_p)
 176:funsape/peripheral/pcint1.cpp **** {
 177:funsape/peripheral/pcint1.cpp ****     // Mark passage for debugging purpose
 178:funsape/peripheral/pcint1.cpp ****     debugMark(PSTR("Pcint1::init(const Pcint1::Pin)"), Debug::CodeIndex::PCINT1_MODULE);
GAS LISTING /tmp/cc6dFWRL.s 			page 5


 179:funsape/peripheral/pcint1.cpp **** 
 180:funsape/peripheral/pcint1.cpp ****     // Local variables
 181:funsape/peripheral/pcint1.cpp ****     uint8_t auxPcmsk1       = MCU_PCINT1_SELECTION_REG;
 182:funsape/peripheral/pcint1.cpp **** 
 183:funsape/peripheral/pcint1.cpp ****     // Configure mode
 184:funsape/peripheral/pcint1.cpp ****     clrMaskOffset(auxPcmsk1, MCU_PCINT1_SELECTION_BIT_MASK, MCU_PCINT1_SELECTION_BIT_POS);
 185:funsape/peripheral/pcint1.cpp ****     setMaskOffset(auxPcmsk1, ((uint8_t)enablePins_p), MCU_PCINT1_SELECTION_BIT_POS);
 186:funsape/peripheral/pcint1.cpp **** 
 187:funsape/peripheral/pcint1.cpp ****     // Update registers
 188:funsape/peripheral/pcint1.cpp ****     MCU_PCINT1_SELECTION_REG            = auxPcmsk1;
 189:funsape/peripheral/pcint1.cpp **** 
 190:funsape/peripheral/pcint1.cpp ****     // Update class members
 191:funsape/peripheral/pcint1.cpp ****     this->_enabledPins      = enablePins_p;
 192:funsape/peripheral/pcint1.cpp ****     this->_isInitialized    = true;
 193:funsape/peripheral/pcint1.cpp **** 
 194:funsape/peripheral/pcint1.cpp ****     // Returns successfully
 195:funsape/peripheral/pcint1.cpp ****     this->_lastError = Error::NONE;
 196:funsape/peripheral/pcint1.cpp ****     debugMessage(Error::NONE, Debug::CodeIndex::PCINT1_MODULE);
 197:funsape/peripheral/pcint1.cpp ****     return true;
 198:funsape/peripheral/pcint1.cpp **** }
 199:funsape/peripheral/pcint1.cpp **** 
 200:funsape/peripheral/pcint1.cpp **** bool_t Pcint1::setPinMode(const Pcint1::Pin pinList_p, const PinMode pinMode_p)
 201:funsape/peripheral/pcint1.cpp **** {
 202:funsape/peripheral/pcint1.cpp ****     // Mark passage for debugging purpose
 203:funsape/peripheral/pcint1.cpp ****     debugMark(PSTR("Pcint1::setPinMode(const Pcint1::Pin, const PinMode)"), Debug::CodeIndex::PCINT
 204:funsape/peripheral/pcint1.cpp **** 
 205:funsape/peripheral/pcint1.cpp ****     // Local variables
 206:funsape/peripheral/pcint1.cpp ****     uint8_t auxPinMask      = 0;
 207:funsape/peripheral/pcint1.cpp **** 
 208:funsape/peripheral/pcint1.cpp ****     // Pin mask generation
 209:funsape/peripheral/pcint1.cpp **** #if defined(MCU_PCINT1_PIN_8_EXISTS)
 210:funsape/peripheral/pcint1.cpp ****     if((bool_t)(pinList_p & Pcint1::Pin::PIN_PCINT8)) {
 211:funsape/peripheral/pcint1.cpp ****         auxPinMask |= (1 << MCU_PCINT1_GPIO_PCINT8_BIT);
 212:funsape/peripheral/pcint1.cpp ****     }
 213:funsape/peripheral/pcint1.cpp **** #endif
 214:funsape/peripheral/pcint1.cpp **** #if defined(MCU_PCINT1_PIN_9_EXISTS)
 215:funsape/peripheral/pcint1.cpp ****     if((bool_t)(pinList_p & Pcint1::Pin::PIN_PCINT9)) {
 216:funsape/peripheral/pcint1.cpp ****         auxPinMask |= (1 << MCU_PCINT1_GPIO_PCINT9_BIT);
 217:funsape/peripheral/pcint1.cpp ****     }
 218:funsape/peripheral/pcint1.cpp **** #endif
 219:funsape/peripheral/pcint1.cpp **** #if defined(MCU_PCINT1_PIN_10_EXISTS)
 220:funsape/peripheral/pcint1.cpp ****     if((bool_t)(pinList_p & Pcint1::Pin::PIN_PCINT10)) {
 221:funsape/peripheral/pcint1.cpp ****         auxPinMask |= (1 << MCU_PCINT1_GPIO_PCINT10_BIT);
 222:funsape/peripheral/pcint1.cpp ****     }
 223:funsape/peripheral/pcint1.cpp **** #endif
 224:funsape/peripheral/pcint1.cpp **** #if defined(MCU_PCINT1_PIN_11_EXISTS)
 225:funsape/peripheral/pcint1.cpp ****     if((bool_t)(pinList_p & Pcint1::Pin::PIN_PCINT11)) {
 226:funsape/peripheral/pcint1.cpp ****         auxPinMask |= (1 << MCU_PCINT1_GPIO_PCINT11_BIT);
 227:funsape/peripheral/pcint1.cpp ****     }
 228:funsape/peripheral/pcint1.cpp **** #endif
 229:funsape/peripheral/pcint1.cpp **** #if defined(MCU_PCINT1_PIN_12_EXISTS)
 230:funsape/peripheral/pcint1.cpp ****     if((bool_t)(pinList_p & Pcint1::Pin::PIN_PCINT12)) {
 231:funsape/peripheral/pcint1.cpp ****         auxPinMask |= (1 << MCU_PCINT1_GPIO_PCINT12_BIT);
 232:funsape/peripheral/pcint1.cpp ****     }
 233:funsape/peripheral/pcint1.cpp **** #endif
 234:funsape/peripheral/pcint1.cpp **** #if defined(MCU_PCINT1_PIN_13_EXISTS)
 235:funsape/peripheral/pcint1.cpp ****     if((bool_t)(pinList_p & Pcint1::Pin::PIN_PCINT13)) {
GAS LISTING /tmp/cc6dFWRL.s 			page 6


 236:funsape/peripheral/pcint1.cpp ****         auxPinMask |= (1 << MCU_PCINT1_GPIO_PCINT13_BIT);
 237:funsape/peripheral/pcint1.cpp ****     }
 238:funsape/peripheral/pcint1.cpp **** #endif
 239:funsape/peripheral/pcint1.cpp **** #if defined(MCU_PCINT1_PIN_14_EXISTS)
 240:funsape/peripheral/pcint1.cpp ****     if((bool_t)(pinList_p & Pcint1::Pin::PIN_PCINT14)) {
 241:funsape/peripheral/pcint1.cpp ****         auxPinMask |= (1 << MCU_PCINT1_GPIO_PCINT14_BIT);
 242:funsape/peripheral/pcint1.cpp ****     }
 243:funsape/peripheral/pcint1.cpp **** #endif
 244:funsape/peripheral/pcint1.cpp **** #if defined(MCU_PCINT1_PIN_15_EXISTS)
 245:funsape/peripheral/pcint1.cpp ****     if((bool_t)(pinList_p & Pcint1::Pin::PIN_PCINT15)) {
 246:funsape/peripheral/pcint1.cpp ****         auxPinMask |= (1 << MCU_PCINT1_GPIO_PCINT15_BIT);
 247:funsape/peripheral/pcint1.cpp ****     }
 248:funsape/peripheral/pcint1.cpp **** #endif
 249:funsape/peripheral/pcint1.cpp **** 
 250:funsape/peripheral/pcint1.cpp ****     // Configure pin
 251:funsape/peripheral/pcint1.cpp ****     if(auxPinMask) {
 252:funsape/peripheral/pcint1.cpp ****         switch(pinMode_p) {
 253:funsape/peripheral/pcint1.cpp ****         case PinMode::INPUT_FLOATING:
 254:funsape/peripheral/pcint1.cpp ****             clrMask(MCU_PCINT1_GPIO_REG_DIR, auxPinMask);
 255:funsape/peripheral/pcint1.cpp ****             clrMask(MCU_PCINT1_GPIO_REG_OUT, auxPinMask);
 256:funsape/peripheral/pcint1.cpp ****             break;
 257:funsape/peripheral/pcint1.cpp ****         case PinMode::INPUT_PULLED_UP:
 258:funsape/peripheral/pcint1.cpp ****             clrMask(MCU_PCINT1_GPIO_REG_DIR, auxPinMask);
 259:funsape/peripheral/pcint1.cpp ****             setMask(MCU_PCINT1_GPIO_REG_OUT, auxPinMask);
 260:funsape/peripheral/pcint1.cpp ****             break;
 261:funsape/peripheral/pcint1.cpp ****         case PinMode::OUTPUT_PUSH_PULL:
 262:funsape/peripheral/pcint1.cpp ****             setMask(MCU_PCINT1_GPIO_REG_DIR, auxPinMask);
 263:funsape/peripheral/pcint1.cpp ****             break;
 264:funsape/peripheral/pcint1.cpp ****         }
 265:funsape/peripheral/pcint1.cpp ****     }
 266:funsape/peripheral/pcint1.cpp **** 
 267:funsape/peripheral/pcint1.cpp ****     // Returns successfully
 268:funsape/peripheral/pcint1.cpp ****     this->_lastError = Error::NONE;
 269:funsape/peripheral/pcint1.cpp ****     debugMessage(Error::NONE, Debug::CodeIndex::PCINT1_MODULE);
 270:funsape/peripheral/pcint1.cpp ****     return true;
 271:funsape/peripheral/pcint1.cpp **** }
 272:funsape/peripheral/pcint1.cpp **** 
 273:funsape/peripheral/pcint1.cpp **** // =============================================================================
 274:funsape/peripheral/pcint1.cpp **** // Class own methods - Private
 275:funsape/peripheral/pcint1.cpp **** // =============================================================================
 276:funsape/peripheral/pcint1.cpp **** 
 277:funsape/peripheral/pcint1.cpp **** // NONE
 278:funsape/peripheral/pcint1.cpp **** 
 279:funsape/peripheral/pcint1.cpp **** // =============================================================================
 280:funsape/peripheral/pcint1.cpp **** // Class own methods - Protected
 281:funsape/peripheral/pcint1.cpp **** // =============================================================================
 282:funsape/peripheral/pcint1.cpp **** 
 283:funsape/peripheral/pcint1.cpp **** // NONE
 284:funsape/peripheral/pcint1.cpp **** 
 285:funsape/peripheral/pcint1.cpp **** // =============================================================================
 286:funsape/peripheral/pcint1.cpp **** // Static functions definitions
 287:funsape/peripheral/pcint1.cpp **** // =============================================================================
 288:funsape/peripheral/pcint1.cpp **** 
 289:funsape/peripheral/pcint1.cpp **** // NONE
 290:funsape/peripheral/pcint1.cpp **** 
 291:funsape/peripheral/pcint1.cpp **** // =============================================================================
 292:funsape/peripheral/pcint1.cpp **** // Interrupt callback functions
GAS LISTING /tmp/cc6dFWRL.s 			page 7


 293:funsape/peripheral/pcint1.cpp **** // =============================================================================
 294:funsape/peripheral/pcint1.cpp **** 
 295:funsape/peripheral/pcint1.cpp **** void weakened pcint1InterruptCallback(void)
 296:funsape/peripheral/pcint1.cpp **** {
 297:funsape/peripheral/pcint1.cpp ****     return;
 298:funsape/peripheral/pcint1.cpp **** }
 299:funsape/peripheral/pcint1.cpp **** 
 300:funsape/peripheral/pcint1.cpp **** // =============================================================================
 301:funsape/peripheral/pcint1.cpp **** // Interrupt handlers
 302:funsape/peripheral/pcint1.cpp **** // =============================================================================
 303:funsape/peripheral/pcint1.cpp **** 
 304:funsape/peripheral/pcint1.cpp **** //!
 305:funsape/peripheral/pcint1.cpp **** //! @cond
 306:funsape/peripheral/pcint1.cpp **** //!
 307:funsape/peripheral/pcint1.cpp **** 
 308:funsape/peripheral/pcint1.cpp **** ISR(PCINT1_vect)
 309:funsape/peripheral/pcint1.cpp **** {
 310:funsape/peripheral/pcint1.cpp ****     pcint1InterruptCallback();
 311:funsape/peripheral/pcint1.cpp **** }
  54               		.loc 1 311 1 is_stmt 1 view -0
  55               		.cfi_startproc
  56               	/* prologue: function */
  57               	/* frame size = 0 */
  58               	/* stack size = 0 */
  59               	.L__stack_usage = 0
  75:funsape/peripheral/pcint1.cpp **** 
  60               		.loc 1 75 16 is_stmt 0 view .LVU12
  61 0000 80E0      		ldi r24,lo8(_ZN6Pcint19_instanceE)
  62 0002 90E0      		ldi r25,hi8(_ZN6Pcint19_instanceE)
  63 0004 0E94 0000 		call _ZN6Pcint1C1Ev
  64               	.LVL2:
  65               	/* epilogue start */
  66               		.loc 1 311 1 view .LVU13
  67 0008 0895      		ret
  68               		.cfi_endproc
  69               	.LFE148:
  71               		.section	.text._ZN6Pcint1D2Ev,"ax",@progbits
  72               	.global	_ZN6Pcint1D2Ev
  74               	_ZN6Pcint1D2Ev:
  75               	.LVL3:
  76               	.LFB140:
 107:funsape/peripheral/pcint1.cpp **** {
  77               		.loc 1 107 1 is_stmt 1 view -0
  78               		.cfi_startproc
  79               	/* prologue: function */
  80               	/* frame size = 0 */
  81               	/* stack size = 0 */
  82               	.L__stack_usage = 0
  83               	.LBB17:
 110:funsape/peripheral/pcint1.cpp **** 
  84               		.loc 1 110 5 view .LVU15
 113:funsape/peripheral/pcint1.cpp ****     return;
  85               		.loc 1 113 5 view .LVU16
 114:funsape/peripheral/pcint1.cpp **** }
  86               		.loc 1 114 5 view .LVU17
  87               	/* epilogue start */
  88               	.LBE17:
GAS LISTING /tmp/cc6dFWRL.s 			page 8


 115:funsape/peripheral/pcint1.cpp **** 
  89               		.loc 1 115 1 is_stmt 0 view .LVU18
  90 0000 0895      		ret
  91               		.cfi_endproc
  92               	.LFE140:
  94               	.global	_ZN6Pcint1D1Ev
  95               		.set	_ZN6Pcint1D1Ev,_ZN6Pcint1D2Ev
  96               		.section	.text._ZN6Pcint111disablePinsENS_3PinE,"ax",@progbits
  97               	.global	_ZN6Pcint111disablePinsENS_3PinE
  99               	_ZN6Pcint111disablePinsENS_3PinE:
 100               	.LVL4:
 101               	.LFB142:
 124:funsape/peripheral/pcint1.cpp ****     // Mark passage for debugging purpose
 102               		.loc 1 124 1 is_stmt 1 view -0
 103               		.cfi_startproc
 104               	/* prologue: function */
 105               	/* frame size = 0 */
 106               	/* stack size = 0 */
 107               	.L__stack_usage = 0
 124:funsape/peripheral/pcint1.cpp ****     // Mark passage for debugging purpose
 108               		.loc 1 124 1 is_stmt 0 view .LVU20
 109 0000 FC01      		movw r30,r24
 126:funsape/peripheral/pcint1.cpp **** 
 110               		.loc 1 126 5 is_stmt 1 view .LVU21
 129:funsape/peripheral/pcint1.cpp ****     uint8_t aux8        = (uint8_t)this->_enabledPins;
 111               		.loc 1 129 5 view .LVU22
 129:funsape/peripheral/pcint1.cpp ****     uint8_t aux8        = (uint8_t)this->_enabledPins;
 112               		.loc 1 129 27 is_stmt 0 view .LVU23
 113 0002 ACE6      		ldi r26,lo8(108)
 114 0004 B0E0      		ldi r27,0
 115 0006 9C91      		ld r25,X
 116               	.LVL5:
 130:funsape/peripheral/pcint1.cpp **** 
 117               		.loc 1 130 5 is_stmt 1 view .LVU24
 130:funsape/peripheral/pcint1.cpp **** 
 118               		.loc 1 130 42 is_stmt 0 view .LVU25
 119 0008 8381      		ldd r24,Z+3
 120               	.LVL6:
 133:funsape/peripheral/pcint1.cpp ****     clrMask(aux8, (uint8_t)disablePins_p);
 121               		.loc 1 133 5 is_stmt 1 view .LVU26
 133:funsape/peripheral/pcint1.cpp ****     clrMask(aux8, (uint8_t)disablePins_p);
 122               		.loc 1 133 5 view .LVU27
 123 000a 9078      		andi r25,lo8(-128)
 124               	.LVL7:
 133:funsape/peripheral/pcint1.cpp ****     clrMask(aux8, (uint8_t)disablePins_p);
 125               		.loc 1 133 5 view .LVU28
 134:funsape/peripheral/pcint1.cpp ****     setMaskOffset(auxPcmsk1, aux8, MCU_PCINT1_SELECTION_BIT_POS);
 126               		.loc 1 134 5 view .LVU29
 134:funsape/peripheral/pcint1.cpp ****     setMaskOffset(auxPcmsk1, aux8, MCU_PCINT1_SELECTION_BIT_POS);
 127               		.loc 1 134 5 view .LVU30
 128 000c 6095      		com r22
 129               	.LVL8:
 134:funsape/peripheral/pcint1.cpp ****     setMaskOffset(auxPcmsk1, aux8, MCU_PCINT1_SELECTION_BIT_POS);
 130               		.loc 1 134 5 is_stmt 0 view .LVU31
 131 000e 6823      		and r22,r24
 132               	.LVL9:
 134:funsape/peripheral/pcint1.cpp ****     setMaskOffset(auxPcmsk1, aux8, MCU_PCINT1_SELECTION_BIT_POS);
GAS LISTING /tmp/cc6dFWRL.s 			page 9


 133               		.loc 1 134 5 is_stmt 1 view .LVU32
 135:funsape/peripheral/pcint1.cpp **** 
 134               		.loc 1 135 5 view .LVU33
 135:funsape/peripheral/pcint1.cpp **** 
 135               		.loc 1 135 5 view .LVU34
 136 0010 962B      		or r25,r22
 137               	.LVL10:
 135:funsape/peripheral/pcint1.cpp **** 
 138               		.loc 1 135 5 view .LVU35
 138:funsape/peripheral/pcint1.cpp **** 
 139               		.loc 1 138 5 view .LVU36
 138:funsape/peripheral/pcint1.cpp **** 
 140               		.loc 1 138 41 is_stmt 0 view .LVU37
 141 0012 9C93      		st X,r25
 141:funsape/peripheral/pcint1.cpp **** 
 142               		.loc 1 141 5 is_stmt 1 view .LVU38
 141:funsape/peripheral/pcint1.cpp **** 
 143               		.loc 1 141 25 is_stmt 0 view .LVU39
 144 0014 6383      		std Z+3,r22
 144:funsape/peripheral/pcint1.cpp ****     debugMessage(Error::NONE, Debug::CodeIndex::PCINT1_MODULE);
 145               		.loc 1 144 5 is_stmt 1 view .LVU40
 144:funsape/peripheral/pcint1.cpp ****     debugMessage(Error::NONE, Debug::CodeIndex::PCINT1_MODULE);
 146               		.loc 1 144 22 is_stmt 0 view .LVU41
 147 0016 1282      		std Z+2,__zero_reg__
 148 0018 1182      		std Z+1,__zero_reg__
 145:funsape/peripheral/pcint1.cpp ****     return true;
 149               		.loc 1 145 5 is_stmt 1 view .LVU42
 146:funsape/peripheral/pcint1.cpp **** }
 150               		.loc 1 146 5 view .LVU43
 147:funsape/peripheral/pcint1.cpp **** 
 151               		.loc 1 147 1 is_stmt 0 view .LVU44
 152 001a 81E0      		ldi r24,lo8(1)
 153               	/* epilogue start */
 154 001c 0895      		ret
 155               		.cfi_endproc
 156               	.LFE142:
 158               		.section	.text._ZN6Pcint110enablePinsENS_3PinE,"ax",@progbits
 159               	.global	_ZN6Pcint110enablePinsENS_3PinE
 161               	_ZN6Pcint110enablePinsENS_3PinE:
 162               	.LVL11:
 163               	.LFB143:
 150:funsape/peripheral/pcint1.cpp ****     // Mark passage for debugging purpose
 164               		.loc 1 150 1 is_stmt 1 view -0
 165               		.cfi_startproc
 166               	/* prologue: function */
 167               	/* frame size = 0 */
 168               	/* stack size = 0 */
 169               	.L__stack_usage = 0
 150:funsape/peripheral/pcint1.cpp ****     // Mark passage for debugging purpose
 170               		.loc 1 150 1 is_stmt 0 view .LVU46
 171 0000 FC01      		movw r30,r24
 152:funsape/peripheral/pcint1.cpp **** 
 172               		.loc 1 152 5 is_stmt 1 view .LVU47
 155:funsape/peripheral/pcint1.cpp ****     uint8_t aux8        = (uint8_t)this->_enabledPins;
 173               		.loc 1 155 5 view .LVU48
 155:funsape/peripheral/pcint1.cpp ****     uint8_t aux8        = (uint8_t)this->_enabledPins;
 174               		.loc 1 155 27 is_stmt 0 view .LVU49
GAS LISTING /tmp/cc6dFWRL.s 			page 10


 175 0002 ACE6      		ldi r26,lo8(108)
 176 0004 B0E0      		ldi r27,0
 177 0006 9C91      		ld r25,X
 178               	.LVL12:
 156:funsape/peripheral/pcint1.cpp **** 
 179               		.loc 1 156 5 is_stmt 1 view .LVU50
 156:funsape/peripheral/pcint1.cpp **** 
 180               		.loc 1 156 42 is_stmt 0 view .LVU51
 181 0008 2381      		ldd r18,Z+3
 182               	.LVL13:
 159:funsape/peripheral/pcint1.cpp ****     setMask(aux8, (uint8_t)enablePins_p);
 183               		.loc 1 159 5 is_stmt 1 view .LVU52
 159:funsape/peripheral/pcint1.cpp ****     setMask(aux8, (uint8_t)enablePins_p);
 184               		.loc 1 159 5 view .LVU53
 185 000a 9078      		andi r25,lo8(-128)
 186               	.LVL14:
 159:funsape/peripheral/pcint1.cpp ****     setMask(aux8, (uint8_t)enablePins_p);
 187               		.loc 1 159 5 view .LVU54
 160:funsape/peripheral/pcint1.cpp ****     setMaskOffset(auxPcmsk1, aux8, MCU_PCINT1_SELECTION_BIT_POS);
 188               		.loc 1 160 5 view .LVU55
 160:funsape/peripheral/pcint1.cpp ****     setMaskOffset(auxPcmsk1, aux8, MCU_PCINT1_SELECTION_BIT_POS);
 189               		.loc 1 160 5 view .LVU56
 190 000c 622B      		or r22,r18
 191               	.LVL15:
 160:funsape/peripheral/pcint1.cpp ****     setMaskOffset(auxPcmsk1, aux8, MCU_PCINT1_SELECTION_BIT_POS);
 192               		.loc 1 160 5 view .LVU57
 161:funsape/peripheral/pcint1.cpp **** 
 193               		.loc 1 161 5 view .LVU58
 161:funsape/peripheral/pcint1.cpp **** 
 194               		.loc 1 161 5 view .LVU59
 195 000e 962B      		or r25,r22
 196               	.LVL16:
 161:funsape/peripheral/pcint1.cpp **** 
 197               		.loc 1 161 5 view .LVU60
 164:funsape/peripheral/pcint1.cpp **** 
 198               		.loc 1 164 5 view .LVU61
 164:funsape/peripheral/pcint1.cpp **** 
 199               		.loc 1 164 41 is_stmt 0 view .LVU62
 200 0010 9C93      		st X,r25
 167:funsape/peripheral/pcint1.cpp **** 
 201               		.loc 1 167 5 is_stmt 1 view .LVU63
 167:funsape/peripheral/pcint1.cpp **** 
 202               		.loc 1 167 25 is_stmt 0 view .LVU64
 203 0012 6383      		std Z+3,r22
 170:funsape/peripheral/pcint1.cpp ****     debugMessage(Error::NONE, Debug::CodeIndex::PCINT1_MODULE);
 204               		.loc 1 170 5 is_stmt 1 view .LVU65
 170:funsape/peripheral/pcint1.cpp ****     debugMessage(Error::NONE, Debug::CodeIndex::PCINT1_MODULE);
 205               		.loc 1 170 22 is_stmt 0 view .LVU66
 206 0014 1282      		std Z+2,__zero_reg__
 207 0016 1182      		std Z+1,__zero_reg__
 171:funsape/peripheral/pcint1.cpp ****     return true;
 208               		.loc 1 171 5 is_stmt 1 view .LVU67
 172:funsape/peripheral/pcint1.cpp **** }
 209               		.loc 1 172 5 view .LVU68
 173:funsape/peripheral/pcint1.cpp **** 
 210               		.loc 1 173 1 is_stmt 0 view .LVU69
 211 0018 81E0      		ldi r24,lo8(1)
GAS LISTING /tmp/cc6dFWRL.s 			page 11


 212               	.LVL17:
 213               	/* epilogue start */
 173:funsape/peripheral/pcint1.cpp **** 
 214               		.loc 1 173 1 view .LVU70
 215 001a 0895      		ret
 216               		.cfi_endproc
 217               	.LFE143:
 219               		.section	.text._ZN6Pcint14initENS_3PinE,"ax",@progbits
 220               	.global	_ZN6Pcint14initENS_3PinE
 222               	_ZN6Pcint14initENS_3PinE:
 223               	.LVL18:
 224               	.LFB144:
 176:funsape/peripheral/pcint1.cpp ****     // Mark passage for debugging purpose
 225               		.loc 1 176 1 is_stmt 1 view -0
 226               		.cfi_startproc
 227               	/* prologue: function */
 228               	/* frame size = 0 */
 229               	/* stack size = 0 */
 230               	.L__stack_usage = 0
 176:funsape/peripheral/pcint1.cpp ****     // Mark passage for debugging purpose
 231               		.loc 1 176 1 is_stmt 0 view .LVU72
 232 0000 FC01      		movw r30,r24
 178:funsape/peripheral/pcint1.cpp **** 
 233               		.loc 1 178 5 is_stmt 1 view .LVU73
 181:funsape/peripheral/pcint1.cpp **** 
 234               		.loc 1 181 5 view .LVU74
 181:funsape/peripheral/pcint1.cpp **** 
 235               		.loc 1 181 31 is_stmt 0 view .LVU75
 236 0002 ACE6      		ldi r26,lo8(108)
 237 0004 B0E0      		ldi r27,0
 238 0006 9C91      		ld r25,X
 239               	.LVL19:
 184:funsape/peripheral/pcint1.cpp ****     setMaskOffset(auxPcmsk1, ((uint8_t)enablePins_p), MCU_PCINT1_SELECTION_BIT_POS);
 240               		.loc 1 184 5 is_stmt 1 view .LVU76
 184:funsape/peripheral/pcint1.cpp ****     setMaskOffset(auxPcmsk1, ((uint8_t)enablePins_p), MCU_PCINT1_SELECTION_BIT_POS);
 241               		.loc 1 184 5 view .LVU77
 242 0008 9078      		andi r25,lo8(-128)
 243               	.LVL20:
 184:funsape/peripheral/pcint1.cpp ****     setMaskOffset(auxPcmsk1, ((uint8_t)enablePins_p), MCU_PCINT1_SELECTION_BIT_POS);
 244               		.loc 1 184 5 view .LVU78
 185:funsape/peripheral/pcint1.cpp **** 
 245               		.loc 1 185 5 view .LVU79
 185:funsape/peripheral/pcint1.cpp **** 
 246               		.loc 1 185 5 view .LVU80
 247 000a 962B      		or r25,r22
 248               	.LVL21:
 185:funsape/peripheral/pcint1.cpp **** 
 249               		.loc 1 185 5 view .LVU81
 188:funsape/peripheral/pcint1.cpp **** 
 250               		.loc 1 188 5 view .LVU82
 188:funsape/peripheral/pcint1.cpp **** 
 251               		.loc 1 188 41 is_stmt 0 view .LVU83
 252 000c 9C93      		st X,r25
 191:funsape/peripheral/pcint1.cpp ****     this->_isInitialized    = true;
 253               		.loc 1 191 5 is_stmt 1 view .LVU84
 191:funsape/peripheral/pcint1.cpp ****     this->_isInitialized    = true;
 254               		.loc 1 191 29 is_stmt 0 view .LVU85
GAS LISTING /tmp/cc6dFWRL.s 			page 12


 255 000e 6383      		std Z+3,r22
 192:funsape/peripheral/pcint1.cpp **** 
 256               		.loc 1 192 5 is_stmt 1 view .LVU86
 192:funsape/peripheral/pcint1.cpp **** 
 257               		.loc 1 192 29 is_stmt 0 view .LVU87
 258 0010 8081      		ld r24,Z
 259               	.LVL22:
 192:funsape/peripheral/pcint1.cpp **** 
 260               		.loc 1 192 29 view .LVU88
 261 0012 8160      		ori r24,lo8(1<<0)
 262 0014 8083      		st Z,r24
 195:funsape/peripheral/pcint1.cpp ****     debugMessage(Error::NONE, Debug::CodeIndex::PCINT1_MODULE);
 263               		.loc 1 195 5 is_stmt 1 view .LVU89
 195:funsape/peripheral/pcint1.cpp ****     debugMessage(Error::NONE, Debug::CodeIndex::PCINT1_MODULE);
 264               		.loc 1 195 22 is_stmt 0 view .LVU90
 265 0016 1282      		std Z+2,__zero_reg__
 266 0018 1182      		std Z+1,__zero_reg__
 196:funsape/peripheral/pcint1.cpp ****     return true;
 267               		.loc 1 196 5 is_stmt 1 view .LVU91
 197:funsape/peripheral/pcint1.cpp **** }
 268               		.loc 1 197 5 view .LVU92
 198:funsape/peripheral/pcint1.cpp **** 
 269               		.loc 1 198 1 is_stmt 0 view .LVU93
 270 001a 81E0      		ldi r24,lo8(1)
 271               	/* epilogue start */
 272 001c 0895      		ret
 273               		.cfi_endproc
 274               	.LFE144:
 276               		.section	.text._ZN6Pcint110setPinModeENS_3PinE7PinMode,"ax",@progbits
 277               	.global	_ZN6Pcint110setPinModeENS_3PinE7PinMode
 279               	_ZN6Pcint110setPinModeENS_3PinE7PinMode:
 280               	.LVL23:
 281               	.LFB145:
 201:funsape/peripheral/pcint1.cpp ****     // Mark passage for debugging purpose
 282               		.loc 1 201 1 is_stmt 1 view -0
 283               		.cfi_startproc
 284               	/* prologue: function */
 285               	/* frame size = 0 */
 286               	/* stack size = 0 */
 287               	.L__stack_usage = 0
 201:funsape/peripheral/pcint1.cpp ****     // Mark passage for debugging purpose
 288               		.loc 1 201 1 is_stmt 0 view .LVU95
 289 0000 FC01      		movw r30,r24
 203:funsape/peripheral/pcint1.cpp **** 
 290               		.loc 1 203 5 is_stmt 1 view .LVU96
 206:funsape/peripheral/pcint1.cpp **** 
 291               		.loc 1 206 5 view .LVU97
 292               	.LVL24:
 210:funsape/peripheral/pcint1.cpp ****         auxPinMask |= (1 << MCU_PCINT1_GPIO_PCINT8_BIT);
 293               		.loc 1 210 5 view .LVU98
 294               	.LBB18:
 295               	.LBI18:
 296               		.file 2 "funsape/peripheral/pcint1.hpp"
   1:funsape/peripheral/pcint1.hpp **** //!
   2:funsape/peripheral/pcint1.hpp **** //! ****************************************************************************
   3:funsape/peripheral/pcint1.hpp **** //! @file           pcint1.hpp
   4:funsape/peripheral/pcint1.hpp **** //! @author         Leandro Schwarz (bladabuska+funsapeavr8lib@gmail.com)
GAS LISTING /tmp/cc6dFWRL.s 			page 13


   5:funsape/peripheral/pcint1.hpp **** //! @brief          Pin Change Interrupt 1 PCINT1 peripheral control.
   6:funsape/peripheral/pcint1.hpp **** //! @details        This file provides peripheral control for the PCINT1
   7:funsape/peripheral/pcint1.hpp **** //!                     peripheral control for the FunSAPE++ AVR8 Library.
   8:funsape/peripheral/pcint1.hpp **** //! @date           2026-04-03
   9:funsape/peripheral/pcint1.hpp **** //! @version        26.04
  10:funsape/peripheral/pcint1.hpp **** //! @copyright      MIT License
  11:funsape/peripheral/pcint1.hpp **** //! @note           No notes at this time.
  12:funsape/peripheral/pcint1.hpp **** //! @todo           No items in todo list yet.
  13:funsape/peripheral/pcint1.hpp **** //! @bug            No bugs detected yet.
  14:funsape/peripheral/pcint1.hpp **** //! ****************************************************************************
  15:funsape/peripheral/pcint1.hpp **** //! @attention
  16:funsape/peripheral/pcint1.hpp **** //!
  17:funsape/peripheral/pcint1.hpp **** //! MIT License
  18:funsape/peripheral/pcint1.hpp **** //!
  19:funsape/peripheral/pcint1.hpp **** //! Copyright (c) 2026 Leandro Schwarz
  20:funsape/peripheral/pcint1.hpp **** //!
  21:funsape/peripheral/pcint1.hpp **** //! Permission is hereby granted, free of charge, to any person obtaining a copy
  22:funsape/peripheral/pcint1.hpp **** //!     of this software and associated documentation files (the "Software"), to
  23:funsape/peripheral/pcint1.hpp **** //!     deal in the Software without restriction, including without limitation
  24:funsape/peripheral/pcint1.hpp **** //!     the rights to use, copy, modify, merge, publish, distribute, sublicense,
  25:funsape/peripheral/pcint1.hpp **** //!     and/or sell copies of the Software, and to permit persons to whom the
  26:funsape/peripheral/pcint1.hpp **** //!     Software is furnished to do so, subject to the following conditions:
  27:funsape/peripheral/pcint1.hpp **** //!
  28:funsape/peripheral/pcint1.hpp **** //! The above copyright notice and this permission notice shall be included in
  29:funsape/peripheral/pcint1.hpp **** //!     all copies or substantial portions of the Software.
  30:funsape/peripheral/pcint1.hpp **** //!
  31:funsape/peripheral/pcint1.hpp **** //! THE SOFTWARE IS PROVIDED "AS IS", WITHOUT WARRANTY OF ANY KIND, EXPRESS OR
  32:funsape/peripheral/pcint1.hpp **** //!     IMPLIED, INCLUDING BUT NOT LIMITED TO THE WARRANTIES OF MERCHANTABILITY,
  33:funsape/peripheral/pcint1.hpp **** //!     FITNESS FOR A PARTICULAR PURPOSE AND NONINFRINGEMENT. IN NO EVENT SHALL
  34:funsape/peripheral/pcint1.hpp **** //!     THE AUTHORS OR COPYRIGHT HOLDERS BE LIABLE FOR ANY CLAIM, DAMAGES OR
  35:funsape/peripheral/pcint1.hpp **** //!     OTHER LIABILITY, WHETHER IN AN ACTION OF CONTRACT, TORT OR OTHERWISE,
  36:funsape/peripheral/pcint1.hpp **** //!     ARISING FROM, OUT OF OR IN CONNECTION WITH THE SOFTWARE OR THE USE OR
  37:funsape/peripheral/pcint1.hpp **** //!     OTHER DEALINGS IN THE SOFTWARE.
  38:funsape/peripheral/pcint1.hpp **** //!
  39:funsape/peripheral/pcint1.hpp **** //! ****************************************************************************
  40:funsape/peripheral/pcint1.hpp **** //!
  41:funsape/peripheral/pcint1.hpp **** 
  42:funsape/peripheral/pcint1.hpp **** // =============================================================================
  43:funsape/peripheral/pcint1.hpp **** // Include guard (START)
  44:funsape/peripheral/pcint1.hpp **** // =============================================================================
  45:funsape/peripheral/pcint1.hpp **** 
  46:funsape/peripheral/pcint1.hpp **** #ifndef __PCINT1_HPP
  47:funsape/peripheral/pcint1.hpp **** #define __PCINT1_HPP                    2604
  48:funsape/peripheral/pcint1.hpp **** 
  49:funsape/peripheral/pcint1.hpp **** // =============================================================================
  50:funsape/peripheral/pcint1.hpp **** // Dependencies
  51:funsape/peripheral/pcint1.hpp **** // =============================================================================
  52:funsape/peripheral/pcint1.hpp **** 
  53:funsape/peripheral/pcint1.hpp **** //     /////////////////     GLOBAL DEFINITIONS FILE    /////////////////     //
  54:funsape/peripheral/pcint1.hpp **** 
  55:funsape/peripheral/pcint1.hpp **** #include "../globalDefines.hpp"
  56:funsape/peripheral/pcint1.hpp **** #if !defined(__GLOBAL_DEFINES_HPP)
  57:funsape/peripheral/pcint1.hpp **** #   error [pcint1.hpp] Error 1 - Header file (globalDefines.hpp) is missing or corrupted!
  58:funsape/peripheral/pcint1.hpp **** #elif __GLOBAL_DEFINES_HPP != __PCINT1_HPP
  59:funsape/peripheral/pcint1.hpp **** #   error [pcint1.hpp] Error 2 - Build mismatch between file (pcint1.hpp) and global definitions fi
  60:funsape/peripheral/pcint1.hpp **** #endif
  61:funsape/peripheral/pcint1.hpp **** 
GAS LISTING /tmp/cc6dFWRL.s 			page 14


  62:funsape/peripheral/pcint1.hpp **** //     //////////////////     LIBRARY DEPENDENCIES     //////////////////     //
  63:funsape/peripheral/pcint1.hpp **** 
  64:funsape/peripheral/pcint1.hpp **** #include "../util/debug.hpp"
  65:funsape/peripheral/pcint1.hpp **** #if !defined(__DEBUG_HPP)
  66:funsape/peripheral/pcint1.hpp **** #   error [pcint1.hpp] Error 1 - Header file (debug.hpp) is missing or corrupted!
  67:funsape/peripheral/pcint1.hpp **** #elif __DEBUG_HPP != __PCINT1_HPP
  68:funsape/peripheral/pcint1.hpp **** #   error [pcint1.hpp] Error 5 - Build mismatch between file (pcint1.hpp) and library dependency (d
  69:funsape/peripheral/pcint1.hpp **** #endif
  70:funsape/peripheral/pcint1.hpp **** 
  71:funsape/peripheral/pcint1.hpp **** //     ///////////////////     STANDARD C LIBRARY     ///////////////////     //
  72:funsape/peripheral/pcint1.hpp **** 
  73:funsape/peripheral/pcint1.hpp **** // NONE
  74:funsape/peripheral/pcint1.hpp **** 
  75:funsape/peripheral/pcint1.hpp **** //     ////////////////////    AVR LIBRARY FILES     ////////////////////     //
  76:funsape/peripheral/pcint1.hpp **** 
  77:funsape/peripheral/pcint1.hpp **** // NONE
  78:funsape/peripheral/pcint1.hpp **** 
  79:funsape/peripheral/pcint1.hpp **** // =============================================================================
  80:funsape/peripheral/pcint1.hpp **** // Checks peripheral existance
  81:funsape/peripheral/pcint1.hpp **** // =============================================================================
  82:funsape/peripheral/pcint1.hpp **** 
  83:funsape/peripheral/pcint1.hpp **** #if !defined(MCU_PCINT1_PERIPHERAL_EXISTS)
  84:funsape/peripheral/pcint1.hpp **** #   error [pcint1.hpp] Error X - Peripheral PCINT1 is not avalilable in selected device!
  85:funsape/peripheral/pcint1.hpp **** #endif
  86:funsape/peripheral/pcint1.hpp **** 
  87:funsape/peripheral/pcint1.hpp **** // +++++++++++++++++++++++++++++++++++++++++++++++++++++++++++++++++++++++++++++
  88:funsape/peripheral/pcint1.hpp **** // Doxygen: Start main group "Peripherals"
  89:funsape/peripheral/pcint1.hpp **** // +++++++++++++++++++++++++++++++++++++++++++++++++++++++++++++++++++++++++++++
  90:funsape/peripheral/pcint1.hpp **** 
  91:funsape/peripheral/pcint1.hpp **** //!
  92:funsape/peripheral/pcint1.hpp **** //! @addtogroup     Peripherals
  93:funsape/peripheral/pcint1.hpp **** //! @brief          Microcontroller peripherals.
  94:funsape/peripheral/pcint1.hpp **** //! @{
  95:funsape/peripheral/pcint1.hpp **** //!
  96:funsape/peripheral/pcint1.hpp **** 
  97:funsape/peripheral/pcint1.hpp **** // +++++++++++++++++++++++++++++++++++++++++++++++++++++++++++++++++++++++++++++
  98:funsape/peripheral/pcint1.hpp **** // Doxygen: Start subgroup "Pcint1" in "Peripherals"
  99:funsape/peripheral/pcint1.hpp **** // +++++++++++++++++++++++++++++++++++++++++++++++++++++++++++++++++++++++++++++
 100:funsape/peripheral/pcint1.hpp **** 
 101:funsape/peripheral/pcint1.hpp **** //!
 102:funsape/peripheral/pcint1.hpp **** //! @addtogroup     Pcint1
 103:funsape/peripheral/pcint1.hpp **** //! @brief          Pin Change Interrupt 1 (PCINT1) controller module.
 104:funsape/peripheral/pcint1.hpp **** //! @{
 105:funsape/peripheral/pcint1.hpp **** //!
 106:funsape/peripheral/pcint1.hpp **** 
 107:funsape/peripheral/pcint1.hpp **** // =============================================================================
 108:funsape/peripheral/pcint1.hpp **** // Undefining previous definitions
 109:funsape/peripheral/pcint1.hpp **** // =============================================================================
 110:funsape/peripheral/pcint1.hpp **** 
 111:funsape/peripheral/pcint1.hpp **** // NONE
 112:funsape/peripheral/pcint1.hpp **** 
 113:funsape/peripheral/pcint1.hpp **** // =============================================================================
 114:funsape/peripheral/pcint1.hpp **** // Constant definitions
 115:funsape/peripheral/pcint1.hpp **** // =============================================================================
 116:funsape/peripheral/pcint1.hpp **** 
 117:funsape/peripheral/pcint1.hpp **** // NONE
 118:funsape/peripheral/pcint1.hpp **** 
GAS LISTING /tmp/cc6dFWRL.s 			page 15


 119:funsape/peripheral/pcint1.hpp **** // =============================================================================
 120:funsape/peripheral/pcint1.hpp **** // New data types
 121:funsape/peripheral/pcint1.hpp **** // =============================================================================
 122:funsape/peripheral/pcint1.hpp **** 
 123:funsape/peripheral/pcint1.hpp **** // NONE
 124:funsape/peripheral/pcint1.hpp **** 
 125:funsape/peripheral/pcint1.hpp **** // =============================================================================
 126:funsape/peripheral/pcint1.hpp **** // Interrupt callback functions declarations
 127:funsape/peripheral/pcint1.hpp **** // =============================================================================
 128:funsape/peripheral/pcint1.hpp **** 
 129:funsape/peripheral/pcint1.hpp **** //!
 130:funsape/peripheral/pcint1.hpp **** //! @brief          PCINT1 interrupt callback function.
 131:funsape/peripheral/pcint1.hpp **** //! @details        This function is called when the PCINT1 interrupt is treated.
 132:funsape/peripheral/pcint1.hpp **** //!                     It is a weak function that can be overwritten by user
 133:funsape/peripheral/pcint1.hpp **** //!                     code.
 134:funsape/peripheral/pcint1.hpp **** //!
 135:funsape/peripheral/pcint1.hpp **** void pcint1InterruptCallback(void);
 136:funsape/peripheral/pcint1.hpp **** 
 137:funsape/peripheral/pcint1.hpp **** // =============================================================================
 138:funsape/peripheral/pcint1.hpp **** // Public functions declarations
 139:funsape/peripheral/pcint1.hpp **** // =============================================================================
 140:funsape/peripheral/pcint1.hpp **** 
 141:funsape/peripheral/pcint1.hpp **** // NONE
 142:funsape/peripheral/pcint1.hpp **** 
 143:funsape/peripheral/pcint1.hpp **** // =============================================================================
 144:funsape/peripheral/pcint1.hpp **** // Classes
 145:funsape/peripheral/pcint1.hpp **** // =============================================================================
 146:funsape/peripheral/pcint1.hpp **** 
 147:funsape/peripheral/pcint1.hpp **** //!
 148:funsape/peripheral/pcint1.hpp **** //! @brief          Pcint1 class
 149:funsape/peripheral/pcint1.hpp **** //! @details        This class manages the Pin Change Interrupt 1 (PCINT1)
 150:funsape/peripheral/pcint1.hpp **** //!                     peripheral.
 151:funsape/peripheral/pcint1.hpp **** //! @attention      The @ref pcint1 instance of this class is already defined as
 152:funsape/peripheral/pcint1.hpp **** //!                     a singleton global object.
 153:funsape/peripheral/pcint1.hpp **** //!
 154:funsape/peripheral/pcint1.hpp **** class Pcint1
 155:funsape/peripheral/pcint1.hpp **** {
 156:funsape/peripheral/pcint1.hpp ****     // -------------------------------------------------------------------------
 157:funsape/peripheral/pcint1.hpp ****     // New data types ----------------------------------------------------------
 158:funsape/peripheral/pcint1.hpp **** 
 159:funsape/peripheral/pcint1.hpp **** public:
 160:funsape/peripheral/pcint1.hpp ****     //!
 161:funsape/peripheral/pcint1.hpp ****     //! @enum       Pin
 162:funsape/peripheral/pcint1.hpp ****     //! @brief      Trigger Mode Pins enumeration.
 163:funsape/peripheral/pcint1.hpp ****     //! @details    Trigger Mode Pins associated with PCINT1.
 164:funsape/peripheral/pcint1.hpp ****     //! @warning    The value associate with the symbolic names may change
 165:funsape/peripheral/pcint1.hpp ****     //!                 between builds and might not reflect the register/bits
 166:funsape/peripheral/pcint1.hpp ****     //!                 real values. In order to ensure compatibility between
 167:funsape/peripheral/pcint1.hpp ****     //!                 builds, always refer to the SYMBOLIC NAME, instead of
 168:funsape/peripheral/pcint1.hpp ****     //!                 its VALUE.
 169:funsape/peripheral/pcint1.hpp ****     //!
 170:funsape/peripheral/pcint1.hpp ****     enum class Pin : uint8_t {
 171:funsape/peripheral/pcint1.hpp **** #if defined(MCU_PCINT1_PIN_8_EXISTS)
 172:funsape/peripheral/pcint1.hpp ****         PIN_PCINT8          = (1 << 0), //!< Enables trigger by PCINT8 pin.
 173:funsape/peripheral/pcint1.hpp **** #endif
 174:funsape/peripheral/pcint1.hpp **** #if defined(MCU_PCINT1_PIN_9_EXISTS)
 175:funsape/peripheral/pcint1.hpp ****         PIN_PCINT9          = (1 << 1), //!< Enables trigger by PCINT9 pin.
GAS LISTING /tmp/cc6dFWRL.s 			page 16


 176:funsape/peripheral/pcint1.hpp **** #endif
 177:funsape/peripheral/pcint1.hpp **** #if defined(MCU_PCINT1_PIN_10_EXISTS)
 178:funsape/peripheral/pcint1.hpp ****         PIN_PCINT10         = (1 << 2), //!< Enables trigger by PCINT10 pin.
 179:funsape/peripheral/pcint1.hpp **** #endif
 180:funsape/peripheral/pcint1.hpp **** #if defined(MCU_PCINT1_PIN_11_EXISTS)
 181:funsape/peripheral/pcint1.hpp ****         PIN_PCINT11         = (1 << 3), //!< Enables trigger by PCINT11 pin.
 182:funsape/peripheral/pcint1.hpp **** #endif
 183:funsape/peripheral/pcint1.hpp **** #if defined(MCU_PCINT1_PIN_12_EXISTS)
 184:funsape/peripheral/pcint1.hpp ****         PIN_PCINT12         = (1 << 4), //!< Enables trigger by PCINT12 pin.
 185:funsape/peripheral/pcint1.hpp **** #endif
 186:funsape/peripheral/pcint1.hpp **** #if defined(MCU_PCINT1_PIN_13_EXISTS)
 187:funsape/peripheral/pcint1.hpp ****         PIN_PCINT13         = (1 << 5), //!< Enables trigger by PCINT13 pin.
 188:funsape/peripheral/pcint1.hpp **** #endif
 189:funsape/peripheral/pcint1.hpp **** #if defined(MCU_PCINT1_PIN_14_EXISTS)
 190:funsape/peripheral/pcint1.hpp ****         PIN_PCINT14         = (1 << 6), //!< Enables trigger by PCINT14 pin.
 191:funsape/peripheral/pcint1.hpp **** #endif
 192:funsape/peripheral/pcint1.hpp **** #if defined(MCU_PCINT1_PIN_15_EXISTS)
 193:funsape/peripheral/pcint1.hpp ****         PIN_PCINT15         = (1 << 7), //!< Enables trigger by PCINT15 pin.
 194:funsape/peripheral/pcint1.hpp **** #endif
 195:funsape/peripheral/pcint1.hpp ****     };
 196:funsape/peripheral/pcint1.hpp **** 
 197:funsape/peripheral/pcint1.hpp **** private:
 198:funsape/peripheral/pcint1.hpp ****     // NONE
 199:funsape/peripheral/pcint1.hpp **** 
 200:funsape/peripheral/pcint1.hpp **** protected:
 201:funsape/peripheral/pcint1.hpp ****     // NONE
 202:funsape/peripheral/pcint1.hpp **** 
 203:funsape/peripheral/pcint1.hpp ****     // -------------------------------------------------------------------------
 204:funsape/peripheral/pcint1.hpp ****     // Constructors ------------------------------------------------------------
 205:funsape/peripheral/pcint1.hpp **** 
 206:funsape/peripheral/pcint1.hpp **** public:
 207:funsape/peripheral/pcint1.hpp ****     //!
 208:funsape/peripheral/pcint1.hpp ****     //! @brief      Pcint1 class destructor.
 209:funsape/peripheral/pcint1.hpp ****     //! @details    Destroys a Pcint1 object.
 210:funsape/peripheral/pcint1.hpp ****     //!
 211:funsape/peripheral/pcint1.hpp ****     ~Pcint1(
 212:funsape/peripheral/pcint1.hpp ****             void
 213:funsape/peripheral/pcint1.hpp ****     );
 214:funsape/peripheral/pcint1.hpp **** 
 215:funsape/peripheral/pcint1.hpp **** private:
 216:funsape/peripheral/pcint1.hpp ****     //!
 217:funsape/peripheral/pcint1.hpp ****     //! @brief      Pcint1 class constructor.
 218:funsape/peripheral/pcint1.hpp ****     //! @details    Creates a Pcint1 object. The object is loaded with the
 219:funsape/peripheral/pcint1.hpp ****     //!                 default register values (no pins enabled). The object
 220:funsape/peripheral/pcint1.hpp ****     //!                 still must be initialized before use
 221:funsape/peripheral/pcint1.hpp ****     //! @see        init(const Pcint1::Pin enablePins_p).
 222:funsape/peripheral/pcint1.hpp ****     //! @par Error codes:
 223:funsape/peripheral/pcint1.hpp ****     //!
 224:funsape/peripheral/pcint1.hpp ****     //! | Error code       | Meaning                           |
 225:funsape/peripheral/pcint1.hpp ****     //! |: ----------------|: ---------------------------------|
 226:funsape/peripheral/pcint1.hpp ****     //! | @ref Error::NONE | Success. No errors were detected. |
 227:funsape/peripheral/pcint1.hpp ****     //!
 228:funsape/peripheral/pcint1.hpp ****     Pcint1(
 229:funsape/peripheral/pcint1.hpp ****             void
 230:funsape/peripheral/pcint1.hpp ****     );
 231:funsape/peripheral/pcint1.hpp **** 
 232:funsape/peripheral/pcint1.hpp ****     //!
GAS LISTING /tmp/cc6dFWRL.s 			page 17


 233:funsape/peripheral/pcint1.hpp ****     //! @brief      Copy constructor (deleted).
 234:funsape/peripheral/pcint1.hpp ****     //! @details    Deleted to prevent cloning the Singleton instance.
 235:funsape/peripheral/pcint1.hpp ****     //!
 236:funsape/peripheral/pcint1.hpp ****     Pcint1(
 237:funsape/peripheral/pcint1.hpp ****             const Pcint1 &
 238:funsape/peripheral/pcint1.hpp ****     ) = delete;
 239:funsape/peripheral/pcint1.hpp **** 
 240:funsape/peripheral/pcint1.hpp ****     //!
 241:funsape/peripheral/pcint1.hpp ****     //! @brief      Copy assignment operator (deleted).
 242:funsape/peripheral/pcint1.hpp ****     //! @details    Deleted to prevent assignment of the Singleton instance.
 243:funsape/peripheral/pcint1.hpp ****     //!
 244:funsape/peripheral/pcint1.hpp ****     Pcint1 &operator=(
 245:funsape/peripheral/pcint1.hpp ****             const Pcint1 &
 246:funsape/peripheral/pcint1.hpp ****     ) = delete;
 247:funsape/peripheral/pcint1.hpp **** 
 248:funsape/peripheral/pcint1.hpp **** protected:
 249:funsape/peripheral/pcint1.hpp ****     // NONE
 250:funsape/peripheral/pcint1.hpp **** 
 251:funsape/peripheral/pcint1.hpp ****     // -------------------------------------------------------------------------
 252:funsape/peripheral/pcint1.hpp ****     // Methods - Inherited methods ---------------------------------------------
 253:funsape/peripheral/pcint1.hpp **** 
 254:funsape/peripheral/pcint1.hpp **** public:
 255:funsape/peripheral/pcint1.hpp ****     // NONE
 256:funsape/peripheral/pcint1.hpp **** 
 257:funsape/peripheral/pcint1.hpp **** protected:
 258:funsape/peripheral/pcint1.hpp ****     // NONE
 259:funsape/peripheral/pcint1.hpp **** 
 260:funsape/peripheral/pcint1.hpp ****     // -------------------------------------------------------------------------
 261:funsape/peripheral/pcint1.hpp ****     // Methods - class own methods ---------------------------------------------
 262:funsape/peripheral/pcint1.hpp **** 
 263:funsape/peripheral/pcint1.hpp **** public:
 264:funsape/peripheral/pcint1.hpp ****     //     ///////////////////    SINGLETON ACCESS    ///////////////////     //
 265:funsape/peripheral/pcint1.hpp **** 
 266:funsape/peripheral/pcint1.hpp ****     //!
 267:funsape/peripheral/pcint1.hpp ****     //! @brief      Returns the Singleton instance.
 268:funsape/peripheral/pcint1.hpp ****     //! @details    Provides global access to the single instance of the Pcint1
 269:funsape/peripheral/pcint1.hpp ****     //!                 class. This method is tightly inlined to ensure
 270:funsape/peripheral/pcint1.hpp ****     //!                 zero-overhead during execution.
 271:funsape/peripheral/pcint1.hpp ****     //! @return     Reference to the single Pcint1 instance.
 272:funsape/peripheral/pcint1.hpp ****     //!
 273:funsape/peripheral/pcint1.hpp ****     static inlined Pcint1 &getInstance(
 274:funsape/peripheral/pcint1.hpp ****             void
 275:funsape/peripheral/pcint1.hpp ****     );
 276:funsape/peripheral/pcint1.hpp **** 
 277:funsape/peripheral/pcint1.hpp ****     //     /////////////////     CONTROL AND STATUS     /////////////////     //
 278:funsape/peripheral/pcint1.hpp **** 
 279:funsape/peripheral/pcint1.hpp ****     //!
 280:funsape/peripheral/pcint1.hpp ****     //! @brief      Disables edge detection on pins.
 281:funsape/peripheral/pcint1.hpp ****     //! @details    Disables edge detection on pins to trigger the interrupt
 282:funsape/peripheral/pcint1.hpp ****     //!                 when a logical change event is detected.
 283:funsape/peripheral/pcint1.hpp ****     //! @param[in]  disablePins_p       Disable interrupt pins. Multiple pins
 284:funsape/peripheral/pcint1.hpp ****     //!                                     can be disabled at the same time by
 285:funsape/peripheral/pcint1.hpp ****     //!                                     using bitwise-OR (|) operations.
 286:funsape/peripheral/pcint1.hpp ****     //! @retval     true                if success.
 287:funsape/peripheral/pcint1.hpp ****     //! @retval     false               if an error occurred. Retrieve the error
 288:funsape/peripheral/pcint1.hpp ****     //!                                     by calling
 289:funsape/peripheral/pcint1.hpp ****     //!                                 @ref Pcint1::getLastError().
GAS LISTING /tmp/cc6dFWRL.s 			page 18


 290:funsape/peripheral/pcint1.hpp ****     //! @par Error codes:
 291:funsape/peripheral/pcint1.hpp ****     //!
 292:funsape/peripheral/pcint1.hpp ****     //! | Error code       | Meaning                          |
 293:funsape/peripheral/pcint1.hpp ****     //! |:-----------------|:---------------------------------|
 294:funsape/peripheral/pcint1.hpp ****     //! | @ref Error::NONE | Success. No erros were detected. |
 295:funsape/peripheral/pcint1.hpp ****     //!
 296:funsape/peripheral/pcint1.hpp ****     bool_t disablePins(
 297:funsape/peripheral/pcint1.hpp ****             const Pcint1::Pin disablePins_p
 298:funsape/peripheral/pcint1.hpp ****     );
 299:funsape/peripheral/pcint1.hpp **** 
 300:funsape/peripheral/pcint1.hpp ****     //!
 301:funsape/peripheral/pcint1.hpp ****     //! @brief      Enables edge detection on pins.
 302:funsape/peripheral/pcint1.hpp ****     //! @details    Configure pins that trigger the interrupt when a logical
 303:funsape/peripheral/pcint1.hpp ****     //!                 change event is detected.
 304:funsape/peripheral/pcint1.hpp ****     //! @param[in]  enablePins_p        Enable interrupt pins. Multiple pins can
 305:funsape/peripheral/pcint1.hpp ****     //!                                     be enabled at the same time by using
 306:funsape/peripheral/pcint1.hpp ****     //!                                     bitwise-OR (|) operations.
 307:funsape/peripheral/pcint1.hpp ****     //! @retval     true                if success.
 308:funsape/peripheral/pcint1.hpp ****     //! @retval     false               if an error occurred. Retrieve the error
 309:funsape/peripheral/pcint1.hpp ****     //!                                     by calling
 310:funsape/peripheral/pcint1.hpp ****     //!                                     @ref Pcint1::getLastError().
 311:funsape/peripheral/pcint1.hpp ****     //! @par Error codes:
 312:funsape/peripheral/pcint1.hpp ****     //!
 313:funsape/peripheral/pcint1.hpp ****     //! | Error code       | Meaning                          |
 314:funsape/peripheral/pcint1.hpp ****     //! |:-----------------|:---------------------------------|
 315:funsape/peripheral/pcint1.hpp ****     //! | @ref Error::NONE | Success. No erros were detected. |
 316:funsape/peripheral/pcint1.hpp ****     //!
 317:funsape/peripheral/pcint1.hpp ****     bool_t enablePins(
 318:funsape/peripheral/pcint1.hpp ****             const Pcint1::Pin enablePins_p
 319:funsape/peripheral/pcint1.hpp ****     );
 320:funsape/peripheral/pcint1.hpp **** 
 321:funsape/peripheral/pcint1.hpp ****     //!
 322:funsape/peripheral/pcint1.hpp ****     //! @brief      Returns the last error.
 323:funsape/peripheral/pcint1.hpp ****     //! @details    Returns the last error.
 324:funsape/peripheral/pcint1.hpp ****     //! @return     @ref Error          Error status of the last operation.
 325:funsape/peripheral/pcint1.hpp ****     //!
 326:funsape/peripheral/pcint1.hpp ****     Error inlined getLastError(
 327:funsape/peripheral/pcint1.hpp ****             void
 328:funsape/peripheral/pcint1.hpp ****     ) const;
 329:funsape/peripheral/pcint1.hpp **** 
 330:funsape/peripheral/pcint1.hpp ****     //!
 331:funsape/peripheral/pcint1.hpp ****     //! @brief      Initializes the Pcint1 module.
 332:funsape/peripheral/pcint1.hpp ****     //! @details    Initializes the PCINT1 module. The function also enables the
 333:funsape/peripheral/pcint1.hpp ****     //!                 pins that trigger the interrupt. The default parameter
 334:funsape/peripheral/pcint1.hpp ****     //!                 has no pins enabled.
 335:funsape/peripheral/pcint1.hpp ****     //! @param[in]  enablePins_p        Enable interrupt pins. Multiples pins
 336:funsape/peripheral/pcint1.hpp ****     //!                                     can be enabled at the same time by
 337:funsape/peripheral/pcint1.hpp ****     //!                                     using bitwise-OR (|) operations.
 338:funsape/peripheral/pcint1.hpp ****     //! @retval     true                if success.
 339:funsape/peripheral/pcint1.hpp ****     //! @retval     false               if an error occurred. Retrieve the error
 340:funsape/peripheral/pcint1.hpp ****     //!                                     by calling
 341:funsape/peripheral/pcint1.hpp ****     //!                                     @ref Pcint1::getLastError().
 342:funsape/peripheral/pcint1.hpp ****     //! @par Error codes:
 343:funsape/peripheral/pcint1.hpp ****     //!
 344:funsape/peripheral/pcint1.hpp ****     //! | Error code                    | Meaning                              |
 345:funsape/peripheral/pcint1.hpp ****     //! |:------------------------------|:-------------------------------------|
 346:funsape/peripheral/pcint1.hpp ****     //! | @ref Error::NONE              | Success. No erros were detected.     |
GAS LISTING /tmp/cc6dFWRL.s 			page 19


 347:funsape/peripheral/pcint1.hpp ****     //!
 348:funsape/peripheral/pcint1.hpp ****     bool_t init(
 349:funsape/peripheral/pcint1.hpp ****             const Pcint1::Pin enablePins_p = (Pcint1::Pin)0
 350:funsape/peripheral/pcint1.hpp ****     );
 351:funsape/peripheral/pcint1.hpp **** 
 352:funsape/peripheral/pcint1.hpp ****     //!
 353:funsape/peripheral/pcint1.hpp ****     //! @brief      Sets the @c PCINT1 pin operation mode.
 354:funsape/peripheral/pcint1.hpp ****     //! @details    This function sets the @c PCINT1 GPIO pin operation mode to
 355:funsape/peripheral/pcint1.hpp ****     //!                 the given @a mode_p.
 356:funsape/peripheral/pcint1.hpp ****     //! @param[in]  pinList_p           List of pins to be configured. Multiple
 357:funsape/peripheral/pcint1.hpp ****     //!                                     pins can be configured at the same
 358:funsape/peripheral/pcint1.hpp ****     //!                                     time by using bitwise-OR operations.
 359:funsape/peripheral/pcint1.hpp ****     //! @param[in]  mode_p              @ref Pcint1::PinMode operation mode.
 360:funsape/peripheral/pcint1.hpp ****     //! @retval     true                if success.
 361:funsape/peripheral/pcint1.hpp ****     //! @retval     false               if an error occurred. Retrieve the error
 362:funsape/peripheral/pcint1.hpp ****     //!                                     by calling
 363:funsape/peripheral/pcint1.hpp ****     //!                                     @ref Pcint1::getLastError().
 364:funsape/peripheral/pcint1.hpp ****     //! @par Error codes:
 365:funsape/peripheral/pcint1.hpp ****     //!
 366:funsape/peripheral/pcint1.hpp ****     //! | Error code       | Meaning                          |
 367:funsape/peripheral/pcint1.hpp ****     //! |:-----------------|:---------------------------------|
 368:funsape/peripheral/pcint1.hpp ****     //! | @ref Error::NONE | Success. No erros were detected. |
 369:funsape/peripheral/pcint1.hpp ****     //!
 370:funsape/peripheral/pcint1.hpp ****     bool_t setPinMode(
 371:funsape/peripheral/pcint1.hpp ****             const Pcint1::Pin pinList_p,
 372:funsape/peripheral/pcint1.hpp ****             const PinMode mode_p
 373:funsape/peripheral/pcint1.hpp ****     );
 374:funsape/peripheral/pcint1.hpp **** 
 375:funsape/peripheral/pcint1.hpp ****     //     //////////////////////    INTERRUPT     //////////////////////     //
 376:funsape/peripheral/pcint1.hpp **** 
 377:funsape/peripheral/pcint1.hpp ****     //!
 378:funsape/peripheral/pcint1.hpp ****     //! @brief      Activates interrupt.
 379:funsape/peripheral/pcint1.hpp ****     //! @details    Activates interrupt. If an interrupt request is pending, an
 380:funsape/peripheral/pcint1.hpp ****     //!                 interrupt will be triggered when activated. In most
 381:funsape/peripheral/pcint1.hpp ****     //!                 applications, it is recommended to ignore an old
 382:funsape/peripheral/pcint1.hpp ****     //!                 interrupt request prior to activate the interrupt. This
 383:funsape/peripheral/pcint1.hpp ****     //!                 can be done by calling
 384:funsape/peripheral/pcint1.hpp ****     //!                 @ref Pcint1::clearInterruptRequest() immediately before
 385:funsape/peripheral/pcint1.hpp ****     //!                 activating the interrupt.
 386:funsape/peripheral/pcint1.hpp ****     //!
 387:funsape/peripheral/pcint1.hpp ****     void inlined activateInterrupt(
 388:funsape/peripheral/pcint1.hpp ****             void
 389:funsape/peripheral/pcint1.hpp ****     ) const;
 390:funsape/peripheral/pcint1.hpp **** 
 391:funsape/peripheral/pcint1.hpp ****     //!
 392:funsape/peripheral/pcint1.hpp ****     //! @brief      Clears interrupt flag.
 393:funsape/peripheral/pcint1.hpp ****     //! @details    Clears interrupt flag, dismissing any pending interrupt
 394:funsape/peripheral/pcint1.hpp ****     //!                 request.
 395:funsape/peripheral/pcint1.hpp ****     //!
 396:funsape/peripheral/pcint1.hpp ****     void inlined clearInterruptRequest(
 397:funsape/peripheral/pcint1.hpp ****             void
 398:funsape/peripheral/pcint1.hpp ****     ) const;
 399:funsape/peripheral/pcint1.hpp **** 
 400:funsape/peripheral/pcint1.hpp ****     //!
 401:funsape/peripheral/pcint1.hpp ****     //! @brief      Deactivates interrupt.
 402:funsape/peripheral/pcint1.hpp ****     //! @details    Deactivates interrupt. This function does not clears any
 403:funsape/peripheral/pcint1.hpp ****     //!                 pending interrupt request.
GAS LISTING /tmp/cc6dFWRL.s 			page 20


 404:funsape/peripheral/pcint1.hpp ****     //!
 405:funsape/peripheral/pcint1.hpp ****     void inlined deactivateInterrupt(
 406:funsape/peripheral/pcint1.hpp ****             void
 407:funsape/peripheral/pcint1.hpp ****     ) const;
 408:funsape/peripheral/pcint1.hpp **** 
 409:funsape/peripheral/pcint1.hpp **** private:
 410:funsape/peripheral/pcint1.hpp ****     // NONE
 411:funsape/peripheral/pcint1.hpp **** 
 412:funsape/peripheral/pcint1.hpp **** protected:
 413:funsape/peripheral/pcint1.hpp ****     // NONE
 414:funsape/peripheral/pcint1.hpp **** 
 415:funsape/peripheral/pcint1.hpp ****     // -------------------------------------------------------------------------
 416:funsape/peripheral/pcint1.hpp ****     // Properties --------------------------------------------------------------
 417:funsape/peripheral/pcint1.hpp **** 
 418:funsape/peripheral/pcint1.hpp **** private:
 419:funsape/peripheral/pcint1.hpp ****     //     /////////////////    SINGLETON INSTANCE     //////////////////     //
 420:funsape/peripheral/pcint1.hpp ****     static Pcint1   _instance;                  //|< Static private instance
 421:funsape/peripheral/pcint1.hpp **** 
 422:funsape/peripheral/pcint1.hpp ****     //     /////////////////    CONTROL AND STATUS     //////////////////     //
 423:funsape/peripheral/pcint1.hpp ****     bool_t          _isInitialized      : 1;    //!< Initialization flag.
 424:funsape/peripheral/pcint1.hpp ****     Error           _lastError;                 //!< Last error.
 425:funsape/peripheral/pcint1.hpp **** 
 426:funsape/peripheral/pcint1.hpp ****     //     ////////////////////   CONFIGURATION     /////////////////////     //
 427:funsape/peripheral/pcint1.hpp ****     Pcint1::Pin     _enabledPins;               //!< Sense mode trigger.
 428:funsape/peripheral/pcint1.hpp **** 
 429:funsape/peripheral/pcint1.hpp **** protected:
 430:funsape/peripheral/pcint1.hpp ****     // NONE
 431:funsape/peripheral/pcint1.hpp **** 
 432:funsape/peripheral/pcint1.hpp **** }; // class Pcint1
 433:funsape/peripheral/pcint1.hpp **** 
 434:funsape/peripheral/pcint1.hpp **** // =============================================================================
 435:funsape/peripheral/pcint1.hpp **** // Inlined class functions
 436:funsape/peripheral/pcint1.hpp **** // =============================================================================
 437:funsape/peripheral/pcint1.hpp **** 
 438:funsape/peripheral/pcint1.hpp **** //!
 439:funsape/peripheral/pcint1.hpp **** //! @cond
 440:funsape/peripheral/pcint1.hpp **** //!
 441:funsape/peripheral/pcint1.hpp **** 
 442:funsape/peripheral/pcint1.hpp **** //     /////////////////////    SINGLETON ACCESS    /////////////////////     //
 443:funsape/peripheral/pcint1.hpp **** 
 444:funsape/peripheral/pcint1.hpp **** Pcint1 inlined &Pcint1::getInstance(void)
 445:funsape/peripheral/pcint1.hpp **** {
 446:funsape/peripheral/pcint1.hpp ****     return Pcint1::_instance;
 447:funsape/peripheral/pcint1.hpp **** }
 448:funsape/peripheral/pcint1.hpp **** 
 449:funsape/peripheral/pcint1.hpp **** //     /////////////////     CONTROL AND STATUS     /////////////////     //
 450:funsape/peripheral/pcint1.hpp **** 
 451:funsape/peripheral/pcint1.hpp **** Error inlined Pcint1::getLastError(void) const
 452:funsape/peripheral/pcint1.hpp **** {
 453:funsape/peripheral/pcint1.hpp ****     // Returns last error
 454:funsape/peripheral/pcint1.hpp ****     return this->_lastError;
 455:funsape/peripheral/pcint1.hpp **** }
 456:funsape/peripheral/pcint1.hpp **** 
 457:funsape/peripheral/pcint1.hpp **** //     ////////////////////////    INTERRUPT     ////////////////////////     //
 458:funsape/peripheral/pcint1.hpp **** 
 459:funsape/peripheral/pcint1.hpp **** void inlined Pcint1::activateInterrupt(void) const
 460:funsape/peripheral/pcint1.hpp **** {
GAS LISTING /tmp/cc6dFWRL.s 			page 21


 461:funsape/peripheral/pcint1.hpp ****     setBit(MCU_PCINT1_ENABLE_REG, MCU_PCINT1_ENABLE_BIT_POS);
 462:funsape/peripheral/pcint1.hpp ****     return;
 463:funsape/peripheral/pcint1.hpp **** }
 464:funsape/peripheral/pcint1.hpp **** 
 465:funsape/peripheral/pcint1.hpp **** void inlined Pcint1::clearInterruptRequest(void) const
 466:funsape/peripheral/pcint1.hpp **** {
 467:funsape/peripheral/pcint1.hpp ****     setBit(MCU_PCINT1_FLAG_REG, MCU_PCINT1_FLAG_BIT);
 468:funsape/peripheral/pcint1.hpp ****     return;
 469:funsape/peripheral/pcint1.hpp **** }
 470:funsape/peripheral/pcint1.hpp **** 
 471:funsape/peripheral/pcint1.hpp **** void inlined Pcint1::deactivateInterrupt(void) const
 472:funsape/peripheral/pcint1.hpp **** {
 473:funsape/peripheral/pcint1.hpp ****     clrBit(MCU_PCINT1_ENABLE_REG, MCU_PCINT1_ENABLE_BIT_POS);
 474:funsape/peripheral/pcint1.hpp ****     return;
 475:funsape/peripheral/pcint1.hpp **** }
 476:funsape/peripheral/pcint1.hpp **** 
 477:funsape/peripheral/pcint1.hpp **** //     //////////////////     OPERATOR OVERLOADING     //////////////////     //
 478:funsape/peripheral/pcint1.hpp **** 
 479:funsape/peripheral/pcint1.hpp **** Pcint1::Pin inlined operator|(Pcint1::Pin a, Pcint1::Pin b)
 480:funsape/peripheral/pcint1.hpp **** {
 481:funsape/peripheral/pcint1.hpp ****     return static_cast<Pcint1::Pin>(static_cast<uint8_t>(a) | static_cast<uint8_t>(b));
 482:funsape/peripheral/pcint1.hpp **** }
 483:funsape/peripheral/pcint1.hpp **** 
 484:funsape/peripheral/pcint1.hpp **** Pcint1::Pin inlined &operator|=(Pcint1::Pin &a, Pcint1::Pin b)
 485:funsape/peripheral/pcint1.hpp **** {
 486:funsape/peripheral/pcint1.hpp ****     return a = static_cast<Pcint1::Pin>(static_cast<uint8_t>(a) | static_cast<uint8_t>(b));
 487:funsape/peripheral/pcint1.hpp **** }
 488:funsape/peripheral/pcint1.hpp **** 
 489:funsape/peripheral/pcint1.hpp **** Pcint1::Pin inlined operator&(Pcint1::Pin a, Pcint1::Pin b)
 297               		.loc 2 489 21 view .LVU99
 298               	.LBB19:
 490:funsape/peripheral/pcint1.hpp **** {
 491:funsape/peripheral/pcint1.hpp ****     return static_cast<Pcint1::Pin>(static_cast<uint8_t>(a) & static_cast<uint8_t>(b));
 299               		.loc 2 491 5 view .LVU100
 300               		.loc 2 491 86 is_stmt 0 view .LVU101
 301 0002 962F      		mov r25,r22
 302 0004 9170      		andi r25,1<<0
 303               	.LVL25:
 304               		.loc 2 491 86 view .LVU102
 305               	.LBE19:
 306               	.LBE18:
 215:funsape/peripheral/pcint1.cpp ****         auxPinMask |= (1 << MCU_PCINT1_GPIO_PCINT9_BIT);
 307               		.loc 1 215 5 is_stmt 1 view .LVU103
 308               	.LBB20:
 309               	.LBI20:
 489:funsape/peripheral/pcint1.hpp **** {
 310               		.loc 2 489 21 view .LVU104
 311               	.LBB21:
 312               		.loc 2 491 5 view .LVU105
 313               		.loc 2 491 5 is_stmt 0 view .LVU106
 314               	.LBE21:
 315               	.LBE20:
 215:funsape/peripheral/pcint1.cpp ****         auxPinMask |= (1 << MCU_PCINT1_GPIO_PCINT9_BIT);
 316               		.loc 1 215 5 discriminator 1 view .LVU107
 317 0006 61FD      		sbrc r22,1
 216:funsape/peripheral/pcint1.cpp ****     }
 318               		.loc 1 216 9 is_stmt 1 view .LVU108
GAS LISTING /tmp/cc6dFWRL.s 			page 22


 216:funsape/peripheral/pcint1.cpp ****     }
 319               		.loc 1 216 20 is_stmt 0 view .LVU109
 320 0008 9260      		ori r25,lo8(2)
 321               	.LVL26:
 322               	.L8:
 220:funsape/peripheral/pcint1.cpp ****         auxPinMask |= (1 << MCU_PCINT1_GPIO_PCINT10_BIT);
 323               		.loc 1 220 5 is_stmt 1 view .LVU110
 324               	.LBB22:
 325               	.LBI22:
 489:funsape/peripheral/pcint1.hpp **** {
 326               		.loc 2 489 21 view .LVU111
 327               	.LBB23:
 328               		.loc 2 491 5 view .LVU112
 329               		.loc 2 491 5 is_stmt 0 view .LVU113
 330               	.LBE23:
 331               	.LBE22:
 220:funsape/peripheral/pcint1.cpp ****         auxPinMask |= (1 << MCU_PCINT1_GPIO_PCINT10_BIT);
 332               		.loc 1 220 5 discriminator 1 view .LVU114
 333 000a 62FD      		sbrc r22,2
 221:funsape/peripheral/pcint1.cpp ****     }
 334               		.loc 1 221 9 is_stmt 1 view .LVU115
 221:funsape/peripheral/pcint1.cpp ****     }
 335               		.loc 1 221 20 is_stmt 0 view .LVU116
 336 000c 9460      		ori r25,lo8(4)
 337               	.LVL27:
 338               	.L9:
 225:funsape/peripheral/pcint1.cpp ****         auxPinMask |= (1 << MCU_PCINT1_GPIO_PCINT11_BIT);
 339               		.loc 1 225 5 is_stmt 1 view .LVU117
 340               	.LBB24:
 341               	.LBI24:
 489:funsape/peripheral/pcint1.hpp **** {
 342               		.loc 2 489 21 view .LVU118
 343               	.LBB25:
 344               		.loc 2 491 5 view .LVU119
 345               		.loc 2 491 5 is_stmt 0 view .LVU120
 346               	.LBE25:
 347               	.LBE24:
 225:funsape/peripheral/pcint1.cpp ****         auxPinMask |= (1 << MCU_PCINT1_GPIO_PCINT11_BIT);
 348               		.loc 1 225 5 discriminator 1 view .LVU121
 349 000e 63FD      		sbrc r22,3
 226:funsape/peripheral/pcint1.cpp ****     }
 350               		.loc 1 226 9 is_stmt 1 view .LVU122
 226:funsape/peripheral/pcint1.cpp ****     }
 351               		.loc 1 226 20 is_stmt 0 view .LVU123
 352 0010 9860      		ori r25,lo8(8)
 353               	.LVL28:
 354               	.L10:
 230:funsape/peripheral/pcint1.cpp ****         auxPinMask |= (1 << MCU_PCINT1_GPIO_PCINT12_BIT);
 355               		.loc 1 230 5 is_stmt 1 view .LVU124
 356               	.LBB26:
 357               	.LBI26:
 489:funsape/peripheral/pcint1.hpp **** {
 358               		.loc 2 489 21 view .LVU125
 359               	.LBB27:
 360               		.loc 2 491 5 view .LVU126
 361               		.loc 2 491 5 is_stmt 0 view .LVU127
 362               	.LBE27:
GAS LISTING /tmp/cc6dFWRL.s 			page 23


 363               	.LBE26:
 230:funsape/peripheral/pcint1.cpp ****         auxPinMask |= (1 << MCU_PCINT1_GPIO_PCINT12_BIT);
 364               		.loc 1 230 5 discriminator 1 view .LVU128
 365 0012 64FD      		sbrc r22,4
 231:funsape/peripheral/pcint1.cpp ****     }
 366               		.loc 1 231 9 is_stmt 1 view .LVU129
 231:funsape/peripheral/pcint1.cpp ****     }
 367               		.loc 1 231 20 is_stmt 0 view .LVU130
 368 0014 9061      		ori r25,lo8(16)
 369               	.LVL29:
 370               	.L11:
 235:funsape/peripheral/pcint1.cpp ****         auxPinMask |= (1 << MCU_PCINT1_GPIO_PCINT13_BIT);
 371               		.loc 1 235 5 is_stmt 1 view .LVU131
 372               	.LBB28:
 373               	.LBI28:
 489:funsape/peripheral/pcint1.hpp **** {
 374               		.loc 2 489 21 view .LVU132
 375               	.LBB29:
 376               		.loc 2 491 5 view .LVU133
 377               		.loc 2 491 5 is_stmt 0 view .LVU134
 378               	.LBE29:
 379               	.LBE28:
 235:funsape/peripheral/pcint1.cpp ****         auxPinMask |= (1 << MCU_PCINT1_GPIO_PCINT13_BIT);
 380               		.loc 1 235 5 discriminator 1 view .LVU135
 381 0016 65FD      		sbrc r22,5
 236:funsape/peripheral/pcint1.cpp ****     }
 382               		.loc 1 236 9 is_stmt 1 view .LVU136
 236:funsape/peripheral/pcint1.cpp ****     }
 383               		.loc 1 236 20 is_stmt 0 view .LVU137
 384 0018 9062      		ori r25,lo8(32)
 385               	.LVL30:
 386               	.L12:
 240:funsape/peripheral/pcint1.cpp ****         auxPinMask |= (1 << MCU_PCINT1_GPIO_PCINT14_BIT);
 387               		.loc 1 240 5 is_stmt 1 view .LVU138
 388               	.LBB30:
 389               	.LBI30:
 489:funsape/peripheral/pcint1.hpp **** {
 390               		.loc 2 489 21 view .LVU139
 391               	.LBB31:
 392               		.loc 2 491 5 view .LVU140
 393               		.loc 2 491 5 is_stmt 0 view .LVU141
 394               	.LBE31:
 395               	.LBE30:
 240:funsape/peripheral/pcint1.cpp ****         auxPinMask |= (1 << MCU_PCINT1_GPIO_PCINT14_BIT);
 396               		.loc 1 240 5 discriminator 1 view .LVU142
 397 001a 66FF      		sbrs r22,6
 398 001c 00C0      		rjmp .L13
 241:funsape/peripheral/pcint1.cpp ****     }
 399               		.loc 1 241 9 is_stmt 1 view .LVU143
 241:funsape/peripheral/pcint1.cpp ****     }
 400               		.loc 1 241 20 is_stmt 0 view .LVU144
 401 001e 9064      		ori r25,lo8(64)
 402               	.LVL31:
 251:funsape/peripheral/pcint1.cpp ****         switch(pinMode_p) {
 403               		.loc 1 251 5 is_stmt 1 view .LVU145
 404               	.L14:
 252:funsape/peripheral/pcint1.cpp ****         case PinMode::INPUT_FLOATING:
GAS LISTING /tmp/cc6dFWRL.s 			page 24


 405               		.loc 1 252 9 view .LVU146
 406 0020 4130      		cpi r20,lo8(1)
 407 0022 01F0      		breq .L16
 408 0024 4230      		cpi r20,lo8(2)
 409 0026 01F0      		breq .L17
 410 0028 4111      		cpse r20,__zero_reg__
 411 002a 00C0      		rjmp .L15
 253:funsape/peripheral/pcint1.cpp ****             clrMask(MCU_PCINT1_GPIO_REG_DIR, auxPinMask);
 412               		.loc 1 253 9 view .LVU147
 254:funsape/peripheral/pcint1.cpp ****             clrMask(MCU_PCINT1_GPIO_REG_OUT, auxPinMask);
 413               		.loc 1 254 13 view .LVU148
 254:funsape/peripheral/pcint1.cpp ****             clrMask(MCU_PCINT1_GPIO_REG_OUT, auxPinMask);
 414               		.loc 1 254 13 view .LVU149
 415 002c 87B1      		in r24,0x7
 416               	.LVL32:
 254:funsape/peripheral/pcint1.cpp ****             clrMask(MCU_PCINT1_GPIO_REG_OUT, auxPinMask);
 417               		.loc 1 254 13 is_stmt 0 view .LVU150
 418 002e 9095      		com r25
 419               	.LVL33:
 254:funsape/peripheral/pcint1.cpp ****             clrMask(MCU_PCINT1_GPIO_REG_OUT, auxPinMask);
 420               		.loc 1 254 13 view .LVU151
 421 0030 8923      		and r24,r25
 422 0032 87B9      		out 0x7,r24
 254:funsape/peripheral/pcint1.cpp ****             clrMask(MCU_PCINT1_GPIO_REG_OUT, auxPinMask);
 423               		.loc 1 254 13 is_stmt 1 view .LVU152
 255:funsape/peripheral/pcint1.cpp ****             break;
 424               		.loc 1 255 13 view .LVU153
 255:funsape/peripheral/pcint1.cpp ****             break;
 425               		.loc 1 255 13 view .LVU154
 426 0034 88B1      		in r24,0x8
 427 0036 8923      		and r24,r25
 428 0038 88B9      		out 0x8,r24
 255:funsape/peripheral/pcint1.cpp ****             break;
 429               		.loc 1 255 13 view .LVU155
 256:funsape/peripheral/pcint1.cpp ****         case PinMode::INPUT_PULLED_UP:
 430               		.loc 1 256 13 view .LVU156
 431 003a 00C0      		rjmp .L15
 432               	.LVL34:
 433               	.L13:
 251:funsape/peripheral/pcint1.cpp ****         switch(pinMode_p) {
 434               		.loc 1 251 5 view .LVU157
 435 003c 9111      		cpse r25,__zero_reg__
 436 003e 00C0      		rjmp .L14
 437               	.LVL35:
 438               	.L15:
 268:funsape/peripheral/pcint1.cpp ****     debugMessage(Error::NONE, Debug::CodeIndex::PCINT1_MODULE);
 439               		.loc 1 268 5 view .LVU158
 268:funsape/peripheral/pcint1.cpp ****     debugMessage(Error::NONE, Debug::CodeIndex::PCINT1_MODULE);
 440               		.loc 1 268 22 is_stmt 0 view .LVU159
 441 0040 1282      		std Z+2,__zero_reg__
 442 0042 1182      		std Z+1,__zero_reg__
 269:funsape/peripheral/pcint1.cpp ****     return true;
 443               		.loc 1 269 5 is_stmt 1 view .LVU160
 270:funsape/peripheral/pcint1.cpp **** }
 444               		.loc 1 270 5 view .LVU161
 271:funsape/peripheral/pcint1.cpp **** 
 445               		.loc 1 271 1 is_stmt 0 view .LVU162
GAS LISTING /tmp/cc6dFWRL.s 			page 25


 446 0044 81E0      		ldi r24,lo8(1)
 447               	/* epilogue start */
 448 0046 0895      		ret
 449               	.LVL36:
 450               	.L16:
 257:funsape/peripheral/pcint1.cpp ****             clrMask(MCU_PCINT1_GPIO_REG_DIR, auxPinMask);
 451               		.loc 1 257 9 is_stmt 1 view .LVU163
 258:funsape/peripheral/pcint1.cpp ****             setMask(MCU_PCINT1_GPIO_REG_OUT, auxPinMask);
 452               		.loc 1 258 13 view .LVU164
 258:funsape/peripheral/pcint1.cpp ****             setMask(MCU_PCINT1_GPIO_REG_OUT, auxPinMask);
 453               		.loc 1 258 13 view .LVU165
 454 0048 27B1      		in r18,0x7
 455 004a 892F      		mov r24,r25
 456               	.LVL37:
 258:funsape/peripheral/pcint1.cpp ****             setMask(MCU_PCINT1_GPIO_REG_OUT, auxPinMask);
 457               		.loc 1 258 13 is_stmt 0 view .LVU166
 458 004c 8095      		com r24
 459 004e 8223      		and r24,r18
 460 0050 87B9      		out 0x7,r24
 258:funsape/peripheral/pcint1.cpp ****             setMask(MCU_PCINT1_GPIO_REG_OUT, auxPinMask);
 461               		.loc 1 258 13 is_stmt 1 view .LVU167
 259:funsape/peripheral/pcint1.cpp ****             break;
 462               		.loc 1 259 13 view .LVU168
 259:funsape/peripheral/pcint1.cpp ****             break;
 463               		.loc 1 259 13 view .LVU169
 464 0052 88B1      		in r24,0x8
 465 0054 892B      		or r24,r25
 466 0056 88B9      		out 0x8,r24
 259:funsape/peripheral/pcint1.cpp ****             break;
 467               		.loc 1 259 13 view .LVU170
 260:funsape/peripheral/pcint1.cpp ****         case PinMode::OUTPUT_PUSH_PULL:
 468               		.loc 1 260 13 view .LVU171
 469 0058 00C0      		rjmp .L15
 470               	.LVL38:
 471               	.L17:
 261:funsape/peripheral/pcint1.cpp ****             setMask(MCU_PCINT1_GPIO_REG_DIR, auxPinMask);
 472               		.loc 1 261 9 view .LVU172
 262:funsape/peripheral/pcint1.cpp ****             break;
 473               		.loc 1 262 13 view .LVU173
 262:funsape/peripheral/pcint1.cpp ****             break;
 474               		.loc 1 262 13 view .LVU174
 475 005a 87B1      		in r24,0x7
 476               	.LVL39:
 262:funsape/peripheral/pcint1.cpp ****             break;
 477               		.loc 1 262 13 is_stmt 0 view .LVU175
 478 005c 892B      		or r24,r25
 479 005e 87B9      		out 0x7,r24
 262:funsape/peripheral/pcint1.cpp ****             break;
 480               		.loc 1 262 13 is_stmt 1 view .LVU176
 263:funsape/peripheral/pcint1.cpp ****         }
 481               		.loc 1 263 13 view .LVU177
 482 0060 00C0      		rjmp .L15
 483               		.cfi_endproc
 484               	.LFE145:
 486               		.section	.text._Z23pcint1InterruptCallbackv,"ax",@progbits
 487               		.weak	_Z23pcint1InterruptCallbackv
 489               	_Z23pcint1InterruptCallbackv:
GAS LISTING /tmp/cc6dFWRL.s 			page 26


 490               	.LFB146:
 296:funsape/peripheral/pcint1.cpp ****     return;
 491               		.loc 1 296 1 view -0
 492               		.cfi_startproc
 493               	/* prologue: function */
 494               	/* frame size = 0 */
 495               	/* stack size = 0 */
 496               	.L__stack_usage = 0
 297:funsape/peripheral/pcint1.cpp **** }
 497               		.loc 1 297 5 view .LVU179
 498               	/* epilogue start */
 298:funsape/peripheral/pcint1.cpp **** 
 499               		.loc 1 298 1 is_stmt 0 view .LVU180
 500 0000 0895      		ret
 501               		.cfi_endproc
 502               	.LFE146:
 504               		.section	.text.__vector_4,"ax",@progbits
 505               	.global	__vector_4
 507               	__vector_4:
 508               	.LFB147:
 309:funsape/peripheral/pcint1.cpp ****     pcint1InterruptCallback();
 509               		.loc 1 309 1 is_stmt 1 view -0
 510               		.cfi_startproc
 511 0000 1F92      		push r1
 512               	.LCFI0:
 513               		.cfi_def_cfa_offset 3
 514               		.cfi_offset 1, -2
 515 0002 0F92      		push r0
 516               	.LCFI1:
 517               		.cfi_def_cfa_offset 4
 518               		.cfi_offset 0, -3
 519 0004 0FB6      		in r0,__SREG__
 520 0006 0F92      		push r0
 521 0008 1124      		clr __zero_reg__
 522 000a 2F93      		push r18
 523               	.LCFI2:
 524               		.cfi_def_cfa_offset 5
 525               		.cfi_offset 18, -4
 526 000c 3F93      		push r19
 527               	.LCFI3:
 528               		.cfi_def_cfa_offset 6
 529               		.cfi_offset 19, -5
 530 000e 4F93      		push r20
 531               	.LCFI4:
 532               		.cfi_def_cfa_offset 7
 533               		.cfi_offset 20, -6
 534 0010 5F93      		push r21
 535               	.LCFI5:
 536               		.cfi_def_cfa_offset 8
 537               		.cfi_offset 21, -7
 538 0012 6F93      		push r22
 539               	.LCFI6:
 540               		.cfi_def_cfa_offset 9
 541               		.cfi_offset 22, -8
 542 0014 7F93      		push r23
 543               	.LCFI7:
 544               		.cfi_def_cfa_offset 10
GAS LISTING /tmp/cc6dFWRL.s 			page 27


 545               		.cfi_offset 23, -9
 546 0016 8F93      		push r24
 547               	.LCFI8:
 548               		.cfi_def_cfa_offset 11
 549               		.cfi_offset 24, -10
 550 0018 9F93      		push r25
 551               	.LCFI9:
 552               		.cfi_def_cfa_offset 12
 553               		.cfi_offset 25, -11
 554 001a AF93      		push r26
 555               	.LCFI10:
 556               		.cfi_def_cfa_offset 13
 557               		.cfi_offset 26, -12
 558 001c BF93      		push r27
 559               	.LCFI11:
 560               		.cfi_def_cfa_offset 14
 561               		.cfi_offset 27, -13
 562 001e EF93      		push r30
 563               	.LCFI12:
 564               		.cfi_def_cfa_offset 15
 565               		.cfi_offset 30, -14
 566 0020 FF93      		push r31
 567               	.LCFI13:
 568               		.cfi_def_cfa_offset 16
 569               		.cfi_offset 31, -15
 570               	/* prologue: Signal */
 571               	/* frame size = 0 */
 572               	/* stack size = 15 */
 573               	.L__stack_usage = 15
 310:funsape/peripheral/pcint1.cpp **** }
 574               		.loc 1 310 5 view .LVU182
 310:funsape/peripheral/pcint1.cpp **** }
 575               		.loc 1 310 28 is_stmt 0 view .LVU183
 576 0022 0E94 0000 		call _Z23pcint1InterruptCallbackv
 577               	.LVL40:
 578               	/* epilogue start */
 579               		.loc 1 311 1 view .LVU184
 580 0026 FF91      		pop r31
 581 0028 EF91      		pop r30
 582 002a BF91      		pop r27
 583 002c AF91      		pop r26
 584 002e 9F91      		pop r25
 585 0030 8F91      		pop r24
 586 0032 7F91      		pop r23
 587 0034 6F91      		pop r22
 588 0036 5F91      		pop r21
 589 0038 4F91      		pop r20
 590 003a 3F91      		pop r19
 591 003c 2F91      		pop r18
 592 003e 0F90      		pop r0
 593 0040 0FBE      		out __SREG__,r0
 594 0042 0F90      		pop r0
 595 0044 1F90      		pop r1
 596 0046 1895      		reti
 597               		.cfi_endproc
 598               	.LFE147:
 600               		.section	.text._GLOBAL__sub_I__ZN6Pcint19_instanceE,"ax",@progbits
GAS LISTING /tmp/cc6dFWRL.s 			page 28


 602               	_GLOBAL__sub_I__ZN6Pcint19_instanceE:
 603               	.LFB150:
 604               		.loc 1 311 1 is_stmt 1 view -0
 605               		.cfi_startproc
 606               	/* prologue: function */
 607               	/* frame size = 0 */
 608               	/* stack size = 0 */
 609               	.L__stack_usage = 0
 610               		.loc 1 311 1 is_stmt 0 view .LVU186
 611 0000 0E94 0000 		call _Z41__static_initialization_and_destruction_0v
 612               	.LVL41:
 613               	/* epilogue start */
 614 0004 0895      		ret
 615               		.cfi_endproc
 616               	.LFE150:
 618               		.global __do_global_ctors
 619               		.section .ctors,"a",@progbits
 620               		.p2align	1
 621 0000 0000      		.word	gs(_GLOBAL__sub_I__ZN6Pcint19_instanceE)
 622               	.global	_ZN6Pcint19_instanceE
 623               		.section	.bss._ZN6Pcint19_instanceE,"aw",@nobits
 626               	_ZN6Pcint19_instanceE:
 627 0000 0000 0000 		.zero	4
 628               		.text
 629               	.Letext0:
 630               		.file 3 "/usr/avr/include/stdint.h"
 631               		.file 4 "funsape/peripheral/../config/atmega328p.hpp"
 632               		.file 5 "funsape/peripheral/../globalDefines.hpp"
GAS LISTING /tmp/cc6dFWRL.s 			page 29

