GAS LISTING /tmp/cc2oqvla.s 			page 1


   1               		.file	"sevenSegmentsMuxDisplay.cpp"
   2               	__SP_H__ = 0x3e
   3               	__SP_L__ = 0x3d
   4               	__SREG__ = 0x3f
   5               	__tmp_reg__ = 0
   6               	__zero_reg__ = 1
   7               		.text
   8               	.Ltext0:
   9               		.cfi_sections	.debug_frame
  10               		.file 1 "funsape/device/sevenSegmentsMuxDisplay.cpp"
  11               		.section	.text._ZN23SevenSegmentsMuxDisplayC2Ev,"ax",@progbits
  12               	.global	_ZN23SevenSegmentsMuxDisplayC2Ev
  14               	_ZN23SevenSegmentsMuxDisplayC2Ev:
  15               	.LVL0:
  16               	.LFB144:
   1:funsape/device/sevenSegmentsMuxDisplay.cpp **** //!
   2:funsape/device/sevenSegmentsMuxDisplay.cpp **** //! ****************************************************************************
   3:funsape/device/sevenSegmentsMuxDisplay.cpp **** //! @file           sevenSegmentsMuxDisplay.cpp
   4:funsape/device/sevenSegmentsMuxDisplay.cpp **** //! @author         Leandro Schwarz (bladabuska+funsapeavr8lib@gmail.com)
   5:funsape/device/sevenSegmentsMuxDisplay.cpp **** //! @brief          Seven Segments Multiplexed Display module interface for the
   6:funsape/device/sevenSegmentsMuxDisplay.cpp **** //!                     FunSAPE++ AVR8 Library.
   7:funsape/device/sevenSegmentsMuxDisplay.cpp **** //! @details        Seven segments multiplexed display controller with support
   8:funsape/device/sevenSegmentsMuxDisplay.cpp **** //!                     to variable number of digits (2 to 8). The library
   9:funsape/device/sevenSegmentsMuxDisplay.cpp **** //!                     supports both common anode and common cathode displays,
  10:funsape/device/sevenSegmentsMuxDisplay.cpp **** //!                     decimal point, and the special characters defined in
  11:funsape/device/sevenSegmentsMuxDisplay.cpp **** //!                     @ref sevenSegmentsDisplay.hpp.
  12:funsape/device/sevenSegmentsMuxDisplay.cpp **** //! @date           2026-04-02
  13:funsape/device/sevenSegmentsMuxDisplay.cpp **** //! @version        26.04
  14:funsape/device/sevenSegmentsMuxDisplay.cpp **** //! @copyright      MIT License
  15:funsape/device/sevenSegmentsMuxDisplay.cpp **** //! @note           No notes at this time.
  16:funsape/device/sevenSegmentsMuxDisplay.cpp **** //! @todo           No itens in todo list yet.
  17:funsape/device/sevenSegmentsMuxDisplay.cpp **** //! @bug            No bugs detected yet.
  18:funsape/device/sevenSegmentsMuxDisplay.cpp **** //! ****************************************************************************
  19:funsape/device/sevenSegmentsMuxDisplay.cpp **** //! @attention
  20:funsape/device/sevenSegmentsMuxDisplay.cpp **** //!
  21:funsape/device/sevenSegmentsMuxDisplay.cpp **** //! MIT License
  22:funsape/device/sevenSegmentsMuxDisplay.cpp **** //!
  23:funsape/device/sevenSegmentsMuxDisplay.cpp **** //! Copyright (c) 2026 Leandro Schwarz
  24:funsape/device/sevenSegmentsMuxDisplay.cpp **** //!
  25:funsape/device/sevenSegmentsMuxDisplay.cpp **** //! Permission is hereby granted, free of charge, to any person obtaining a copy
  26:funsape/device/sevenSegmentsMuxDisplay.cpp **** //!     of this software and associated documentation files (the "Software"), to
  27:funsape/device/sevenSegmentsMuxDisplay.cpp **** //!     deal in the Software without restriction, including without limitation
  28:funsape/device/sevenSegmentsMuxDisplay.cpp **** //!     the rights to use, copy, modify, merge, publish, distribute, sublicense,
  29:funsape/device/sevenSegmentsMuxDisplay.cpp **** //!     and/or sell copies of the Software, and to permit persons to whom the
  30:funsape/device/sevenSegmentsMuxDisplay.cpp **** //!     Software is furnished to do so, subject to the following conditions:
  31:funsape/device/sevenSegmentsMuxDisplay.cpp **** //!
  32:funsape/device/sevenSegmentsMuxDisplay.cpp **** //! The above copyright notice and this permission notice shall be included in
  33:funsape/device/sevenSegmentsMuxDisplay.cpp **** //!     all copies or substantial portions of the Software.
  34:funsape/device/sevenSegmentsMuxDisplay.cpp **** //!
  35:funsape/device/sevenSegmentsMuxDisplay.cpp **** //! THE SOFTWARE IS PROVIDED "AS IS", WITHOUT WARRANTY OF ANY KIND, EXPRESS OR
  36:funsape/device/sevenSegmentsMuxDisplay.cpp **** //!     IMPLIED, INCLUDING BUT NOT LIMITED TO THE WARRANTIES OF MERCHANTABILITY,
  37:funsape/device/sevenSegmentsMuxDisplay.cpp **** //!     FITNESS FOR A PARTICULAR PURPOSE AND NONINFRINGEMENT. IN NO EVENT SHALL
  38:funsape/device/sevenSegmentsMuxDisplay.cpp **** //!     THE AUTHORS OR COPYRIGHT HOLDERS BE LIABLE FOR ANY CLAIM, DAMAGES OR
  39:funsape/device/sevenSegmentsMuxDisplay.cpp **** //!     OTHER LIABILITY, WHETHER IN AN ACTION OF CONTRACT, TORT OR OTHERWISE,
  40:funsape/device/sevenSegmentsMuxDisplay.cpp **** //!     ARISING FROM, OUT OF OR IN CONNECTION WITH THE SOFTWARE OR THE USE OR
  41:funsape/device/sevenSegmentsMuxDisplay.cpp **** //!     OTHER DEALINGS IN THE SOFTWARE.
  42:funsape/device/sevenSegmentsMuxDisplay.cpp **** //!
GAS LISTING /tmp/cc2oqvla.s 			page 2


  43:funsape/device/sevenSegmentsMuxDisplay.cpp **** //! ****************************************************************************
  44:funsape/device/sevenSegmentsMuxDisplay.cpp **** //!
  45:funsape/device/sevenSegmentsMuxDisplay.cpp **** 
  46:funsape/device/sevenSegmentsMuxDisplay.cpp **** // =============================================================================
  47:funsape/device/sevenSegmentsMuxDisplay.cpp **** // System file dependencies
  48:funsape/device/sevenSegmentsMuxDisplay.cpp **** // =============================================================================
  49:funsape/device/sevenSegmentsMuxDisplay.cpp **** 
  50:funsape/device/sevenSegmentsMuxDisplay.cpp **** #include "sevenSegmentsMuxDisplay.hpp"
  51:funsape/device/sevenSegmentsMuxDisplay.cpp **** #if !defined(__SEVEN_SEGMENTS_MUX_DISPLAY_HPP)
  52:funsape/device/sevenSegmentsMuxDisplay.cpp **** #    error Error 1 - Header file (sevenSegmentsMuxDisplay.hpp) is missing or corrupted!
  53:funsape/device/sevenSegmentsMuxDisplay.cpp **** #elif __SEVEN_SEGMENTS_MUX_DISPLAY_HPP != 2604
  54:funsape/device/sevenSegmentsMuxDisplay.cpp **** #    error Error 6 - Build mismatch between header file (sevenSegmentsMuxDisplay.hpp) and source fi
  55:funsape/device/sevenSegmentsMuxDisplay.cpp **** #endif
  56:funsape/device/sevenSegmentsMuxDisplay.cpp **** 
  57:funsape/device/sevenSegmentsMuxDisplay.cpp **** // =============================================================================
  58:funsape/device/sevenSegmentsMuxDisplay.cpp **** // File exclusive - Constants
  59:funsape/device/sevenSegmentsMuxDisplay.cpp **** // =============================================================================
  60:funsape/device/sevenSegmentsMuxDisplay.cpp **** 
  61:funsape/device/sevenSegmentsMuxDisplay.cpp **** // NONE
  62:funsape/device/sevenSegmentsMuxDisplay.cpp **** 
  63:funsape/device/sevenSegmentsMuxDisplay.cpp **** // =============================================================================
  64:funsape/device/sevenSegmentsMuxDisplay.cpp **** // File exclusive - New data types
  65:funsape/device/sevenSegmentsMuxDisplay.cpp **** // =============================================================================
  66:funsape/device/sevenSegmentsMuxDisplay.cpp **** 
  67:funsape/device/sevenSegmentsMuxDisplay.cpp **** // NONE
  68:funsape/device/sevenSegmentsMuxDisplay.cpp **** 
  69:funsape/device/sevenSegmentsMuxDisplay.cpp **** // =============================================================================
  70:funsape/device/sevenSegmentsMuxDisplay.cpp **** // File exclusive - Macro-functions
  71:funsape/device/sevenSegmentsMuxDisplay.cpp **** // =============================================================================
  72:funsape/device/sevenSegmentsMuxDisplay.cpp **** 
  73:funsape/device/sevenSegmentsMuxDisplay.cpp **** // NONE
  74:funsape/device/sevenSegmentsMuxDisplay.cpp **** 
  75:funsape/device/sevenSegmentsMuxDisplay.cpp **** // =============================================================================
  76:funsape/device/sevenSegmentsMuxDisplay.cpp **** // Global variables
  77:funsape/device/sevenSegmentsMuxDisplay.cpp **** // =============================================================================
  78:funsape/device/sevenSegmentsMuxDisplay.cpp **** 
  79:funsape/device/sevenSegmentsMuxDisplay.cpp **** // NONE
  80:funsape/device/sevenSegmentsMuxDisplay.cpp **** 
  81:funsape/device/sevenSegmentsMuxDisplay.cpp **** // =============================================================================
  82:funsape/device/sevenSegmentsMuxDisplay.cpp **** // Static functions declarations
  83:funsape/device/sevenSegmentsMuxDisplay.cpp **** // =============================================================================
  84:funsape/device/sevenSegmentsMuxDisplay.cpp **** 
  85:funsape/device/sevenSegmentsMuxDisplay.cpp **** // NONE
  86:funsape/device/sevenSegmentsMuxDisplay.cpp **** 
  87:funsape/device/sevenSegmentsMuxDisplay.cpp **** // =============================================================================
  88:funsape/device/sevenSegmentsMuxDisplay.cpp **** // Public function definitions
  89:funsape/device/sevenSegmentsMuxDisplay.cpp **** // =============================================================================
  90:funsape/device/sevenSegmentsMuxDisplay.cpp **** 
  91:funsape/device/sevenSegmentsMuxDisplay.cpp **** // NONE
  92:funsape/device/sevenSegmentsMuxDisplay.cpp **** 
  93:funsape/device/sevenSegmentsMuxDisplay.cpp **** // =============================================================================
  94:funsape/device/sevenSegmentsMuxDisplay.cpp **** // Class constructors
  95:funsape/device/sevenSegmentsMuxDisplay.cpp **** // =============================================================================
  96:funsape/device/sevenSegmentsMuxDisplay.cpp **** 
  97:funsape/device/sevenSegmentsMuxDisplay.cpp **** SevenSegmentsMuxDisplay::SevenSegmentsMuxDisplay(void) :
  17               		.loc 1 97 1 view -0
  18               		.cfi_startproc
GAS LISTING /tmp/cc2oqvla.s 			page 3


  19               	/* prologue: function */
  20               	/* frame size = 0 */
  21               	/* stack size = 0 */
  22               	.L__stack_usage = 0
  23               		.loc 1 97 1 is_stmt 0 view .LVU1
  24 0000 FC01      		movw r30,r24
  25               	.LBB30:
  98:funsape/device/sevenSegmentsMuxDisplay.cpp ****     _gpioControlBus(nullptr),
  26               		.loc 1 98 5 view .LVU2
  27 0002 1182      		std Z+1,__zero_reg__
  28 0004 1082      		st Z,__zero_reg__
  99:funsape/device/sevenSegmentsMuxDisplay.cpp ****     _gpioDataBus(nullptr),
  29               		.loc 1 99 5 view .LVU3
  30 0006 1382      		std Z+3,__zero_reg__
  31 0008 1282      		std Z+2,__zero_reg__
 100:funsape/device/sevenSegmentsMuxDisplay.cpp ****     _isInitialized(false),
  32               		.loc 1 100 5 view .LVU4
  33 000a 8481      		ldd r24,Z+4
  34               	.LVL1:
  35               		.loc 1 100 5 view .LVU5
  36 000c 8E7F      		andi r24,lo8(~(1<<0))
  37 000e 8483      		std Z+4,r24
 101:funsape/device/sevenSegmentsMuxDisplay.cpp ****     _isPortsSet(false),
  38               		.loc 1 101 5 view .LVU6
  39 0010 8D7F      		andi r24,lo8(~(1<<1))
  40 0012 8483      		std Z+4,r24
 102:funsape/device/sevenSegmentsMuxDisplay.cpp ****     _lastError(Error::NONE),
  41               		.loc 1 102 5 view .LVU7
  42 0014 1682      		std Z+6,__zero_reg__
  43 0016 1582      		std Z+5,__zero_reg__
 103:funsape/device/sevenSegmentsMuxDisplay.cpp ****     _controlActiveLevel(LogicLevel::HIGH),
  44               		.loc 1 103 5 view .LVU8
  45 0018 8781      		ldd r24,Z+7
  46 001a 8160      		ori r24,lo8(1<<0)
  47 001c 8783      		std Z+7,r24
 104:funsape/device/sevenSegmentsMuxDisplay.cpp ****     _digitIndex(0),
  48               		.loc 1 104 5 view .LVU9
  49 001e 982F      		mov r25,r24
  50 0020 917F      		andi r25,lo8(-15)
  51 0022 9783      		std Z+7,r25
 105:funsape/device/sevenSegmentsMuxDisplay.cpp ****     _digitMax(0),
  52               		.loc 1 105 5 view .LVU10
  53 0024 982F      		mov r25,r24
  54 0026 9178      		andi r25,lo8(-127)
  55 0028 9783      		std Z+7,r25
 106:funsape/device/sevenSegmentsMuxDisplay.cpp ****     _digitPoint(0),
  56               		.loc 1 106 5 view .LVU11
  57 002a 8170      		andi r24,lo8(1)
  58 002c 8783      		std Z+7,r24
  59 002e 8085      		ldd r24,Z+8
  60 0030 8078      		andi r24,lo8(-128)
  61 0032 8087      		std Z+8,r24
 107:funsape/device/sevenSegmentsMuxDisplay.cpp ****     _displayType(SevenSegmentsDisplayType::COMMON_ANODE)
  62               		.loc 1 107 5 view .LVU12
  63 0034 8189      		ldd r24,Z+17
  64 0036 8E7F      		andi r24,lo8(~(1<<0))
  65 0038 818B      		std Z+17,r24
GAS LISTING /tmp/cc2oqvla.s 			page 4


  66               	.LBB31:
 108:funsape/device/sevenSegmentsMuxDisplay.cpp **** {
 109:funsape/device/sevenSegmentsMuxDisplay.cpp ****     // Mark passage for debugging purpose
 110:funsape/device/sevenSegmentsMuxDisplay.cpp ****     debugMark(PSTR("SevenSegmentsMuxDisplay::SevenSegmentsMuxDisplay(void)"),
  67               		.loc 1 110 5 is_stmt 1 view .LVU13
 111:funsape/device/sevenSegmentsMuxDisplay.cpp ****             Debug::CodeIndex::SEVEN_SEGMENTS_MUX_DISPLAY_MODULE);
 112:funsape/device/sevenSegmentsMuxDisplay.cpp **** 
 113:funsape/device/sevenSegmentsMuxDisplay.cpp ****     // Reset data members
 114:funsape/device/sevenSegmentsMuxDisplay.cpp ****     for(uint8_t i = 0; i < 8; i++) {
  68               		.loc 1 114 5 view .LVU14
  69               	.LVL2:
  70               	.LBB32:
  71               		.loc 1 114 17 is_stmt 0 view .LVU15
  72 003a 90E0      		ldi r25,0
  73               		.loc 1 114 5 view .LVU16
  74 003c 00C0      		rjmp .L2
  75               	.LVL3:
  76               	.L3:
 115:funsape/device/sevenSegmentsMuxDisplay.cpp ****         this->_digitValue[i]            = (uint8_t)SevenSegmentsCode::OFF;
  77               		.loc 1 115 9 is_stmt 1 view .LVU17
  78               		.loc 1 115 41 is_stmt 0 view .LVU18
  79 003e DF01      		movw r26,r30
  80 0040 A90F      		add r26,r25
  81 0042 B11D      		adc r27,__zero_reg__
  82 0044 8FEF      		ldi r24,lo8(-1)
  83 0046 1996      		adiw r26,9
  84 0048 8C93      		st X,r24
 114:funsape/device/sevenSegmentsMuxDisplay.cpp ****         this->_digitValue[i]            = (uint8_t)SevenSegmentsCode::OFF;
  85               		.loc 1 114 5 is_stmt 1 discriminator 1 view .LVU19
  86 004a 9F5F      		subi r25,lo8(-(1))
  87               	.LVL4:
  88               	.L2:
 114:funsape/device/sevenSegmentsMuxDisplay.cpp ****         this->_digitValue[i]            = (uint8_t)SevenSegmentsCode::OFF;
  89               		.loc 1 114 26 discriminator 2 view .LVU20
  90 004c 9830      		cpi r25,lo8(8)
  91 004e 00F0      		brlo .L3
  92               	/* epilogue start */
  93               	.LBE32:
  94               	.LBE31:
  95               	.LBE30:
 116:funsape/device/sevenSegmentsMuxDisplay.cpp ****     }
 117:funsape/device/sevenSegmentsMuxDisplay.cpp **** 
 118:funsape/device/sevenSegmentsMuxDisplay.cpp ****     // Returns successfully
 119:funsape/device/sevenSegmentsMuxDisplay.cpp ****     debugMessage(Error::NONE, Debug::CodeIndex::SEVEN_SEGMENTS_MUX_DISPLAY_MODULE);
 120:funsape/device/sevenSegmentsMuxDisplay.cpp ****     return;
 121:funsape/device/sevenSegmentsMuxDisplay.cpp **** }
  96               		.loc 1 121 1 is_stmt 0 view .LVU21
  97 0050 0895      		ret
  98               		.cfi_endproc
  99               	.LFE144:
 101               	.global	_ZN23SevenSegmentsMuxDisplayC1Ev
 102               		.set	_ZN23SevenSegmentsMuxDisplayC1Ev,_ZN23SevenSegmentsMuxDisplayC2Ev
 103               		.section	.text._ZN23SevenSegmentsMuxDisplayD2Ev,"ax",@progbits
 104               	.global	_ZN23SevenSegmentsMuxDisplayD2Ev
 106               	_ZN23SevenSegmentsMuxDisplayD2Ev:
 107               	.LVL5:
 108               	.LFB147:
GAS LISTING /tmp/cc2oqvla.s 			page 5


 122:funsape/device/sevenSegmentsMuxDisplay.cpp **** 
 123:funsape/device/sevenSegmentsMuxDisplay.cpp **** SevenSegmentsMuxDisplay::~SevenSegmentsMuxDisplay(void)
 109               		.loc 1 123 1 is_stmt 1 view -0
 110               		.cfi_startproc
 111               	/* prologue: function */
 112               	/* frame size = 0 */
 113               	/* stack size = 0 */
 114               	.L__stack_usage = 0
 115               	.LBB33:
 124:funsape/device/sevenSegmentsMuxDisplay.cpp **** {
 125:funsape/device/sevenSegmentsMuxDisplay.cpp ****     // Mark passage for debugging purpose
 126:funsape/device/sevenSegmentsMuxDisplay.cpp ****     debugMark("SevenSegmentsMuxDisplay::~SevenSegmentsMuxDisplay(void)",
 116               		.loc 1 126 5 view .LVU23
 127:funsape/device/sevenSegmentsMuxDisplay.cpp ****             Debug::CodeIndex::SEVEN_SEGMENTS_MUX_DISPLAY_MODULE);
 128:funsape/device/sevenSegmentsMuxDisplay.cpp **** 
 129:funsape/device/sevenSegmentsMuxDisplay.cpp ****     // Returns successfully
 130:funsape/device/sevenSegmentsMuxDisplay.cpp ****     debugMessage(Error::NONE, Debug::CodeIndex::SEVEN_SEGMENTS_MUX_DISPLAY_MODULE);
 117               		.loc 1 130 5 view .LVU24
 131:funsape/device/sevenSegmentsMuxDisplay.cpp ****     return;
 118               		.loc 1 131 5 view .LVU25
 119               	/* epilogue start */
 120               	.LBE33:
 132:funsape/device/sevenSegmentsMuxDisplay.cpp **** }
 121               		.loc 1 132 1 is_stmt 0 view .LVU26
 122 0000 0895      		ret
 123               		.cfi_endproc
 124               	.LFE147:
 126               	.global	_ZN23SevenSegmentsMuxDisplayD1Ev
 127               		.set	_ZN23SevenSegmentsMuxDisplayD1Ev,_ZN23SevenSegmentsMuxDisplayD2Ev
 128               		.section	.text._ZN23SevenSegmentsMuxDisplay4initE24SevenSegmentsDisplayType,"ax",@progbits
 129               	.global	_ZN23SevenSegmentsMuxDisplay4initE24SevenSegmentsDisplayType
 131               	_ZN23SevenSegmentsMuxDisplay4initE24SevenSegmentsDisplayType:
 132               	.LVL6:
 133               	.LFB149:
 133:funsape/device/sevenSegmentsMuxDisplay.cpp **** 
 134:funsape/device/sevenSegmentsMuxDisplay.cpp **** // =============================================================================
 135:funsape/device/sevenSegmentsMuxDisplay.cpp **** // Class own methods - Public
 136:funsape/device/sevenSegmentsMuxDisplay.cpp **** // =============================================================================
 137:funsape/device/sevenSegmentsMuxDisplay.cpp **** 
 138:funsape/device/sevenSegmentsMuxDisplay.cpp **** //     ///////////////////     CONTROL AND STATUS     ///////////////////     //
 139:funsape/device/sevenSegmentsMuxDisplay.cpp **** 
 140:funsape/device/sevenSegmentsMuxDisplay.cpp **** bool_t SevenSegmentsMuxDisplay::init(const SevenSegmentsDisplayType displayType_p)
 141:funsape/device/sevenSegmentsMuxDisplay.cpp **** {
 134               		.loc 1 141 1 is_stmt 1 view -0
 135               		.cfi_startproc
 136               		.loc 1 141 1 is_stmt 0 view .LVU28
 137 0000 0F93      		push r16
 138               	.LCFI0:
 139               		.cfi_def_cfa_offset 3
 140               		.cfi_offset 16, -2
 141 0002 1F93      		push r17
 142               	.LCFI1:
 143               		.cfi_def_cfa_offset 4
 144               		.cfi_offset 17, -3
 145 0004 CF93      		push r28
 146               	.LCFI2:
 147               		.cfi_def_cfa_offset 5
GAS LISTING /tmp/cc2oqvla.s 			page 6


 148               		.cfi_offset 28, -4
 149 0006 DF93      		push r29
 150               	.LCFI3:
 151               		.cfi_def_cfa_offset 6
 152               		.cfi_offset 29, -5
 153               	/* prologue: function */
 154               	/* frame size = 0 */
 155               	/* stack size = 4 */
 156               	.L__stack_usage = 4
 157 0008 EC01      		movw r28,r24
 158 000a 062F      		mov r16,r22
 142:funsape/device/sevenSegmentsMuxDisplay.cpp ****     // Mark passage for debugging purpose
 143:funsape/device/sevenSegmentsMuxDisplay.cpp ****     debugMark(PSTR("SevenSegmentsMuxDisplay::init(const SevenSegmentsDisplayType)"),
 159               		.loc 1 143 5 is_stmt 1 view .LVU29
 144:funsape/device/sevenSegmentsMuxDisplay.cpp ****             Debug::CodeIndex::SEVEN_SEGMENTS_MUX_DISPLAY_MODULE);
 145:funsape/device/sevenSegmentsMuxDisplay.cpp **** 
 146:funsape/device/sevenSegmentsMuxDisplay.cpp ****     // Resets data members
 147:funsape/device/sevenSegmentsMuxDisplay.cpp ****     this->_isInitialized                = false;
 160               		.loc 1 147 5 view .LVU30
 161               		.loc 1 147 41 is_stmt 0 view .LVU31
 162 000c 8C81      		ldd r24,Y+4
 163               	.LVL7:
 164               		.loc 1 147 41 view .LVU32
 165 000e 8E7F      		andi r24,lo8(~(1<<0))
 166 0010 8C83      		std Y+4,r24
 148:funsape/device/sevenSegmentsMuxDisplay.cpp **** 
 149:funsape/device/sevenSegmentsMuxDisplay.cpp ****     // Check for errors
 150:funsape/device/sevenSegmentsMuxDisplay.cpp ****     if(!this->_isPortsSet) {
 167               		.loc 1 150 5 is_stmt 1 view .LVU33
 168               		.loc 1 150 15 is_stmt 0 view .LVU34
 169 0012 81FB      		bst r24,1
 170 0014 9927      		clr r25
 171 0016 90F9      		bld r25,0
 172 0018 192F      		mov r17,r25
 173               		.loc 1 150 5 view .LVU35
 174 001a 81FF      		sbrs r24,1
 175 001c 00C0      		rjmp .L12
 151:funsape/device/sevenSegmentsMuxDisplay.cpp ****         // Returns error
 152:funsape/device/sevenSegmentsMuxDisplay.cpp ****         this->_lastError = Error::GPIO_PORT_NOT_SET;
 153:funsape/device/sevenSegmentsMuxDisplay.cpp ****         debugMessage(Error::GPIO_PORT_NOT_SET, Debug::CodeIndex::SEVEN_SEGMENTS_MUX_DISPLAY_MODULE)
 154:funsape/device/sevenSegmentsMuxDisplay.cpp ****         return false;
 155:funsape/device/sevenSegmentsMuxDisplay.cpp ****     }
 156:funsape/device/sevenSegmentsMuxDisplay.cpp **** 
 157:funsape/device/sevenSegmentsMuxDisplay.cpp ****     // I/O initialization (Data Bus)
 158:funsape/device/sevenSegmentsMuxDisplay.cpp ****     if(this->_displayType == SevenSegmentsDisplayType::COMMON_ANODE) {
 176               		.loc 1 158 5 is_stmt 1 view .LVU36
 177               		.loc 1 158 27 is_stmt 0 view .LVU37
 178 001e 8989      		ldd r24,Y+17
 179               		.loc 1 158 5 view .LVU38
 180 0020 80FD      		sbrc r24,0
 181 0022 00C0      		rjmp .L8
 159:funsape/device/sevenSegmentsMuxDisplay.cpp ****         this->_gpioDataBus->set();
 182               		.loc 1 159 9 is_stmt 1 view .LVU39
 183               		.loc 1 159 15 is_stmt 0 view .LVU40
 184 0024 AA81      		ldd r26,Y+2
 185 0026 BB81      		ldd r27,Y+3
 186               	.LVL8:
GAS LISTING /tmp/cc2oqvla.s 			page 7


 187               	.LBB34:
 188               	.LBI34:
 189               		.file 2 "funsape/device/../peripheral/gpioBus.hpp"
   1:funsape/device/../peripheral/gpioBus.hpp **** //!
   2:funsape/device/../peripheral/gpioBus.hpp **** //! ****************************************************************************
   3:funsape/device/../peripheral/gpioBus.hpp **** //! @file           gpioBus.hpp
   4:funsape/device/../peripheral/gpioBus.hpp **** //! @author         Leandro Schwarz (bladabuska+funsapeavr8lib@gmail.com)
   5:funsape/device/../peripheral/gpioBus.hpp **** //! @brief          GPIO bus peripheral control.
   6:funsape/device/../peripheral/gpioBus.hpp **** //! @details        This file provides driver interface with the GPIO module to
   7:funsape/device/../peripheral/gpioBus.hpp **** //!                     multiple sequential pins for the FunSAPE++ AVR8
   8:funsape/device/../peripheral/gpioBus.hpp **** //!                     Library.
   9:funsape/device/../peripheral/gpioBus.hpp **** //! @date           2026-04-01
  10:funsape/device/../peripheral/gpioBus.hpp **** //! @version        26.04
  11:funsape/device/../peripheral/gpioBus.hpp **** //! @copyright      MIT License
  12:funsape/device/../peripheral/gpioBus.hpp **** //! @note           No notes at this time.
  13:funsape/device/../peripheral/gpioBus.hpp **** //! @todo           No items in todo list yet.
  14:funsape/device/../peripheral/gpioBus.hpp **** //! @warning        When the user calls GpioBus::clr(), GpioBus::cpl(),
  15:funsape/device/../peripheral/gpioBus.hpp **** //!                     GpioBus::set(), GpioBus::low(), GpioBus::high(),
  16:funsape/device/../peripheral/gpioBus.hpp **** //!                     GpioBus::toggle() or GpioBus::write() and the bus is in
  17:funsape/device/../peripheral/gpioBus.hpp **** //!                     PinMode::INPUT_FLOATING mode or in
  18:funsape/device/../peripheral/gpioBus.hpp **** //!                     PinMode::INPUT_PULLED_UP mode, the mode is changed which
  19:funsape/device/../peripheral/gpioBus.hpp **** //!                     could lead to some undefined behavior.
  20:funsape/device/../peripheral/gpioBus.hpp **** //! ****************************************************************************
  21:funsape/device/../peripheral/gpioBus.hpp **** //! @attention
  22:funsape/device/../peripheral/gpioBus.hpp **** //!
  23:funsape/device/../peripheral/gpioBus.hpp **** //! MIT License
  24:funsape/device/../peripheral/gpioBus.hpp **** //!
  25:funsape/device/../peripheral/gpioBus.hpp **** //! Copyright (c) 2026 Leandro Schwarz
  26:funsape/device/../peripheral/gpioBus.hpp **** //!
  27:funsape/device/../peripheral/gpioBus.hpp **** //! Permission is hereby granted, free of charge, to any person obtaining a copy
  28:funsape/device/../peripheral/gpioBus.hpp **** //!     of this software and associated documentation files (the "Software"), to
  29:funsape/device/../peripheral/gpioBus.hpp **** //!     deal in the Software without restriction, including without limitation
  30:funsape/device/../peripheral/gpioBus.hpp **** //!     the rights to use, copy, modify, merge, publish, distribute, sublicense,
  31:funsape/device/../peripheral/gpioBus.hpp **** //!     and/or sell copies of the Software, and to permit persons to whom the
  32:funsape/device/../peripheral/gpioBus.hpp **** //!     Software is furnished to do so, subject to the following conditions:
  33:funsape/device/../peripheral/gpioBus.hpp **** //!
  34:funsape/device/../peripheral/gpioBus.hpp **** //! The above copyright notice and this permission notice shall be included in
  35:funsape/device/../peripheral/gpioBus.hpp **** //!     all copies or substantial portions of the Software.
  36:funsape/device/../peripheral/gpioBus.hpp **** //!
  37:funsape/device/../peripheral/gpioBus.hpp **** //! THE SOFTWARE IS PROVIDED "AS IS", WITHOUT WARRANTY OF ANY KIND, EXPRESS OR
  38:funsape/device/../peripheral/gpioBus.hpp **** //!     IMPLIED, INCLUDING BUT NOT LIMITED TO THE WARRANTIES OF MERCHANTABILITY,
  39:funsape/device/../peripheral/gpioBus.hpp **** //!     FITNESS FOR A PARTICULAR PURPOSE AND NONINFRINGEMENT. IN NO EVENT SHALL
  40:funsape/device/../peripheral/gpioBus.hpp **** //!     THE AUTHORS OR COPYRIGHT HOLDERS BE LIABLE FOR ANY CLAIM, DAMAGES OR
  41:funsape/device/../peripheral/gpioBus.hpp **** //!     OTHER LIABILITY, WHETHER IN AN ACTION OF CONTRACT, TORT OR OTHERWISE,
  42:funsape/device/../peripheral/gpioBus.hpp **** //!     ARISING FROM, OUT OF OR IN CONNECTION WITH THE SOFTWARE OR THE USE OR
  43:funsape/device/../peripheral/gpioBus.hpp **** //!     OTHER DEALINGS IN THE SOFTWARE.
  44:funsape/device/../peripheral/gpioBus.hpp **** //!
  45:funsape/device/../peripheral/gpioBus.hpp **** //! ****************************************************************************
  46:funsape/device/../peripheral/gpioBus.hpp **** //!
  47:funsape/device/../peripheral/gpioBus.hpp **** 
  48:funsape/device/../peripheral/gpioBus.hpp **** // =============================================================================
  49:funsape/device/../peripheral/gpioBus.hpp **** // Include guard (START)
  50:funsape/device/../peripheral/gpioBus.hpp **** // =============================================================================
  51:funsape/device/../peripheral/gpioBus.hpp **** 
  52:funsape/device/../peripheral/gpioBus.hpp **** #ifndef __GPIO_BUS_HPP
  53:funsape/device/../peripheral/gpioBus.hpp **** #define __GPIO_BUS_HPP                  2604
  54:funsape/device/../peripheral/gpioBus.hpp **** 
GAS LISTING /tmp/cc2oqvla.s 			page 8


  55:funsape/device/../peripheral/gpioBus.hpp **** // =============================================================================
  56:funsape/device/../peripheral/gpioBus.hpp **** // Dependencies
  57:funsape/device/../peripheral/gpioBus.hpp **** // =============================================================================
  58:funsape/device/../peripheral/gpioBus.hpp **** 
  59:funsape/device/../peripheral/gpioBus.hpp **** //     /////////////////     GLOBAL DEFINITIONS FILE    /////////////////     //
  60:funsape/device/../peripheral/gpioBus.hpp **** 
  61:funsape/device/../peripheral/gpioBus.hpp **** #include "../globalDefines.hpp"
  62:funsape/device/../peripheral/gpioBus.hpp **** #if !defined(__GLOBAL_DEFINES_HPP)
  63:funsape/device/../peripheral/gpioBus.hpp **** #   error [gpioBus.hpp] Error 1 - Header file (globalDefines.hpp) is missing or corrupted!
  64:funsape/device/../peripheral/gpioBus.hpp **** #elif __GLOBAL_DEFINES_HPP != __GPIO_BUS_HPP
  65:funsape/device/../peripheral/gpioBus.hpp **** #   error [gpioBus.hpp] Error 2 - Build mismatch between file (gpioBus.hpp) and global definitions 
  66:funsape/device/../peripheral/gpioBus.hpp **** #endif
  67:funsape/device/../peripheral/gpioBus.hpp **** 
  68:funsape/device/../peripheral/gpioBus.hpp **** //     //////////////////     LIBRARY DEPENDENCIES     //////////////////     //
  69:funsape/device/../peripheral/gpioBus.hpp **** 
  70:funsape/device/../peripheral/gpioBus.hpp **** #include "../util/debug.hpp"
  71:funsape/device/../peripheral/gpioBus.hpp **** #if !defined(__DEBUG_HPP)
  72:funsape/device/../peripheral/gpioBus.hpp **** #   error [gpioBus.hpp] Error 1 - Header file (debug.hpp) is missing or corrupted!
  73:funsape/device/../peripheral/gpioBus.hpp **** #elif __DEBUG_HPP != __GPIO_BUS_HPP
  74:funsape/device/../peripheral/gpioBus.hpp **** #   error [gpioBus.hpp] Error 5 - Build mismatch between file (gpioBus.hpp) and library dependency 
  75:funsape/device/../peripheral/gpioBus.hpp **** #endif
  76:funsape/device/../peripheral/gpioBus.hpp **** 
  77:funsape/device/../peripheral/gpioBus.hpp **** //     ///////////////////     STANDARD C LIBRARY     ///////////////////     //
  78:funsape/device/../peripheral/gpioBus.hpp **** 
  79:funsape/device/../peripheral/gpioBus.hpp **** // NONE
  80:funsape/device/../peripheral/gpioBus.hpp **** 
  81:funsape/device/../peripheral/gpioBus.hpp **** //     ////////////////////    AVR LIBRARY FILES     ////////////////////     //
  82:funsape/device/../peripheral/gpioBus.hpp **** 
  83:funsape/device/../peripheral/gpioBus.hpp **** // NONE
  84:funsape/device/../peripheral/gpioBus.hpp **** 
  85:funsape/device/../peripheral/gpioBus.hpp **** // +++++++++++++++++++++++++++++++++++++++++++++++++++++++++++++++++++++++++++++
  86:funsape/device/../peripheral/gpioBus.hpp **** // Doxygen: Start main group "Peripherals"
  87:funsape/device/../peripheral/gpioBus.hpp **** // +++++++++++++++++++++++++++++++++++++++++++++++++++++++++++++++++++++++++++++
  88:funsape/device/../peripheral/gpioBus.hpp **** 
  89:funsape/device/../peripheral/gpioBus.hpp **** //!
  90:funsape/device/../peripheral/gpioBus.hpp **** //! @addtogroup     Peripherals
  91:funsape/device/../peripheral/gpioBus.hpp **** //! @brief          Microcontroller peripherals.
  92:funsape/device/../peripheral/gpioBus.hpp **** //! @{
  93:funsape/device/../peripheral/gpioBus.hpp **** //!
  94:funsape/device/../peripheral/gpioBus.hpp **** 
  95:funsape/device/../peripheral/gpioBus.hpp **** // +++++++++++++++++++++++++++++++++++++++++++++++++++++++++++++++++++++++++++++
  96:funsape/device/../peripheral/gpioBus.hpp **** // Doxygen: Start subgroup "Gpio" in "Peripherals"
  97:funsape/device/../peripheral/gpioBus.hpp **** // +++++++++++++++++++++++++++++++++++++++++++++++++++++++++++++++++++++++++++++
  98:funsape/device/../peripheral/gpioBus.hpp **** 
  99:funsape/device/../peripheral/gpioBus.hpp **** //!
 100:funsape/device/../peripheral/gpioBus.hpp **** //! @addtogroup     Gpio
 101:funsape/device/../peripheral/gpioBus.hpp **** //! @brief          General Purpose Input/Output (GPIO) controller module.
 102:funsape/device/../peripheral/gpioBus.hpp **** //! @{
 103:funsape/device/../peripheral/gpioBus.hpp **** //!
 104:funsape/device/../peripheral/gpioBus.hpp **** 
 105:funsape/device/../peripheral/gpioBus.hpp **** // =============================================================================
 106:funsape/device/../peripheral/gpioBus.hpp **** // Undefining previous definitions
 107:funsape/device/../peripheral/gpioBus.hpp **** // =============================================================================
 108:funsape/device/../peripheral/gpioBus.hpp **** 
 109:funsape/device/../peripheral/gpioBus.hpp **** // NONE
 110:funsape/device/../peripheral/gpioBus.hpp **** 
 111:funsape/device/../peripheral/gpioBus.hpp **** // =============================================================================
GAS LISTING /tmp/cc2oqvla.s 			page 9


 112:funsape/device/../peripheral/gpioBus.hpp **** // Constant definitions
 113:funsape/device/../peripheral/gpioBus.hpp **** // =============================================================================
 114:funsape/device/../peripheral/gpioBus.hpp **** 
 115:funsape/device/../peripheral/gpioBus.hpp **** // NONE
 116:funsape/device/../peripheral/gpioBus.hpp **** 
 117:funsape/device/../peripheral/gpioBus.hpp **** // =============================================================================
 118:funsape/device/../peripheral/gpioBus.hpp **** // New data types
 119:funsape/device/../peripheral/gpioBus.hpp **** // =============================================================================
 120:funsape/device/../peripheral/gpioBus.hpp **** 
 121:funsape/device/../peripheral/gpioBus.hpp **** // NONE
 122:funsape/device/../peripheral/gpioBus.hpp **** 
 123:funsape/device/../peripheral/gpioBus.hpp **** // =============================================================================
 124:funsape/device/../peripheral/gpioBus.hpp **** // Interrupt callback functions declarations
 125:funsape/device/../peripheral/gpioBus.hpp **** // =============================================================================
 126:funsape/device/../peripheral/gpioBus.hpp **** 
 127:funsape/device/../peripheral/gpioBus.hpp **** // NONE
 128:funsape/device/../peripheral/gpioBus.hpp **** 
 129:funsape/device/../peripheral/gpioBus.hpp **** // =============================================================================
 130:funsape/device/../peripheral/gpioBus.hpp **** // Public functions declarations
 131:funsape/device/../peripheral/gpioBus.hpp **** // =============================================================================
 132:funsape/device/../peripheral/gpioBus.hpp **** 
 133:funsape/device/../peripheral/gpioBus.hpp **** // NONE
 134:funsape/device/../peripheral/gpioBus.hpp **** 
 135:funsape/device/../peripheral/gpioBus.hpp **** // =============================================================================
 136:funsape/device/../peripheral/gpioBus.hpp **** // Classes
 137:funsape/device/../peripheral/gpioBus.hpp **** // =============================================================================
 138:funsape/device/../peripheral/gpioBus.hpp **** 
 139:funsape/device/../peripheral/gpioBus.hpp **** //!
 140:funsape/device/../peripheral/gpioBus.hpp **** //! @brief          GpioBus class
 141:funsape/device/../peripheral/gpioBus.hpp **** //! @details        This class manages the General Purpose Input-Output (GPIO)
 142:funsape/device/../peripheral/gpioBus.hpp **** //!                     peripheral in bus mode.
 143:funsape/device/../peripheral/gpioBus.hpp **** //! @attention      This class is not instantiated by default. The user may
 144:funsape/device/../peripheral/gpioBus.hpp **** //!                     create as many instances as necessary.
 145:funsape/device/../peripheral/gpioBus.hpp **** //!
 146:funsape/device/../peripheral/gpioBus.hpp **** class GpioBus
 147:funsape/device/../peripheral/gpioBus.hpp **** {
 148:funsape/device/../peripheral/gpioBus.hpp ****     // -------------------------------------------------------------------------
 149:funsape/device/../peripheral/gpioBus.hpp ****     // New data types ----------------------------------------------------------
 150:funsape/device/../peripheral/gpioBus.hpp **** 
 151:funsape/device/../peripheral/gpioBus.hpp **** public:
 152:funsape/device/../peripheral/gpioBus.hpp ****     // NONE
 153:funsape/device/../peripheral/gpioBus.hpp **** 
 154:funsape/device/../peripheral/gpioBus.hpp **** private:
 155:funsape/device/../peripheral/gpioBus.hpp ****     // NONE
 156:funsape/device/../peripheral/gpioBus.hpp **** 
 157:funsape/device/../peripheral/gpioBus.hpp **** protected:
 158:funsape/device/../peripheral/gpioBus.hpp ****     // NONE
 159:funsape/device/../peripheral/gpioBus.hpp **** 
 160:funsape/device/../peripheral/gpioBus.hpp **** // -------------------------------------------------------------------------
 161:funsape/device/../peripheral/gpioBus.hpp **** // Constructors ------------------------------------------------------------
 162:funsape/device/../peripheral/gpioBus.hpp **** 
 163:funsape/device/../peripheral/gpioBus.hpp **** public:
 164:funsape/device/../peripheral/gpioBus.hpp ****     //!
 165:funsape/device/../peripheral/gpioBus.hpp ****     //! @brief      GpioBus class constructor.
 166:funsape/device/../peripheral/gpioBus.hpp ****     //! @details    Creates a GpioBus object. The object must be initialized
 167:funsape/device/../peripheral/gpioBus.hpp ****     //!                 before use.
 168:funsape/device/../peripheral/gpioBus.hpp ****     //! @see        init(ioRegAddress_t gpioPort_p, PinIndex gpioBusIndex_p,
GAS LISTING /tmp/cc2oqvla.s 			page 10


 169:funsape/device/../peripheral/gpioBus.hpp ****     //!                 cuint8_t gpioBusSize_p).
 170:funsape/device/../peripheral/gpioBus.hpp ****     //! @par Error codes:
 171:funsape/device/../peripheral/gpioBus.hpp ****     //!
 172:funsape/device/../peripheral/gpioBus.hpp ****     //! | Error code       | Meaning                          |
 173:funsape/device/../peripheral/gpioBus.hpp ****     //! |: ----------------|: --------------------------------|
 174:funsape/device/../peripheral/gpioBus.hpp ****     //! | @ref Error::NONE | Success. No erros were detected. |
 175:funsape/device/../peripheral/gpioBus.hpp ****     //!
 176:funsape/device/../peripheral/gpioBus.hpp ****     GpioBus(
 177:funsape/device/../peripheral/gpioBus.hpp ****             void
 178:funsape/device/../peripheral/gpioBus.hpp ****     );
 179:funsape/device/../peripheral/gpioBus.hpp **** 
 180:funsape/device/../peripheral/gpioBus.hpp ****     //!
 181:funsape/device/../peripheral/gpioBus.hpp ****     //! @brief      GpioBus class destructor.
 182:funsape/device/../peripheral/gpioBus.hpp ****     //! @details    Destroys a GpioBus object.
 183:funsape/device/../peripheral/gpioBus.hpp ****     //!
 184:funsape/device/../peripheral/gpioBus.hpp ****     ~GpioBus(
 185:funsape/device/../peripheral/gpioBus.hpp ****             void
 186:funsape/device/../peripheral/gpioBus.hpp ****     );
 187:funsape/device/../peripheral/gpioBus.hpp **** 
 188:funsape/device/../peripheral/gpioBus.hpp **** private:
 189:funsape/device/../peripheral/gpioBus.hpp ****     // NONE
 190:funsape/device/../peripheral/gpioBus.hpp **** 
 191:funsape/device/../peripheral/gpioBus.hpp **** protected:
 192:funsape/device/../peripheral/gpioBus.hpp ****     // NONE
 193:funsape/device/../peripheral/gpioBus.hpp **** 
 194:funsape/device/../peripheral/gpioBus.hpp ****     // -------------------------------------------------------------------------
 195:funsape/device/../peripheral/gpioBus.hpp ****     // Methods - Inherited methods ---------------------------------------------
 196:funsape/device/../peripheral/gpioBus.hpp **** 
 197:funsape/device/../peripheral/gpioBus.hpp **** public:
 198:funsape/device/../peripheral/gpioBus.hpp ****     // NONE
 199:funsape/device/../peripheral/gpioBus.hpp **** 
 200:funsape/device/../peripheral/gpioBus.hpp **** protected:
 201:funsape/device/../peripheral/gpioBus.hpp ****     // NONE
 202:funsape/device/../peripheral/gpioBus.hpp **** 
 203:funsape/device/../peripheral/gpioBus.hpp ****     // -------------------------------------------------------------------------
 204:funsape/device/../peripheral/gpioBus.hpp ****     // Methods - class own methods ---------------------------------------------
 205:funsape/device/../peripheral/gpioBus.hpp **** 
 206:funsape/device/../peripheral/gpioBus.hpp **** public:
 207:funsape/device/../peripheral/gpioBus.hpp ****     //     /////////////////     CONTROL AND STATUS     /////////////////     //
 208:funsape/device/../peripheral/gpioBus.hpp **** 
 209:funsape/device/../peripheral/gpioBus.hpp ****     //!
 210:funsape/device/../peripheral/gpioBus.hpp ****     //! @brief      Returns the last error.
 211:funsape/device/../peripheral/gpioBus.hpp ****     //! @details    Returns the last error.
 212:funsape/device/../peripheral/gpioBus.hpp ****     //! @return     @ref Error          Error status of the last operation.
 213:funsape/device/../peripheral/gpioBus.hpp ****     //!
 214:funsape/device/../peripheral/gpioBus.hpp ****     Error inlined getLastError(
 215:funsape/device/../peripheral/gpioBus.hpp ****             void
 216:funsape/device/../peripheral/gpioBus.hpp ****     ) const;
 217:funsape/device/../peripheral/gpioBus.hpp **** 
 218:funsape/device/../peripheral/gpioBus.hpp ****     //!
 219:funsape/device/../peripheral/gpioBus.hpp ****     //! @brief      Initializes the GpioBus module.
 220:funsape/device/../peripheral/gpioBus.hpp ****     //! @details    Initializes the GpioBus module.
 221:funsape/device/../peripheral/gpioBus.hpp ****     //! @param[in]  gpioPortAddress_p   Register address of the GPIO port.
 222:funsape/device/../peripheral/gpioBus.hpp ****     //! @param[in]  gpioBusIndex_p      @ref PinIndex pin position of the first
 223:funsape/device/../peripheral/gpioBus.hpp ****     //!                                     pin of the bus.
 224:funsape/device/../peripheral/gpioBus.hpp ****     //! @param[in]  gpioBusSize_p       Bus size in bits.
 225:funsape/device/../peripheral/gpioBus.hpp ****     //! @retval     true                if success.
GAS LISTING /tmp/cc2oqvla.s 			page 11


 226:funsape/device/../peripheral/gpioBus.hpp ****     //! @retval     false               if an error occurred. Retrieve the error
 227:funsape/device/../peripheral/gpioBus.hpp ****     //!                                     by calling @ref getLastError().
 228:funsape/device/../peripheral/gpioBus.hpp ****     //! @par Error codes:
 229:funsape/device/../peripheral/gpioBus.hpp ****     //!
 230:funsape/device/../peripheral/gpioBus.hpp ****     //! | Error code                             | Meaning                                         
 231:funsape/device/../peripheral/gpioBus.hpp ****     //! |:---------------------------------------|:------------------------------------------------
 232:funsape/device/../peripheral/gpioBus.hpp ****     //! | @ref Error::NONE                       | Success. No erros were detected.                
 233:funsape/device/../peripheral/gpioBus.hpp ****     //! | @ref Error::GPIO_PORT_INVALID          | The given GPIO address is not valid.            
 234:funsape/device/../peripheral/gpioBus.hpp ****     //! | @ref Error::GPIO_BUS_SIZE_INVALID      | The bus size is greater than 8 or lower than 0. 
 235:funsape/device/../peripheral/gpioBus.hpp ****     //! | @ref Error::GPIO_PIN_OUT_OF_BOUNDARIES | The sum of the bus size and pin index must be lo
 236:funsape/device/../peripheral/gpioBus.hpp ****     //!
 237:funsape/device/../peripheral/gpioBus.hpp ****     bool_t init(
 238:funsape/device/../peripheral/gpioBus.hpp ****             ioRegAddress_t gpioPortAddress_p,
 239:funsape/device/../peripheral/gpioBus.hpp ****             const PinIndex gpioBusIndex_p,
 240:funsape/device/../peripheral/gpioBus.hpp ****             cuint8_t gpioBusSize_p
 241:funsape/device/../peripheral/gpioBus.hpp ****     );
 242:funsape/device/../peripheral/gpioBus.hpp **** 
 243:funsape/device/../peripheral/gpioBus.hpp ****     //     /////////////////    PIN RELATED METHODS     /////////////////     //
 244:funsape/device/../peripheral/gpioBus.hpp **** 
 245:funsape/device/../peripheral/gpioBus.hpp ****     //!
 246:funsape/device/../peripheral/gpioBus.hpp ****     //! @brief      Clears the GpioBus pins.
 247:funsape/device/../peripheral/gpioBus.hpp ****     //! @details    This function clears all the pins of the bus in the output
 248:funsape/device/../peripheral/gpioBus.hpp ****     //!                 @c PORTx register. If the bus mode is set to
 249:funsape/device/../peripheral/gpioBus.hpp ****     //!                 @ref PinMode::OUTPUT_PUSH_PULL, the pin outputs
 250:funsape/device/../peripheral/gpioBus.hpp ****     //!                 will be set to @ref LogicLevel::LOW.
 251:funsape/device/../peripheral/gpioBus.hpp ****     //! @warning    It is recommended to use this function only when the bus
 252:funsape/device/../peripheral/gpioBus.hpp ****     //!                 mode is set to @ref PinMode::OUTPUT_PUSH_PULL,
 253:funsape/device/../peripheral/gpioBus.hpp ****     //!                 otherwise, the bus mode will be changed to
 254:funsape/device/../peripheral/gpioBus.hpp ****     //!                 @ref PinMode::INPUT_FLOATING.
 255:funsape/device/../peripheral/gpioBus.hpp ****     //!
 256:funsape/device/../peripheral/gpioBus.hpp ****     void inlined clr(
 257:funsape/device/../peripheral/gpioBus.hpp ****             void
 258:funsape/device/../peripheral/gpioBus.hpp ****     ) const;
 259:funsape/device/../peripheral/gpioBus.hpp **** 
 260:funsape/device/../peripheral/gpioBus.hpp ****     //!
 261:funsape/device/../peripheral/gpioBus.hpp ****     //! @brief      Clears one pin of the GpioBus.
 262:funsape/device/../peripheral/gpioBus.hpp ****     //! @details    This function clears only one pin of the bus in the output
 263:funsape/device/../peripheral/gpioBus.hpp ****     //!                 @c PORTx register, given by @a bitIndex_p. The provided
 264:funsape/device/../peripheral/gpioBus.hpp ****     //!                 bit index @c 0 is relative to the bus first pin. If the
 265:funsape/device/../peripheral/gpioBus.hpp ****     //!                 bus mode is set to @ref PinMode::OUTPUT_PUSH_PULL,
 266:funsape/device/../peripheral/gpioBus.hpp ****     //!                 the selected pin output will be set to
 267:funsape/device/../peripheral/gpioBus.hpp ****     //!                 @ref LogicLevel::LOW.
 268:funsape/device/../peripheral/gpioBus.hpp ****     //! @warning    It is recommended to use this function only when the bus
 269:funsape/device/../peripheral/gpioBus.hpp ****     //!                 mode is set to @ref PinMode::OUTPUT_PUSH_PULL,
 270:funsape/device/../peripheral/gpioBus.hpp ****     //!                 otherwise, the mode of the selected pin will be changed
 271:funsape/device/../peripheral/gpioBus.hpp ****     //!                 to @ref PinMode::INPUT_FLOATING.
 272:funsape/device/../peripheral/gpioBus.hpp ****     //! @param[in]  bitIndex_p          position of the bit in the bus.
 273:funsape/device/../peripheral/gpioBus.hpp ****     //!
 274:funsape/device/../peripheral/gpioBus.hpp ****     void inlined clr(
 275:funsape/device/../peripheral/gpioBus.hpp ****             cuint8_t bitIndex_p
 276:funsape/device/../peripheral/gpioBus.hpp ****     ) const;
 277:funsape/device/../peripheral/gpioBus.hpp **** 
 278:funsape/device/../peripheral/gpioBus.hpp ****     //!
 279:funsape/device/../peripheral/gpioBus.hpp ****     //! @brief      Complements (inverts) all the GpioBus pins.
 280:funsape/device/../peripheral/gpioBus.hpp ****     //! @details    This function toggles all the pins in the output @c PORTx
 281:funsape/device/../peripheral/gpioBus.hpp ****     //!                 register. If the bus mode is set to
 282:funsape/device/../peripheral/gpioBus.hpp ****     //!                 @ref PinMode::OUTPUT_PUSH_PULL, the pins output
GAS LISTING /tmp/cc2oqvla.s 			page 12


 283:funsape/device/../peripheral/gpioBus.hpp ****     //!                 will be toggled between @ref LogicLevel::LOW and
 284:funsape/device/../peripheral/gpioBus.hpp ****     //!                 @ref LogicLevel::HIGH.
 285:funsape/device/../peripheral/gpioBus.hpp ****     //! @warning    It is recommended to use this function only when the bus
 286:funsape/device/../peripheral/gpioBus.hpp ****     //!                 mode is set to @ref PinMode::OUTPUT_PUSH_PULL,
 287:funsape/device/../peripheral/gpioBus.hpp ****     //!                 otherwise, the bus mode will be toggled between
 288:funsape/device/../peripheral/gpioBus.hpp ****     //!                 @ref PinMode::INPUT_FLOATING and
 289:funsape/device/../peripheral/gpioBus.hpp ****     //!                 @ref PinMode::INPUT_PULLED_UP.
 290:funsape/device/../peripheral/gpioBus.hpp ****     //!
 291:funsape/device/../peripheral/gpioBus.hpp ****     void inlined cpl(
 292:funsape/device/../peripheral/gpioBus.hpp ****             void
 293:funsape/device/../peripheral/gpioBus.hpp ****     ) const;
 294:funsape/device/../peripheral/gpioBus.hpp **** 
 295:funsape/device/../peripheral/gpioBus.hpp ****     //!
 296:funsape/device/../peripheral/gpioBus.hpp ****     //! @brief      Complements (inverts) one pin of the GpioBus pins.
 297:funsape/device/../peripheral/gpioBus.hpp ****     //! @details    This function toggles only one pin of the bus in the output
 298:funsape/device/../peripheral/gpioBus.hpp ****     //!                 @c PORTx register, given by @a bitIndex_p. The provided
 299:funsape/device/../peripheral/gpioBus.hpp ****     //!                 bit index @c 0 is relative to the bus first pin. If the
 300:funsape/device/../peripheral/gpioBus.hpp ****     //!                 bus mode is set to @ref PinMode::OUTPUT_PUSH_PULL,
 301:funsape/device/../peripheral/gpioBus.hpp ****     //!                 the selected pin output will be toggled between
 302:funsape/device/../peripheral/gpioBus.hpp ****     //!                 @ref LogicLevel::LOW and @ref LogicLevel::HIGH.
 303:funsape/device/../peripheral/gpioBus.hpp ****     //! @warning    It is recommended to use this function only when the bus
 304:funsape/device/../peripheral/gpioBus.hpp ****     //!                 mode is set to @ref PinMode::OUTPUT_PUSH_PULL,
 305:funsape/device/../peripheral/gpioBus.hpp ****     //!                 otherwise, the mode of the selected pin will be toggled
 306:funsape/device/../peripheral/gpioBus.hpp ****     //!                 between @ref PinMode::INPUT_FLOATING and
 307:funsape/device/../peripheral/gpioBus.hpp ****     //!                 @ref PinMode::INPUT_PULLED_UP.
 308:funsape/device/../peripheral/gpioBus.hpp ****     //! @param[in]  bitIndex_p          position of the bit in the bus.
 309:funsape/device/../peripheral/gpioBus.hpp ****     //!
 310:funsape/device/../peripheral/gpioBus.hpp ****     void inlined cpl(
 311:funsape/device/../peripheral/gpioBus.hpp ****             cuint8_t bitIndex_p
 312:funsape/device/../peripheral/gpioBus.hpp ****     ) const;
 313:funsape/device/../peripheral/gpioBus.hpp **** 
 314:funsape/device/../peripheral/gpioBus.hpp ****     //!
 315:funsape/device/../peripheral/gpioBus.hpp ****     //! @brief      Returns the GpioBus bus size.
 316:funsape/device/../peripheral/gpioBus.hpp ****     //! @details    This function returns the GpioBus bus size in bits. If the
 317:funsape/device/../peripheral/gpioBus.hpp ****     //!                 bus is was initialized, the function returns 0.
 318:funsape/device/../peripheral/gpioBus.hpp ****     //! @return     the bus size in bits, or @c 0 if the bus was not
 319:funsape/device/../peripheral/gpioBus.hpp ****     //!                 initialized.
 320:funsape/device/../peripheral/gpioBus.hpp ****     //!
 321:funsape/device/../peripheral/gpioBus.hpp ****     uint8_t inlined getBusSize(
 322:funsape/device/../peripheral/gpioBus.hpp ****             void
 323:funsape/device/../peripheral/gpioBus.hpp ****     ) const;
 324:funsape/device/../peripheral/gpioBus.hpp **** 
 325:funsape/device/../peripheral/gpioBus.hpp ****     //!
 326:funsape/device/../peripheral/gpioBus.hpp ****     //! @brief      Sets all the GpioBus pins.
 327:funsape/device/../peripheral/gpioBus.hpp ****     //! @details    This function is an alias for @ref GpioBus::set().
 328:funsape/device/../peripheral/gpioBus.hpp ****     //!
 329:funsape/device/../peripheral/gpioBus.hpp ****     void inlined high(
 330:funsape/device/../peripheral/gpioBus.hpp ****             void
 331:funsape/device/../peripheral/gpioBus.hpp ****     ) const;
 332:funsape/device/../peripheral/gpioBus.hpp **** 
 333:funsape/device/../peripheral/gpioBus.hpp ****     //!
 334:funsape/device/../peripheral/gpioBus.hpp ****     //! @brief      Sets one pin of the GpioBus pins.
 335:funsape/device/../peripheral/gpioBus.hpp ****     //! @details    This function is an alias of
 336:funsape/device/../peripheral/gpioBus.hpp ****     //!                 @ref GpioBus::set(uint8_t bitIndex_p).
 337:funsape/device/../peripheral/gpioBus.hpp ****     //! @param[in]  bitIndex_p          position of the bit in the bus.
 338:funsape/device/../peripheral/gpioBus.hpp ****     //!
 339:funsape/device/../peripheral/gpioBus.hpp ****     void inlined high(
GAS LISTING /tmp/cc2oqvla.s 			page 13


 340:funsape/device/../peripheral/gpioBus.hpp ****             cuint8_t bitIndex_p
 341:funsape/device/../peripheral/gpioBus.hpp ****     ) const;
 342:funsape/device/../peripheral/gpioBus.hpp **** 
 343:funsape/device/../peripheral/gpioBus.hpp ****     //!
 344:funsape/device/../peripheral/gpioBus.hpp ****     //! @brief      Checks if the GpioBus is initialized.
 345:funsape/device/../peripheral/gpioBus.hpp ****     //! @details    This function checks if the GpioBus object was successfully
 346:funsape/device/../peripheral/gpioBus.hpp ****     //!                 initialized.
 347:funsape/device/../peripheral/gpioBus.hpp ****     //! @retval     true                if the object is initialized.
 348:funsape/device/../peripheral/gpioBus.hpp ****     //! @retval     false               if the object is not initialized.
 349:funsape/device/../peripheral/gpioBus.hpp ****     //!
 350:funsape/device/../peripheral/gpioBus.hpp ****     bool_t inlined isInitialized(
 351:funsape/device/../peripheral/gpioBus.hpp ****             void
 352:funsape/device/../peripheral/gpioBus.hpp ****     ) const;
 353:funsape/device/../peripheral/gpioBus.hpp **** 
 354:funsape/device/../peripheral/gpioBus.hpp ****     //!
 355:funsape/device/../peripheral/gpioBus.hpp ****     //! @brief      Clears all the GpioBus pins.
 356:funsape/device/../peripheral/gpioBus.hpp ****     //! @details    This function is an alias for @ref GpioBus::clr().
 357:funsape/device/../peripheral/gpioBus.hpp ****     //!
 358:funsape/device/../peripheral/gpioBus.hpp ****     void inlined low(
 359:funsape/device/../peripheral/gpioBus.hpp ****             void
 360:funsape/device/../peripheral/gpioBus.hpp ****     ) const;
 361:funsape/device/../peripheral/gpioBus.hpp **** 
 362:funsape/device/../peripheral/gpioBus.hpp ****     //!
 363:funsape/device/../peripheral/gpioBus.hpp ****     //! @brief      Clears one pin of the GpioBus pins.
 364:funsape/device/../peripheral/gpioBus.hpp ****     //! @details    This function is an alias of
 365:funsape/device/../peripheral/gpioBus.hpp ****     //!                 @ref GpioBus::clr(uint8_t bitIndex_p).
 366:funsape/device/../peripheral/gpioBus.hpp ****     //! @param[in]  bitIndex_p          position of the bit in the bus.
 367:funsape/device/../peripheral/gpioBus.hpp ****     //!
 368:funsape/device/../peripheral/gpioBus.hpp ****     void inlined low(
 369:funsape/device/../peripheral/gpioBus.hpp ****             cuint8_t bitIndex_p
 370:funsape/device/../peripheral/gpioBus.hpp ****     ) const;
 371:funsape/device/../peripheral/gpioBus.hpp **** 
 372:funsape/device/../peripheral/gpioBus.hpp ****     //!
 373:funsape/device/../peripheral/gpioBus.hpp ****     //! @brief       Reads the GpioBus value.
 374:funsape/device/../peripheral/gpioBus.hpp ****     //! @details     This function returns the logic level of all the pins of the
 375:funsape/device/../peripheral/gpioBus.hpp ****     //!                  bus. Since it returns the value of the input @c PINx
 376:funsape/device/../peripheral/gpioBus.hpp ****     //!                  register, this function can be used with any
 377:funsape/device/../peripheral/gpioBus.hpp ****     //!                  @ref PinMode selection.
 378:funsape/device/../peripheral/gpioBus.hpp ****     //! @return      the logic values in the bus pins, shiftted to bit position
 379:funsape/device/../peripheral/gpioBus.hpp ****     //!                  0.
 380:funsape/device/../peripheral/gpioBus.hpp ****     //!
 381:funsape/device/../peripheral/gpioBus.hpp ****     uint8_t inlined read(
 382:funsape/device/../peripheral/gpioBus.hpp ****             void
 383:funsape/device/../peripheral/gpioBus.hpp ****     ) const;
 384:funsape/device/../peripheral/gpioBus.hpp **** 
 385:funsape/device/../peripheral/gpioBus.hpp ****     //!
 386:funsape/device/../peripheral/gpioBus.hpp ****     //! @brief      Sets all the GpioBus pins.
 387:funsape/device/../peripheral/gpioBus.hpp ****     //! @details    This function sets all the pins of the bus in the output
 388:funsape/device/../peripheral/gpioBus.hpp ****     //!                 @c PORTx register. If the bus mode is set to
 389:funsape/device/../peripheral/gpioBus.hpp ****     //!                 @ref PinMode::OUTPUT_PUSH_PULL, the pin outputs
 390:funsape/device/../peripheral/gpioBus.hpp ****     //!                 will be set to @ref LogicLevel::HIGH.
 391:funsape/device/../peripheral/gpioBus.hpp ****     //! @warning    It is recommended to use this function only when the bus
 392:funsape/device/../peripheral/gpioBus.hpp ****     //!                 mode is set to @ref PinMode::OUTPUT_PUSH_PULL,
 393:funsape/device/../peripheral/gpioBus.hpp ****     //!                 otherwise, the bus mode will be changed to
 394:funsape/device/../peripheral/gpioBus.hpp ****     //!                 @ref PinMode::INPUT_PULLED_UP.
 395:funsape/device/../peripheral/gpioBus.hpp ****     //!
 396:funsape/device/../peripheral/gpioBus.hpp ****     void inlined set(
GAS LISTING /tmp/cc2oqvla.s 			page 14


 397:funsape/device/../peripheral/gpioBus.hpp ****             void
 398:funsape/device/../peripheral/gpioBus.hpp ****     ) const;
 399:funsape/device/../peripheral/gpioBus.hpp **** 
 400:funsape/device/../peripheral/gpioBus.hpp **** 
 401:funsape/device/../peripheral/gpioBus.hpp ****     //!
 402:funsape/device/../peripheral/gpioBus.hpp ****     //! @brief      Sets one pin of the GpioBus pins.
 403:funsape/device/../peripheral/gpioBus.hpp ****     //! @details    This function sets only one pin of the bus in the output
 404:funsape/device/../peripheral/gpioBus.hpp ****     //!                 @c PORTx register, given by @a bitIndex_p. The provided
 405:funsape/device/../peripheral/gpioBus.hpp ****     //!                 bit index @c 0 is relative to the bus first pin. If the
 406:funsape/device/../peripheral/gpioBus.hpp ****     //!                 bus mode is set to @ref PinMode::OUTPUT_PUSH_PULL,
 407:funsape/device/../peripheral/gpioBus.hpp ****     //!                 the selected pin output will be set to
 408:funsape/device/../peripheral/gpioBus.hpp ****     //!                 @ref LogicLevel::HIGH.
 409:funsape/device/../peripheral/gpioBus.hpp ****     //! @warning    It is recommended to use this function only when the bus
 410:funsape/device/../peripheral/gpioBus.hpp ****     //!                 mode is set to @ref PinMode::OUTPUT_PUSH_PULL,
 411:funsape/device/../peripheral/gpioBus.hpp ****     //!                 otherwise, the mode of the selected pin will be changed
 412:funsape/device/../peripheral/gpioBus.hpp ****     //!                 to @ref PinMode::INPUT_PULLED_UP.
 413:funsape/device/../peripheral/gpioBus.hpp ****     //! @param[in]  bitIndex_p          position of the bit in the bus.
 414:funsape/device/../peripheral/gpioBus.hpp ****     //!
 415:funsape/device/../peripheral/gpioBus.hpp ****     void inlined set(
 416:funsape/device/../peripheral/gpioBus.hpp ****             cuint8_t bitIndex_p
 417:funsape/device/../peripheral/gpioBus.hpp ****     ) const;
 418:funsape/device/../peripheral/gpioBus.hpp **** 
 419:funsape/device/../peripheral/gpioBus.hpp ****     //!
 420:funsape/device/../peripheral/gpioBus.hpp ****     //! @brief      Sets the GpioBus operation mode.
 421:funsape/device/../peripheral/gpioBus.hpp ****     //! @details    This function sets the GPIO bus operation mode to the given
 422:funsape/device/../peripheral/gpioBus.hpp ****     //!                 @a mode_p.
 423:funsape/device/../peripheral/gpioBus.hpp ****     //! @note       When the operation mode is changed to
 424:funsape/device/../peripheral/gpioBus.hpp ****     //!                 @ref PinMode::INPUT_FLOATING or to
 425:funsape/device/../peripheral/gpioBus.hpp ****     //!                 @ref PinMode::INPUT_PULLED_UP, both output @c PORTx
 426:funsape/device/../peripheral/gpioBus.hpp ****     //!                 and direction @c DDRx registers are changed. However,
 427:funsape/device/../peripheral/gpioBus.hpp ****     //!                 when the mode is changed to
 428:funsape/device/../peripheral/gpioBus.hpp ****     //!                 @ref PinMode::OUTPUT_PUSH_PULL, only the direction
 429:funsape/device/../peripheral/gpioBus.hpp ****     //!                 @c DDRx register is changed, therefore, if a specific
 430:funsape/device/../peripheral/gpioBus.hpp ****     //!                 output logic level is desired on the bus pins, the user
 431:funsape/device/../peripheral/gpioBus.hpp ****     //!                 must call the @ref clr(), @ref set() or @ref write().
 432:funsape/device/../peripheral/gpioBus.hpp ****     //! @param[in]  mode_p              @ref PinMode operation mode.
 433:funsape/device/../peripheral/gpioBus.hpp ****     //! @retval     true                if success.
 434:funsape/device/../peripheral/gpioBus.hpp ****     //! @retval     false               if an error occurred. Retrieve the error
 435:funsape/device/../peripheral/gpioBus.hpp ****     //!                                     by calling @ref getLastError().
 436:funsape/device/../peripheral/gpioBus.hpp ****     //! @par Error codes:
 437:funsape/device/../peripheral/gpioBus.hpp ****     //!
 438:funsape/device/../peripheral/gpioBus.hpp ****     //! | Error code                  | Meaning                          |
 439:funsape/device/../peripheral/gpioBus.hpp ****     //! |:----------------------------|:---------------------------------|
 440:funsape/device/../peripheral/gpioBus.hpp ****     //! | @ref Error::NONE            | Success. No erros were detected. |
 441:funsape/device/../peripheral/gpioBus.hpp ****     //! | @ref Error::NOT_INITIALIZED | The bus is not initialized.      |
 442:funsape/device/../peripheral/gpioBus.hpp ****     //!
 443:funsape/device/../peripheral/gpioBus.hpp ****     //!
 444:funsape/device/../peripheral/gpioBus.hpp ****     bool_t setMode(
 445:funsape/device/../peripheral/gpioBus.hpp ****             const PinMode mode_p
 446:funsape/device/../peripheral/gpioBus.hpp ****     );
 447:funsape/device/../peripheral/gpioBus.hpp **** 
 448:funsape/device/../peripheral/gpioBus.hpp ****     //!
 449:funsape/device/../peripheral/gpioBus.hpp ****     //! @brief      Complements (inverts) all the GpioBus pins.
 450:funsape/device/../peripheral/gpioBus.hpp ****     //! @details    This function is an alias for @ref GpioBus::cpl().
 451:funsape/device/../peripheral/gpioBus.hpp ****     //!
 452:funsape/device/../peripheral/gpioBus.hpp ****     void inlined toggle(
 453:funsape/device/../peripheral/gpioBus.hpp ****             void
GAS LISTING /tmp/cc2oqvla.s 			page 15


 454:funsape/device/../peripheral/gpioBus.hpp ****     ) const;
 455:funsape/device/../peripheral/gpioBus.hpp **** 
 456:funsape/device/../peripheral/gpioBus.hpp ****     //!
 457:funsape/device/../peripheral/gpioBus.hpp ****     //! @brief      Complements (inverts) one pin of the GpioBus pins.
 458:funsape/device/../peripheral/gpioBus.hpp ****     //! @details    This function is an alias of
 459:funsape/device/../peripheral/gpioBus.hpp ****     //!                 @ref GpioBus::cpl(uint8_t bitIndex_p).
 460:funsape/device/../peripheral/gpioBus.hpp ****     //! @param[in]  bitIndex_p          position of the bit in the bus.
 461:funsape/device/../peripheral/gpioBus.hpp ****     //!
 462:funsape/device/../peripheral/gpioBus.hpp ****     void inlined toggle(
 463:funsape/device/../peripheral/gpioBus.hpp ****             cuint8_t bitIndex_p
 464:funsape/device/../peripheral/gpioBus.hpp ****     ) const;
 465:funsape/device/../peripheral/gpioBus.hpp **** 
 466:funsape/device/../peripheral/gpioBus.hpp **** 
 467:funsape/device/../peripheral/gpioBus.hpp ****     //!
 468:funsape/device/../peripheral/gpioBus.hpp ****     //! @brief      Writes data at the GpioBus pins.
 469:funsape/device/../peripheral/gpioBus.hpp ****     //! @details    This function writes the logic levels given by @a data_p at
 470:funsape/device/../peripheral/gpioBus.hpp ****     //!                 the of bus pins. The provided @a data_p must be relative
 471:funsape/device/../peripheral/gpioBus.hpp ****     //!                 to the bus first pin. If the bus mode is set to
 472:funsape/device/../peripheral/gpioBus.hpp ****     //!                 @ref PinMode::OUTPUT_PUSH_PULL, the pin outputs
 473:funsape/device/../peripheral/gpioBus.hpp ****     //!                 will be set to @ref LogicLevel::LOW or
 474:funsape/device/../peripheral/gpioBus.hpp ****     //!                 @ref LogicLevel::HIGH according to the bit value in
 475:funsape/device/../peripheral/gpioBus.hpp ****     //!                 @a data_p.
 476:funsape/device/../peripheral/gpioBus.hpp ****     //! @warning    It is recommended to use this function only when the bus
 477:funsape/device/../peripheral/gpioBus.hpp ****     //!                 mode is set to @ref PinMode::OUTPUT_PUSH_PULL,
 478:funsape/device/../peripheral/gpioBus.hpp ****     //!                 otherwise, the mode of some pins will be changed to
 479:funsape/device/../peripheral/gpioBus.hpp ****     //!                 @ref PinMode::INPUT_FLOATING and the some will be
 480:funsape/device/../peripheral/gpioBus.hpp ****     //!                 changed to @ref PinMode::INPUT_PULLED_UP.
 481:funsape/device/../peripheral/gpioBus.hpp ****     //! @param[in]  data_p              values to be written at the bus.
 482:funsape/device/../peripheral/gpioBus.hpp ****     //! @retval     true                if success.
 483:funsape/device/../peripheral/gpioBus.hpp ****     //! @retval     false               if an error occurred. Retrieve the error
 484:funsape/device/../peripheral/gpioBus.hpp ****     //!                                     by calling @ref getLastError().
 485:funsape/device/../peripheral/gpioBus.hpp ****     //! @par Error codes:
 486:funsape/device/../peripheral/gpioBus.hpp ****     //!
 487:funsape/device/../peripheral/gpioBus.hpp ****     //! | Error code                  | Meaning                          |
 488:funsape/device/../peripheral/gpioBus.hpp ****     //! |:----------------------------|:---------------------------------|
 489:funsape/device/../peripheral/gpioBus.hpp ****     //! | @ref Error::NONE            | Success. No erros were detected. |
 490:funsape/device/../peripheral/gpioBus.hpp ****     //! | @ref Error::NOT_INITIALIZED | The bus is not initialized.      |
 491:funsape/device/../peripheral/gpioBus.hpp ****     //!
 492:funsape/device/../peripheral/gpioBus.hpp ****     bool_t write(
 493:funsape/device/../peripheral/gpioBus.hpp ****             cuint8_t data_p
 494:funsape/device/../peripheral/gpioBus.hpp ****     );
 495:funsape/device/../peripheral/gpioBus.hpp **** 
 496:funsape/device/../peripheral/gpioBus.hpp **** private:
 497:funsape/device/../peripheral/gpioBus.hpp ****     // NONE
 498:funsape/device/../peripheral/gpioBus.hpp **** 
 499:funsape/device/../peripheral/gpioBus.hpp **** protected:
 500:funsape/device/../peripheral/gpioBus.hpp ****     // NONE
 501:funsape/device/../peripheral/gpioBus.hpp **** 
 502:funsape/device/../peripheral/gpioBus.hpp **** // -------------------------------------------------------------------------
 503:funsape/device/../peripheral/gpioBus.hpp **** // Properties --------------------------------------------------------------
 504:funsape/device/../peripheral/gpioBus.hpp **** 
 505:funsape/device/../peripheral/gpioBus.hpp **** private:
 506:funsape/device/../peripheral/gpioBus.hpp ****     //     //////////////////    HARDWARE LINKAGE     ///////////////////     //
 507:funsape/device/../peripheral/gpioBus.hpp **** 
 508:funsape/device/../peripheral/gpioBus.hpp ****     ioRegAddress_t  _regDir;                    //!< Address to the direction @c DDRx register.
 509:funsape/device/../peripheral/gpioBus.hpp ****     ioRegAddress_t  _regOut;                    //!< Address to the output @c PORTx register.
 510:funsape/device/../peripheral/gpioBus.hpp ****     ioRegAddress_t  _regIn;                     //!< Address to the input @c PINx register.
GAS LISTING /tmp/cc2oqvla.s 			page 16


 511:funsape/device/../peripheral/gpioBus.hpp ****     ioPinMask_t     _pinMask;                   //!< Pin mask.
 512:funsape/device/../peripheral/gpioBus.hpp ****     ioPinIndex_t    _pinIndex;                  //!< Pin index.
 513:funsape/device/../peripheral/gpioBus.hpp **** 
 514:funsape/device/../peripheral/gpioBus.hpp ****     //     ////////////////////   CONFIGURATION     /////////////////////     //
 515:funsape/device/../peripheral/gpioBus.hpp **** 
 516:funsape/device/../peripheral/gpioBus.hpp ****     uint8_t         _busSize            : 4;    //!< Bus size in bits.
 517:funsape/device/../peripheral/gpioBus.hpp **** 
 518:funsape/device/../peripheral/gpioBus.hpp ****     //     /////////////////    CONTROL AND STATUS     //////////////////     //
 519:funsape/device/../peripheral/gpioBus.hpp **** 
 520:funsape/device/../peripheral/gpioBus.hpp ****     bool_t          _isInitialized      : 1;    //!< Initialization flag.
 521:funsape/device/../peripheral/gpioBus.hpp ****     Error           _lastError;                 //!< Last error.
 522:funsape/device/../peripheral/gpioBus.hpp **** 
 523:funsape/device/../peripheral/gpioBus.hpp **** protected:
 524:funsape/device/../peripheral/gpioBus.hpp ****     // NONE
 525:funsape/device/../peripheral/gpioBus.hpp **** 
 526:funsape/device/../peripheral/gpioBus.hpp **** }; // class GpioBus
 527:funsape/device/../peripheral/gpioBus.hpp **** 
 528:funsape/device/../peripheral/gpioBus.hpp **** // =============================================================================
 529:funsape/device/../peripheral/gpioBus.hpp **** // Inlined class functions
 530:funsape/device/../peripheral/gpioBus.hpp **** // =============================================================================
 531:funsape/device/../peripheral/gpioBus.hpp **** 
 532:funsape/device/../peripheral/gpioBus.hpp **** //!
 533:funsape/device/../peripheral/gpioBus.hpp **** //! @cond
 534:funsape/device/../peripheral/gpioBus.hpp **** //!
 535:funsape/device/../peripheral/gpioBus.hpp **** 
 536:funsape/device/../peripheral/gpioBus.hpp **** //     /////////////////     CONTROL AND STATUS     /////////////////     //
 537:funsape/device/../peripheral/gpioBus.hpp **** 
 538:funsape/device/../peripheral/gpioBus.hpp **** Error inlined GpioBus::getLastError(void) const
 539:funsape/device/../peripheral/gpioBus.hpp **** {
 540:funsape/device/../peripheral/gpioBus.hpp ****     // Returns last error
 541:funsape/device/../peripheral/gpioBus.hpp ****     return this->_lastError;
 542:funsape/device/../peripheral/gpioBus.hpp **** }
 543:funsape/device/../peripheral/gpioBus.hpp **** 
 544:funsape/device/../peripheral/gpioBus.hpp **** //     /////////////////    PIN RELATED METHODS     /////////////////     //
 545:funsape/device/../peripheral/gpioBus.hpp **** 
 546:funsape/device/../peripheral/gpioBus.hpp **** void inlined GpioBus::clr(void) const
 547:funsape/device/../peripheral/gpioBus.hpp **** {
 548:funsape/device/../peripheral/gpioBus.hpp ****     // Clear pin
 549:funsape/device/../peripheral/gpioBus.hpp ****     clrMask(*(this->_regOut), (uint8_t)this->_pinMask);
 550:funsape/device/../peripheral/gpioBus.hpp **** 
 551:funsape/device/../peripheral/gpioBus.hpp ****     // Returns
 552:funsape/device/../peripheral/gpioBus.hpp ****     return;
 553:funsape/device/../peripheral/gpioBus.hpp **** }
 554:funsape/device/../peripheral/gpioBus.hpp **** 
 555:funsape/device/../peripheral/gpioBus.hpp **** void inlined GpioBus::clr(cuint8_t bitIndex_p) const
 556:funsape/device/../peripheral/gpioBus.hpp **** {
 557:funsape/device/../peripheral/gpioBus.hpp ****     // Clear pin
 558:funsape/device/../peripheral/gpioBus.hpp ****     clrBit(*(this->_regOut), (bitIndex_p + (uint8_t)this->_pinIndex));
 559:funsape/device/../peripheral/gpioBus.hpp **** 
 560:funsape/device/../peripheral/gpioBus.hpp ****     // Returns
 561:funsape/device/../peripheral/gpioBus.hpp ****     return;
 562:funsape/device/../peripheral/gpioBus.hpp **** }
 563:funsape/device/../peripheral/gpioBus.hpp **** 
 564:funsape/device/../peripheral/gpioBus.hpp **** void inlined GpioBus::cpl(void) const
 565:funsape/device/../peripheral/gpioBus.hpp **** {
 566:funsape/device/../peripheral/gpioBus.hpp ****     // Toggle pin
 567:funsape/device/../peripheral/gpioBus.hpp ****     cplMask(*(this->_regOut), (uint8_t)this->_pinMask);
GAS LISTING /tmp/cc2oqvla.s 			page 17


 568:funsape/device/../peripheral/gpioBus.hpp **** 
 569:funsape/device/../peripheral/gpioBus.hpp ****     // Returns
 570:funsape/device/../peripheral/gpioBus.hpp ****     return;
 571:funsape/device/../peripheral/gpioBus.hpp **** }
 572:funsape/device/../peripheral/gpioBus.hpp **** 
 573:funsape/device/../peripheral/gpioBus.hpp **** void inlined GpioBus::cpl(cuint8_t bitIndex_p) const
 574:funsape/device/../peripheral/gpioBus.hpp **** {
 575:funsape/device/../peripheral/gpioBus.hpp ****     // Clear pin
 576:funsape/device/../peripheral/gpioBus.hpp ****     cplBit(*(this->_regOut), (bitIndex_p + (uint8_t)this->_pinIndex));
 577:funsape/device/../peripheral/gpioBus.hpp **** 
 578:funsape/device/../peripheral/gpioBus.hpp ****     // Returns
 579:funsape/device/../peripheral/gpioBus.hpp ****     return;
 580:funsape/device/../peripheral/gpioBus.hpp **** }
 581:funsape/device/../peripheral/gpioBus.hpp **** 
 582:funsape/device/../peripheral/gpioBus.hpp **** uint8_t inlined GpioBus::getBusSize(void) const
 583:funsape/device/../peripheral/gpioBus.hpp **** {
 584:funsape/device/../peripheral/gpioBus.hpp ****     // Returns value
 585:funsape/device/../peripheral/gpioBus.hpp ****     return ((this->_isInitialized) ? (this->_busSize) : (0));
 586:funsape/device/../peripheral/gpioBus.hpp **** }
 587:funsape/device/../peripheral/gpioBus.hpp **** 
 588:funsape/device/../peripheral/gpioBus.hpp **** void inlined GpioBus::high(void) const
 589:funsape/device/../peripheral/gpioBus.hpp **** {
 590:funsape/device/../peripheral/gpioBus.hpp ****     this->set();
 591:funsape/device/../peripheral/gpioBus.hpp **** 
 592:funsape/device/../peripheral/gpioBus.hpp ****     return;
 593:funsape/device/../peripheral/gpioBus.hpp **** }
 594:funsape/device/../peripheral/gpioBus.hpp **** 
 595:funsape/device/../peripheral/gpioBus.hpp **** void inlined GpioBus::high(cuint8_t bitIndex_p) const
 596:funsape/device/../peripheral/gpioBus.hpp **** {
 597:funsape/device/../peripheral/gpioBus.hpp ****     this->set(bitIndex_p);
 598:funsape/device/../peripheral/gpioBus.hpp **** 
 599:funsape/device/../peripheral/gpioBus.hpp ****     return;
 600:funsape/device/../peripheral/gpioBus.hpp **** }
 601:funsape/device/../peripheral/gpioBus.hpp **** 
 602:funsape/device/../peripheral/gpioBus.hpp **** bool_t inlined GpioBus::isInitialized(void) const
 603:funsape/device/../peripheral/gpioBus.hpp **** {
 604:funsape/device/../peripheral/gpioBus.hpp ****     return this->_isInitialized;
 605:funsape/device/../peripheral/gpioBus.hpp **** }
 606:funsape/device/../peripheral/gpioBus.hpp **** 
 607:funsape/device/../peripheral/gpioBus.hpp **** void inlined GpioBus::low(void) const
 608:funsape/device/../peripheral/gpioBus.hpp **** {
 609:funsape/device/../peripheral/gpioBus.hpp ****     this->clr();
 610:funsape/device/../peripheral/gpioBus.hpp **** 
 611:funsape/device/../peripheral/gpioBus.hpp ****     return;
 612:funsape/device/../peripheral/gpioBus.hpp **** }
 613:funsape/device/../peripheral/gpioBus.hpp **** 
 614:funsape/device/../peripheral/gpioBus.hpp **** void inlined GpioBus::low(cuint8_t bitIndex_p) const
 615:funsape/device/../peripheral/gpioBus.hpp **** {
 616:funsape/device/../peripheral/gpioBus.hpp ****     this->clr(bitIndex_p);
 617:funsape/device/../peripheral/gpioBus.hpp **** 
 618:funsape/device/../peripheral/gpioBus.hpp ****     return;
 619:funsape/device/../peripheral/gpioBus.hpp **** }
 620:funsape/device/../peripheral/gpioBus.hpp **** 
 621:funsape/device/../peripheral/gpioBus.hpp **** uint8_t inlined GpioBus::read(void) const
 622:funsape/device/../peripheral/gpioBus.hpp **** {
 623:funsape/device/../peripheral/gpioBus.hpp ****     return (uint8_t)((*(this->_regIn) & (uint8_t)this->_pinMask) >> (uint8_t)this->_pinIndex);
 624:funsape/device/../peripheral/gpioBus.hpp **** }
GAS LISTING /tmp/cc2oqvla.s 			page 18


 625:funsape/device/../peripheral/gpioBus.hpp **** 
 626:funsape/device/../peripheral/gpioBus.hpp **** void inlined GpioBus::set(void) const
 190               		.loc 2 626 14 is_stmt 1 view .LVU41
 191               	.LBB35:
 627:funsape/device/../peripheral/gpioBus.hpp **** {
 628:funsape/device/../peripheral/gpioBus.hpp ****     // Set pin
 629:funsape/device/../peripheral/gpioBus.hpp ****     setMask(*(this->_regOut), (uint8_t)this->_pinMask);
 192               		.loc 2 629 5 view .LVU42
 193               		.loc 2 629 5 view .LVU43
 194 0028 1296      		adiw r26,2
 195               	.LVL9:
 196               		.loc 2 629 5 is_stmt 0 view .LVU44
 197 002a ED91      		ld r30,X+
 198 002c FD91      		ld r31,X+
 199 002e 8081      		ld r24,Z
 200 0030 1296      		adiw r26,2
 201 0032 9C91      		ld r25,X
 202 0034 892B      		or r24,r25
 203 0036 8083      		st Z,r24
 204               	.LVL10:
 205               		.loc 2 629 5 is_stmt 1 view .LVU45
 630:funsape/device/../peripheral/gpioBus.hpp **** 
 631:funsape/device/../peripheral/gpioBus.hpp ****     // Returns
 632:funsape/device/../peripheral/gpioBus.hpp ****     return;
 206               		.loc 2 632 5 view .LVU46
 207               	.L9:
 208               		.loc 2 632 5 is_stmt 0 view .LVU47
 209               	.LBE35:
 210               	.LBE34:
 160:funsape/device/sevenSegmentsMuxDisplay.cpp ****     } else {
 161:funsape/device/sevenSegmentsMuxDisplay.cpp ****         this->_gpioDataBus->clr();
 162:funsape/device/sevenSegmentsMuxDisplay.cpp ****     }
 163:funsape/device/sevenSegmentsMuxDisplay.cpp ****     this->_gpioDataBus->setMode(PinMode::OUTPUT_PUSH_PULL);
 211               		.loc 1 163 5 is_stmt 1 view .LVU48
 212               		.loc 1 163 32 is_stmt 0 view .LVU49
 213 0038 62E0      		ldi r22,lo8(2)
 214               	.LVL11:
 215               		.loc 1 163 32 view .LVU50
 216 003a 8A81      		ldd r24,Y+2
 217 003c 9B81      		ldd r25,Y+3
 218 003e 0E94 0000 		call _ZN7GpioBus7setModeE7PinMode
 219               	.LVL12:
 164:funsape/device/sevenSegmentsMuxDisplay.cpp **** 
 165:funsape/device/sevenSegmentsMuxDisplay.cpp ****     // I/O initialization (Control Bus)
 166:funsape/device/sevenSegmentsMuxDisplay.cpp ****     if(this->_controlActiveLevel == LogicLevel::HIGH) {
 220               		.loc 1 166 5 is_stmt 1 view .LVU51
 221               		.loc 1 166 34 is_stmt 0 view .LVU52
 222 0042 8F81      		ldd r24,Y+7
 223               		.loc 1 166 5 view .LVU53
 224 0044 80FF      		sbrs r24,0
 225 0046 00C0      		rjmp .L10
 167:funsape/device/sevenSegmentsMuxDisplay.cpp ****         this->_gpioControlBus->clr();
 226               		.loc 1 167 9 is_stmt 1 view .LVU54
 227               		.loc 1 167 15 is_stmt 0 view .LVU55
 228 0048 A881      		ld r26,Y
 229 004a B981      		ldd r27,Y+1
 230               	.LVL13:
GAS LISTING /tmp/cc2oqvla.s 			page 19


 231               	.LBB36:
 232               	.LBI36:
 546:funsape/device/../peripheral/gpioBus.hpp **** {
 233               		.loc 2 546 14 is_stmt 1 view .LVU56
 234               	.LBB37:
 549:funsape/device/../peripheral/gpioBus.hpp **** 
 235               		.loc 2 549 5 view .LVU57
 549:funsape/device/../peripheral/gpioBus.hpp **** 
 236               		.loc 2 549 5 view .LVU58
 237 004c 1296      		adiw r26,2
 238               	.LVL14:
 549:funsape/device/../peripheral/gpioBus.hpp **** 
 239               		.loc 2 549 5 is_stmt 0 view .LVU59
 240 004e ED91      		ld r30,X+
 241 0050 FD91      		ld r31,X+
 242 0052 9081      		ld r25,Z
 243 0054 1296      		adiw r26,2
 244 0056 8C91      		ld r24,X
 245 0058 8095      		com r24
 246 005a 8923      		and r24,r25
 247 005c 8083      		st Z,r24
 248               	.LVL15:
 549:funsape/device/../peripheral/gpioBus.hpp **** 
 249               		.loc 2 549 5 is_stmt 1 view .LVU60
 552:funsape/device/../peripheral/gpioBus.hpp **** }
 250               		.loc 2 552 5 view .LVU61
 251               	.L11:
 552:funsape/device/../peripheral/gpioBus.hpp **** }
 252               		.loc 2 552 5 is_stmt 0 view .LVU62
 253               	.LBE37:
 254               	.LBE36:
 168:funsape/device/sevenSegmentsMuxDisplay.cpp ****     } else {
 169:funsape/device/sevenSegmentsMuxDisplay.cpp ****         this->_gpioControlBus->set();
 170:funsape/device/sevenSegmentsMuxDisplay.cpp ****     }
 171:funsape/device/sevenSegmentsMuxDisplay.cpp ****     this->_gpioControlBus->setMode(PinMode::OUTPUT_PUSH_PULL);
 255               		.loc 1 171 5 is_stmt 1 view .LVU63
 256               		.loc 1 171 35 is_stmt 0 view .LVU64
 257 005e 62E0      		ldi r22,lo8(2)
 258 0060 8881      		ld r24,Y
 259 0062 9981      		ldd r25,Y+1
 260 0064 0E94 0000 		call _ZN7GpioBus7setModeE7PinMode
 261               	.LVL16:
 172:funsape/device/sevenSegmentsMuxDisplay.cpp **** 
 173:funsape/device/sevenSegmentsMuxDisplay.cpp ****     // Updates data members
 174:funsape/device/sevenSegmentsMuxDisplay.cpp ****     this->_displayType                  = displayType_p;
 262               		.loc 1 174 5 is_stmt 1 view .LVU65
 263               		.loc 1 174 41 is_stmt 0 view .LVU66
 264 0068 8989      		ldd r24,Y+17
 265 006a 00FB      		bst r16,0
 266 006c 80F9      		bld r24,0
 267 006e 898B      		std Y+17,r24
 175:funsape/device/sevenSegmentsMuxDisplay.cpp ****     this->_isInitialized                = true;
 268               		.loc 1 175 5 is_stmt 1 view .LVU67
 269               		.loc 1 175 41 is_stmt 0 view .LVU68
 270 0070 8C81      		ldd r24,Y+4
 271 0072 8160      		ori r24,lo8(1<<0)
 272 0074 8C83      		std Y+4,r24
GAS LISTING /tmp/cc2oqvla.s 			page 20


 176:funsape/device/sevenSegmentsMuxDisplay.cpp **** 
 177:funsape/device/sevenSegmentsMuxDisplay.cpp ****     // Returns successfully
 178:funsape/device/sevenSegmentsMuxDisplay.cpp ****     this->_lastError = Error::NONE;
 273               		.loc 1 178 5 is_stmt 1 view .LVU69
 274               		.loc 1 178 22 is_stmt 0 view .LVU70
 275 0076 1E82      		std Y+6,__zero_reg__
 276 0078 1D82      		std Y+5,__zero_reg__
 179:funsape/device/sevenSegmentsMuxDisplay.cpp ****     debugMessage(Error::NONE, Debug::CodeIndex::SEVEN_SEGMENTS_MUX_DISPLAY_MODULE);
 277               		.loc 1 179 5 is_stmt 1 view .LVU71
 180:funsape/device/sevenSegmentsMuxDisplay.cpp ****     return true;
 278               		.loc 1 180 5 view .LVU72
 279               	.L5:
 181:funsape/device/sevenSegmentsMuxDisplay.cpp **** }
 280               		.loc 1 181 1 is_stmt 0 view .LVU73
 281 007a 812F      		mov r24,r17
 282               	/* epilogue start */
 283 007c DF91      		pop r29
 284 007e CF91      		pop r28
 285               	.LVL17:
 286               		.loc 1 181 1 view .LVU74
 287 0080 1F91      		pop r17
 288 0082 0F91      		pop r16
 289               	.LVL18:
 290               		.loc 1 181 1 view .LVU75
 291 0084 0895      		ret
 292               	.LVL19:
 293               	.L12:
 152:funsape/device/sevenSegmentsMuxDisplay.cpp ****         debugMessage(Error::GPIO_PORT_NOT_SET, Debug::CodeIndex::SEVEN_SEGMENTS_MUX_DISPLAY_MODULE)
 294               		.loc 1 152 9 is_stmt 1 view .LVU76
 152:funsape/device/sevenSegmentsMuxDisplay.cpp ****         debugMessage(Error::GPIO_PORT_NOT_SET, Debug::CodeIndex::SEVEN_SEGMENTS_MUX_DISPLAY_MODULE)
 295               		.loc 1 152 26 is_stmt 0 view .LVU77
 296 0086 85E8      		ldi r24,lo8(-123)
 297 0088 90E0      		ldi r25,0
 298 008a 9E83      		std Y+6,r25
 299 008c 8D83      		std Y+5,r24
 153:funsape/device/sevenSegmentsMuxDisplay.cpp ****         return false;
 300               		.loc 1 153 9 is_stmt 1 view .LVU78
 154:funsape/device/sevenSegmentsMuxDisplay.cpp ****     }
 301               		.loc 1 154 9 view .LVU79
 154:funsape/device/sevenSegmentsMuxDisplay.cpp ****     }
 302               		.loc 1 154 16 is_stmt 0 view .LVU80
 303 008e 00C0      		rjmp .L5
 304               	.L8:
 161:funsape/device/sevenSegmentsMuxDisplay.cpp ****     }
 305               		.loc 1 161 9 is_stmt 1 view .LVU81
 161:funsape/device/sevenSegmentsMuxDisplay.cpp ****     }
 306               		.loc 1 161 15 is_stmt 0 view .LVU82
 307 0090 AA81      		ldd r26,Y+2
 308 0092 BB81      		ldd r27,Y+3
 309               	.LVL20:
 310               	.LBB38:
 311               	.LBI38:
 546:funsape/device/../peripheral/gpioBus.hpp **** {
 312               		.loc 2 546 14 is_stmt 1 view .LVU83
 313               	.LBB39:
 549:funsape/device/../peripheral/gpioBus.hpp **** 
 314               		.loc 2 549 5 view .LVU84
GAS LISTING /tmp/cc2oqvla.s 			page 21


 549:funsape/device/../peripheral/gpioBus.hpp **** 
 315               		.loc 2 549 5 view .LVU85
 316 0094 1296      		adiw r26,2
 317               	.LVL21:
 549:funsape/device/../peripheral/gpioBus.hpp **** 
 318               		.loc 2 549 5 is_stmt 0 view .LVU86
 319 0096 ED91      		ld r30,X+
 320 0098 FD91      		ld r31,X+
 321 009a 9081      		ld r25,Z
 322 009c 1296      		adiw r26,2
 323 009e 8C91      		ld r24,X
 324 00a0 8095      		com r24
 325 00a2 8923      		and r24,r25
 326 00a4 8083      		st Z,r24
 327               	.LVL22:
 549:funsape/device/../peripheral/gpioBus.hpp **** 
 328               		.loc 2 549 5 is_stmt 1 view .LVU87
 552:funsape/device/../peripheral/gpioBus.hpp **** }
 329               		.loc 2 552 5 view .LVU88
 552:funsape/device/../peripheral/gpioBus.hpp **** }
 330               		.loc 2 552 5 is_stmt 0 view .LVU89
 331 00a6 00C0      		rjmp .L9
 332               	.L10:
 552:funsape/device/../peripheral/gpioBus.hpp **** }
 333               		.loc 2 552 5 view .LVU90
 334               	.LBE39:
 335               	.LBE38:
 169:funsape/device/sevenSegmentsMuxDisplay.cpp ****     }
 336               		.loc 1 169 9 is_stmt 1 view .LVU91
 169:funsape/device/sevenSegmentsMuxDisplay.cpp ****     }
 337               		.loc 1 169 15 is_stmt 0 view .LVU92
 338 00a8 A881      		ld r26,Y
 339 00aa B981      		ldd r27,Y+1
 340               	.LVL23:
 341               	.LBB40:
 342               	.LBI40:
 626:funsape/device/../peripheral/gpioBus.hpp **** {
 343               		.loc 2 626 14 is_stmt 1 view .LVU93
 344               	.LBB41:
 629:funsape/device/../peripheral/gpioBus.hpp **** 
 345               		.loc 2 629 5 view .LVU94
 629:funsape/device/../peripheral/gpioBus.hpp **** 
 346               		.loc 2 629 5 view .LVU95
 347 00ac 1296      		adiw r26,2
 348               	.LVL24:
 629:funsape/device/../peripheral/gpioBus.hpp **** 
 349               		.loc 2 629 5 is_stmt 0 view .LVU96
 350 00ae ED91      		ld r30,X+
 351 00b0 FD91      		ld r31,X+
 352 00b2 8081      		ld r24,Z
 353 00b4 1296      		adiw r26,2
 354 00b6 9C91      		ld r25,X
 355 00b8 892B      		or r24,r25
 356 00ba 8083      		st Z,r24
 357               	.LVL25:
 629:funsape/device/../peripheral/gpioBus.hpp **** 
 358               		.loc 2 629 5 is_stmt 1 view .LVU97
GAS LISTING /tmp/cc2oqvla.s 			page 22


 359               		.loc 2 632 5 view .LVU98
 360               		.loc 2 632 5 is_stmt 0 view .LVU99
 361 00bc 00C0      		rjmp .L11
 362               	.LBE41:
 363               	.LBE40:
 364               		.cfi_endproc
 365               	.LFE149:
 367               		.section	.text._ZN23SevenSegmentsMuxDisplay8setPortsEP7GpioBusS1_10LogicLevel,"ax",@progbits
 368               	.global	_ZN23SevenSegmentsMuxDisplay8setPortsEP7GpioBusS1_10LogicLevel
 370               	_ZN23SevenSegmentsMuxDisplay8setPortsEP7GpioBusS1_10LogicLevel:
 371               	.LVL26:
 372               	.LFB150:
 182:funsape/device/sevenSegmentsMuxDisplay.cpp **** 
 183:funsape/device/sevenSegmentsMuxDisplay.cpp **** bool_t SevenSegmentsMuxDisplay::setPorts(GpioBus *gpioData_p, GpioBus *gpioControl_p, const LogicLe
 184:funsape/device/sevenSegmentsMuxDisplay.cpp **** {
 373               		.loc 1 184 1 is_stmt 1 view -0
 374               		.cfi_startproc
 375               	/* prologue: function */
 376               	/* frame size = 0 */
 377               	/* stack size = 0 */
 378               	.L__stack_usage = 0
 379               		.loc 1 184 1 is_stmt 0 view .LVU101
 380 0000 FC01      		movw r30,r24
 185:funsape/device/sevenSegmentsMuxDisplay.cpp ****     // Mark passage for debugging purpose
 186:funsape/device/sevenSegmentsMuxDisplay.cpp ****     debugMark(PSTR("SevenSegmentsMuxDisplay::setPorts(GpioBus *, GpioBus *, const LogicLevel)"),
 381               		.loc 1 186 5 is_stmt 1 view .LVU102
 187:funsape/device/sevenSegmentsMuxDisplay.cpp ****             Debug::CodeIndex::SEVEN_SEGMENTS_MUX_DISPLAY_MODULE);
 188:funsape/device/sevenSegmentsMuxDisplay.cpp **** 
 189:funsape/device/sevenSegmentsMuxDisplay.cpp ****     // Local variables
 190:funsape/device/sevenSegmentsMuxDisplay.cpp ****     uint8_t aux8                        = 0;
 382               		.loc 1 190 5 view .LVU103
 383               	.LVL27:
 191:funsape/device/sevenSegmentsMuxDisplay.cpp **** 
 192:funsape/device/sevenSegmentsMuxDisplay.cpp ****     // Resets data members
 193:funsape/device/sevenSegmentsMuxDisplay.cpp ****     this->_digitIndex                   = 0;
 384               		.loc 1 193 5 view .LVU104
 385               		.loc 1 193 41 is_stmt 0 view .LVU105
 386 0002 8781      		ldd r24,Z+7
 387               	.LVL28:
 388               		.loc 1 193 41 view .LVU106
 389 0004 982F      		mov r25,r24
 390 0006 917F      		andi r25,lo8(-15)
 391 0008 9783      		std Z+7,r25
 194:funsape/device/sevenSegmentsMuxDisplay.cpp ****     this->_digitMax                     = 0;
 392               		.loc 1 194 5 is_stmt 1 view .LVU107
 393               		.loc 1 194 41 is_stmt 0 view .LVU108
 394 000a 8178      		andi r24,lo8(-127)
 395 000c 8783      		std Z+7,r24
 195:funsape/device/sevenSegmentsMuxDisplay.cpp ****     this->_gpioControlBus               = nullptr;
 396               		.loc 1 195 5 is_stmt 1 view .LVU109
 397               		.loc 1 195 41 is_stmt 0 view .LVU110
 398 000e 1182      		std Z+1,__zero_reg__
 399 0010 1082      		st Z,__zero_reg__
 196:funsape/device/sevenSegmentsMuxDisplay.cpp ****     this->_gpioDataBus                  = nullptr;
 400               		.loc 1 196 5 is_stmt 1 view .LVU111
 401               		.loc 1 196 41 is_stmt 0 view .LVU112
 402 0012 1382      		std Z+3,__zero_reg__
GAS LISTING /tmp/cc2oqvla.s 			page 23


 403 0014 1282      		std Z+2,__zero_reg__
 197:funsape/device/sevenSegmentsMuxDisplay.cpp ****     this->_isInitialized                = false;
 404               		.loc 1 197 5 is_stmt 1 view .LVU113
 405               		.loc 1 197 41 is_stmt 0 view .LVU114
 406 0016 8481      		ldd r24,Z+4
 407 0018 8E7F      		andi r24,lo8(~(1<<0))
 408 001a 8483      		std Z+4,r24
 198:funsape/device/sevenSegmentsMuxDisplay.cpp ****     this->_isPortsSet                   = false;
 409               		.loc 1 198 5 is_stmt 1 view .LVU115
 410               		.loc 1 198 41 is_stmt 0 view .LVU116
 411 001c 8D7F      		andi r24,lo8(~(1<<1))
 412 001e 8483      		std Z+4,r24
 199:funsape/device/sevenSegmentsMuxDisplay.cpp **** 
 200:funsape/device/sevenSegmentsMuxDisplay.cpp ****     // Check for errors
 201:funsape/device/sevenSegmentsMuxDisplay.cpp ****     if(!isPointerValid(gpioData_p)) {
 413               		.loc 1 201 5 is_stmt 1 view .LVU117
 414 0020 6030      		cpi r22,0
 415 0022 7607      		cpc r23,r22
 416 0024 01F0      		breq .L23
 202:funsape/device/sevenSegmentsMuxDisplay.cpp ****         // Returns error
 203:funsape/device/sevenSegmentsMuxDisplay.cpp ****         debugMessage(Error::GPIO_PORT_INVALID, Debug::CodeIndex::SEVEN_SEGMENTS_MUX_DISPLAY_MODULE)
 204:funsape/device/sevenSegmentsMuxDisplay.cpp ****         this->_lastError = Error::GPIO_PORT_INVALID;
 205:funsape/device/sevenSegmentsMuxDisplay.cpp ****         return false;
 206:funsape/device/sevenSegmentsMuxDisplay.cpp ****     }
 207:funsape/device/sevenSegmentsMuxDisplay.cpp ****     if(!gpioData_p->isInitialized()) {
 417               		.loc 1 207 5 view .LVU118
 418               	.LVL29:
 419               	.LBB42:
 420               	.LBI42:
 602:funsape/device/../peripheral/gpioBus.hpp **** {
 421               		.loc 2 602 16 view .LVU119
 422               	.LBB43:
 604:funsape/device/../peripheral/gpioBus.hpp **** }
 423               		.loc 2 604 5 view .LVU120
 604:funsape/device/../peripheral/gpioBus.hpp **** }
 424               		.loc 2 604 18 is_stmt 0 view .LVU121
 425 0026 DB01      		movw r26,r22
 426 0028 1896      		adiw r26,8
 427 002a 9C91      		ld r25,X
 428 002c 94FB      		bst r25,4
 429 002e 8827      		clr r24
 430 0030 80F9      		bld r24,0
 431               	.LVL30:
 604:funsape/device/../peripheral/gpioBus.hpp **** }
 432               		.loc 2 604 18 view .LVU122
 433               	.LBE43:
 434               	.LBE42:
 435               		.loc 1 207 5 discriminator 1 view .LVU123
 436 0032 94FF      		sbrs r25,4
 437 0034 00C0      		rjmp .L24
 208:funsape/device/sevenSegmentsMuxDisplay.cpp ****         // Returns error
 209:funsape/device/sevenSegmentsMuxDisplay.cpp ****         debugMessage(Error::GPIO_NOT_INITIALIZED, Debug::CodeIndex::SEVEN_SEGMENTS_MUX_DISPLAY_MODU
 210:funsape/device/sevenSegmentsMuxDisplay.cpp ****         this->_lastError = Error::GPIO_NOT_INITIALIZED;
 211:funsape/device/sevenSegmentsMuxDisplay.cpp ****         return false;
 212:funsape/device/sevenSegmentsMuxDisplay.cpp ****     }
 213:funsape/device/sevenSegmentsMuxDisplay.cpp ****     if(gpioData_p->getBusSize() != 8) {
 438               		.loc 1 213 5 is_stmt 1 view .LVU124
GAS LISTING /tmp/cc2oqvla.s 			page 24


 439               	.LVL31:
 440               	.LBB44:
 441               	.LBI44:
 582:funsape/device/../peripheral/gpioBus.hpp **** {
 442               		.loc 2 582 17 view .LVU125
 443               	.LBB45:
 585:funsape/device/../peripheral/gpioBus.hpp **** }
 444               		.loc 2 585 5 view .LVU126
 585:funsape/device/../peripheral/gpioBus.hpp **** }
 445               		.loc 2 585 45 is_stmt 0 discriminator 1 view .LVU127
 446 0036 DB01      		movw r26,r22
 447 0038 1896      		adiw r26,8
 448 003a 8C91      		ld r24,X
 449 003c 8F70      		andi r24,lo8(15)
 450               	.LVL32:
 585:funsape/device/../peripheral/gpioBus.hpp **** }
 451               		.loc 2 585 45 discriminator 1 view .LVU128
 452               	.LBE45:
 453               	.LBE44:
 454               		.loc 1 213 5 discriminator 1 view .LVU129
 455 003e 8830      		cpi r24,lo8(8)
 456 0040 01F0      		breq .L17
 214:funsape/device/sevenSegmentsMuxDisplay.cpp ****         // Returns error
 215:funsape/device/sevenSegmentsMuxDisplay.cpp ****         debugMessage(Error::GPIO_BUS_SIZE_INVALID, Debug::CodeIndex::SEVEN_SEGMENTS_MUX_DISPLAY_MOD
 457               		.loc 1 215 9 is_stmt 1 view .LVU130
 216:funsape/device/sevenSegmentsMuxDisplay.cpp ****         this->_lastError = Error::GPIO_BUS_SIZE_INVALID;
 458               		.loc 1 216 9 view .LVU131
 459               		.loc 1 216 26 is_stmt 0 view .LVU132
 460 0042 81E8      		ldi r24,lo8(-127)
 461 0044 90E0      		ldi r25,0
 462 0046 9683      		std Z+6,r25
 463 0048 8583      		std Z+5,r24
 217:funsape/device/sevenSegmentsMuxDisplay.cpp ****         return false;
 464               		.loc 1 217 9 is_stmt 1 view .LVU133
 465               	.LVL33:
 466               	.L18:
 205:funsape/device/sevenSegmentsMuxDisplay.cpp ****     }
 467               		.loc 1 205 16 is_stmt 0 view .LVU134
 468 004a 80E0      		ldi r24,0
 469 004c 0895      		ret
 470               	.LVL34:
 471               	.L23:
 203:funsape/device/sevenSegmentsMuxDisplay.cpp ****         this->_lastError = Error::GPIO_PORT_INVALID;
 472               		.loc 1 203 9 is_stmt 1 view .LVU135
 204:funsape/device/sevenSegmentsMuxDisplay.cpp ****         return false;
 473               		.loc 1 204 9 view .LVU136
 204:funsape/device/sevenSegmentsMuxDisplay.cpp ****         return false;
 474               		.loc 1 204 26 is_stmt 0 view .LVU137
 475 004e 84E8      		ldi r24,lo8(-124)
 476 0050 90E0      		ldi r25,0
 477 0052 9683      		std Z+6,r25
 478 0054 8583      		std Z+5,r24
 205:funsape/device/sevenSegmentsMuxDisplay.cpp ****     }
 479               		.loc 1 205 9 is_stmt 1 view .LVU138
 205:funsape/device/sevenSegmentsMuxDisplay.cpp ****     }
 480               		.loc 1 205 16 is_stmt 0 view .LVU139
 481 0056 00C0      		rjmp .L18
GAS LISTING /tmp/cc2oqvla.s 			page 25


 482               	.L24:
 209:funsape/device/sevenSegmentsMuxDisplay.cpp ****         this->_lastError = Error::GPIO_NOT_INITIALIZED;
 483               		.loc 1 209 9 is_stmt 1 view .LVU140
 210:funsape/device/sevenSegmentsMuxDisplay.cpp ****         return false;
 484               		.loc 1 210 9 view .LVU141
 210:funsape/device/sevenSegmentsMuxDisplay.cpp ****         return false;
 485               		.loc 1 210 26 is_stmt 0 view .LVU142
 486 0058 22E8      		ldi r18,lo8(-126)
 487 005a 30E0      		ldi r19,0
 488               	.LVL35:
 210:funsape/device/sevenSegmentsMuxDisplay.cpp ****         return false;
 489               		.loc 1 210 26 view .LVU143
 490 005c 3683      		std Z+6,r19
 491 005e 2583      		std Z+5,r18
 211:funsape/device/sevenSegmentsMuxDisplay.cpp ****     }
 492               		.loc 1 211 9 is_stmt 1 view .LVU144
 211:funsape/device/sevenSegmentsMuxDisplay.cpp ****     }
 493               		.loc 1 211 16 is_stmt 0 view .LVU145
 494 0060 0895      		ret
 495               	.LVL36:
 496               	.L17:
 218:funsape/device/sevenSegmentsMuxDisplay.cpp ****     }
 219:funsape/device/sevenSegmentsMuxDisplay.cpp ****     if(!isPointerValid(gpioControl_p)) {
 497               		.loc 1 219 5 is_stmt 1 view .LVU146
 498 0062 4030      		cpi r20,0
 499 0064 5407      		cpc r21,r20
 500 0066 01F0      		breq .L25
 220:funsape/device/sevenSegmentsMuxDisplay.cpp ****         // Returns error
 221:funsape/device/sevenSegmentsMuxDisplay.cpp ****         debugMessage(Error::GPIO_PORT_INVALID, Debug::CodeIndex::SEVEN_SEGMENTS_MUX_DISPLAY_MODULE)
 222:funsape/device/sevenSegmentsMuxDisplay.cpp ****         this->_lastError = Error::GPIO_PORT_INVALID;
 223:funsape/device/sevenSegmentsMuxDisplay.cpp ****         return false;
 224:funsape/device/sevenSegmentsMuxDisplay.cpp ****     }
 225:funsape/device/sevenSegmentsMuxDisplay.cpp ****     if(!gpioControl_p->isInitialized()) {
 501               		.loc 1 225 5 view .LVU147
 502               	.LVL37:
 503               	.LBB46:
 504               	.LBI46:
 602:funsape/device/../peripheral/gpioBus.hpp **** {
 505               		.loc 2 602 16 view .LVU148
 506               	.LBB47:
 604:funsape/device/../peripheral/gpioBus.hpp **** }
 507               		.loc 2 604 5 view .LVU149
 604:funsape/device/../peripheral/gpioBus.hpp **** }
 508               		.loc 2 604 18 is_stmt 0 view .LVU150
 509 0068 DA01      		movw r26,r20
 510 006a 1896      		adiw r26,8
 511 006c 9C91      		ld r25,X
 512 006e 94FB      		bst r25,4
 513 0070 8827      		clr r24
 514 0072 80F9      		bld r24,0
 515               	.LVL38:
 604:funsape/device/../peripheral/gpioBus.hpp **** }
 516               		.loc 2 604 18 view .LVU151
 517               	.LBE47:
 518               	.LBE46:
 519               		.loc 1 225 5 discriminator 1 view .LVU152
 520 0074 94FF      		sbrs r25,4
GAS LISTING /tmp/cc2oqvla.s 			page 26


 521 0076 00C0      		rjmp .L26
 226:funsape/device/sevenSegmentsMuxDisplay.cpp ****         // Returns error
 227:funsape/device/sevenSegmentsMuxDisplay.cpp ****         debugMessage(Error::GPIO_NOT_INITIALIZED, Debug::CodeIndex::SEVEN_SEGMENTS_MUX_DISPLAY_MODU
 228:funsape/device/sevenSegmentsMuxDisplay.cpp ****         this->_lastError = Error::GPIO_NOT_INITIALIZED;
 229:funsape/device/sevenSegmentsMuxDisplay.cpp ****         return false;
 230:funsape/device/sevenSegmentsMuxDisplay.cpp ****     }
 231:funsape/device/sevenSegmentsMuxDisplay.cpp ****     aux8 = gpioControl_p->getBusSize();
 522               		.loc 1 231 5 is_stmt 1 view .LVU153
 523               	.LVL39:
 524               	.LBB48:
 525               	.LBI48:
 582:funsape/device/../peripheral/gpioBus.hpp **** {
 526               		.loc 2 582 17 view .LVU154
 527               	.LBB49:
 585:funsape/device/../peripheral/gpioBus.hpp **** }
 528               		.loc 2 585 5 view .LVU155
 585:funsape/device/../peripheral/gpioBus.hpp **** }
 529               		.loc 2 585 45 is_stmt 0 discriminator 1 view .LVU156
 530 0078 DA01      		movw r26,r20
 531 007a 1896      		adiw r26,8
 532 007c 9C91      		ld r25,X
 533 007e 9F70      		andi r25,lo8(15)
 534               	.LVL40:
 585:funsape/device/../peripheral/gpioBus.hpp **** }
 535               		.loc 2 585 45 discriminator 1 view .LVU157
 536               	.LBE49:
 537               	.LBE48:
 232:funsape/device/sevenSegmentsMuxDisplay.cpp ****     if((aux8 < 2) || (aux8 > 8)) {
 538               		.loc 1 232 5 is_stmt 1 view .LVU158
 539               		.loc 1 232 19 is_stmt 0 view .LVU159
 540 0080 392F      		mov r19,r25
 541 0082 3250      		subi r19,lo8(-(-2))
 542               		.loc 1 232 5 view .LVU160
 543 0084 3730      		cpi r19,lo8(7)
 544 0086 00F4      		brsh .L27
 233:funsape/device/sevenSegmentsMuxDisplay.cpp ****         // Returns error
 234:funsape/device/sevenSegmentsMuxDisplay.cpp ****         debugMessage(Error::GPIO_BUS_SIZE_INVALID, Debug::CodeIndex::SEVEN_SEGMENTS_MUX_DISPLAY_MOD
 235:funsape/device/sevenSegmentsMuxDisplay.cpp ****         this->_lastError = Error::GPIO_BUS_SIZE_INVALID;
 236:funsape/device/sevenSegmentsMuxDisplay.cpp ****         return false;
 237:funsape/device/sevenSegmentsMuxDisplay.cpp ****     }
 238:funsape/device/sevenSegmentsMuxDisplay.cpp **** 
 239:funsape/device/sevenSegmentsMuxDisplay.cpp ****     // Updates data members
 240:funsape/device/sevenSegmentsMuxDisplay.cpp ****     this->_gpioControlBus               = gpioControl_p;
 545               		.loc 1 240 5 is_stmt 1 view .LVU161
 546               		.loc 1 240 41 is_stmt 0 view .LVU162
 547 0088 5183      		std Z+1,r21
 548 008a 4083      		st Z,r20
 241:funsape/device/sevenSegmentsMuxDisplay.cpp ****     this->_gpioDataBus                  = gpioData_p;
 549               		.loc 1 241 5 is_stmt 1 view .LVU163
 550               		.loc 1 241 41 is_stmt 0 view .LVU164
 551 008c 7383      		std Z+3,r23
 552 008e 6283      		std Z+2,r22
 242:funsape/device/sevenSegmentsMuxDisplay.cpp ****     this->_controlActiveLevel           = controlOnLevel_p;
 553               		.loc 1 242 5 is_stmt 1 view .LVU165
 554               		.loc 1 242 41 is_stmt 0 view .LVU166
 555 0090 3781      		ldd r19,Z+7
 556 0092 20FB      		bst r18,0
GAS LISTING /tmp/cc2oqvla.s 			page 27


 557 0094 30F9      		bld r19,0
 558 0096 3783      		std Z+7,r19
 243:funsape/device/sevenSegmentsMuxDisplay.cpp ****     this->_isPortsSet                   = true;
 559               		.loc 1 243 5 is_stmt 1 view .LVU167
 560               		.loc 1 243 41 is_stmt 0 view .LVU168
 561 0098 2481      		ldd r18,Z+4
 562               	.LVL41:
 563               		.loc 1 243 41 view .LVU169
 564 009a 2260      		ori r18,lo8(1<<1)
 565 009c 2483      		std Z+4,r18
 244:funsape/device/sevenSegmentsMuxDisplay.cpp ****     this->_digitMax                     = aux8 - 1;
 566               		.loc 1 244 5 is_stmt 1 view .LVU170
 567               		.loc 1 244 48 is_stmt 0 view .LVU171
 568 009e 9150      		subi r25,lo8(-(-1))
 569               	.LVL42:
 570               		.loc 1 244 41 view .LVU172
 571 00a0 9770      		andi r25,lo8(7)
 572               	.LVL43:
 573               		.loc 1 244 41 view .LVU173
 574 00a2 9295      		swap r25
 575 00a4 907F      		andi r25,lo8(-16)
 576 00a6 3F78      		andi r19,lo8(-113)
 577 00a8 932B      		or r25,r19
 578 00aa 9783      		std Z+7,r25
 245:funsape/device/sevenSegmentsMuxDisplay.cpp **** 
 246:funsape/device/sevenSegmentsMuxDisplay.cpp ****     // Returns successfully
 247:funsape/device/sevenSegmentsMuxDisplay.cpp ****     this->_lastError = Error::NONE;
 579               		.loc 1 247 5 is_stmt 1 view .LVU174
 580               		.loc 1 247 22 is_stmt 0 view .LVU175
 581 00ac 1682      		std Z+6,__zero_reg__
 582 00ae 1582      		std Z+5,__zero_reg__
 248:funsape/device/sevenSegmentsMuxDisplay.cpp ****     debugMessage(Error::NONE, Debug::CodeIndex::SEVEN_SEGMENTS_MUX_DISPLAY_MODULE);
 583               		.loc 1 248 5 is_stmt 1 view .LVU176
 249:funsape/device/sevenSegmentsMuxDisplay.cpp ****     return true;
 584               		.loc 1 249 5 view .LVU177
 585               	/* epilogue start */
 250:funsape/device/sevenSegmentsMuxDisplay.cpp **** }
 586               		.loc 1 250 1 is_stmt 0 view .LVU178
 587 00b0 0895      		ret
 588               	.LVL44:
 589               	.L25:
 221:funsape/device/sevenSegmentsMuxDisplay.cpp ****         this->_lastError = Error::GPIO_PORT_INVALID;
 590               		.loc 1 221 9 is_stmt 1 view .LVU179
 222:funsape/device/sevenSegmentsMuxDisplay.cpp ****         return false;
 591               		.loc 1 222 9 view .LVU180
 222:funsape/device/sevenSegmentsMuxDisplay.cpp ****         return false;
 592               		.loc 1 222 26 is_stmt 0 view .LVU181
 593 00b2 84E8      		ldi r24,lo8(-124)
 594 00b4 90E0      		ldi r25,0
 595 00b6 9683      		std Z+6,r25
 596 00b8 8583      		std Z+5,r24
 223:funsape/device/sevenSegmentsMuxDisplay.cpp ****     }
 597               		.loc 1 223 9 is_stmt 1 view .LVU182
 223:funsape/device/sevenSegmentsMuxDisplay.cpp ****     }
 598               		.loc 1 223 16 is_stmt 0 view .LVU183
 599 00ba 00C0      		rjmp .L18
 600               	.L26:
GAS LISTING /tmp/cc2oqvla.s 			page 28


 227:funsape/device/sevenSegmentsMuxDisplay.cpp ****         this->_lastError = Error::GPIO_NOT_INITIALIZED;
 601               		.loc 1 227 9 is_stmt 1 view .LVU184
 228:funsape/device/sevenSegmentsMuxDisplay.cpp ****         return false;
 602               		.loc 1 228 9 view .LVU185
 228:funsape/device/sevenSegmentsMuxDisplay.cpp ****         return false;
 603               		.loc 1 228 26 is_stmt 0 view .LVU186
 604 00bc 22E8      		ldi r18,lo8(-126)
 605 00be 30E0      		ldi r19,0
 606               	.LVL45:
 228:funsape/device/sevenSegmentsMuxDisplay.cpp ****         return false;
 607               		.loc 1 228 26 view .LVU187
 608 00c0 3683      		std Z+6,r19
 609 00c2 2583      		std Z+5,r18
 229:funsape/device/sevenSegmentsMuxDisplay.cpp ****     }
 610               		.loc 1 229 9 is_stmt 1 view .LVU188
 229:funsape/device/sevenSegmentsMuxDisplay.cpp ****     }
 611               		.loc 1 229 16 is_stmt 0 view .LVU189
 612 00c4 0895      		ret
 613               	.LVL46:
 614               	.L27:
 234:funsape/device/sevenSegmentsMuxDisplay.cpp ****         this->_lastError = Error::GPIO_BUS_SIZE_INVALID;
 615               		.loc 1 234 9 is_stmt 1 view .LVU190
 235:funsape/device/sevenSegmentsMuxDisplay.cpp ****         return false;
 616               		.loc 1 235 9 view .LVU191
 235:funsape/device/sevenSegmentsMuxDisplay.cpp ****         return false;
 617               		.loc 1 235 26 is_stmt 0 view .LVU192
 618 00c6 81E8      		ldi r24,lo8(-127)
 619 00c8 90E0      		ldi r25,0
 620 00ca 9683      		std Z+6,r25
 621 00cc 8583      		std Z+5,r24
 236:funsape/device/sevenSegmentsMuxDisplay.cpp ****     }
 622               		.loc 1 236 9 is_stmt 1 view .LVU193
 236:funsape/device/sevenSegmentsMuxDisplay.cpp ****     }
 623               		.loc 1 236 16 is_stmt 0 view .LVU194
 624 00ce 00C0      		rjmp .L18
 625               		.cfi_endproc
 626               	.LFE150:
 628               		.section	.text._ZN23SevenSegmentsMuxDisplay13showNextDigitEv,"ax",@progbits
 629               	.global	_ZN23SevenSegmentsMuxDisplay13showNextDigitEv
 631               	_ZN23SevenSegmentsMuxDisplay13showNextDigitEv:
 632               	.LVL47:
 633               	.LFB151:
 251:funsape/device/sevenSegmentsMuxDisplay.cpp **** 
 252:funsape/device/sevenSegmentsMuxDisplay.cpp **** bool_t SevenSegmentsMuxDisplay::showNextDigit(void)
 253:funsape/device/sevenSegmentsMuxDisplay.cpp **** {
 634               		.loc 1 253 1 is_stmt 1 view -0
 635               		.cfi_startproc
 636               		.loc 1 253 1 is_stmt 0 view .LVU196
 637 0000 1F93      		push r17
 638               	.LCFI4:
 639               		.cfi_def_cfa_offset 3
 640               		.cfi_offset 17, -2
 641 0002 CF93      		push r28
 642               	.LCFI5:
 643               		.cfi_def_cfa_offset 4
 644               		.cfi_offset 28, -3
 645 0004 DF93      		push r29
GAS LISTING /tmp/cc2oqvla.s 			page 29


 646               	.LCFI6:
 647               		.cfi_def_cfa_offset 5
 648               		.cfi_offset 29, -4
 649               	/* prologue: function */
 650               	/* frame size = 0 */
 651               	/* stack size = 3 */
 652               	.L__stack_usage = 3
 653 0006 EC01      		movw r28,r24
 254:funsape/device/sevenSegmentsMuxDisplay.cpp ****     // Mark passage for debugging purpose
 255:funsape/device/sevenSegmentsMuxDisplay.cpp ****     debugMark(PSTR("SevenSegmentsMuxDisplay::showNextDigit(void)"), Debug::CodeIndex::SEVEN_SEGMENT
 654               		.loc 1 255 5 is_stmt 1 view .LVU197
 256:funsape/device/sevenSegmentsMuxDisplay.cpp **** 
 257:funsape/device/sevenSegmentsMuxDisplay.cpp ****     // Checks for errors
 258:funsape/device/sevenSegmentsMuxDisplay.cpp ****     if(!this->_isInitialized) {
 655               		.loc 1 258 5 view .LVU198
 656               		.loc 1 258 15 is_stmt 0 view .LVU199
 657 0008 8C81      		ldd r24,Y+4
 658               	.LVL48:
 659               		.loc 1 258 15 view .LVU200
 660 000a 982F      		mov r25,r24
 661 000c 9170      		andi r25,1
 662 000e 192F      		mov r17,r25
 663               		.loc 1 258 5 view .LVU201
 664 0010 80FF      		sbrs r24,0
 665 0012 00C0      		rjmp .L39
 259:funsape/device/sevenSegmentsMuxDisplay.cpp ****         // Returns error
 260:funsape/device/sevenSegmentsMuxDisplay.cpp ****         this->_lastError = Error::NOT_INITIALIZED;
 261:funsape/device/sevenSegmentsMuxDisplay.cpp ****         debugMessage(Error::NOT_INITIALIZED, Debug::CodeIndex::SEVEN_SEGMENTS_MUX_DISPLAY_MODULE);
 262:funsape/device/sevenSegmentsMuxDisplay.cpp ****         return false;
 263:funsape/device/sevenSegmentsMuxDisplay.cpp ****     }
 264:funsape/device/sevenSegmentsMuxDisplay.cpp **** 
 265:funsape/device/sevenSegmentsMuxDisplay.cpp ****     // Turns current digit OFF
 266:funsape/device/sevenSegmentsMuxDisplay.cpp ****     if(this->_displayType == SevenSegmentsDisplayType::COMMON_ANODE) {
 666               		.loc 1 266 5 is_stmt 1 view .LVU202
 667               		.loc 1 266 27 is_stmt 0 view .LVU203
 668 0014 8989      		ldd r24,Y+17
 669               		.loc 1 266 5 view .LVU204
 670 0016 80FD      		sbrc r24,0
 671 0018 00C0      		rjmp .L31
 267:funsape/device/sevenSegmentsMuxDisplay.cpp ****         this->_gpioDataBus->set();
 672               		.loc 1 267 9 is_stmt 1 view .LVU205
 673               		.loc 1 267 15 is_stmt 0 view .LVU206
 674 001a AA81      		ldd r26,Y+2
 675 001c BB81      		ldd r27,Y+3
 676               	.LVL49:
 677               	.LBB50:
 678               	.LBI50:
 626:funsape/device/../peripheral/gpioBus.hpp **** {
 679               		.loc 2 626 14 is_stmt 1 view .LVU207
 680               	.LBB51:
 629:funsape/device/../peripheral/gpioBus.hpp **** 
 681               		.loc 2 629 5 view .LVU208
 629:funsape/device/../peripheral/gpioBus.hpp **** 
 682               		.loc 2 629 5 view .LVU209
 683 001e 1296      		adiw r26,2
 684               	.LVL50:
 629:funsape/device/../peripheral/gpioBus.hpp **** 
GAS LISTING /tmp/cc2oqvla.s 			page 30


 685               		.loc 2 629 5 is_stmt 0 view .LVU210
 686 0020 ED91      		ld r30,X+
 687 0022 FD91      		ld r31,X+
 688 0024 8081      		ld r24,Z
 689 0026 1296      		adiw r26,2
 690 0028 9C91      		ld r25,X
 691 002a 892B      		or r24,r25
 692 002c 8083      		st Z,r24
 693               	.LVL51:
 629:funsape/device/../peripheral/gpioBus.hpp **** 
 694               		.loc 2 629 5 is_stmt 1 view .LVU211
 695               		.loc 2 632 5 view .LVU212
 696               	.L32:
 697               		.loc 2 632 5 is_stmt 0 view .LVU213
 698               	.LBE51:
 699               	.LBE50:
 268:funsape/device/sevenSegmentsMuxDisplay.cpp ****     } else {
 269:funsape/device/sevenSegmentsMuxDisplay.cpp ****         this->_gpioDataBus->clr();
 270:funsape/device/sevenSegmentsMuxDisplay.cpp ****     }
 271:funsape/device/sevenSegmentsMuxDisplay.cpp **** 
 272:funsape/device/sevenSegmentsMuxDisplay.cpp ****     // Turns all displays off
 273:funsape/device/sevenSegmentsMuxDisplay.cpp ****     if(this->_controlActiveLevel == LogicLevel::HIGH) {
 700               		.loc 1 273 5 is_stmt 1 view .LVU214
 701               		.loc 1 273 34 is_stmt 0 view .LVU215
 702 002e 8F81      		ldd r24,Y+7
 703               		.loc 1 273 5 view .LVU216
 704 0030 80FF      		sbrs r24,0
 705 0032 00C0      		rjmp .L33
 274:funsape/device/sevenSegmentsMuxDisplay.cpp ****         this->_gpioControlBus->clr();
 706               		.loc 1 274 9 is_stmt 1 view .LVU217
 707               		.loc 1 274 15 is_stmt 0 view .LVU218
 708 0034 A881      		ld r26,Y
 709 0036 B981      		ldd r27,Y+1
 710               	.LVL52:
 711               	.LBB52:
 712               	.LBI52:
 546:funsape/device/../peripheral/gpioBus.hpp **** {
 713               		.loc 2 546 14 is_stmt 1 view .LVU219
 714               	.LBB53:
 549:funsape/device/../peripheral/gpioBus.hpp **** 
 715               		.loc 2 549 5 view .LVU220
 549:funsape/device/../peripheral/gpioBus.hpp **** 
 716               		.loc 2 549 5 view .LVU221
 717 0038 1296      		adiw r26,2
 718               	.LVL53:
 549:funsape/device/../peripheral/gpioBus.hpp **** 
 719               		.loc 2 549 5 is_stmt 0 view .LVU222
 720 003a ED91      		ld r30,X+
 721 003c FD91      		ld r31,X+
 722 003e 9081      		ld r25,Z
 723 0040 1296      		adiw r26,2
 724 0042 8C91      		ld r24,X
 725 0044 8095      		com r24
 726 0046 8923      		and r24,r25
 727 0048 8083      		st Z,r24
 728               	.LVL54:
 549:funsape/device/../peripheral/gpioBus.hpp **** 
GAS LISTING /tmp/cc2oqvla.s 			page 31


 729               		.loc 2 549 5 is_stmt 1 view .LVU223
 552:funsape/device/../peripheral/gpioBus.hpp **** }
 730               		.loc 2 552 5 view .LVU224
 731               	.L34:
 552:funsape/device/../peripheral/gpioBus.hpp **** }
 732               		.loc 2 552 5 is_stmt 0 view .LVU225
 733               	.LBE53:
 734               	.LBE52:
 275:funsape/device/sevenSegmentsMuxDisplay.cpp ****     } else {
 276:funsape/device/sevenSegmentsMuxDisplay.cpp ****         this->_gpioControlBus->set();
 277:funsape/device/sevenSegmentsMuxDisplay.cpp ****     }
 278:funsape/device/sevenSegmentsMuxDisplay.cpp **** 
 279:funsape/device/sevenSegmentsMuxDisplay.cpp ****     // Evaluates next digit
 280:funsape/device/sevenSegmentsMuxDisplay.cpp ****     this->_digitIndex = (this->_digitIndex == this->_digitMax) ? 0 : (this->_digitIndex + 1);
 735               		.loc 1 280 5 is_stmt 1 view .LVU226
 736               		.loc 1 280 32 is_stmt 0 view .LVU227
 737 004a 8F81      		ldd r24,Y+7
 738 004c E82F      		mov r30,r24
 739 004e E695      		lsr r30
 740 0050 E770      		andi r30,lo8(7)
 741               		.loc 1 280 53 view .LVU228
 742 0052 8295      		swap r24
 743 0054 8F70      		andi r24,lo8(15)
 744 0056 8770      		andi r24,lo8(7)
 745               		.loc 1 280 23 view .LVU229
 746 0058 E817      		cp r30,r24
 747 005a 01F4      		brne .+2
 748 005c 00C0      		rjmp .L38
 749               		.loc 1 280 89 discriminator 1 view .LVU230
 750 005e EF5F      		subi r30,lo8(-(1))
 751               		.loc 1 280 23 discriminator 1 view .LVU231
 752 0060 E770      		andi r30,lo8(7)
 753               	.L35:
 754               		.loc 1 280 23 discriminator 3 view .LVU232
 755 0062 8E2F      		mov r24,r30
 756 0064 880F      		lsl r24
 757 0066 9F81      		ldd r25,Y+7
 758 0068 917F      		andi r25,lo8(-15)
 759 006a 892B      		or r24,r25
 760 006c 8F83      		std Y+7,r24
 281:funsape/device/sevenSegmentsMuxDisplay.cpp **** 
 282:funsape/device/sevenSegmentsMuxDisplay.cpp ****     // Send data to port
 283:funsape/device/sevenSegmentsMuxDisplay.cpp ****     uint8_t aux8 = convertToSevenSegments(
 761               		.loc 1 283 5 is_stmt 1 view .LVU233
 284:funsape/device/sevenSegmentsMuxDisplay.cpp ****                     this->_digitValue[this->_digitIndex],
 285:funsape/device/sevenSegmentsMuxDisplay.cpp ****                     (bool_t)(this->_digitPoint & (1 << this->_digitIndex)),
 762               		.loc 1 285 36 is_stmt 0 view .LVU234
 763 006e 87FB      		bst r24,7
 764 0070 8827      		clr r24
 765 0072 80F9      		bld r24,0
 766 0074 6885      		ldd r22,Y+8
 767 0076 660F      		lsl r22
 768 0078 682B      		or r22,r24
 769 007a 70E0      		ldi r23,0
 770               		.loc 1 285 21 view .LVU235
 771 007c 0E2E      		mov r0,r30
 772 007e 00C0      		rjmp 2f
GAS LISTING /tmp/cc2oqvla.s 			page 32


 773               		1:
 774 0080 7595      		asr r23
 775 0082 6795      		ror r22
 776               		2:
 777 0084 0A94      		dec r0
 778 0086 02F4      		brpl 1b
 284:funsape/device/sevenSegmentsMuxDisplay.cpp ****                     this->_digitValue[this->_digitIndex],
 779               		.loc 1 284 56 view .LVU236
 780 0088 EC0F      		add r30,r28
 781 008a FD2F      		mov r31,r29
 782 008c F11D      		adc r31,__zero_reg__
 283:funsape/device/sevenSegmentsMuxDisplay.cpp ****                     this->_digitValue[this->_digitIndex],
 783               		.loc 1 283 42 view .LVU237
 784 008e 4989      		ldd r20,Y+17
 785 0090 4170      		andi r20,1
 786 0092 6170      		andi r22,lo8(1)
 787 0094 8185      		ldd r24,Z+9
 788 0096 0E94 0000 		call _Z22convertToSevenSegmentshb24SevenSegmentsDisplayType
 789               	.LVL55:
 286:funsape/device/sevenSegmentsMuxDisplay.cpp ****                     this->_displayType
 287:funsape/device/sevenSegmentsMuxDisplay.cpp ****             );
 288:funsape/device/sevenSegmentsMuxDisplay.cpp ****     this->_gpioDataBus->write(aux8);
 790               		.loc 1 288 5 is_stmt 1 view .LVU238
 791               		.loc 1 288 30 is_stmt 0 view .LVU239
 792 009a 682F      		mov r22,r24
 793 009c 8A81      		ldd r24,Y+2
 794 009e 9B81      		ldd r25,Y+3
 795               	.LVL56:
 796               		.loc 1 288 30 view .LVU240
 797 00a0 0E94 0000 		call _ZN7GpioBus5writeEh
 798               	.LVL57:
 289:funsape/device/sevenSegmentsMuxDisplay.cpp ****     // Turns digit on
 290:funsape/device/sevenSegmentsMuxDisplay.cpp ****     if(this->_controlActiveLevel == LogicLevel::HIGH) {
 799               		.loc 1 290 5 is_stmt 1 view .LVU241
 800               		.loc 1 290 34 is_stmt 0 view .LVU242
 801 00a4 8F81      		ldd r24,Y+7
 802               		.loc 1 290 5 view .LVU243
 803 00a6 80FF      		sbrs r24,0
 804 00a8 00C0      		rjmp .L36
 291:funsape/device/sevenSegmentsMuxDisplay.cpp ****         this->_gpioControlBus->set(this->_digitIndex);
 805               		.loc 1 291 9 is_stmt 1 view .LVU244
 806               		.loc 1 291 15 is_stmt 0 view .LVU245
 807 00aa A881      		ld r26,Y
 808 00ac B981      		ldd r27,Y+1
 809               		.loc 1 291 42 view .LVU246
 810 00ae 8695      		lsr r24
 811 00b0 8770      		andi r24,lo8(7)
 812               	.LVL58:
 813               	.LBB54:
 814               	.LBI54:
 633:funsape/device/../peripheral/gpioBus.hpp **** }
 634:funsape/device/../peripheral/gpioBus.hpp **** 
 635:funsape/device/../peripheral/gpioBus.hpp **** void inlined GpioBus::set(cuint8_t bitIndex_p) const
 815               		.loc 2 635 14 is_stmt 1 view .LVU247
 816               	.LBB55:
 636:funsape/device/../peripheral/gpioBus.hpp **** {
 637:funsape/device/../peripheral/gpioBus.hpp ****     // Clear pin
GAS LISTING /tmp/cc2oqvla.s 			page 33


 638:funsape/device/../peripheral/gpioBus.hpp ****     setBit(*(this->_regOut), (bitIndex_p + (uint8_t)this->_pinIndex));
 817               		.loc 2 638 5 view .LVU248
 818               		.loc 2 638 5 view .LVU249
 819 00b2 1296      		adiw r26,2
 820               	.LVL59:
 821               		.loc 2 638 5 is_stmt 0 view .LVU250
 822 00b4 ED91      		ld r30,X+
 823 00b6 FD91      		ld r31,X+
 824 00b8 9081      		ld r25,Z
 825 00ba 1396      		adiw r26,3
 826 00bc 4C91      		ld r20,X
 827 00be 480F      		add r20,r24
 828 00c0 5527      		clr r21
 829 00c2 551F      		rol r21
 830 00c4 21E0      		ldi r18,lo8(1)
 831 00c6 30E0      		ldi r19,0
 832 00c8 00C0      		rjmp 2f
 833               		1:
 834 00ca 220F      		lsl r18
 835 00cc 331F      		rol r19
 836               		2:
 837 00ce 4A95      		dec r20
 838 00d0 02F4      		brpl 1b
 839 00d2 892F      		mov r24,r25
 840               	.LVL60:
 841               		.loc 2 638 5 view .LVU251
 842 00d4 822B      		or r24,r18
 843 00d6 8083      		st Z,r24
 844               	.LVL61:
 845               		.loc 2 638 5 is_stmt 1 view .LVU252
 639:funsape/device/../peripheral/gpioBus.hpp **** 
 640:funsape/device/../peripheral/gpioBus.hpp ****     // Returns
 641:funsape/device/../peripheral/gpioBus.hpp ****     return;
 846               		.loc 2 641 5 view .LVU253
 847               	.L37:
 848               		.loc 2 641 5 is_stmt 0 view .LVU254
 849               	.LBE55:
 850               	.LBE54:
 292:funsape/device/sevenSegmentsMuxDisplay.cpp ****     } else {
 293:funsape/device/sevenSegmentsMuxDisplay.cpp ****         this->_gpioControlBus->clr(this->_digitIndex);
 294:funsape/device/sevenSegmentsMuxDisplay.cpp ****     }
 295:funsape/device/sevenSegmentsMuxDisplay.cpp **** 
 296:funsape/device/sevenSegmentsMuxDisplay.cpp ****     // Returns successfully
 297:funsape/device/sevenSegmentsMuxDisplay.cpp ****     this->_lastError = Error::NONE;
 851               		.loc 1 297 5 is_stmt 1 view .LVU255
 852               		.loc 1 297 22 is_stmt 0 view .LVU256
 853 00d8 1E82      		std Y+6,__zero_reg__
 854 00da 1D82      		std Y+5,__zero_reg__
 298:funsape/device/sevenSegmentsMuxDisplay.cpp ****     debugMessage(Error::NONE, Debug::CodeIndex::SEVEN_SEGMENTS_MUX_DISPLAY_MODULE);
 855               		.loc 1 298 5 is_stmt 1 view .LVU257
 299:funsape/device/sevenSegmentsMuxDisplay.cpp ****     return true;
 856               		.loc 1 299 5 view .LVU258
 857               	.LVL62:
 858               	.L28:
 300:funsape/device/sevenSegmentsMuxDisplay.cpp **** }
 859               		.loc 1 300 1 is_stmt 0 view .LVU259
 860 00dc 812F      		mov r24,r17
GAS LISTING /tmp/cc2oqvla.s 			page 34


 861               	/* epilogue start */
 862 00de DF91      		pop r29
 863 00e0 CF91      		pop r28
 864               	.LVL63:
 865               		.loc 1 300 1 view .LVU260
 866 00e2 1F91      		pop r17
 867 00e4 0895      		ret
 868               	.LVL64:
 869               	.L39:
 260:funsape/device/sevenSegmentsMuxDisplay.cpp ****         debugMessage(Error::NOT_INITIALIZED, Debug::CodeIndex::SEVEN_SEGMENTS_MUX_DISPLAY_MODULE);
 870               		.loc 1 260 9 is_stmt 1 view .LVU261
 260:funsape/device/sevenSegmentsMuxDisplay.cpp ****         debugMessage(Error::NOT_INITIALIZED, Debug::CodeIndex::SEVEN_SEGMENTS_MUX_DISPLAY_MODULE);
 871               		.loc 1 260 26 is_stmt 0 view .LVU262
 872 00e6 86E0      		ldi r24,lo8(6)
 873 00e8 90E0      		ldi r25,0
 874 00ea 9E83      		std Y+6,r25
 875 00ec 8D83      		std Y+5,r24
 261:funsape/device/sevenSegmentsMuxDisplay.cpp ****         return false;
 876               		.loc 1 261 9 is_stmt 1 view .LVU263
 262:funsape/device/sevenSegmentsMuxDisplay.cpp ****     }
 877               		.loc 1 262 9 view .LVU264
 262:funsape/device/sevenSegmentsMuxDisplay.cpp ****     }
 878               		.loc 1 262 16 is_stmt 0 view .LVU265
 879 00ee 00C0      		rjmp .L28
 880               	.L31:
 269:funsape/device/sevenSegmentsMuxDisplay.cpp ****     }
 881               		.loc 1 269 9 is_stmt 1 view .LVU266
 269:funsape/device/sevenSegmentsMuxDisplay.cpp ****     }
 882               		.loc 1 269 15 is_stmt 0 view .LVU267
 883 00f0 AA81      		ldd r26,Y+2
 884 00f2 BB81      		ldd r27,Y+3
 885               	.LVL65:
 886               	.LBB56:
 887               	.LBI56:
 546:funsape/device/../peripheral/gpioBus.hpp **** {
 888               		.loc 2 546 14 is_stmt 1 view .LVU268
 889               	.LBB57:
 549:funsape/device/../peripheral/gpioBus.hpp **** 
 890               		.loc 2 549 5 view .LVU269
 549:funsape/device/../peripheral/gpioBus.hpp **** 
 891               		.loc 2 549 5 view .LVU270
 892 00f4 1296      		adiw r26,2
 893               	.LVL66:
 549:funsape/device/../peripheral/gpioBus.hpp **** 
 894               		.loc 2 549 5 is_stmt 0 view .LVU271
 895 00f6 ED91      		ld r30,X+
 896 00f8 FD91      		ld r31,X+
 897 00fa 9081      		ld r25,Z
 898 00fc 1296      		adiw r26,2
 899 00fe 8C91      		ld r24,X
 900 0100 8095      		com r24
 901 0102 8923      		and r24,r25
 902 0104 8083      		st Z,r24
 903               	.LVL67:
 549:funsape/device/../peripheral/gpioBus.hpp **** 
 904               		.loc 2 549 5 is_stmt 1 view .LVU272
 552:funsape/device/../peripheral/gpioBus.hpp **** }
GAS LISTING /tmp/cc2oqvla.s 			page 35


 905               		.loc 2 552 5 view .LVU273
 552:funsape/device/../peripheral/gpioBus.hpp **** }
 906               		.loc 2 552 5 is_stmt 0 view .LVU274
 907 0106 00C0      		rjmp .L32
 908               	.L33:
 552:funsape/device/../peripheral/gpioBus.hpp **** }
 909               		.loc 2 552 5 view .LVU275
 910               	.LBE57:
 911               	.LBE56:
 276:funsape/device/sevenSegmentsMuxDisplay.cpp ****     }
 912               		.loc 1 276 9 is_stmt 1 view .LVU276
 276:funsape/device/sevenSegmentsMuxDisplay.cpp ****     }
 913               		.loc 1 276 15 is_stmt 0 view .LVU277
 914 0108 A881      		ld r26,Y
 915 010a B981      		ldd r27,Y+1
 916               	.LVL68:
 917               	.LBB58:
 918               	.LBI58:
 626:funsape/device/../peripheral/gpioBus.hpp **** {
 919               		.loc 2 626 14 is_stmt 1 view .LVU278
 920               	.LBB59:
 629:funsape/device/../peripheral/gpioBus.hpp **** 
 921               		.loc 2 629 5 view .LVU279
 629:funsape/device/../peripheral/gpioBus.hpp **** 
 922               		.loc 2 629 5 view .LVU280
 923 010c 1296      		adiw r26,2
 924               	.LVL69:
 629:funsape/device/../peripheral/gpioBus.hpp **** 
 925               		.loc 2 629 5 is_stmt 0 view .LVU281
 926 010e ED91      		ld r30,X+
 927 0110 FD91      		ld r31,X+
 928 0112 8081      		ld r24,Z
 929 0114 1296      		adiw r26,2
 930 0116 9C91      		ld r25,X
 931 0118 892B      		or r24,r25
 932 011a 8083      		st Z,r24
 933               	.LVL70:
 629:funsape/device/../peripheral/gpioBus.hpp **** 
 934               		.loc 2 629 5 is_stmt 1 view .LVU282
 632:funsape/device/../peripheral/gpioBus.hpp **** }
 935               		.loc 2 632 5 view .LVU283
 632:funsape/device/../peripheral/gpioBus.hpp **** }
 936               		.loc 2 632 5 is_stmt 0 view .LVU284
 937 011c 00C0      		rjmp .L34
 938               	.L38:
 632:funsape/device/../peripheral/gpioBus.hpp **** }
 939               		.loc 2 632 5 view .LVU285
 940               	.LBE59:
 941               	.LBE58:
 280:funsape/device/sevenSegmentsMuxDisplay.cpp **** 
 942               		.loc 1 280 23 discriminator 2 view .LVU286
 943 011e E0E0      		ldi r30,0
 944 0120 00C0      		rjmp .L35
 945               	.LVL71:
 946               	.L36:
 293:funsape/device/sevenSegmentsMuxDisplay.cpp ****     }
 947               		.loc 1 293 9 is_stmt 1 view .LVU287
GAS LISTING /tmp/cc2oqvla.s 			page 36


 293:funsape/device/sevenSegmentsMuxDisplay.cpp ****     }
 948               		.loc 1 293 15 is_stmt 0 view .LVU288
 949 0122 A881      		ld r26,Y
 950 0124 B981      		ldd r27,Y+1
 293:funsape/device/sevenSegmentsMuxDisplay.cpp ****     }
 951               		.loc 1 293 42 view .LVU289
 952 0126 8F81      		ldd r24,Y+7
 953 0128 8695      		lsr r24
 954 012a 8770      		andi r24,lo8(7)
 955               	.LVL72:
 956               	.LBB60:
 957               	.LBI60:
 555:funsape/device/../peripheral/gpioBus.hpp **** {
 958               		.loc 2 555 14 is_stmt 1 view .LVU290
 959               	.LBB61:
 558:funsape/device/../peripheral/gpioBus.hpp **** 
 960               		.loc 2 558 5 view .LVU291
 558:funsape/device/../peripheral/gpioBus.hpp **** 
 961               		.loc 2 558 5 view .LVU292
 962 012c 1296      		adiw r26,2
 963               	.LVL73:
 558:funsape/device/../peripheral/gpioBus.hpp **** 
 964               		.loc 2 558 5 is_stmt 0 view .LVU293
 965 012e ED91      		ld r30,X+
 966 0130 FD91      		ld r31,X+
 967 0132 4081      		ld r20,Z
 968 0134 1396      		adiw r26,3
 969 0136 2C91      		ld r18,X
 970 0138 280F      		add r18,r24
 971 013a 3327      		clr r19
 972 013c 331F      		rol r19
 973 013e 81E0      		ldi r24,lo8(1)
 974 0140 90E0      		ldi r25,0
 975               	.LVL74:
 558:funsape/device/../peripheral/gpioBus.hpp **** 
 976               		.loc 2 558 5 view .LVU294
 977 0142 00C0      		rjmp 2f
 978               		1:
 979 0144 880F      		lsl r24
 980 0146 991F      		rol r25
 981               		2:
 982 0148 2A95      		dec r18
 983 014a 02F4      		brpl 1b
 984 014c 8095      		com r24
 985 014e 8423      		and r24,r20
 986 0150 8083      		st Z,r24
 987               	.LVL75:
 558:funsape/device/../peripheral/gpioBus.hpp **** 
 988               		.loc 2 558 5 is_stmt 1 view .LVU295
 561:funsape/device/../peripheral/gpioBus.hpp **** }
 989               		.loc 2 561 5 view .LVU296
 561:funsape/device/../peripheral/gpioBus.hpp **** }
 990               		.loc 2 561 5 is_stmt 0 view .LVU297
 991 0152 00C0      		rjmp .L37
 992               	.LBE61:
 993               	.LBE60:
 994               		.cfi_endproc
GAS LISTING /tmp/cc2oqvla.s 			page 37


 995               	.LFE151:
 997               		.section	.text._ZN23SevenSegmentsMuxDisplay17updateDigitValuesEPKhPKb,"ax",@progbits
 998               	.global	_ZN23SevenSegmentsMuxDisplay17updateDigitValuesEPKhPKb
 1000               	_ZN23SevenSegmentsMuxDisplay17updateDigitValuesEPKhPKb:
 1001               	.LVL76:
 1002               	.LFB152:
 301:funsape/device/sevenSegmentsMuxDisplay.cpp **** 
 302:funsape/device/sevenSegmentsMuxDisplay.cpp **** bool_t SevenSegmentsMuxDisplay::updateDigitValues(cuint8_t *digitValues_p, cbool_t *digitPoints_p)
 303:funsape/device/sevenSegmentsMuxDisplay.cpp **** {
 1003               		.loc 1 303 1 is_stmt 1 view -0
 1004               		.cfi_startproc
 1005               		.loc 1 303 1 is_stmt 0 view .LVU299
 1006 0000 CF93      		push r28
 1007               	.LCFI7:
 1008               		.cfi_def_cfa_offset 3
 1009               		.cfi_offset 28, -2
 1010 0002 DF93      		push r29
 1011               	.LCFI8:
 1012               		.cfi_def_cfa_offset 4
 1013               		.cfi_offset 29, -3
 1014               	/* prologue: function */
 1015               	/* frame size = 0 */
 1016               	/* stack size = 2 */
 1017               	.L__stack_usage = 2
 1018 0004 DC01      		movw r26,r24
 304:funsape/device/sevenSegmentsMuxDisplay.cpp ****     // Mark passage for debugging purpose
 305:funsape/device/sevenSegmentsMuxDisplay.cpp ****     debugMark(PSTR("SevenSegmentsMuxDisplay::updateDigitValues(cuint8_t *, cbool_t *)"),
 1019               		.loc 1 305 5 is_stmt 1 view .LVU300
 306:funsape/device/sevenSegmentsMuxDisplay.cpp ****             Debug::CodeIndex::SEVEN_SEGMENTS_MUX_DISPLAY_MODULE);
 307:funsape/device/sevenSegmentsMuxDisplay.cpp **** 
 308:funsape/device/sevenSegmentsMuxDisplay.cpp ****     // Local variables
 309:funsape/device/sevenSegmentsMuxDisplay.cpp ****     uint8_t aux8 = 0;
 1020               		.loc 1 309 5 view .LVU301
 1021               	.LVL77:
 310:funsape/device/sevenSegmentsMuxDisplay.cpp **** 
 311:funsape/device/sevenSegmentsMuxDisplay.cpp ****     // Check for errors
 312:funsape/device/sevenSegmentsMuxDisplay.cpp ****     if(!isPointerValid(digitValues_p)) {
 1022               		.loc 1 312 5 view .LVU302
 1023 0006 6030      		cpi r22,0
 1024 0008 7607      		cpc r23,r22
 1025 000a 01F0      		breq .L49
 1026               	.LBB62:
 313:funsape/device/sevenSegmentsMuxDisplay.cpp ****         // Returns error
 314:funsape/device/sevenSegmentsMuxDisplay.cpp ****         debugMessage(Error::ARGUMENT_POINTER_NULL, Debug::CodeIndex::SEVEN_SEGMENTS_MUX_DISPLAY_MOD
 315:funsape/device/sevenSegmentsMuxDisplay.cpp ****         this->_lastError = Error::ARGUMENT_POINTER_NULL;
 316:funsape/device/sevenSegmentsMuxDisplay.cpp ****         return false;
 317:funsape/device/sevenSegmentsMuxDisplay.cpp ****     }
 318:funsape/device/sevenSegmentsMuxDisplay.cpp **** 
 319:funsape/device/sevenSegmentsMuxDisplay.cpp ****     // Updates data members
 320:funsape/device/sevenSegmentsMuxDisplay.cpp ****     for(uint8_t i = 0; i < (this->_digitMax + 1); i++) {
 1027               		.loc 1 320 17 is_stmt 0 view .LVU303
 1028 000c 20E0      		ldi r18,0
 1029               	.LBE62:
 309:funsape/device/sevenSegmentsMuxDisplay.cpp **** 
 1030               		.loc 1 309 13 view .LVU304
 1031 000e 80E0      		ldi r24,0
 1032               	.LVL78:
GAS LISTING /tmp/cc2oqvla.s 			page 38


 309:funsape/device/sevenSegmentsMuxDisplay.cpp **** 
 1033               		.loc 1 309 13 view .LVU305
 1034 0010 00C0      		rjmp .L41
 1035               	.LVL79:
 1036               	.L49:
 314:funsape/device/sevenSegmentsMuxDisplay.cpp ****         this->_lastError = Error::ARGUMENT_POINTER_NULL;
 1037               		.loc 1 314 9 is_stmt 1 view .LVU306
 315:funsape/device/sevenSegmentsMuxDisplay.cpp ****         return false;
 1038               		.loc 1 315 9 view .LVU307
 315:funsape/device/sevenSegmentsMuxDisplay.cpp ****         return false;
 1039               		.loc 1 315 26 is_stmt 0 view .LVU308
 1040 0012 81E5      		ldi r24,lo8(81)
 1041 0014 90E0      		ldi r25,0
 1042               	.LVL80:
 315:funsape/device/sevenSegmentsMuxDisplay.cpp ****         return false;
 1043               		.loc 1 315 26 view .LVU309
 1044 0016 1596      		adiw r26,5
 1045               	.LVL81:
 315:funsape/device/sevenSegmentsMuxDisplay.cpp ****         return false;
 1046               		.loc 1 315 26 view .LVU310
 1047 0018 8D93      		st X+,r24
 1048 001a 9D93      		st X+,r25
 1049               	.LVL82:
 316:funsape/device/sevenSegmentsMuxDisplay.cpp ****     }
 1050               		.loc 1 316 9 is_stmt 1 view .LVU311
 316:funsape/device/sevenSegmentsMuxDisplay.cpp ****     }
 1051               		.loc 1 316 16 is_stmt 0 view .LVU312
 1052 001c 80E0      		ldi r24,0
 1053 001e 00C0      		rjmp .L40
 1054               	.LVL83:
 1055               	.L43:
 1056               	.LBB63:
 321:funsape/device/sevenSegmentsMuxDisplay.cpp ****         this->_digitValue[i] = digitValues_p[i];
 322:funsape/device/sevenSegmentsMuxDisplay.cpp ****         aux8 |= (digitPoints_p[i]) ? (1 << i) : 0;
 1057               		.loc 1 322 14 discriminator 3 view .LVU313
 1058 0020 892B      		or r24,r25
 1059               	.LVL84:
 320:funsape/device/sevenSegmentsMuxDisplay.cpp ****         this->_digitValue[i] = digitValues_p[i];
 1060               		.loc 1 320 5 is_stmt 1 discriminator 1 view .LVU314
 1061 0022 2F5F      		subi r18,lo8(-(1))
 1062               	.LVL85:
 1063               	.L41:
 320:funsape/device/sevenSegmentsMuxDisplay.cpp ****         this->_digitValue[i] = digitValues_p[i];
 1064               		.loc 1 320 26 discriminator 2 view .LVU315
 320:funsape/device/sevenSegmentsMuxDisplay.cpp ****         this->_digitValue[i] = digitValues_p[i];
 1065               		.loc 1 320 35 is_stmt 0 discriminator 2 view .LVU316
 1066 0024 1796      		adiw r26,7
 1067 0026 9C91      		ld r25,X
 1068 0028 1797      		sbiw r26,7
 1069 002a 9295      		swap r25
 1070 002c 9F70      		andi r25,lo8(15)
 1071 002e 9770      		andi r25,lo8(7)
 320:funsape/device/sevenSegmentsMuxDisplay.cpp ****         this->_digitValue[i] = digitValues_p[i];
 1072               		.loc 1 320 24 discriminator 2 view .LVU317
 1073 0030 E22F      		mov r30,r18
 1074 0032 F0E0      		ldi r31,0
 320:funsape/device/sevenSegmentsMuxDisplay.cpp ****         this->_digitValue[i] = digitValues_p[i];
GAS LISTING /tmp/cc2oqvla.s 			page 39


 1075               		.loc 1 320 26 discriminator 2 view .LVU318
 1076 0034 9E17      		cp r25,r30
 1077 0036 1F06      		cpc __zero_reg__,r31
 1078 0038 04F0      		brlt .L50
 321:funsape/device/sevenSegmentsMuxDisplay.cpp ****         this->_digitValue[i] = digitValues_p[i];
 1079               		.loc 1 321 9 is_stmt 1 view .LVU319
 321:funsape/device/sevenSegmentsMuxDisplay.cpp ****         this->_digitValue[i] = digitValues_p[i];
 1080               		.loc 1 321 47 is_stmt 0 view .LVU320
 1081 003a EB01      		movw r28,r22
 1082 003c C20F      		add r28,r18
 1083 003e D11D      		adc r29,__zero_reg__
 1084 0040 9881      		ld r25,Y
 321:funsape/device/sevenSegmentsMuxDisplay.cpp ****         this->_digitValue[i] = digitValues_p[i];
 1085               		.loc 1 321 30 view .LVU321
 1086 0042 EA0F      		add r30,r26
 1087 0044 FB1F      		adc r31,r27
 1088 0046 9187      		std Z+9,r25
 1089               		.loc 1 322 9 is_stmt 1 view .LVU322
 1090               		.loc 1 322 33 is_stmt 0 view .LVU323
 1091 0048 FA01      		movw r30,r20
 1092 004a E20F      		add r30,r18
 1093 004c F11D      		adc r31,__zero_reg__
 1094 004e 9081      		ld r25,Z
 1095               		.loc 1 322 14 view .LVU324
 1096 0050 9030      		cpi r25,lo8(0)
 1097 0052 01F0      		breq .L43
 1098               		.loc 1 322 14 discriminator 1 view .LVU325
 1099 0054 91E0      		ldi r25,lo8(1)
 1100 0056 022E      		mov r0,r18
 1101 0058 00C0      		rjmp 2f
 1102               		1:
 1103 005a 990F      		lsl r25
 1104               		2:
 1105 005c 0A94      		dec r0
 1106 005e 02F4      		brpl 1b
 1107 0060 00C0      		rjmp .L43
 1108               	.L50:
 1109               		.loc 1 322 14 discriminator 1 view .LVU326
 1110               	.LBE63:
 323:funsape/device/sevenSegmentsMuxDisplay.cpp ****     }
 324:funsape/device/sevenSegmentsMuxDisplay.cpp ****     if(isPointerValid(digitPoints_p)) {
 1111               		.loc 1 324 5 is_stmt 1 view .LVU327
 1112 0062 452B      		or r20,r21
 1113 0064 01F0      		breq .L45
 325:funsape/device/sevenSegmentsMuxDisplay.cpp ****         this->_digitPoint = aux8;
 1114               		.loc 1 325 9 view .LVU328
 1115               		.loc 1 325 27 is_stmt 0 view .LVU329
 1116 0066 80FB      		bst r24,0
 1117 0068 9927      		clr r25
 1118 006a 97F9      		bld r25,7
 1119 006c 1796      		adiw r26,7
 1120 006e 2C91      		ld r18,X
 1121               	.LVL86:
 1122               		.loc 1 325 27 view .LVU330
 1123 0070 2F77      		andi r18,lo8(127)
 1124 0072 922B      		or r25,r18
 1125 0074 9D93      		st X+,r25
GAS LISTING /tmp/cc2oqvla.s 			page 40


 1126 0076 8695      		lsr r24
 1127               	.LVL87:
 1128               		.loc 1 325 27 view .LVU331
 1129 0078 9C91      		ld r25,X
 1130 007a 9078      		andi r25,lo8(-128)
 1131 007c 892B      		or r24,r25
 1132 007e 8C93      		st X,r24
 1133 0080 1897      		sbiw r26,8
 1134               	.L45:
 326:funsape/device/sevenSegmentsMuxDisplay.cpp ****     }
 327:funsape/device/sevenSegmentsMuxDisplay.cpp **** 
 328:funsape/device/sevenSegmentsMuxDisplay.cpp ****     // Returns successfully
 329:funsape/device/sevenSegmentsMuxDisplay.cpp ****     this->_lastError = Error::NONE;
 1135               		.loc 1 329 5 is_stmt 1 view .LVU332
 1136               		.loc 1 329 22 is_stmt 0 view .LVU333
 1137 0082 1596      		adiw r26,5
 1138 0084 1D92      		st X+,__zero_reg__
 1139 0086 1D92      		st X+,__zero_reg__
 330:funsape/device/sevenSegmentsMuxDisplay.cpp ****     debugMessage(Error::NONE, Debug::CodeIndex::SEVEN_SEGMENTS_MUX_DISPLAY_MODULE);
 1140               		.loc 1 330 5 is_stmt 1 view .LVU334
 331:funsape/device/sevenSegmentsMuxDisplay.cpp ****     return true;
 1141               		.loc 1 331 5 view .LVU335
 1142               		.loc 1 331 12 is_stmt 0 view .LVU336
 1143 0088 81E0      		ldi r24,lo8(1)
 1144               	.LVL88:
 1145               	.L40:
 1146               	/* epilogue start */
 332:funsape/device/sevenSegmentsMuxDisplay.cpp **** }
 1147               		.loc 1 332 1 view .LVU337
 1148 008a DF91      		pop r29
 1149 008c CF91      		pop r28
 1150 008e 0895      		ret
 1151               		.cfi_endproc
 1152               	.LFE152:
 1154               		.text
 1155               	.Letext0:
 1156               		.file 3 "/usr/avr/include/stdint.h"
 1157               		.file 4 "funsape/device/../config/atmega328p.hpp"
 1158               		.file 5 "funsape/device/../globalDefines.hpp"
 1159               		.file 6 "funsape/device/sevenSegmentsDisplay.hpp"
 1160               		.file 7 "funsape/device/sevenSegmentsMuxDisplay.hpp"
GAS LISTING /tmp/cc2oqvla.s 			page 41

