GAS LISTING /tmp/cckYZbTP.s 			page 1


   1               		.file	"ssd1306.cpp"
   2               	__SP_H__ = 0x3e
   3               	__SP_L__ = 0x3d
   4               	__SREG__ = 0x3f
   5               	__tmp_reg__ = 0
   6               	__zero_reg__ = 1
   7               		.text
   8               	.Ltext0:
   9               		.cfi_sections	.debug_frame
  10               		.file 1 "funsape/device/ssd1306.cpp"
  11               		.section	.text._ZN7Ssd1306C2Ev,"ax",@progbits
  12               	.global	_ZN7Ssd1306C2Ev
  14               	_ZN7Ssd1306C2Ev:
  15               	.LVL0:
  16               	.LFB136:
   1:funsape/device/ssd1306.cpp **** //!
   2:funsape/device/ssd1306.cpp **** //! \file           ssd1306.cpp
   3:funsape/device/ssd1306.cpp **** //! \brief          SSD1306 OLED (I2C) module interface for the FunSAPE AVR8 Library
   4:funsape/device/ssd1306.cpp **** //! \author         Franko
   5:funsape/device/ssd1306.cpp **** //! \date           2026-07-13
   6:funsape/device/ssd1306.cpp **** //! \version        24.07
   7:funsape/device/ssd1306.cpp **** //! \copyright      license
   8:funsape/device/ssd1306.cpp **** //! \details        Text-oriented driver for the SSD1306 128x64 / 128x32 OLED
   9:funsape/device/ssd1306.cpp **** //!                     display over I2C (TWI), using direct GDDRAM writes (no
  10:funsape/device/ssd1306.cpp **** //!                     framebuffer). See header for feature limitations.
  11:funsape/device/ssd1306.cpp **** //! \todo           Todo list
  12:funsape/device/ssd1306.cpp **** //!
  13:funsape/device/ssd1306.cpp **** 
  14:funsape/device/ssd1306.cpp **** // =============================================================================
  15:funsape/device/ssd1306.cpp **** // System file dependencies
  16:funsape/device/ssd1306.cpp **** // =============================================================================
  17:funsape/device/ssd1306.cpp **** 
  18:funsape/device/ssd1306.cpp **** #include "ssd1306.hpp"
  19:funsape/device/ssd1306.cpp **** #if !defined(__SSD1306_HPP)
  20:funsape/device/ssd1306.cpp **** #   error "Header file is corrupted!"
  21:funsape/device/ssd1306.cpp **** #elif __SSD1306_HPP != 2604
  22:funsape/device/ssd1306.cpp **** #   error "Version mismatch between source and header files!"
  23:funsape/device/ssd1306.cpp **** #endif
  24:funsape/device/ssd1306.cpp **** 
  25:funsape/device/ssd1306.cpp **** #include <stdio.h>
  26:funsape/device/ssd1306.cpp **** #include <avr/pgmspace.h>
  27:funsape/device/ssd1306.cpp **** 
  28:funsape/device/ssd1306.cpp **** // =============================================================================
  29:funsape/device/ssd1306.cpp **** // File exclusive - Constants
  30:funsape/device/ssd1306.cpp **** // =============================================================================
  31:funsape/device/ssd1306.cpp **** 
  32:funsape/device/ssd1306.cpp **** //     ////////////////////     I2C CONTROL BYTES     ///////////////////     //
  33:funsape/device/ssd1306.cpp **** 
  34:funsape/device/ssd1306.cpp **** #define SSD1306_CONTROL_COMMAND         0x00
  35:funsape/device/ssd1306.cpp **** #define SSD1306_CONTROL_DATA            0x40
  36:funsape/device/ssd1306.cpp **** 
  37:funsape/device/ssd1306.cpp **** //     //////////////////////     COMMAND SET     //////////////////////     //
  38:funsape/device/ssd1306.cpp **** 
  39:funsape/device/ssd1306.cpp **** #define SSD1306_SET_CONTRAST            0x81
  40:funsape/device/ssd1306.cpp **** #define SSD1306_DISPLAY_ALL_ON_RESUME   0xA4
  41:funsape/device/ssd1306.cpp **** #define SSD1306_NORMAL_DISPLAY          0xA6
  42:funsape/device/ssd1306.cpp **** #define SSD1306_INVERT_DISPLAY          0xA7
GAS LISTING /tmp/cckYZbTP.s 			page 2


  43:funsape/device/ssd1306.cpp **** #define SSD1306_DISPLAY_OFF             0xAE
  44:funsape/device/ssd1306.cpp **** #define SSD1306_DISPLAY_ON              0xAF
  45:funsape/device/ssd1306.cpp **** #define SSD1306_SET_DISPLAY_OFFSET      0xD3
  46:funsape/device/ssd1306.cpp **** #define SSD1306_SET_COM_PINS            0xDA
  47:funsape/device/ssd1306.cpp **** #define SSD1306_SET_VCOM_DETECT         0xDB
  48:funsape/device/ssd1306.cpp **** #define SSD1306_SET_DISPLAY_CLOCK_DIV   0xD5
  49:funsape/device/ssd1306.cpp **** #define SSD1306_SET_PRECHARGE           0xD9
  50:funsape/device/ssd1306.cpp **** #define SSD1306_SET_MULTIPLEX           0xA8
  51:funsape/device/ssd1306.cpp **** #define SSD1306_SET_LOW_COLUMN          0x00
  52:funsape/device/ssd1306.cpp **** #define SSD1306_SET_HIGH_COLUMN         0x10
  53:funsape/device/ssd1306.cpp **** #define SSD1306_SET_START_LINE          0x40
  54:funsape/device/ssd1306.cpp **** #define SSD1306_MEMORY_MODE             0x20
  55:funsape/device/ssd1306.cpp **** #define SSD1306_SET_PAGE_ADDRESS        0xB0
  56:funsape/device/ssd1306.cpp **** #define SSD1306_COM_SCAN_INC            0xC0
  57:funsape/device/ssd1306.cpp **** #define SSD1306_COM_SCAN_DEC            0xC8
  58:funsape/device/ssd1306.cpp **** #define SSD1306_SEG_REMAP               0xA0
  59:funsape/device/ssd1306.cpp **** #define SSD1306_CHARGE_PUMP             0x8D
  60:funsape/device/ssd1306.cpp **** 
  61:funsape/device/ssd1306.cpp **** //     ////////////////////     DRIVER CONSTANTS     ///////////////////     //
  62:funsape/device/ssd1306.cpp **** 
  63:funsape/device/ssd1306.cpp **** cuint8_t constSsd1306Width              = 128;      // display width in pixels
  64:funsape/device/ssd1306.cpp **** cuint8_t constSsd1306CellWidth          = 6;        // 5 glyph columns + 1 spacing
  65:funsape/device/ssd1306.cpp **** cuint8_t constSsd1306FontFirst          = 0x20;     // first supported ASCII char
  66:funsape/device/ssd1306.cpp **** cuint8_t constSsd1306FontLast           = 0x7E;     // last supported ASCII char
  67:funsape/device/ssd1306.cpp **** cuint8_t constSsd1306DataChunk          = 16;       // max data bytes per TWI write
  68:funsape/device/ssd1306.cpp **** cuint8_t constSsd1306TextSizeMax        = 4;        // max text scale factor
  69:funsape/device/ssd1306.cpp **** 
  70:funsape/device/ssd1306.cpp **** // =============================================================================
  71:funsape/device/ssd1306.cpp **** // File exclusive - New data types
  72:funsape/device/ssd1306.cpp **** // =============================================================================
  73:funsape/device/ssd1306.cpp **** 
  74:funsape/device/ssd1306.cpp **** // NONE
  75:funsape/device/ssd1306.cpp **** 
  76:funsape/device/ssd1306.cpp **** // =============================================================================
  77:funsape/device/ssd1306.cpp **** // Static function declarations
  78:funsape/device/ssd1306.cpp **** // =============================================================================
  79:funsape/device/ssd1306.cpp **** 
  80:funsape/device/ssd1306.cpp **** static int ssd1306WriteStd(char character_p, FILE *stream_p);
  81:funsape/device/ssd1306.cpp **** 
  82:funsape/device/ssd1306.cpp **** // =============================================================================
  83:funsape/device/ssd1306.cpp **** // File exclusive - Global variables
  84:funsape/device/ssd1306.cpp **** // =============================================================================
  85:funsape/device/ssd1306.cpp **** 
  86:funsape/device/ssd1306.cpp **** //     ////////////////     POWER-ON COMMAND SEQUENCE     ///////////////     //
  87:funsape/device/ssd1306.cpp **** //     Size-dependent commands (multiplex and COM pins) are sent separately.
  88:funsape/device/ssd1306.cpp **** 
  89:funsape/device/ssd1306.cpp **** static const uint8_t constSsd1306InitSequence[] PROGMEM = {
  90:funsape/device/ssd1306.cpp ****     SSD1306_DISPLAY_OFF,
  91:funsape/device/ssd1306.cpp ****     SSD1306_SET_DISPLAY_CLOCK_DIV,      0x80,
  92:funsape/device/ssd1306.cpp ****     SSD1306_SET_DISPLAY_OFFSET,         0x00,
  93:funsape/device/ssd1306.cpp ****     SSD1306_SET_START_LINE |            0x00,
  94:funsape/device/ssd1306.cpp ****     SSD1306_CHARGE_PUMP,                0x14,
  95:funsape/device/ssd1306.cpp ****     SSD1306_MEMORY_MODE,                0x02,       // page addressing mode
  96:funsape/device/ssd1306.cpp ****     SSD1306_SEG_REMAP |                 0x01,
  97:funsape/device/ssd1306.cpp ****     SSD1306_COM_SCAN_DEC,
  98:funsape/device/ssd1306.cpp ****     SSD1306_SET_PRECHARGE,              0xF1,
  99:funsape/device/ssd1306.cpp ****     SSD1306_SET_VCOM_DETECT,            0x40,
GAS LISTING /tmp/cckYZbTP.s 			page 3


 100:funsape/device/ssd1306.cpp ****     SSD1306_DISPLAY_ALL_ON_RESUME,
 101:funsape/device/ssd1306.cpp ****     SSD1306_NORMAL_DISPLAY,
 102:funsape/device/ssd1306.cpp **** };
 103:funsape/device/ssd1306.cpp **** 
 104:funsape/device/ssd1306.cpp **** //     /////////////////////     5x7 ASCII FONT     ////////////////////     //
 105:funsape/device/ssd1306.cpp **** //     Column-major, 5 columns per glyph, bit 0 = top row. Covers 0x20-0x7E.
 106:funsape/device/ssd1306.cpp **** 
 107:funsape/device/ssd1306.cpp **** static const uint8_t constSsd1306Font[][5] PROGMEM = {
 108:funsape/device/ssd1306.cpp ****     {0x00, 0x00, 0x00, 0x00, 0x00},     // 0x20 ' '
 109:funsape/device/ssd1306.cpp ****     {0x00, 0x00, 0x5F, 0x00, 0x00},     // 0x21 '!'
 110:funsape/device/ssd1306.cpp ****     {0x00, 0x07, 0x00, 0x07, 0x00},     // 0x22 '"'
 111:funsape/device/ssd1306.cpp ****     {0x14, 0x7F, 0x14, 0x7F, 0x14},     // 0x23 '#'
 112:funsape/device/ssd1306.cpp ****     {0x24, 0x2A, 0x7F, 0x2A, 0x12},     // 0x24 '$'
 113:funsape/device/ssd1306.cpp ****     {0x23, 0x13, 0x08, 0x64, 0x62},     // 0x25 '%'
 114:funsape/device/ssd1306.cpp ****     {0x36, 0x49, 0x55, 0x22, 0x50},     // 0x26 '&'
 115:funsape/device/ssd1306.cpp ****     {0x00, 0x05, 0x03, 0x00, 0x00},     // 0x27 '''
 116:funsape/device/ssd1306.cpp ****     {0x00, 0x1C, 0x22, 0x41, 0x00},     // 0x28 '('
 117:funsape/device/ssd1306.cpp ****     {0x00, 0x41, 0x22, 0x1C, 0x00},     // 0x29 ')'
 118:funsape/device/ssd1306.cpp ****     {0x14, 0x08, 0x3E, 0x08, 0x14},     // 0x2A '*'
 119:funsape/device/ssd1306.cpp ****     {0x08, 0x08, 0x3E, 0x08, 0x08},     // 0x2B '+'
 120:funsape/device/ssd1306.cpp ****     {0x00, 0x50, 0x30, 0x00, 0x00},     // 0x2C ','
 121:funsape/device/ssd1306.cpp ****     {0x08, 0x08, 0x08, 0x08, 0x08},     // 0x2D '-'
 122:funsape/device/ssd1306.cpp ****     {0x00, 0x60, 0x60, 0x00, 0x00},     // 0x2E '.'
 123:funsape/device/ssd1306.cpp ****     {0x20, 0x10, 0x08, 0x04, 0x02},     // 0x2F '/'
 124:funsape/device/ssd1306.cpp ****     {0x3E, 0x51, 0x49, 0x45, 0x3E},     // 0x30 '0'
 125:funsape/device/ssd1306.cpp ****     {0x00, 0x42, 0x7F, 0x40, 0x00},     // 0x31 '1'
 126:funsape/device/ssd1306.cpp ****     {0x42, 0x61, 0x51, 0x49, 0x46},     // 0x32 '2'
 127:funsape/device/ssd1306.cpp ****     {0x21, 0x41, 0x45, 0x4B, 0x31},     // 0x33 '3'
 128:funsape/device/ssd1306.cpp ****     {0x18, 0x14, 0x12, 0x7F, 0x10},     // 0x34 '4'
 129:funsape/device/ssd1306.cpp ****     {0x27, 0x45, 0x45, 0x45, 0x39},     // 0x35 '5'
 130:funsape/device/ssd1306.cpp ****     {0x3C, 0x4A, 0x49, 0x49, 0x30},     // 0x36 '6'
 131:funsape/device/ssd1306.cpp ****     {0x01, 0x71, 0x09, 0x05, 0x03},     // 0x37 '7'
 132:funsape/device/ssd1306.cpp ****     {0x36, 0x49, 0x49, 0x49, 0x36},     // 0x38 '8'
 133:funsape/device/ssd1306.cpp ****     {0x06, 0x49, 0x49, 0x29, 0x1E},     // 0x39 '9'
 134:funsape/device/ssd1306.cpp ****     {0x00, 0x36, 0x36, 0x00, 0x00},     // 0x3A ':'
 135:funsape/device/ssd1306.cpp ****     {0x00, 0x56, 0x36, 0x00, 0x00},     // 0x3B ';'
 136:funsape/device/ssd1306.cpp ****     {0x08, 0x14, 0x22, 0x41, 0x00},     // 0x3C '<'
 137:funsape/device/ssd1306.cpp ****     {0x14, 0x14, 0x14, 0x14, 0x14},     // 0x3D '='
 138:funsape/device/ssd1306.cpp ****     {0x00, 0x41, 0x22, 0x14, 0x08},     // 0x3E '>'
 139:funsape/device/ssd1306.cpp ****     {0x02, 0x01, 0x51, 0x09, 0x06},     // 0x3F '?'
 140:funsape/device/ssd1306.cpp ****     {0x32, 0x49, 0x79, 0x41, 0x3E},     // 0x40 '@'
 141:funsape/device/ssd1306.cpp ****     {0x7E, 0x11, 0x11, 0x11, 0x7E},     // 0x41 'A'
 142:funsape/device/ssd1306.cpp ****     {0x7F, 0x49, 0x49, 0x49, 0x36},     // 0x42 'B'
 143:funsape/device/ssd1306.cpp ****     {0x3E, 0x41, 0x41, 0x41, 0x22},     // 0x43 'C'
 144:funsape/device/ssd1306.cpp ****     {0x7F, 0x41, 0x41, 0x22, 0x1C},     // 0x44 'D'
 145:funsape/device/ssd1306.cpp ****     {0x7F, 0x49, 0x49, 0x49, 0x41},     // 0x45 'E'
 146:funsape/device/ssd1306.cpp ****     {0x7F, 0x09, 0x09, 0x09, 0x01},     // 0x46 'F'
 147:funsape/device/ssd1306.cpp ****     {0x3E, 0x41, 0x49, 0x49, 0x7A},     // 0x47 'G'
 148:funsape/device/ssd1306.cpp ****     {0x7F, 0x08, 0x08, 0x08, 0x7F},     // 0x48 'H'
 149:funsape/device/ssd1306.cpp ****     {0x00, 0x41, 0x7F, 0x41, 0x00},     // 0x49 'I'
 150:funsape/device/ssd1306.cpp ****     {0x20, 0x40, 0x41, 0x3F, 0x01},     // 0x4A 'J'
 151:funsape/device/ssd1306.cpp ****     {0x7F, 0x08, 0x14, 0x22, 0x41},     // 0x4B 'K'
 152:funsape/device/ssd1306.cpp ****     {0x7F, 0x40, 0x40, 0x40, 0x40},     // 0x4C 'L'
 153:funsape/device/ssd1306.cpp ****     {0x7F, 0x02, 0x0C, 0x02, 0x7F},     // 0x4D 'M'
 154:funsape/device/ssd1306.cpp ****     {0x7F, 0x04, 0x08, 0x10, 0x7F},     // 0x4E 'N'
 155:funsape/device/ssd1306.cpp ****     {0x3E, 0x41, 0x41, 0x41, 0x3E},     // 0x4F 'O'
 156:funsape/device/ssd1306.cpp ****     {0x7F, 0x09, 0x09, 0x09, 0x06},     // 0x50 'P'
GAS LISTING /tmp/cckYZbTP.s 			page 4


 157:funsape/device/ssd1306.cpp ****     {0x3E, 0x41, 0x51, 0x21, 0x5E},     // 0x51 'Q'
 158:funsape/device/ssd1306.cpp ****     {0x7F, 0x09, 0x19, 0x29, 0x46},     // 0x52 'R'
 159:funsape/device/ssd1306.cpp ****     {0x46, 0x49, 0x49, 0x49, 0x31},     // 0x53 'S'
 160:funsape/device/ssd1306.cpp ****     {0x01, 0x01, 0x7F, 0x01, 0x01},     // 0x54 'T'
 161:funsape/device/ssd1306.cpp ****     {0x3F, 0x40, 0x40, 0x40, 0x3F},     // 0x55 'U'
 162:funsape/device/ssd1306.cpp ****     {0x1F, 0x20, 0x40, 0x20, 0x1F},     // 0x56 'V'
 163:funsape/device/ssd1306.cpp ****     {0x3F, 0x40, 0x38, 0x40, 0x3F},     // 0x57 'W'
 164:funsape/device/ssd1306.cpp ****     {0x63, 0x14, 0x08, 0x14, 0x63},     // 0x58 'X'
 165:funsape/device/ssd1306.cpp ****     {0x07, 0x08, 0x70, 0x08, 0x07},     // 0x59 'Y'
 166:funsape/device/ssd1306.cpp ****     {0x61, 0x51, 0x49, 0x45, 0x43},     // 0x5A 'Z'
 167:funsape/device/ssd1306.cpp ****     {0x00, 0x7F, 0x41, 0x41, 0x00},     // 0x5B '['
 168:funsape/device/ssd1306.cpp ****     {0x02, 0x04, 0x08, 0x10, 0x20},     // 0x5C '\'
 169:funsape/device/ssd1306.cpp ****     {0x00, 0x41, 0x41, 0x7F, 0x00},     // 0x5D ']'
 170:funsape/device/ssd1306.cpp ****     {0x04, 0x02, 0x01, 0x02, 0x04},     // 0x5E '^'
 171:funsape/device/ssd1306.cpp ****     {0x40, 0x40, 0x40, 0x40, 0x40},     // 0x5F '_'
 172:funsape/device/ssd1306.cpp ****     {0x00, 0x01, 0x02, 0x04, 0x00},     // 0x60 '`'
 173:funsape/device/ssd1306.cpp ****     {0x20, 0x54, 0x54, 0x54, 0x78},     // 0x61 'a'
 174:funsape/device/ssd1306.cpp ****     {0x7F, 0x48, 0x44, 0x44, 0x38},     // 0x62 'b'
 175:funsape/device/ssd1306.cpp ****     {0x38, 0x44, 0x44, 0x44, 0x20},     // 0x63 'c'
 176:funsape/device/ssd1306.cpp ****     {0x38, 0x44, 0x44, 0x48, 0x7F},     // 0x64 'd'
 177:funsape/device/ssd1306.cpp ****     {0x38, 0x54, 0x54, 0x54, 0x18},     // 0x65 'e'
 178:funsape/device/ssd1306.cpp ****     {0x08, 0x7E, 0x09, 0x01, 0x02},     // 0x66 'f'
 179:funsape/device/ssd1306.cpp ****     {0x0C, 0x52, 0x52, 0x52, 0x3E},     // 0x67 'g'
 180:funsape/device/ssd1306.cpp ****     {0x7F, 0x08, 0x04, 0x04, 0x78},     // 0x68 'h'
 181:funsape/device/ssd1306.cpp ****     {0x00, 0x44, 0x7D, 0x40, 0x00},     // 0x69 'i'
 182:funsape/device/ssd1306.cpp ****     {0x20, 0x40, 0x44, 0x3D, 0x00},     // 0x6A 'j'
 183:funsape/device/ssd1306.cpp ****     {0x7F, 0x10, 0x28, 0x44, 0x00},     // 0x6B 'k'
 184:funsape/device/ssd1306.cpp ****     {0x00, 0x41, 0x7F, 0x40, 0x00},     // 0x6C 'l'
 185:funsape/device/ssd1306.cpp ****     {0x7C, 0x04, 0x18, 0x04, 0x78},     // 0x6D 'm'
 186:funsape/device/ssd1306.cpp ****     {0x7C, 0x08, 0x04, 0x04, 0x78},     // 0x6E 'n'
 187:funsape/device/ssd1306.cpp ****     {0x38, 0x44, 0x44, 0x44, 0x38},     // 0x6F 'o'
 188:funsape/device/ssd1306.cpp ****     {0x7C, 0x14, 0x14, 0x14, 0x08},     // 0x70 'p'
 189:funsape/device/ssd1306.cpp ****     {0x08, 0x14, 0x14, 0x18, 0x7C},     // 0x71 'q'
 190:funsape/device/ssd1306.cpp ****     {0x7C, 0x08, 0x04, 0x04, 0x08},     // 0x72 'r'
 191:funsape/device/ssd1306.cpp ****     {0x48, 0x54, 0x54, 0x54, 0x20},     // 0x73 's'
 192:funsape/device/ssd1306.cpp ****     {0x04, 0x3F, 0x44, 0x40, 0x20},     // 0x74 't'
 193:funsape/device/ssd1306.cpp ****     {0x3C, 0x40, 0x40, 0x20, 0x7C},     // 0x75 'u'
 194:funsape/device/ssd1306.cpp ****     {0x1C, 0x20, 0x40, 0x20, 0x1C},     // 0x76 'v'
 195:funsape/device/ssd1306.cpp ****     {0x3C, 0x40, 0x30, 0x40, 0x3C},     // 0x77 'w'
 196:funsape/device/ssd1306.cpp ****     {0x44, 0x28, 0x10, 0x28, 0x44},     // 0x78 'x'
 197:funsape/device/ssd1306.cpp ****     {0x0C, 0x50, 0x50, 0x50, 0x3C},     // 0x79 'y'
 198:funsape/device/ssd1306.cpp ****     {0x44, 0x64, 0x54, 0x4C, 0x44},     // 0x7A 'z'
 199:funsape/device/ssd1306.cpp ****     {0x00, 0x08, 0x36, 0x41, 0x00},     // 0x7B '{'
 200:funsape/device/ssd1306.cpp ****     {0x00, 0x00, 0x7F, 0x00, 0x00},     // 0x7C '|'
 201:funsape/device/ssd1306.cpp ****     {0x00, 0x41, 0x36, 0x08, 0x00},     // 0x7D '}'
 202:funsape/device/ssd1306.cpp ****     {0x08, 0x04, 0x08, 0x10, 0x08},     // 0x7E '~'
 203:funsape/device/ssd1306.cpp **** };
 204:funsape/device/ssd1306.cpp **** 
 205:funsape/device/ssd1306.cpp **** FILE ssd1306Stream                      = {0};
 206:funsape/device/ssd1306.cpp **** Ssd1306 *defaultSsd1306Display          = nullptr;
 207:funsape/device/ssd1306.cpp **** 
 208:funsape/device/ssd1306.cpp **** // =============================================================================
 209:funsape/device/ssd1306.cpp **** // File exclusive - Macro-functions
 210:funsape/device/ssd1306.cpp **** // =============================================================================
 211:funsape/device/ssd1306.cpp **** 
 212:funsape/device/ssd1306.cpp **** // NONE
 213:funsape/device/ssd1306.cpp **** 
GAS LISTING /tmp/cckYZbTP.s 			page 5


 214:funsape/device/ssd1306.cpp **** // =============================================================================
 215:funsape/device/ssd1306.cpp **** // Class constructors
 216:funsape/device/ssd1306.cpp **** // =============================================================================
 217:funsape/device/ssd1306.cpp **** 
 218:funsape/device/ssd1306.cpp **** Ssd1306::Ssd1306(void)
  17               		.loc 1 218 1 view -0
  18               		.cfi_startproc
  19               	/* prologue: function */
  20               	/* frame size = 0 */
  21               	/* stack size = 0 */
  22               	.L__stack_usage = 0
  23               		.loc 1 218 1 is_stmt 0 view .LVU1
  24 0000 FC01      		movw r30,r24
  25               	.LBB2:
 219:funsape/device/ssd1306.cpp **** {
 220:funsape/device/ssd1306.cpp ****     // Mark passage for debugging purpose
 221:funsape/device/ssd1306.cpp ****     debugMark(PSTR("Ssd1306::Ssd1306(void)"), Debug::CodeIndex::SSD1306_MODULE);
  26               		.loc 1 221 5 is_stmt 1 view .LVU2
 222:funsape/device/ssd1306.cpp **** 
 223:funsape/device/ssd1306.cpp ****     fdev_setup_stream(&ssd1306Stream, ssd1306WriteStd, nullptr, _FDEV_SETUP_WRITE);
  27               		.loc 1 223 5 view .LVU3
  28               		.loc 1 223 5 view .LVU4
  29 0002 A0E0      		ldi r26,lo8(ssd1306Stream+8)
  30 0004 B0E0      		ldi r27,hi8(ssd1306Stream+8)
  31 0006 80E0      		ldi r24,lo8(gs(_ZL15ssd1306WriteStdcP6__file))
  32 0008 90E0      		ldi r25,hi8(gs(_ZL15ssd1306WriteStdcP6__file))
  33               	.LVL1:
  34               		.loc 1 223 5 is_stmt 0 view .LVU5
  35 000a 8D93      		st X+,r24
  36 000c 9D93      		st X+,r25
  37               		.loc 1 223 5 is_stmt 1 view .LVU6
  38 000e 1D92      		st X+,__zero_reg__
  39 0010 1D92      		st X+,__zero_reg__
  40               		.loc 1 223 5 view .LVU7
  41 0012 82E0      		ldi r24,lo8(2)
  42 0014 1997      		sbiw r26,9
  43 0016 8C93      		st X,r24
  44               		.loc 1 223 5 view .LVU8
  45 0018 1996      		adiw r26,9
  46 001a 1D92      		st X+,__zero_reg__
  47 001c 1D92      		st X+,__zero_reg__
  48               		.loc 1 223 5 view .LVU9
 224:funsape/device/ssd1306.cpp **** 
 225:funsape/device/ssd1306.cpp ****     // Reset data members
 226:funsape/device/ssd1306.cpp ****     this->_busHandler                   = nullptr;
  49               		.loc 1 226 5 view .LVU10
  50               		.loc 1 226 41 is_stmt 0 view .LVU11
  51 001e 1182      		std Z+1,__zero_reg__
  52 0020 1082      		st Z,__zero_reg__
 227:funsape/device/ssd1306.cpp ****     this->_busHandlerSet                = false;
  53               		.loc 1 227 5 is_stmt 1 view .LVU12
  54               		.loc 1 227 41 is_stmt 0 view .LVU13
  55 0022 8281      		ldd r24,Z+2
  56 0024 8E7F      		andi r24,lo8(~(1<<0))
  57 0026 8283      		std Z+2,r24
 228:funsape/device/ssd1306.cpp ****     this->_initialized                  = false;
  58               		.loc 1 228 5 is_stmt 1 view .LVU14
GAS LISTING /tmp/cckYZbTP.s 			page 6


  59               		.loc 1 228 41 is_stmt 0 view .LVU15
  60 0028 8D7F      		andi r24,lo8(~(1<<1))
  61 002a 8283      		std Z+2,r24
 229:funsape/device/ssd1306.cpp ****     this->_deviceAddress                = 0x3C;
  62               		.loc 1 229 5 is_stmt 1 view .LVU16
  63               		.loc 1 229 41 is_stmt 0 view .LVU17
  64 002c 8581      		ldd r24,Z+5
  65 002e 8078      		andi r24,lo8(-128)
  66 0030 8C63      		ori r24,lo8(60)
  67 0032 8583      		std Z+5,r24
 230:funsape/device/ssd1306.cpp ****     this->_size                         = Size::SSD1306_128X64;
  68               		.loc 1 230 5 is_stmt 1 view .LVU18
  69               		.loc 1 230 41 is_stmt 0 view .LVU19
  70 0034 1682      		std Z+6,__zero_reg__
 231:funsape/device/ssd1306.cpp ****     this->_pages                        = 8;
  71               		.loc 1 231 5 is_stmt 1 view .LVU20
  72               		.loc 1 231 41 is_stmt 0 view .LVU21
  73 0036 88E0      		ldi r24,lo8(8)
  74 0038 8783      		std Z+7,r24
 232:funsape/device/ssd1306.cpp ****     this->_cursorX                      = 0;
  75               		.loc 1 232 5 is_stmt 1 view .LVU22
  76               		.loc 1 232 41 is_stmt 0 view .LVU23
  77 003a 1086      		std Z+8,__zero_reg__
 233:funsape/device/ssd1306.cpp ****     this->_cursorPage                   = 0;
  78               		.loc 1 233 5 is_stmt 1 view .LVU24
  79               		.loc 1 233 41 is_stmt 0 view .LVU25
  80 003c 8185      		ldd r24,Z+9
  81 003e 982F      		mov r25,r24
  82 0040 987F      		andi r25,lo8(-8)
  83 0042 9187      		std Z+9,r25
 234:funsape/device/ssd1306.cpp ****     this->_textSize                     = 1;
  84               		.loc 1 234 5 is_stmt 1 view .LVU26
  85               		.loc 1 234 41 is_stmt 0 view .LVU27
  86 0044 807C      		andi r24,lo8(-64)
  87 0046 8860      		ori r24,lo8(8)
  88 0048 8187      		std Z+9,r24
 235:funsape/device/ssd1306.cpp **** 
 236:funsape/device/ssd1306.cpp ****     // Returns successfully
 237:funsape/device/ssd1306.cpp ****     this->_lastError = Error::NONE;
  89               		.loc 1 237 5 is_stmt 1 view .LVU28
  90               		.loc 1 237 22 is_stmt 0 view .LVU29
  91 004a 1482      		std Z+4,__zero_reg__
  92 004c 1382      		std Z+3,__zero_reg__
 238:funsape/device/ssd1306.cpp ****     debugMessage(Error::NONE, Debug::CodeIndex::SSD1306_MODULE);
  93               		.loc 1 238 5 is_stmt 1 view .LVU30
 239:funsape/device/ssd1306.cpp ****     return;
  94               		.loc 1 239 5 view .LVU31
  95               	/* epilogue start */
  96               	.LBE2:
 240:funsape/device/ssd1306.cpp **** }
  97               		.loc 1 240 1 is_stmt 0 view .LVU32
  98 004e 0895      		ret
  99               		.cfi_endproc
 100               	.LFE136:
 102               	.global	_ZN7Ssd1306C1Ev
 103               		.set	_ZN7Ssd1306C1Ev,_ZN7Ssd1306C2Ev
 104               		.section	.text._ZN7Ssd1306D2Ev,"ax",@progbits
GAS LISTING /tmp/cckYZbTP.s 			page 7


 105               	.global	_ZN7Ssd1306D2Ev
 107               	_ZN7Ssd1306D2Ev:
 108               	.LVL2:
 109               	.LFB139:
 241:funsape/device/ssd1306.cpp **** 
 242:funsape/device/ssd1306.cpp **** Ssd1306::~Ssd1306(void)
 110               		.loc 1 242 1 is_stmt 1 view -0
 111               		.cfi_startproc
 112               	/* prologue: function */
 113               	/* frame size = 0 */
 114               	/* stack size = 0 */
 115               	.L__stack_usage = 0
 116               	.LBB3:
 243:funsape/device/ssd1306.cpp **** {
 244:funsape/device/ssd1306.cpp ****     // Returns successfully
 245:funsape/device/ssd1306.cpp ****     debugMessage(Error::NONE, Debug::CodeIndex::SSD1306_MODULE);
 117               		.loc 1 245 5 view .LVU34
 246:funsape/device/ssd1306.cpp ****     return;
 118               		.loc 1 246 5 view .LVU35
 119               	/* epilogue start */
 120               	.LBE3:
 247:funsape/device/ssd1306.cpp **** }
 121               		.loc 1 247 1 is_stmt 0 view .LVU36
 122 0000 0895      		ret
 123               		.cfi_endproc
 124               	.LFE139:
 126               	.global	_ZN7Ssd1306D1Ev
 127               		.set	_ZN7Ssd1306D1Ev,_ZN7Ssd1306D2Ev
 128               		.section	.text._ZN7Ssd130612getLastErrorEv,"ax",@progbits
 129               	.global	_ZN7Ssd130612getLastErrorEv
 131               	_ZN7Ssd130612getLastErrorEv:
 132               	.LVL3:
 133               	.LFB146:
 248:funsape/device/ssd1306.cpp **** 
 249:funsape/device/ssd1306.cpp **** // =============================================================================
 250:funsape/device/ssd1306.cpp **** // Class public methods
 251:funsape/device/ssd1306.cpp **** // =============================================================================
 252:funsape/device/ssd1306.cpp **** 
 253:funsape/device/ssd1306.cpp **** //     ///////////////////     CONTROL AND STATUS     ///////////////////     //
 254:funsape/device/ssd1306.cpp **** 
 255:funsape/device/ssd1306.cpp **** bool_t Ssd1306::init(Bus *busHandler_p, const Size size_p, cuint8_t address_p)
 256:funsape/device/ssd1306.cpp **** {
 257:funsape/device/ssd1306.cpp ****     // Mark passage for debugging purpose
 258:funsape/device/ssd1306.cpp ****     debugMark(PSTR("Ssd1306::init(Bus *, const Size, cuint8_t)"), Debug::CodeIndex::SSD1306_MODULE)
 259:funsape/device/ssd1306.cpp **** 
 260:funsape/device/ssd1306.cpp ****     // Updates data members
 261:funsape/device/ssd1306.cpp ****     this->_busHandlerSet                = false;
 262:funsape/device/ssd1306.cpp ****     this->_initialized                  = false;
 263:funsape/device/ssd1306.cpp **** 
 264:funsape/device/ssd1306.cpp ****     // Check function arguments for errors
 265:funsape/device/ssd1306.cpp ****     if(!isPointerValid(busHandler_p)) {
 266:funsape/device/ssd1306.cpp ****         // Returns error
 267:funsape/device/ssd1306.cpp ****         this->_lastError = Error::BUS_HANDLER_POINTER_NULL;
 268:funsape/device/ssd1306.cpp ****         debugMessage(Error::BUS_HANDLER_POINTER_NULL, Debug::CodeIndex::SSD1306_MODULE);
 269:funsape/device/ssd1306.cpp ****         return false;
 270:funsape/device/ssd1306.cpp ****     } else if(busHandler_p->getBusType() != Bus::BusType::TWI) {
 271:funsape/device/ssd1306.cpp ****         // Returns error
GAS LISTING /tmp/cckYZbTP.s 			page 8


 272:funsape/device/ssd1306.cpp ****         this->_lastError = Error::BUS_HANDLER_NOT_SUPPORTED;
 273:funsape/device/ssd1306.cpp ****         debugMessage(Error::BUS_HANDLER_NOT_SUPPORTED, Debug::CodeIndex::SSD1306_MODULE);
 274:funsape/device/ssd1306.cpp ****         return false;
 275:funsape/device/ssd1306.cpp ****     }
 276:funsape/device/ssd1306.cpp **** 
 277:funsape/device/ssd1306.cpp ****     // Updates data members
 278:funsape/device/ssd1306.cpp ****     this->_busHandler                   = busHandler_p;
 279:funsape/device/ssd1306.cpp ****     this->_busHandlerSet                = true;
 280:funsape/device/ssd1306.cpp ****     this->_deviceAddress                = address_p;
 281:funsape/device/ssd1306.cpp ****     this->_size                         = size_p;
 282:funsape/device/ssd1306.cpp ****     this->_pages                        = (size_p == Size::SSD1306_128X64) ? 8 : 4;
 283:funsape/device/ssd1306.cpp ****     this->_cursorX                      = 0;
 284:funsape/device/ssd1306.cpp ****     this->_cursorPage                   = 0;
 285:funsape/device/ssd1306.cpp ****     this->_textSize                     = 1;
 286:funsape/device/ssd1306.cpp **** 
 287:funsape/device/ssd1306.cpp ****     // Local variables
 288:funsape/device/ssd1306.cpp ****     uint8_t auxMultiplex                = (size_p == Size::SSD1306_128X64) ? 0x3F : 0x1F;
 289:funsape/device/ssd1306.cpp ****     uint8_t auxComPins                  = (size_p == Size::SSD1306_128X64) ? 0x12 : 0x02;
 290:funsape/device/ssd1306.cpp **** 
 291:funsape/device/ssd1306.cpp ****     // Sends power-on command sequence
 292:funsape/device/ssd1306.cpp ****     if(!this->_writeCommandList(constSsd1306InitSequence, sizeof(constSsd1306InitSequence))) {
 293:funsape/device/ssd1306.cpp ****         // Returns error
 294:funsape/device/ssd1306.cpp ****         debugMessage(this->_lastError, Debug::CodeIndex::SSD1306_MODULE);
 295:funsape/device/ssd1306.cpp ****         return false;
 296:funsape/device/ssd1306.cpp ****     }
 297:funsape/device/ssd1306.cpp ****     if(!this->_writeCommand(SSD1306_SET_MULTIPLEX) || !this->_writeCommand(auxMultiplex)) {
 298:funsape/device/ssd1306.cpp ****         // Returns error
 299:funsape/device/ssd1306.cpp ****         debugMessage(this->_lastError, Debug::CodeIndex::SSD1306_MODULE);
 300:funsape/device/ssd1306.cpp ****         return false;
 301:funsape/device/ssd1306.cpp ****     }
 302:funsape/device/ssd1306.cpp ****     if(!this->_writeCommand(SSD1306_SET_COM_PINS) || !this->_writeCommand(auxComPins)) {
 303:funsape/device/ssd1306.cpp ****         // Returns error
 304:funsape/device/ssd1306.cpp ****         debugMessage(this->_lastError, Debug::CodeIndex::SSD1306_MODULE);
 305:funsape/device/ssd1306.cpp ****         return false;
 306:funsape/device/ssd1306.cpp ****     }
 307:funsape/device/ssd1306.cpp ****     if(!this->_writeCommand(SSD1306_SET_CONTRAST) || !this->_writeCommand(0xCF)) {
 308:funsape/device/ssd1306.cpp ****         // Returns error
 309:funsape/device/ssd1306.cpp ****         debugMessage(this->_lastError, Debug::CodeIndex::SSD1306_MODULE);
 310:funsape/device/ssd1306.cpp ****         return false;
 311:funsape/device/ssd1306.cpp ****     }
 312:funsape/device/ssd1306.cpp ****     if(!this->_writeCommand(SSD1306_DISPLAY_ON)) {
 313:funsape/device/ssd1306.cpp ****         // Returns error
 314:funsape/device/ssd1306.cpp ****         debugMessage(this->_lastError, Debug::CodeIndex::SSD1306_MODULE);
 315:funsape/device/ssd1306.cpp ****         return false;
 316:funsape/device/ssd1306.cpp ****     }
 317:funsape/device/ssd1306.cpp **** 
 318:funsape/device/ssd1306.cpp ****     // Marks device as initialized and clears the display
 319:funsape/device/ssd1306.cpp ****     this->_initialized                  = true;
 320:funsape/device/ssd1306.cpp ****     if(!this->clearScreen()) {
 321:funsape/device/ssd1306.cpp ****         // Returns error
 322:funsape/device/ssd1306.cpp ****         debugMessage(this->_lastError, Debug::CodeIndex::SSD1306_MODULE);
 323:funsape/device/ssd1306.cpp ****         return false;
 324:funsape/device/ssd1306.cpp ****     }
 325:funsape/device/ssd1306.cpp **** 
 326:funsape/device/ssd1306.cpp ****     // Returns successfully
 327:funsape/device/ssd1306.cpp ****     this->_lastError = Error::NONE;
 328:funsape/device/ssd1306.cpp ****     debugMessage(Error::NONE, Debug::CodeIndex::SSD1306_MODULE);
GAS LISTING /tmp/cckYZbTP.s 			page 9


 329:funsape/device/ssd1306.cpp ****     return true;
 330:funsape/device/ssd1306.cpp **** }
 331:funsape/device/ssd1306.cpp **** 
 332:funsape/device/ssd1306.cpp **** bool_t Ssd1306::clearScreen(void)
 333:funsape/device/ssd1306.cpp **** {
 334:funsape/device/ssd1306.cpp ****     // Mark passage for debugging purpose
 335:funsape/device/ssd1306.cpp ****     debugMark(PSTR("Ssd1306::clearScreen(void)"), Debug::CodeIndex::SSD1306_MODULE);
 336:funsape/device/ssd1306.cpp **** 
 337:funsape/device/ssd1306.cpp ****     // Check for errors
 338:funsape/device/ssd1306.cpp ****     if(!this->_isInitialized()) {
 339:funsape/device/ssd1306.cpp ****         // Returns error
 340:funsape/device/ssd1306.cpp ****         debugMessage(this->_lastError, Debug::CodeIndex::SSD1306_MODULE);
 341:funsape/device/ssd1306.cpp ****         return false;
 342:funsape/device/ssd1306.cpp ****     }
 343:funsape/device/ssd1306.cpp **** 
 344:funsape/device/ssd1306.cpp ****     // Local variables
 345:funsape/device/ssd1306.cpp ****     uint8_t auxBuffer[constSsd1306DataChunk];
 346:funsape/device/ssd1306.cpp **** 
 347:funsape/device/ssd1306.cpp ****     // Prepares a blank chunk
 348:funsape/device/ssd1306.cpp ****     for(uint8_t i = 0; i < constSsd1306DataChunk; i++) {
 349:funsape/device/ssd1306.cpp ****         auxBuffer[i] = 0x00;
 350:funsape/device/ssd1306.cpp ****     }
 351:funsape/device/ssd1306.cpp **** 
 352:funsape/device/ssd1306.cpp ****     // Writes zeros to every page
 353:funsape/device/ssd1306.cpp ****     for(uint8_t page = 0; page < this->_pages; page++) {
 354:funsape/device/ssd1306.cpp ****         if(!this->_setAddress(page, 0)) {
 355:funsape/device/ssd1306.cpp ****             // Returns error
 356:funsape/device/ssd1306.cpp ****             debugMessage(this->_lastError, Debug::CodeIndex::SSD1306_MODULE);
 357:funsape/device/ssd1306.cpp ****             return false;
 358:funsape/device/ssd1306.cpp ****         }
 359:funsape/device/ssd1306.cpp ****         uint8_t remaining = constSsd1306Width;
 360:funsape/device/ssd1306.cpp ****         while(remaining > 0) {
 361:funsape/device/ssd1306.cpp ****             uint8_t chunk = (remaining > constSsd1306DataChunk) ? constSsd1306DataChunk : remaining
 362:funsape/device/ssd1306.cpp ****             if(!this->_writeData(auxBuffer, chunk)) {
 363:funsape/device/ssd1306.cpp ****                 // Returns error
 364:funsape/device/ssd1306.cpp ****                 debugMessage(this->_lastError, Debug::CodeIndex::SSD1306_MODULE);
 365:funsape/device/ssd1306.cpp ****                 return false;
 366:funsape/device/ssd1306.cpp ****             }
 367:funsape/device/ssd1306.cpp ****             remaining -= chunk;
 368:funsape/device/ssd1306.cpp ****         }
 369:funsape/device/ssd1306.cpp ****     }
 370:funsape/device/ssd1306.cpp **** 
 371:funsape/device/ssd1306.cpp ****     // Homes the text cursor
 372:funsape/device/ssd1306.cpp ****     this->_cursorX                      = 0;
 373:funsape/device/ssd1306.cpp ****     this->_cursorPage                   = 0;
 374:funsape/device/ssd1306.cpp **** 
 375:funsape/device/ssd1306.cpp ****     // Returns successfully
 376:funsape/device/ssd1306.cpp ****     this->_lastError = Error::NONE;
 377:funsape/device/ssd1306.cpp ****     debugMessage(Error::NONE, Debug::CodeIndex::SSD1306_MODULE);
 378:funsape/device/ssd1306.cpp ****     return true;
 379:funsape/device/ssd1306.cpp **** }
 380:funsape/device/ssd1306.cpp **** 
 381:funsape/device/ssd1306.cpp **** bool_t Ssd1306::setDisplayState(const Activation state_p)
 382:funsape/device/ssd1306.cpp **** {
 383:funsape/device/ssd1306.cpp ****     // Mark passage for debugging purpose
 384:funsape/device/ssd1306.cpp ****     debugMark(PSTR("Ssd1306::setDisplayState(const Activation)"), Debug::CodeIndex::SSD1306_MODULE)
 385:funsape/device/ssd1306.cpp **** 
GAS LISTING /tmp/cckYZbTP.s 			page 10


 386:funsape/device/ssd1306.cpp ****     // Check for errors
 387:funsape/device/ssd1306.cpp ****     if(!this->_isInitialized()) {
 388:funsape/device/ssd1306.cpp ****         // Returns error
 389:funsape/device/ssd1306.cpp ****         debugMessage(this->_lastError, Debug::CodeIndex::SSD1306_MODULE);
 390:funsape/device/ssd1306.cpp ****         return false;
 391:funsape/device/ssd1306.cpp ****     }
 392:funsape/device/ssd1306.cpp **** 
 393:funsape/device/ssd1306.cpp ****     // Sends command
 394:funsape/device/ssd1306.cpp ****     if(!this->_writeCommand((state_p == Activation::ON) ? SSD1306_DISPLAY_ON : SSD1306_DISPLAY_OFF)
 395:funsape/device/ssd1306.cpp ****         // Returns error
 396:funsape/device/ssd1306.cpp ****         debugMessage(this->_lastError, Debug::CodeIndex::SSD1306_MODULE);
 397:funsape/device/ssd1306.cpp ****         return false;
 398:funsape/device/ssd1306.cpp ****     }
 399:funsape/device/ssd1306.cpp **** 
 400:funsape/device/ssd1306.cpp ****     // Returns successfully
 401:funsape/device/ssd1306.cpp ****     this->_lastError = Error::NONE;
 402:funsape/device/ssd1306.cpp ****     debugMessage(Error::NONE, Debug::CodeIndex::SSD1306_MODULE);
 403:funsape/device/ssd1306.cpp ****     return true;
 404:funsape/device/ssd1306.cpp **** }
 405:funsape/device/ssd1306.cpp **** 
 406:funsape/device/ssd1306.cpp **** bool_t Ssd1306::setContrast(cuint8_t contrast_p)
 407:funsape/device/ssd1306.cpp **** {
 408:funsape/device/ssd1306.cpp ****     // Mark passage for debugging purpose
 409:funsape/device/ssd1306.cpp ****     debugMark(PSTR("Ssd1306::setContrast(cuint8_t)"), Debug::CodeIndex::SSD1306_MODULE);
 410:funsape/device/ssd1306.cpp **** 
 411:funsape/device/ssd1306.cpp ****     // Check for errors
 412:funsape/device/ssd1306.cpp ****     if(!this->_isInitialized()) {
 413:funsape/device/ssd1306.cpp ****         // Returns error
 414:funsape/device/ssd1306.cpp ****         debugMessage(this->_lastError, Debug::CodeIndex::SSD1306_MODULE);
 415:funsape/device/ssd1306.cpp ****         return false;
 416:funsape/device/ssd1306.cpp ****     }
 417:funsape/device/ssd1306.cpp **** 
 418:funsape/device/ssd1306.cpp ****     // Sends command
 419:funsape/device/ssd1306.cpp ****     if(!this->_writeCommand(SSD1306_SET_CONTRAST) || !this->_writeCommand(contrast_p)) {
 420:funsape/device/ssd1306.cpp ****         // Returns error
 421:funsape/device/ssd1306.cpp ****         debugMessage(this->_lastError, Debug::CodeIndex::SSD1306_MODULE);
 422:funsape/device/ssd1306.cpp ****         return false;
 423:funsape/device/ssd1306.cpp ****     }
 424:funsape/device/ssd1306.cpp **** 
 425:funsape/device/ssd1306.cpp ****     // Returns successfully
 426:funsape/device/ssd1306.cpp ****     this->_lastError = Error::NONE;
 427:funsape/device/ssd1306.cpp ****     debugMessage(Error::NONE, Debug::CodeIndex::SSD1306_MODULE);
 428:funsape/device/ssd1306.cpp ****     return true;
 429:funsape/device/ssd1306.cpp **** }
 430:funsape/device/ssd1306.cpp **** 
 431:funsape/device/ssd1306.cpp **** bool_t Ssd1306::setUpsideDown(cbool_t enable_p)
 432:funsape/device/ssd1306.cpp **** {
 433:funsape/device/ssd1306.cpp ****     // Mark passage for debugging purpose
 434:funsape/device/ssd1306.cpp ****     debugMark(PSTR("Ssd1306::setUpsideDown(cbool_t)"), Debug::CodeIndex::SSD1306_MODULE);
 435:funsape/device/ssd1306.cpp **** 
 436:funsape/device/ssd1306.cpp ****     // Check for errors
 437:funsape/device/ssd1306.cpp ****     if(!this->_isInitialized()) {
 438:funsape/device/ssd1306.cpp ****         // Returns error
 439:funsape/device/ssd1306.cpp ****         debugMessage(this->_lastError, Debug::CodeIndex::SSD1306_MODULE);
 440:funsape/device/ssd1306.cpp ****         return false;
 441:funsape/device/ssd1306.cpp ****     }
 442:funsape/device/ssd1306.cpp **** 
GAS LISTING /tmp/cckYZbTP.s 			page 11


 443:funsape/device/ssd1306.cpp ****     // Local variables
 444:funsape/device/ssd1306.cpp ****     uint8_t auxSegRemap                 = (enable_p) ? SSD1306_SEG_REMAP : (SSD1306_SEG_REMAP | 0x0
 445:funsape/device/ssd1306.cpp ****     uint8_t auxComScan                  = (enable_p) ? SSD1306_COM_SCAN_INC : SSD1306_COM_SCAN_DEC;
 446:funsape/device/ssd1306.cpp **** 
 447:funsape/device/ssd1306.cpp ****     // Sends the orientation commands
 448:funsape/device/ssd1306.cpp ****     if(!this->_writeCommand(auxSegRemap) || !this->_writeCommand(auxComScan)) {
 449:funsape/device/ssd1306.cpp ****         // Returns error
 450:funsape/device/ssd1306.cpp ****         debugMessage(this->_lastError, Debug::CodeIndex::SSD1306_MODULE);
 451:funsape/device/ssd1306.cpp ****         return false;
 452:funsape/device/ssd1306.cpp ****     }
 453:funsape/device/ssd1306.cpp **** 
 454:funsape/device/ssd1306.cpp ****     // Returns successfully
 455:funsape/device/ssd1306.cpp ****     this->_lastError = Error::NONE;
 456:funsape/device/ssd1306.cpp ****     debugMessage(Error::NONE, Debug::CodeIndex::SSD1306_MODULE);
 457:funsape/device/ssd1306.cpp ****     return true;
 458:funsape/device/ssd1306.cpp **** }
 459:funsape/device/ssd1306.cpp **** 
 460:funsape/device/ssd1306.cpp **** Error Ssd1306::getLastError(void)
 461:funsape/device/ssd1306.cpp **** {
 134               		.loc 1 461 1 is_stmt 1 view -0
 135               		.cfi_startproc
 136               	/* prologue: function */
 137               	/* frame size = 0 */
 138               	/* stack size = 0 */
 139               	.L__stack_usage = 0
 462:funsape/device/ssd1306.cpp ****     // Returns last error
 463:funsape/device/ssd1306.cpp ****     return this->_lastError;
 140               		.loc 1 463 5 view .LVU38
 464:funsape/device/ssd1306.cpp **** }
 141               		.loc 1 464 1 is_stmt 0 view .LVU39
 142 0000 FC01      		movw r30,r24
 143 0002 8381      		ldd r24,Z+3
 144 0004 9481      		ldd r25,Z+4
 145               	.LVL4:
 146               	/* epilogue start */
 147               		.loc 1 464 1 view .LVU40
 148 0006 0895      		ret
 149               		.cfi_endproc
 150               	.LFE146:
 152               		.section	.text._ZN7Ssd130611setTextSizeEh,"ax",@progbits
 153               	.global	_ZN7Ssd130611setTextSizeEh
 155               	_ZN7Ssd130611setTextSizeEh:
 156               	.LVL5:
 157               	.LFB147:
 465:funsape/device/ssd1306.cpp **** 
 466:funsape/device/ssd1306.cpp **** //     //////////////////////////     TEXT     /////////////////////////     //
 467:funsape/device/ssd1306.cpp **** 
 468:funsape/device/ssd1306.cpp **** bool_t Ssd1306::setTextSize(cuint8_t size_p)
 469:funsape/device/ssd1306.cpp **** {
 158               		.loc 1 469 1 is_stmt 1 view -0
 159               		.cfi_startproc
 160               	/* prologue: function */
 161               	/* frame size = 0 */
 162               	/* stack size = 0 */
 163               	.L__stack_usage = 0
 164               		.loc 1 469 1 is_stmt 0 view .LVU42
 165 0000 FC01      		movw r30,r24
GAS LISTING /tmp/cckYZbTP.s 			page 12


 470:funsape/device/ssd1306.cpp ****     // Mark passage for debugging purpose
 471:funsape/device/ssd1306.cpp ****     debugMark(PSTR("Ssd1306::setTextSize(cuint8_t)"), Debug::CodeIndex::SSD1306_MODULE);
 166               		.loc 1 471 5 is_stmt 1 view .LVU43
 472:funsape/device/ssd1306.cpp **** 
 473:funsape/device/ssd1306.cpp ****     // Check function arguments for errors
 474:funsape/device/ssd1306.cpp ****     if((size_p == 0) || (size_p > constSsd1306TextSizeMax)) {
 167               		.loc 1 474 5 view .LVU44
 168               		.loc 1 474 22 is_stmt 0 view .LVU45
 169 0002 862F      		mov r24,r22
 170               	.LVL6:
 171               		.loc 1 474 22 view .LVU46
 172 0004 8150      		subi r24,lo8(-(-1))
 173               		.loc 1 474 5 view .LVU47
 174 0006 8430      		cpi r24,lo8(4)
 175 0008 00F4      		brsh .L7
 475:funsape/device/ssd1306.cpp ****         // Returns error
 476:funsape/device/ssd1306.cpp ****         this->_lastError = Error::ARGUMENT_VALUE_INVALID;
 477:funsape/device/ssd1306.cpp ****         debugMessage(Error::ARGUMENT_VALUE_INVALID, Debug::CodeIndex::SSD1306_MODULE);
 478:funsape/device/ssd1306.cpp ****         return false;
 479:funsape/device/ssd1306.cpp ****     }
 480:funsape/device/ssd1306.cpp **** 
 481:funsape/device/ssd1306.cpp ****     // Updates data members
 482:funsape/device/ssd1306.cpp ****     this->_textSize                     = size_p;
 176               		.loc 1 482 5 is_stmt 1 view .LVU48
 177               		.loc 1 482 43 is_stmt 0 view .LVU49
 178 000a 6770      		andi r22,lo8(7)
 179               	.LVL7:
 180               		.loc 1 482 41 view .LVU50
 181 000c 660F      		lsl r22
 182 000e 660F      		lsl r22
 183 0010 660F      		lsl r22
 184 0012 8185      		ldd r24,Z+9
 185               	.LVL8:
 186               		.loc 1 482 41 view .LVU51
 187 0014 877C      		andi r24,lo8(-57)
 188 0016 682B      		or r22,r24
 189 0018 6187      		std Z+9,r22
 483:funsape/device/ssd1306.cpp **** 
 484:funsape/device/ssd1306.cpp ****     // Returns successfully
 485:funsape/device/ssd1306.cpp ****     this->_lastError = Error::NONE;
 190               		.loc 1 485 5 is_stmt 1 view .LVU52
 191               		.loc 1 485 22 is_stmt 0 view .LVU53
 192 001a 1482      		std Z+4,__zero_reg__
 193 001c 1382      		std Z+3,__zero_reg__
 486:funsape/device/ssd1306.cpp ****     debugMessage(Error::NONE, Debug::CodeIndex::SSD1306_MODULE);
 194               		.loc 1 486 5 is_stmt 1 view .LVU54
 487:funsape/device/ssd1306.cpp ****     return true;
 195               		.loc 1 487 5 view .LVU55
 196               		.loc 1 487 12 is_stmt 0 view .LVU56
 197 001e 81E0      		ldi r24,lo8(1)
 198               	/* epilogue start */
 488:funsape/device/ssd1306.cpp **** }
 199               		.loc 1 488 1 view .LVU57
 200 0020 0895      		ret
 201               	.LVL9:
 202               	.L7:
 476:funsape/device/ssd1306.cpp ****         debugMessage(Error::ARGUMENT_VALUE_INVALID, Debug::CodeIndex::SSD1306_MODULE);
GAS LISTING /tmp/cckYZbTP.s 			page 13


 203               		.loc 1 476 9 is_stmt 1 view .LVU58
 476:funsape/device/ssd1306.cpp ****         debugMessage(Error::ARGUMENT_VALUE_INVALID, Debug::CodeIndex::SSD1306_MODULE);
 204               		.loc 1 476 26 is_stmt 0 view .LVU59
 205 0022 82E5      		ldi r24,lo8(82)
 206 0024 90E0      		ldi r25,0
 207 0026 9483      		std Z+4,r25
 208 0028 8383      		std Z+3,r24
 477:funsape/device/ssd1306.cpp ****         return false;
 209               		.loc 1 477 9 is_stmt 1 view .LVU60
 478:funsape/device/ssd1306.cpp ****     }
 210               		.loc 1 478 9 view .LVU61
 478:funsape/device/ssd1306.cpp ****     }
 211               		.loc 1 478 16 is_stmt 0 view .LVU62
 212 002a 80E0      		ldi r24,0
 213 002c 0895      		ret
 214               		.cfi_endproc
 215               	.LFE147:
 217               		.section	.text._ZN7Ssd13065stdioEv,"ax",@progbits
 218               	.global	_ZN7Ssd13065stdioEv
 220               	_ZN7Ssd13065stdioEv:
 221               	.LVL10:
 222               	.LFB149:
 489:funsape/device/ssd1306.cpp **** 
 490:funsape/device/ssd1306.cpp **** bool_t Ssd1306::setCursor(cuint8_t x_p, cuint8_t page_p)
 491:funsape/device/ssd1306.cpp **** {
 492:funsape/device/ssd1306.cpp ****     // Mark passage for debugging purpose
 493:funsape/device/ssd1306.cpp ****     debugMark(PSTR("Ssd1306::setCursor(cuint8_t, cuint8_t)"), Debug::CodeIndex::SSD1306_MODULE);
 494:funsape/device/ssd1306.cpp **** 
 495:funsape/device/ssd1306.cpp ****     // Check for errors
 496:funsape/device/ssd1306.cpp ****     if(!this->_isInitialized()) {
 497:funsape/device/ssd1306.cpp ****         // Returns error
 498:funsape/device/ssd1306.cpp ****         debugMessage(this->_lastError, Debug::CodeIndex::SSD1306_MODULE);
 499:funsape/device/ssd1306.cpp ****         return false;
 500:funsape/device/ssd1306.cpp ****     }
 501:funsape/device/ssd1306.cpp ****     if((x_p >= constSsd1306Width) || (page_p >= this->_pages)) {
 502:funsape/device/ssd1306.cpp ****         // Returns error
 503:funsape/device/ssd1306.cpp ****         this->_lastError = Error::ARGUMENT_VALUE_INVALID;
 504:funsape/device/ssd1306.cpp ****         debugMessage(Error::ARGUMENT_VALUE_INVALID, Debug::CodeIndex::SSD1306_MODULE);
 505:funsape/device/ssd1306.cpp ****         return false;
 506:funsape/device/ssd1306.cpp ****     }
 507:funsape/device/ssd1306.cpp **** 
 508:funsape/device/ssd1306.cpp ****     // Updates data members
 509:funsape/device/ssd1306.cpp ****     this->_cursorX                      = x_p;
 510:funsape/device/ssd1306.cpp ****     this->_cursorPage                   = page_p;
 511:funsape/device/ssd1306.cpp **** 
 512:funsape/device/ssd1306.cpp ****     // Returns successfully
 513:funsape/device/ssd1306.cpp ****     this->_lastError = Error::NONE;
 514:funsape/device/ssd1306.cpp ****     debugMessage(Error::NONE, Debug::CodeIndex::SSD1306_MODULE);
 515:funsape/device/ssd1306.cpp ****     return true;
 516:funsape/device/ssd1306.cpp **** }
 517:funsape/device/ssd1306.cpp **** 
 518:funsape/device/ssd1306.cpp **** bool_t Ssd1306::stdio(void)
 519:funsape/device/ssd1306.cpp **** {
 223               		.loc 1 519 1 is_stmt 1 view -0
 224               		.cfi_startproc
 225               	/* prologue: function */
 226               	/* frame size = 0 */
GAS LISTING /tmp/cckYZbTP.s 			page 14


 227               	/* stack size = 0 */
 228               	.L__stack_usage = 0
 520:funsape/device/ssd1306.cpp ****     // Mark passage for debugging purpose
 521:funsape/device/ssd1306.cpp ****     debugMark(PSTR("Ssd1306::stdio(void)"), Debug::CodeIndex::SSD1306_MODULE);
 229               		.loc 1 521 5 view .LVU64
 522:funsape/device/ssd1306.cpp **** 
 523:funsape/device/ssd1306.cpp ****     stdin = stdout = stderr             = &ssd1306Stream;
 230               		.loc 1 523 5 view .LVU65
 231               		.loc 1 523 41 is_stmt 0 view .LVU66
 232 0000 E0E0      		ldi r30,lo8(__iob)
 233 0002 F0E0      		ldi r31,hi8(__iob)
 234 0004 20E0      		ldi r18,lo8(ssd1306Stream)
 235 0006 30E0      		ldi r19,hi8(ssd1306Stream)
 236 0008 3583      		std Z+5,r19
 237 000a 2483      		std Z+4,r18
 238               		.loc 1 523 20 view .LVU67
 239 000c 3383      		std Z+3,r19
 240 000e 2283      		std Z+2,r18
 241               		.loc 1 523 11 view .LVU68
 242 0010 3183      		std Z+1,r19
 243 0012 2083      		st Z,r18
 524:funsape/device/ssd1306.cpp ****     defaultSsd1306Display               = this;
 244               		.loc 1 524 5 is_stmt 1 view .LVU69
 245               		.loc 1 524 41 is_stmt 0 view .LVU70
 246 0014 9093 0000 		sts defaultSsd1306Display+1,r25
 247 0018 8093 0000 		sts defaultSsd1306Display,r24
 525:funsape/device/ssd1306.cpp **** 
 526:funsape/device/ssd1306.cpp ****     // Returns successfully
 527:funsape/device/ssd1306.cpp ****     this->_lastError = Error::NONE;
 248               		.loc 1 527 5 is_stmt 1 view .LVU71
 249               		.loc 1 527 22 is_stmt 0 view .LVU72
 250 001c FC01      		movw r30,r24
 251 001e 1482      		std Z+4,__zero_reg__
 252 0020 1382      		std Z+3,__zero_reg__
 528:funsape/device/ssd1306.cpp ****     debugMessage(Error::NONE, Debug::CodeIndex::SSD1306_MODULE);
 253               		.loc 1 528 5 is_stmt 1 view .LVU73
 529:funsape/device/ssd1306.cpp ****     return true;
 254               		.loc 1 529 5 view .LVU74
 530:funsape/device/ssd1306.cpp **** }
 255               		.loc 1 530 1 is_stmt 0 view .LVU75
 256 0022 81E0      		ldi r24,lo8(1)
 257               	.LVL11:
 258               	/* epilogue start */
 259               		.loc 1 530 1 view .LVU76
 260 0024 0895      		ret
 261               		.cfi_endproc
 262               	.LFE149:
 264               		.section	.text._ZN7Ssd130613_writeCommandEh,"ax",@progbits
 265               	.global	_ZN7Ssd130613_writeCommandEh
 267               	_ZN7Ssd130613_writeCommandEh:
 268               	.LVL12:
 269               	.LFB156:
 531:funsape/device/ssd1306.cpp **** 
 532:funsape/device/ssd1306.cpp **** bool_t Ssd1306::print(cchar_t character_p)
 533:funsape/device/ssd1306.cpp **** {
 534:funsape/device/ssd1306.cpp ****     // Mark passage for debugging purpose
 535:funsape/device/ssd1306.cpp ****     debugMark(PSTR("Ssd1306::print(cchar_t)"), Debug::CodeIndex::SSD1306_MODULE);
GAS LISTING /tmp/cckYZbTP.s 			page 15


 536:funsape/device/ssd1306.cpp **** 
 537:funsape/device/ssd1306.cpp ****     // Check for errors
 538:funsape/device/ssd1306.cpp ****     if(!this->_isInitialized()) {
 539:funsape/device/ssd1306.cpp ****         // Returns error
 540:funsape/device/ssd1306.cpp ****         debugMessage(this->_lastError, Debug::CodeIndex::SSD1306_MODULE);
 541:funsape/device/ssd1306.cpp ****         return false;
 542:funsape/device/ssd1306.cpp ****     }
 543:funsape/device/ssd1306.cpp **** 
 544:funsape/device/ssd1306.cpp ****     if(character_p == '\n') {
 545:funsape/device/ssd1306.cpp ****         this->_cursorX                  = 0;
 546:funsape/device/ssd1306.cpp ****         this->_cursorPage               += this->_textSize;
 547:funsape/device/ssd1306.cpp ****         if((this->_cursorPage + this->_textSize) > this->_pages) {
 548:funsape/device/ssd1306.cpp ****             this->_cursorPage           = 0;
 549:funsape/device/ssd1306.cpp ****         }
 550:funsape/device/ssd1306.cpp ****     } else {
 551:funsape/device/ssd1306.cpp ****         if(!this->_writeChar(character_p)) {
 552:funsape/device/ssd1306.cpp ****             // Returns error
 553:funsape/device/ssd1306.cpp ****             debugMessage(this->_lastError, Debug::CodeIndex::SSD1306_MODULE);
 554:funsape/device/ssd1306.cpp ****             return false;
 555:funsape/device/ssd1306.cpp ****         }
 556:funsape/device/ssd1306.cpp ****     }
 557:funsape/device/ssd1306.cpp **** 
 558:funsape/device/ssd1306.cpp ****     // Returns successfully
 559:funsape/device/ssd1306.cpp ****     this->_lastError = Error::NONE;
 560:funsape/device/ssd1306.cpp ****     debugMessage(Error::NONE, Debug::CodeIndex::SSD1306_MODULE);
 561:funsape/device/ssd1306.cpp ****     return true;
 562:funsape/device/ssd1306.cpp **** }
 563:funsape/device/ssd1306.cpp **** 
 564:funsape/device/ssd1306.cpp **** bool_t Ssd1306::print(cchar_t *string_p)
 565:funsape/device/ssd1306.cpp **** {
 566:funsape/device/ssd1306.cpp ****     // Mark passage for debugging purpose
 567:funsape/device/ssd1306.cpp ****     debugMark(PSTR("Ssd1306::print(cchar_t *)"), Debug::CodeIndex::SSD1306_MODULE);
 568:funsape/device/ssd1306.cpp **** 
 569:funsape/device/ssd1306.cpp ****     // Local variables
 570:funsape/device/ssd1306.cpp ****     uint16_t i                          = 0;
 571:funsape/device/ssd1306.cpp **** 
 572:funsape/device/ssd1306.cpp ****     // Check for errors
 573:funsape/device/ssd1306.cpp ****     if(!this->_isInitialized()) {
 574:funsape/device/ssd1306.cpp ****         // Returns error
 575:funsape/device/ssd1306.cpp ****         debugMessage(this->_lastError, Debug::CodeIndex::SSD1306_MODULE);
 576:funsape/device/ssd1306.cpp ****         return false;
 577:funsape/device/ssd1306.cpp ****     }
 578:funsape/device/ssd1306.cpp ****     if(!isPointerValid(string_p)) {
 579:funsape/device/ssd1306.cpp ****         // Returns error
 580:funsape/device/ssd1306.cpp ****         this->_lastError = Error::ARGUMENT_POINTER_NULL;
 581:funsape/device/ssd1306.cpp ****         debugMessage(Error::ARGUMENT_POINTER_NULL, Debug::CodeIndex::SSD1306_MODULE);
 582:funsape/device/ssd1306.cpp ****         return false;
 583:funsape/device/ssd1306.cpp ****     }
 584:funsape/device/ssd1306.cpp **** 
 585:funsape/device/ssd1306.cpp ****     while(string_p[i]) {
 586:funsape/device/ssd1306.cpp ****         if(!this->print(string_p[i])) {
 587:funsape/device/ssd1306.cpp ****             // Returns error
 588:funsape/device/ssd1306.cpp ****             debugMessage(this->_lastError, Debug::CodeIndex::SSD1306_MODULE);
 589:funsape/device/ssd1306.cpp ****             return false;
 590:funsape/device/ssd1306.cpp ****         }
 591:funsape/device/ssd1306.cpp ****         i++;
 592:funsape/device/ssd1306.cpp ****     }
GAS LISTING /tmp/cckYZbTP.s 			page 16


 593:funsape/device/ssd1306.cpp **** 
 594:funsape/device/ssd1306.cpp ****     // Returns successfully
 595:funsape/device/ssd1306.cpp ****     this->_lastError = Error::NONE;
 596:funsape/device/ssd1306.cpp ****     debugMessage(Error::NONE, Debug::CodeIndex::SSD1306_MODULE);
 597:funsape/device/ssd1306.cpp ****     return true;
 598:funsape/device/ssd1306.cpp **** }
 599:funsape/device/ssd1306.cpp **** 
 600:funsape/device/ssd1306.cpp **** //     ////////////////////////     GRAPHICS     ///////////////////////     //
 601:funsape/device/ssd1306.cpp **** 
 602:funsape/device/ssd1306.cpp **** bool_t Ssd1306::fillRect(cuint8_t x_p, cuint8_t page_p, cuint8_t width_p, cuint8_t heightPages_p, c
 603:funsape/device/ssd1306.cpp **** {
 604:funsape/device/ssd1306.cpp ****     // Mark passage for debugging purpose
 605:funsape/device/ssd1306.cpp ****     debugMark(PSTR("Ssd1306::fillRect(cuint8_t, cuint8_t, cuint8_t, cuint8_t, cbool_t)"),
 606:funsape/device/ssd1306.cpp ****             Debug::CodeIndex::SSD1306_MODULE);
 607:funsape/device/ssd1306.cpp **** 
 608:funsape/device/ssd1306.cpp ****     // Check for errors
 609:funsape/device/ssd1306.cpp ****     if(!this->_isInitialized()) {
 610:funsape/device/ssd1306.cpp ****         // Returns error
 611:funsape/device/ssd1306.cpp ****         debugMessage(this->_lastError, Debug::CodeIndex::SSD1306_MODULE);
 612:funsape/device/ssd1306.cpp ****         return false;
 613:funsape/device/ssd1306.cpp ****     }
 614:funsape/device/ssd1306.cpp ****     if((x_p >= constSsd1306Width) || (page_p >= this->_pages) || (width_p == 0) || (heightPages_p =
 615:funsape/device/ssd1306.cpp ****         // Returns error
 616:funsape/device/ssd1306.cpp ****         this->_lastError = Error::ARGUMENT_VALUE_INVALID;
 617:funsape/device/ssd1306.cpp ****         debugMessage(Error::ARGUMENT_VALUE_INVALID, Debug::CodeIndex::SSD1306_MODULE);
 618:funsape/device/ssd1306.cpp ****         return false;
 619:funsape/device/ssd1306.cpp ****     }
 620:funsape/device/ssd1306.cpp **** 
 621:funsape/device/ssd1306.cpp ****     // Local variables (clamps region to the display bounds)
 622:funsape/device/ssd1306.cpp ****     uint8_t auxBuffer[constSsd1306DataChunk];
 623:funsape/device/ssd1306.cpp ****     uint8_t auxValue                    = (on_p) ? 0xFF : 0x00;
 624:funsape/device/ssd1306.cpp ****     uint8_t auxWidth                    = width_p;
 625:funsape/device/ssd1306.cpp ****     uint8_t auxLastPage                 = page_p + heightPages_p;
 626:funsape/device/ssd1306.cpp **** 
 627:funsape/device/ssd1306.cpp ****     if((x_p + auxWidth) > constSsd1306Width) {
 628:funsape/device/ssd1306.cpp ****         auxWidth = constSsd1306Width - x_p;
 629:funsape/device/ssd1306.cpp ****     }
 630:funsape/device/ssd1306.cpp ****     if(auxLastPage > this->_pages) {
 631:funsape/device/ssd1306.cpp ****         auxLastPage = this->_pages;
 632:funsape/device/ssd1306.cpp ****     }
 633:funsape/device/ssd1306.cpp ****     for(uint8_t i = 0; i < constSsd1306DataChunk; i++) {
 634:funsape/device/ssd1306.cpp ****         auxBuffer[i] = auxValue;
 635:funsape/device/ssd1306.cpp ****     }
 636:funsape/device/ssd1306.cpp **** 
 637:funsape/device/ssd1306.cpp ****     // Writes the block page by page
 638:funsape/device/ssd1306.cpp ****     for(uint8_t page = page_p; page < auxLastPage; page++) {
 639:funsape/device/ssd1306.cpp ****         if(!this->_setAddress(page, x_p)) {
 640:funsape/device/ssd1306.cpp ****             // Returns error
 641:funsape/device/ssd1306.cpp ****             debugMessage(this->_lastError, Debug::CodeIndex::SSD1306_MODULE);
 642:funsape/device/ssd1306.cpp ****             return false;
 643:funsape/device/ssd1306.cpp ****         }
 644:funsape/device/ssd1306.cpp ****         uint8_t remaining = auxWidth;
 645:funsape/device/ssd1306.cpp ****         while(remaining > 0) {
 646:funsape/device/ssd1306.cpp ****             uint8_t chunk = (remaining > constSsd1306DataChunk) ? constSsd1306DataChunk : remaining
 647:funsape/device/ssd1306.cpp ****             if(!this->_writeData(auxBuffer, chunk)) {
 648:funsape/device/ssd1306.cpp ****                 // Returns error
 649:funsape/device/ssd1306.cpp ****                 debugMessage(this->_lastError, Debug::CodeIndex::SSD1306_MODULE);
GAS LISTING /tmp/cckYZbTP.s 			page 17


 650:funsape/device/ssd1306.cpp ****                 return false;
 651:funsape/device/ssd1306.cpp ****             }
 652:funsape/device/ssd1306.cpp ****             remaining -= chunk;
 653:funsape/device/ssd1306.cpp ****         }
 654:funsape/device/ssd1306.cpp ****     }
 655:funsape/device/ssd1306.cpp **** 
 656:funsape/device/ssd1306.cpp ****     // Returns successfully
 657:funsape/device/ssd1306.cpp ****     this->_lastError = Error::NONE;
 658:funsape/device/ssd1306.cpp ****     debugMessage(Error::NONE, Debug::CodeIndex::SSD1306_MODULE);
 659:funsape/device/ssd1306.cpp ****     return true;
 660:funsape/device/ssd1306.cpp **** }
 661:funsape/device/ssd1306.cpp **** 
 662:funsape/device/ssd1306.cpp **** bool_t Ssd1306::drawRect(cuint8_t x_p, cuint8_t page_p, cuint8_t width_p, cuint8_t heightPages_p)
 663:funsape/device/ssd1306.cpp **** {
 664:funsape/device/ssd1306.cpp ****     // Mark passage for debugging purpose
 665:funsape/device/ssd1306.cpp ****     debugMark(PSTR("Ssd1306::drawRect(cuint8_t, cuint8_t, cuint8_t, cuint8_t)"),
 666:funsape/device/ssd1306.cpp ****             Debug::CodeIndex::SSD1306_MODULE);
 667:funsape/device/ssd1306.cpp **** 
 668:funsape/device/ssd1306.cpp ****     // Check for errors
 669:funsape/device/ssd1306.cpp ****     if(!this->_isInitialized()) {
 670:funsape/device/ssd1306.cpp ****         // Returns error
 671:funsape/device/ssd1306.cpp ****         debugMessage(this->_lastError, Debug::CodeIndex::SSD1306_MODULE);
 672:funsape/device/ssd1306.cpp ****         return false;
 673:funsape/device/ssd1306.cpp ****     }
 674:funsape/device/ssd1306.cpp ****     if((x_p >= constSsd1306Width) || (page_p >= this->_pages) || (width_p < 2) || (heightPages_p ==
 675:funsape/device/ssd1306.cpp ****         // Returns error
 676:funsape/device/ssd1306.cpp ****         this->_lastError = Error::ARGUMENT_VALUE_INVALID;
 677:funsape/device/ssd1306.cpp ****         debugMessage(Error::ARGUMENT_VALUE_INVALID, Debug::CodeIndex::SSD1306_MODULE);
 678:funsape/device/ssd1306.cpp ****         return false;
 679:funsape/device/ssd1306.cpp ****     }
 680:funsape/device/ssd1306.cpp **** 
 681:funsape/device/ssd1306.cpp ****     // Local variables (clamps region to the display bounds)
 682:funsape/device/ssd1306.cpp ****     uint8_t auxBuffer[constSsd1306DataChunk];
 683:funsape/device/ssd1306.cpp ****     uint8_t auxWidth                    = width_p;
 684:funsape/device/ssd1306.cpp ****     uint8_t auxLastPage                 = page_p + heightPages_p;
 685:funsape/device/ssd1306.cpp **** 
 686:funsape/device/ssd1306.cpp ****     if((x_p + auxWidth) > constSsd1306Width) {
 687:funsape/device/ssd1306.cpp ****         auxWidth = constSsd1306Width - x_p;
 688:funsape/device/ssd1306.cpp ****     }
 689:funsape/device/ssd1306.cpp ****     if(auxLastPage > this->_pages) {
 690:funsape/device/ssd1306.cpp ****         auxLastPage = this->_pages;
 691:funsape/device/ssd1306.cpp ****     }
 692:funsape/device/ssd1306.cpp **** 
 693:funsape/device/ssd1306.cpp ****     // Writes the outline page by page (whole page-columns, so corners are correct)
 694:funsape/device/ssd1306.cpp ****     for(uint8_t page = page_p; page < auxLastPage; page++) {
 695:funsape/device/ssd1306.cpp ****         bool_t auxIsTopPage             = (page == page_p);
 696:funsape/device/ssd1306.cpp ****         bool_t auxIsBottomPage          = (page == (uint8_t)(auxLastPage - 1));
 697:funsape/device/ssd1306.cpp ****         uint8_t auxIndex                = 0;
 698:funsape/device/ssd1306.cpp **** 
 699:funsape/device/ssd1306.cpp ****         if(!this->_setAddress(page, x_p)) {
 700:funsape/device/ssd1306.cpp ****             // Returns error
 701:funsape/device/ssd1306.cpp ****             debugMessage(this->_lastError, Debug::CodeIndex::SSD1306_MODULE);
 702:funsape/device/ssd1306.cpp ****             return false;
 703:funsape/device/ssd1306.cpp ****         }
 704:funsape/device/ssd1306.cpp ****         for(uint8_t i = 0; i < auxWidth; i++) {
 705:funsape/device/ssd1306.cpp ****             uint8_t auxByte             = 0x00;
 706:funsape/device/ssd1306.cpp ****             if((i == 0) || (i == (uint8_t)(auxWidth - 1))) {
GAS LISTING /tmp/cckYZbTP.s 			page 18


 707:funsape/device/ssd1306.cpp ****                 auxByte                 = 0xFF;                 // left / right side
 708:funsape/device/ssd1306.cpp ****             } else {
 709:funsape/device/ssd1306.cpp ****                 if(auxIsTopPage) {
 710:funsape/device/ssd1306.cpp ****                     auxByte             |= 0x01;                // top edge
 711:funsape/device/ssd1306.cpp ****                 }
 712:funsape/device/ssd1306.cpp ****                 if(auxIsBottomPage) {
 713:funsape/device/ssd1306.cpp ****                     auxByte             |= 0x80;                // bottom edge
 714:funsape/device/ssd1306.cpp ****                 }
 715:funsape/device/ssd1306.cpp ****             }
 716:funsape/device/ssd1306.cpp ****             auxBuffer[auxIndex++]       = auxByte;
 717:funsape/device/ssd1306.cpp ****             if(auxIndex == constSsd1306DataChunk) {
 718:funsape/device/ssd1306.cpp ****                 if(!this->_writeData(auxBuffer, auxIndex)) {
 719:funsape/device/ssd1306.cpp ****                     // Returns error
 720:funsape/device/ssd1306.cpp ****                     debugMessage(this->_lastError, Debug::CodeIndex::SSD1306_MODULE);
 721:funsape/device/ssd1306.cpp ****                     return false;
 722:funsape/device/ssd1306.cpp ****                 }
 723:funsape/device/ssd1306.cpp ****                 auxIndex                = 0;
 724:funsape/device/ssd1306.cpp ****             }
 725:funsape/device/ssd1306.cpp ****         }
 726:funsape/device/ssd1306.cpp ****         if(auxIndex > 0) {
 727:funsape/device/ssd1306.cpp ****             if(!this->_writeData(auxBuffer, auxIndex)) {
 728:funsape/device/ssd1306.cpp ****                 // Returns error
 729:funsape/device/ssd1306.cpp ****                 debugMessage(this->_lastError, Debug::CodeIndex::SSD1306_MODULE);
 730:funsape/device/ssd1306.cpp ****                 return false;
 731:funsape/device/ssd1306.cpp ****             }
 732:funsape/device/ssd1306.cpp ****         }
 733:funsape/device/ssd1306.cpp ****     }
 734:funsape/device/ssd1306.cpp **** 
 735:funsape/device/ssd1306.cpp ****     // Returns successfully
 736:funsape/device/ssd1306.cpp ****     this->_lastError = Error::NONE;
 737:funsape/device/ssd1306.cpp ****     debugMessage(Error::NONE, Debug::CodeIndex::SSD1306_MODULE);
 738:funsape/device/ssd1306.cpp ****     return true;
 739:funsape/device/ssd1306.cpp **** }
 740:funsape/device/ssd1306.cpp **** 
 741:funsape/device/ssd1306.cpp **** bool_t Ssd1306::drawHLine(cuint8_t x_p, cuint8_t y_p, cuint8_t width_p)
 742:funsape/device/ssd1306.cpp **** {
 743:funsape/device/ssd1306.cpp ****     // Mark passage for debugging purpose
 744:funsape/device/ssd1306.cpp ****     debugMark(PSTR("Ssd1306::drawHLine(cuint8_t, cuint8_t, cuint8_t)"), Debug::CodeIndex::SSD1306_M
 745:funsape/device/ssd1306.cpp **** 
 746:funsape/device/ssd1306.cpp ****     // Check for errors
 747:funsape/device/ssd1306.cpp ****     if(!this->_isInitialized()) {
 748:funsape/device/ssd1306.cpp ****         // Returns error
 749:funsape/device/ssd1306.cpp ****         debugMessage(this->_lastError, Debug::CodeIndex::SSD1306_MODULE);
 750:funsape/device/ssd1306.cpp ****         return false;
 751:funsape/device/ssd1306.cpp ****     }
 752:funsape/device/ssd1306.cpp ****     if((x_p >= constSsd1306Width) || (y_p >= (uint8_t)(this->_pages * 8)) || (width_p == 0)) {
 753:funsape/device/ssd1306.cpp ****         // Returns error
 754:funsape/device/ssd1306.cpp ****         this->_lastError = Error::ARGUMENT_VALUE_INVALID;
 755:funsape/device/ssd1306.cpp ****         debugMessage(Error::ARGUMENT_VALUE_INVALID, Debug::CodeIndex::SSD1306_MODULE);
 756:funsape/device/ssd1306.cpp ****         return false;
 757:funsape/device/ssd1306.cpp ****     }
 758:funsape/device/ssd1306.cpp **** 
 759:funsape/device/ssd1306.cpp ****     // Local variables
 760:funsape/device/ssd1306.cpp ****     uint8_t auxBuffer[constSsd1306DataChunk];
 761:funsape/device/ssd1306.cpp ****     uint8_t auxMask                     = (1 << (y_p % 8));
 762:funsape/device/ssd1306.cpp ****     uint8_t auxWidth                    = width_p;
 763:funsape/device/ssd1306.cpp **** 
GAS LISTING /tmp/cckYZbTP.s 			page 19


 764:funsape/device/ssd1306.cpp ****     if((x_p + auxWidth) > constSsd1306Width) {
 765:funsape/device/ssd1306.cpp ****         auxWidth = constSsd1306Width - x_p;
 766:funsape/device/ssd1306.cpp ****     }
 767:funsape/device/ssd1306.cpp ****     for(uint8_t i = 0; i < constSsd1306DataChunk; i++) {
 768:funsape/device/ssd1306.cpp ****         auxBuffer[i] = auxMask;
 769:funsape/device/ssd1306.cpp ****     }
 770:funsape/device/ssd1306.cpp **** 
 771:funsape/device/ssd1306.cpp ****     // Writes the line
 772:funsape/device/ssd1306.cpp ****     if(!this->_setAddress(y_p / 8, x_p)) {
 773:funsape/device/ssd1306.cpp ****         // Returns error
 774:funsape/device/ssd1306.cpp ****         debugMessage(this->_lastError, Debug::CodeIndex::SSD1306_MODULE);
 775:funsape/device/ssd1306.cpp ****         return false;
 776:funsape/device/ssd1306.cpp ****     }
 777:funsape/device/ssd1306.cpp ****     uint8_t remaining                   = auxWidth;
 778:funsape/device/ssd1306.cpp ****     while(remaining > 0) {
 779:funsape/device/ssd1306.cpp ****         uint8_t chunk = (remaining > constSsd1306DataChunk) ? constSsd1306DataChunk : remaining;
 780:funsape/device/ssd1306.cpp ****         if(!this->_writeData(auxBuffer, chunk)) {
 781:funsape/device/ssd1306.cpp ****             // Returns error
 782:funsape/device/ssd1306.cpp ****             debugMessage(this->_lastError, Debug::CodeIndex::SSD1306_MODULE);
 783:funsape/device/ssd1306.cpp ****             return false;
 784:funsape/device/ssd1306.cpp ****         }
 785:funsape/device/ssd1306.cpp ****         remaining -= chunk;
 786:funsape/device/ssd1306.cpp ****     }
 787:funsape/device/ssd1306.cpp **** 
 788:funsape/device/ssd1306.cpp ****     // Returns successfully
 789:funsape/device/ssd1306.cpp ****     this->_lastError = Error::NONE;
 790:funsape/device/ssd1306.cpp ****     debugMessage(Error::NONE, Debug::CodeIndex::SSD1306_MODULE);
 791:funsape/device/ssd1306.cpp ****     return true;
 792:funsape/device/ssd1306.cpp **** }
 793:funsape/device/ssd1306.cpp **** 
 794:funsape/device/ssd1306.cpp **** bool_t Ssd1306::drawVLine(cuint8_t x_p, cuint8_t y_p, cuint8_t height_p)
 795:funsape/device/ssd1306.cpp **** {
 796:funsape/device/ssd1306.cpp ****     // Mark passage for debugging purpose
 797:funsape/device/ssd1306.cpp ****     debugMark(PSTR("Ssd1306::drawVLine(cuint8_t, cuint8_t, cuint8_t)"), Debug::CodeIndex::SSD1306_M
 798:funsape/device/ssd1306.cpp **** 
 799:funsape/device/ssd1306.cpp ****     // Check for errors
 800:funsape/device/ssd1306.cpp ****     if(!this->_isInitialized()) {
 801:funsape/device/ssd1306.cpp ****         // Returns error
 802:funsape/device/ssd1306.cpp ****         debugMessage(this->_lastError, Debug::CodeIndex::SSD1306_MODULE);
 803:funsape/device/ssd1306.cpp ****         return false;
 804:funsape/device/ssd1306.cpp ****     }
 805:funsape/device/ssd1306.cpp ****     if((x_p >= constSsd1306Width) || (y_p >= (uint8_t)(this->_pages * 8)) || (height_p == 0)) {
 806:funsape/device/ssd1306.cpp ****         // Returns error
 807:funsape/device/ssd1306.cpp ****         this->_lastError = Error::ARGUMENT_VALUE_INVALID;
 808:funsape/device/ssd1306.cpp ****         debugMessage(Error::ARGUMENT_VALUE_INVALID, Debug::CodeIndex::SSD1306_MODULE);
 809:funsape/device/ssd1306.cpp ****         return false;
 810:funsape/device/ssd1306.cpp ****     }
 811:funsape/device/ssd1306.cpp **** 
 812:funsape/device/ssd1306.cpp ****     // Local variables (clamps to the display bottom)
 813:funsape/device/ssd1306.cpp ****     uint8_t auxEndY                     = y_p + height_p - 1;
 814:funsape/device/ssd1306.cpp ****     if(auxEndY >= (uint8_t)(this->_pages * 8)) {
 815:funsape/device/ssd1306.cpp ****         auxEndY = (this->_pages * 8) - 1;
 816:funsape/device/ssd1306.cpp ****     }
 817:funsape/device/ssd1306.cpp **** 
 818:funsape/device/ssd1306.cpp ****     // Writes one masked byte per affected page
 819:funsape/device/ssd1306.cpp ****     for(uint8_t page = (y_p / 8); page <= (auxEndY / 8); page++) {
 820:funsape/device/ssd1306.cpp ****         uint8_t auxPageTop              = page * 8;
GAS LISTING /tmp/cckYZbTP.s 			page 20


 821:funsape/device/ssd1306.cpp ****         uint8_t auxLow                  = (y_p > auxPageTop) ? (y_p - auxPageTop) : 0;
 822:funsape/device/ssd1306.cpp ****         uint8_t auxHigh                 = (auxEndY < (uint8_t)(auxPageTop + 7)) ? (auxEndY - auxPag
 823:funsape/device/ssd1306.cpp ****         uint8_t auxMask                 = 0x00;
 824:funsape/device/ssd1306.cpp **** 
 825:funsape/device/ssd1306.cpp ****         for(uint8_t b = auxLow; b <= auxHigh; b++) {
 826:funsape/device/ssd1306.cpp ****             auxMask |= (1 << b);
 827:funsape/device/ssd1306.cpp ****         }
 828:funsape/device/ssd1306.cpp ****         if(!this->_setAddress(page, x_p)) {
 829:funsape/device/ssd1306.cpp ****             // Returns error
 830:funsape/device/ssd1306.cpp ****             debugMessage(this->_lastError, Debug::CodeIndex::SSD1306_MODULE);
 831:funsape/device/ssd1306.cpp ****             return false;
 832:funsape/device/ssd1306.cpp ****         }
 833:funsape/device/ssd1306.cpp ****         if(!this->_writeData(&auxMask, 1)) {
 834:funsape/device/ssd1306.cpp ****             // Returns error
 835:funsape/device/ssd1306.cpp ****             debugMessage(this->_lastError, Debug::CodeIndex::SSD1306_MODULE);
 836:funsape/device/ssd1306.cpp ****             return false;
 837:funsape/device/ssd1306.cpp ****         }
 838:funsape/device/ssd1306.cpp ****     }
 839:funsape/device/ssd1306.cpp **** 
 840:funsape/device/ssd1306.cpp ****     // Returns successfully
 841:funsape/device/ssd1306.cpp ****     this->_lastError = Error::NONE;
 842:funsape/device/ssd1306.cpp ****     debugMessage(Error::NONE, Debug::CodeIndex::SSD1306_MODULE);
 843:funsape/device/ssd1306.cpp ****     return true;
 844:funsape/device/ssd1306.cpp **** }
 845:funsape/device/ssd1306.cpp **** 
 846:funsape/device/ssd1306.cpp **** // =============================================================================
 847:funsape/device/ssd1306.cpp **** // Class private methods
 848:funsape/device/ssd1306.cpp **** // =============================================================================
 849:funsape/device/ssd1306.cpp **** 
 850:funsape/device/ssd1306.cpp **** bool_t Ssd1306::_writeCommand(uint8_t command_p)
 851:funsape/device/ssd1306.cpp **** {
 270               		.loc 1 851 1 is_stmt 1 view -0
 271               		.cfi_startproc
 272               		.loc 1 851 1 is_stmt 0 view .LVU78
 273 0000 FF92      		push r15
 274               	.LCFI0:
 275               		.cfi_def_cfa_offset 3
 276               		.cfi_offset 15, -2
 277 0002 0F93      		push r16
 278               	.LCFI1:
 279               		.cfi_def_cfa_offset 4
 280               		.cfi_offset 16, -3
 281 0004 1F93      		push r17
 282               	.LCFI2:
 283               		.cfi_def_cfa_offset 5
 284               		.cfi_offset 17, -4
 285 0006 CF93      		push r28
 286               	.LCFI3:
 287               		.cfi_def_cfa_offset 6
 288               		.cfi_offset 28, -5
 289 0008 DF93      		push r29
 290               	.LCFI4:
 291               		.cfi_def_cfa_offset 7
 292               		.cfi_offset 29, -6
 293 000a 0F92      		push __tmp_reg__
 294               	.LCFI5:
 295               		.cfi_def_cfa_offset 8
GAS LISTING /tmp/cckYZbTP.s 			page 21


 296 000c CDB7      		in r28,__SP_L__
 297 000e DEB7      		in r29,__SP_H__
 298               	.LCFI6:
 299               		.cfi_def_cfa_register 28
 300               	/* prologue: function */
 301               	/* frame size = 1 */
 302               	/* stack size = 6 */
 303               	.L__stack_usage = 6
 304 0010 8C01      		movw r16,r24
 852:funsape/device/ssd1306.cpp ****     // Local variables
 853:funsape/device/ssd1306.cpp ****     uint8_t auxCommand                  = command_p;
 305               		.loc 1 853 5 is_stmt 1 view .LVU79
 306               		.loc 1 853 13 is_stmt 0 view .LVU80
 307 0012 6983      		std Y+1,r22
 854:funsape/device/ssd1306.cpp **** 
 855:funsape/device/ssd1306.cpp ****     // Selects device and sends the command byte (control byte 0x00)
 856:funsape/device/ssd1306.cpp ****     if(!this->_busHandler->setDevice(this->_deviceAddress)) {
 308               		.loc 1 856 5 is_stmt 1 view .LVU81
 309               		.loc 1 856 15 is_stmt 0 view .LVU82
 310 0014 FC01      		movw r30,r24
 311 0016 8081      		ld r24,Z
 312 0018 9181      		ldd r25,Z+1
 313               	.LVL13:
 314               		.loc 1 856 44 view .LVU83
 315 001a 6581      		ldd r22,Z+5
 316               	.LVL14:
 317               		.loc 1 856 44 view .LVU84
 318 001c 6F77      		andi r22,lo8(127)
 319               		.loc 1 856 37 view .LVU85
 320 001e 70E0      		ldi r23,0
 321 0020 FC01      		movw r30,r24
 322 0022 0190      		ld __tmp_reg__,Z+
 323 0024 F081      		ld r31,Z
 324 0026 E02D      		mov r30,__tmp_reg__
 325 0028 0084      		ldd __tmp_reg__,Z+8
 326 002a F185      		ldd r31,Z+9
 327 002c E02D      		mov r30,__tmp_reg__
 328 002e 40E0      		ldi r20,0
 329 0030 0995      		icall
 330               	.LVL15:
 331               		.loc 1 856 37 view .LVU86
 332 0032 F82E      		mov r15,r24
 333               		.loc 1 856 5 discriminator 1 view .LVU87
 334 0034 8030      		cpi r24,lo8(0)
 335 0036 01F0      		breq .L14
 857:funsape/device/ssd1306.cpp ****         // Returns error
 858:funsape/device/ssd1306.cpp ****         this->_lastError = this->_busHandler->getLastError();
 859:funsape/device/ssd1306.cpp ****         return false;
 860:funsape/device/ssd1306.cpp ****     }
 861:funsape/device/ssd1306.cpp ****     if(!this->_busHandler->writeReg(SSD1306_CONTROL_COMMAND, &auxCommand, 1)) {
 336               		.loc 1 861 5 is_stmt 1 view .LVU88
 337               		.loc 1 861 15 is_stmt 0 view .LVU89
 338 0038 F801      		movw r30,r16
 339 003a 8081      		ld r24,Z
 340 003c 9181      		ldd r25,Z+1
 341               		.loc 1 861 36 view .LVU90
 342 003e FC01      		movw r30,r24
GAS LISTING /tmp/cckYZbTP.s 			page 22


 343 0040 0190      		ld __tmp_reg__,Z+
 344 0042 F081      		ld r31,Z
 345 0044 E02D      		mov r30,__tmp_reg__
 346 0046 0680      		ldd __tmp_reg__,Z+6
 347 0048 F781      		ldd r31,Z+7
 348 004a E02D      		mov r30,__tmp_reg__
 349 004c 21E0      		ldi r18,lo8(1)
 350 004e 30E0      		ldi r19,0
 351 0050 AE01      		movw r20,r28
 352 0052 4F5F      		subi r20,-1
 353 0054 5F4F      		sbci r21,-1
 354 0056 60E0      		ldi r22,0
 355 0058 0995      		icall
 356               	.LVL16:
 357 005a F82E      		mov r15,r24
 358               		.loc 1 861 5 discriminator 1 view .LVU91
 359 005c 8030      		cpi r24,lo8(0)
 360 005e 01F0      		breq .L15
 862:funsape/device/ssd1306.cpp ****         // Returns error
 863:funsape/device/ssd1306.cpp ****         this->_lastError = this->_busHandler->getLastError();
 864:funsape/device/ssd1306.cpp ****         return false;
 865:funsape/device/ssd1306.cpp ****     }
 866:funsape/device/ssd1306.cpp **** 
 867:funsape/device/ssd1306.cpp ****     // Returns successfully
 868:funsape/device/ssd1306.cpp ****     this->_lastError = Error::NONE;
 361               		.loc 1 868 5 is_stmt 1 view .LVU92
 362               		.loc 1 868 22 is_stmt 0 view .LVU93
 363 0060 F801      		movw r30,r16
 364 0062 1482      		std Z+4,__zero_reg__
 365 0064 1382      		std Z+3,__zero_reg__
 869:funsape/device/ssd1306.cpp ****     return true;
 366               		.loc 1 869 5 is_stmt 1 view .LVU94
 367               	.L9:
 870:funsape/device/ssd1306.cpp **** }
 368               		.loc 1 870 1 is_stmt 0 view .LVU95
 369 0066 8F2D      		mov r24,r15
 370               	/* epilogue start */
 371 0068 0F90      		pop __tmp_reg__
 372 006a DF91      		pop r29
 373 006c CF91      		pop r28
 374 006e 1F91      		pop r17
 375 0070 0F91      		pop r16
 376               	.LVL17:
 377               		.loc 1 870 1 view .LVU96
 378 0072 FF90      		pop r15
 379 0074 0895      		ret
 380               	.LVL18:
 381               	.L14:
 858:funsape/device/ssd1306.cpp ****         return false;
 382               		.loc 1 858 9 is_stmt 1 view .LVU97
 858:funsape/device/ssd1306.cpp ****         return false;
 383               		.loc 1 858 34 is_stmt 0 view .LVU98
 384 0076 F801      		movw r30,r16
 385 0078 8081      		ld r24,Z
 386 007a 9181      		ldd r25,Z+1
 858:funsape/device/ssd1306.cpp ****         return false;
 387               		.loc 1 858 59 view .LVU99
GAS LISTING /tmp/cckYZbTP.s 			page 23


 388 007c FC01      		movw r30,r24
 389 007e 0190      		ld __tmp_reg__,Z+
 390 0080 F081      		ld r31,Z
 391 0082 E02D      		mov r30,__tmp_reg__
 392 0084 0684      		ldd __tmp_reg__,Z+14
 393 0086 F785      		ldd r31,Z+15
 394 0088 E02D      		mov r30,__tmp_reg__
 395 008a 0995      		icall
 396               	.LVL19:
 858:funsape/device/ssd1306.cpp ****         return false;
 397               		.loc 1 858 26 discriminator 1 view .LVU100
 398 008c F801      		movw r30,r16
 399 008e 9483      		std Z+4,r25
 400 0090 8383      		std Z+3,r24
 859:funsape/device/ssd1306.cpp ****     }
 401               		.loc 1 859 9 is_stmt 1 view .LVU101
 859:funsape/device/ssd1306.cpp ****     }
 402               		.loc 1 859 16 is_stmt 0 view .LVU102
 403 0092 00C0      		rjmp .L9
 404               	.L15:
 863:funsape/device/ssd1306.cpp ****         return false;
 405               		.loc 1 863 9 is_stmt 1 view .LVU103
 863:funsape/device/ssd1306.cpp ****         return false;
 406               		.loc 1 863 34 is_stmt 0 view .LVU104
 407 0094 F801      		movw r30,r16
 408 0096 8081      		ld r24,Z
 409 0098 9181      		ldd r25,Z+1
 863:funsape/device/ssd1306.cpp ****         return false;
 410               		.loc 1 863 59 view .LVU105
 411 009a FC01      		movw r30,r24
 412 009c 0190      		ld __tmp_reg__,Z+
 413 009e F081      		ld r31,Z
 414 00a0 E02D      		mov r30,__tmp_reg__
 415 00a2 0684      		ldd __tmp_reg__,Z+14
 416 00a4 F785      		ldd r31,Z+15
 417 00a6 E02D      		mov r30,__tmp_reg__
 418 00a8 0995      		icall
 419               	.LVL20:
 863:funsape/device/ssd1306.cpp ****         return false;
 420               		.loc 1 863 26 discriminator 1 view .LVU106
 421 00aa F801      		movw r30,r16
 422 00ac 9483      		std Z+4,r25
 423 00ae 8383      		std Z+3,r24
 864:funsape/device/ssd1306.cpp ****     }
 424               		.loc 1 864 9 is_stmt 1 view .LVU107
 864:funsape/device/ssd1306.cpp ****     }
 425               		.loc 1 864 16 is_stmt 0 view .LVU108
 426 00b0 00C0      		rjmp .L9
 427               		.cfi_endproc
 428               	.LFE156:
 430               		.section	.text._ZN7Ssd130617_writeCommandListEPKhh,"ax",@progbits
 431               	.global	_ZN7Ssd130617_writeCommandListEPKhh
 433               	_ZN7Ssd130617_writeCommandListEPKhh:
 434               	.LVL21:
 435               	.LFB157:
 871:funsape/device/ssd1306.cpp **** 
 872:funsape/device/ssd1306.cpp **** bool_t Ssd1306::_writeCommandList(const uint8_t *commands_p, uint8_t size_p)
GAS LISTING /tmp/cckYZbTP.s 			page 24


 873:funsape/device/ssd1306.cpp **** {
 436               		.loc 1 873 1 is_stmt 1 view -0
 437               		.cfi_startproc
 438               		.loc 1 873 1 is_stmt 0 view .LVU110
 439 0000 EF92      		push r14
 440               	.LCFI7:
 441               		.cfi_def_cfa_offset 3
 442               		.cfi_offset 14, -2
 443 0002 FF92      		push r15
 444               	.LCFI8:
 445               		.cfi_def_cfa_offset 4
 446               		.cfi_offset 15, -3
 447 0004 0F93      		push r16
 448               	.LCFI9:
 449               		.cfi_def_cfa_offset 5
 450               		.cfi_offset 16, -4
 451 0006 1F93      		push r17
 452               	.LCFI10:
 453               		.cfi_def_cfa_offset 6
 454               		.cfi_offset 17, -5
 455 0008 CF93      		push r28
 456               	.LCFI11:
 457               		.cfi_def_cfa_offset 7
 458               		.cfi_offset 28, -6
 459 000a DF93      		push r29
 460               	.LCFI12:
 461               		.cfi_def_cfa_offset 8
 462               		.cfi_offset 29, -7
 463               	/* prologue: function */
 464               	/* frame size = 0 */
 465               	/* stack size = 6 */
 466               	.L__stack_usage = 6
 467 000c 8C01      		movw r16,r24
 468 000e 7B01      		movw r14,r22
 469 0010 D42F      		mov r29,r20
 874:funsape/device/ssd1306.cpp ****     // Sends each command byte read from PROGMEM
 875:funsape/device/ssd1306.cpp ****     for(uint8_t i = 0; i < size_p; i++) {
 470               		.loc 1 875 5 is_stmt 1 view .LVU111
 471               	.LVL22:
 472               	.LBB4:
 473               		.loc 1 875 17 is_stmt 0 view .LVU112
 474 0012 C0E0      		ldi r28,0
 475               		.loc 1 875 5 view .LVU113
 476 0014 00C0      		rjmp .L17
 477               	.LVL23:
 478               	.L21:
 479               		.loc 1 875 5 is_stmt 1 discriminator 1 view .LVU114
 480 0016 CF5F      		subi r28,lo8(-(1))
 481               	.LVL24:
 482               	.L17:
 483               		.loc 1 875 26 discriminator 2 view .LVU115
 484 0018 CD17      		cp r28,r29
 485 001a 00F4      		brsh .L20
 876:funsape/device/ssd1306.cpp ****         if(!this->_writeCommand(pgm_read_byte(&commands_p[i]))) {
 486               		.loc 1 876 9 view .LVU116
 487               	.LBB5:
 488               	.LBB6:
GAS LISTING /tmp/cckYZbTP.s 			page 25


 489               		.loc 1 876 33 view .LVU117
 490 001c F701      		movw r30,r14
 491 001e EC0F      		add r30,r28
 492 0020 F11D      		adc r31,__zero_reg__
 493               	.LVL25:
 494               		.loc 1 876 33 view .LVU118
 495               		.loc 1 876 33 view .LVU119
 496               	/* #APP */
 497               	 ;  876 "funsape/device/ssd1306.cpp" 1
 498 0022 6491      		lpm r22,Z ; [[len=nl]]
 499               	 ;  0 "" 2
 500               	.LVL26:
 501               		.loc 1 876 33 view .LVU120
 502               	/* #NOAPP */
 503               	.LBE6:
 504               		.loc 1 876 32 is_stmt 0 view .LVU121
 505 0024 C801      		movw r24,r16
 506 0026 0E94 0000 		call _ZN7Ssd130613_writeCommandEh
 507               	.LVL27:
 508               		.loc 1 876 9 discriminator 1 view .LVU122
 509 002a 8111      		cpse r24,__zero_reg__
 510 002c 00C0      		rjmp .L21
 511 002e 00C0      		rjmp .L16
 512               	.LVL28:
 513               	.L20:
 514               		.loc 1 876 9 discriminator 1 view .LVU123
 515               	.LBE5:
 516               	.LBE4:
 877:funsape/device/ssd1306.cpp ****             // Returns error
 878:funsape/device/ssd1306.cpp ****             return false;
 879:funsape/device/ssd1306.cpp ****         }
 880:funsape/device/ssd1306.cpp ****     }
 881:funsape/device/ssd1306.cpp **** 
 882:funsape/device/ssd1306.cpp ****     // Returns successfully
 883:funsape/device/ssd1306.cpp ****     this->_lastError = Error::NONE;
 517               		.loc 1 883 5 is_stmt 1 view .LVU124
 518               		.loc 1 883 22 is_stmt 0 view .LVU125
 519 0030 F801      		movw r30,r16
 520 0032 1482      		std Z+4,__zero_reg__
 521 0034 1382      		std Z+3,__zero_reg__
 884:funsape/device/ssd1306.cpp ****     return true;
 522               		.loc 1 884 5 is_stmt 1 view .LVU126
 523               		.loc 1 884 12 is_stmt 0 view .LVU127
 524 0036 81E0      		ldi r24,lo8(1)
 525               	.L16:
 526               	/* epilogue start */
 885:funsape/device/ssd1306.cpp **** }
 527               		.loc 1 885 1 view .LVU128
 528 0038 DF91      		pop r29
 529               	.LVL29:
 530               		.loc 1 885 1 view .LVU129
 531 003a CF91      		pop r28
 532               	.LVL30:
 533               		.loc 1 885 1 view .LVU130
 534 003c 1F91      		pop r17
 535 003e 0F91      		pop r16
 536               	.LVL31:
GAS LISTING /tmp/cckYZbTP.s 			page 26


 537               		.loc 1 885 1 view .LVU131
 538 0040 FF90      		pop r15
 539 0042 EF90      		pop r14
 540               	.LVL32:
 541               		.loc 1 885 1 view .LVU132
 542 0044 0895      		ret
 543               		.cfi_endproc
 544               	.LFE157:
 546               		.section	.text._ZN7Ssd130610_writeDataEPKhh,"ax",@progbits
 547               	.global	_ZN7Ssd130610_writeDataEPKhh
 549               	_ZN7Ssd130610_writeDataEPKhh:
 550               	.LVL33:
 551               	.LFB158:
 886:funsape/device/ssd1306.cpp **** 
 887:funsape/device/ssd1306.cpp **** bool_t Ssd1306::_writeData(cuint8_t *data_p, uint8_t size_p)
 888:funsape/device/ssd1306.cpp **** {
 552               		.loc 1 888 1 is_stmt 1 view -0
 553               		.cfi_startproc
 554               		.loc 1 888 1 is_stmt 0 view .LVU134
 555 0000 BF92      		push r11
 556               	.LCFI13:
 557               		.cfi_def_cfa_offset 3
 558               		.cfi_offset 11, -2
 559 0002 CF92      		push r12
 560               	.LCFI14:
 561               		.cfi_def_cfa_offset 4
 562               		.cfi_offset 12, -3
 563 0004 DF92      		push r13
 564               	.LCFI15:
 565               		.cfi_def_cfa_offset 5
 566               		.cfi_offset 13, -4
 567 0006 EF92      		push r14
 568               	.LCFI16:
 569               		.cfi_def_cfa_offset 6
 570               		.cfi_offset 14, -5
 571 0008 FF92      		push r15
 572               	.LCFI17:
 573               		.cfi_def_cfa_offset 7
 574               		.cfi_offset 15, -6
 575 000a 0F93      		push r16
 576               	.LCFI18:
 577               		.cfi_def_cfa_offset 8
 578               		.cfi_offset 16, -7
 579 000c 1F93      		push r17
 580               	.LCFI19:
 581               		.cfi_def_cfa_offset 9
 582               		.cfi_offset 17, -8
 583 000e CF93      		push r28
 584               	.LCFI20:
 585               		.cfi_def_cfa_offset 10
 586               		.cfi_offset 28, -9
 587 0010 DF93      		push r29
 588               	.LCFI21:
 589               		.cfi_def_cfa_offset 11
 590               		.cfi_offset 29, -10
 591               	/* prologue: function */
 592               	/* frame size = 0 */
GAS LISTING /tmp/cckYZbTP.s 			page 27


 593               	/* stack size = 9 */
 594               	.L__stack_usage = 9
 595 0012 8C01      		movw r16,r24
 596 0014 7B01      		movw r14,r22
 597 0016 D42E      		mov r13,r20
 889:funsape/device/ssd1306.cpp ****     // Local variables
 890:funsape/device/ssd1306.cpp ****     uint8_t auxOffset                   = 0;
 598               		.loc 1 890 5 is_stmt 1 view .LVU135
 599               	.LVL34:
 891:funsape/device/ssd1306.cpp **** 
 892:funsape/device/ssd1306.cpp ****     // Selects device
 893:funsape/device/ssd1306.cpp ****     if(!this->_busHandler->setDevice(this->_deviceAddress)) {
 600               		.loc 1 893 5 view .LVU136
 601               		.loc 1 893 15 is_stmt 0 view .LVU137
 602 0018 FC01      		movw r30,r24
 603 001a 8081      		ld r24,Z
 604 001c 9181      		ldd r25,Z+1
 605               	.LVL35:
 606               		.loc 1 893 44 view .LVU138
 607 001e 6581      		ldd r22,Z+5
 608               	.LVL36:
 609               		.loc 1 893 44 view .LVU139
 610 0020 6F77      		andi r22,lo8(127)
 611               		.loc 1 893 37 view .LVU140
 612 0022 70E0      		ldi r23,0
 613 0024 FC01      		movw r30,r24
 614 0026 0190      		ld __tmp_reg__,Z+
 615 0028 F081      		ld r31,Z
 616 002a E02D      		mov r30,__tmp_reg__
 617 002c 0084      		ldd __tmp_reg__,Z+8
 618 002e F185      		ldd r31,Z+9
 619 0030 E02D      		mov r30,__tmp_reg__
 620 0032 40E0      		ldi r20,0
 621               	.LVL37:
 622               		.loc 1 893 37 view .LVU141
 623 0034 0995      		icall
 624               	.LVL38:
 625 0036 B82E      		mov r11,r24
 626               		.loc 1 893 5 discriminator 1 view .LVU142
 627 0038 8030      		cpi r24,lo8(0)
 628 003a 01F0      		breq .L31
 890:funsape/device/ssd1306.cpp **** 
 629               		.loc 1 890 13 view .LVU143
 630 003c C0E0      		ldi r28,0
 631 003e 00C0      		rjmp .L23
 632               	.L31:
 894:funsape/device/ssd1306.cpp ****         // Returns error
 895:funsape/device/ssd1306.cpp ****         this->_lastError = this->_busHandler->getLastError();
 633               		.loc 1 895 9 is_stmt 1 view .LVU144
 634               		.loc 1 895 34 is_stmt 0 view .LVU145
 635 0040 F801      		movw r30,r16
 636 0042 8081      		ld r24,Z
 637 0044 9181      		ldd r25,Z+1
 638               		.loc 1 895 59 view .LVU146
 639 0046 FC01      		movw r30,r24
 640 0048 0190      		ld __tmp_reg__,Z+
 641 004a F081      		ld r31,Z
GAS LISTING /tmp/cckYZbTP.s 			page 28


 642 004c E02D      		mov r30,__tmp_reg__
 643 004e 0684      		ldd __tmp_reg__,Z+14
 644 0050 F785      		ldd r31,Z+15
 645 0052 E02D      		mov r30,__tmp_reg__
 646 0054 0995      		icall
 647               	.LVL39:
 648               		.loc 1 895 26 discriminator 1 view .LVU147
 649 0056 F801      		movw r30,r16
 650 0058 9483      		std Z+4,r25
 651 005a 8383      		std Z+3,r24
 896:funsape/device/ssd1306.cpp ****         return false;
 652               		.loc 1 896 9 is_stmt 1 view .LVU148
 653               	.LVL40:
 654               	.L22:
 897:funsape/device/ssd1306.cpp ****     }
 898:funsape/device/ssd1306.cpp **** 
 899:funsape/device/ssd1306.cpp ****     // Sends data in chunks (control byte 0x40) to respect the TWI buffer size
 900:funsape/device/ssd1306.cpp ****     while(auxOffset < size_p) {
 901:funsape/device/ssd1306.cpp ****         uint8_t chunk = size_p - auxOffset;
 902:funsape/device/ssd1306.cpp ****         if(chunk > constSsd1306DataChunk) {
 903:funsape/device/ssd1306.cpp ****             chunk = constSsd1306DataChunk;
 904:funsape/device/ssd1306.cpp ****         }
 905:funsape/device/ssd1306.cpp ****         if(!this->_busHandler->writeReg(SSD1306_CONTROL_DATA, &data_p[auxOffset], chunk)) {
 906:funsape/device/ssd1306.cpp ****             // Returns error
 907:funsape/device/ssd1306.cpp ****             this->_lastError = this->_busHandler->getLastError();
 908:funsape/device/ssd1306.cpp ****             return false;
 909:funsape/device/ssd1306.cpp ****         }
 910:funsape/device/ssd1306.cpp ****         auxOffset += chunk;
 911:funsape/device/ssd1306.cpp ****     }
 912:funsape/device/ssd1306.cpp **** 
 913:funsape/device/ssd1306.cpp ****     // Returns successfully
 914:funsape/device/ssd1306.cpp ****     this->_lastError = Error::NONE;
 915:funsape/device/ssd1306.cpp ****     return true;
 916:funsape/device/ssd1306.cpp **** }
 655               		.loc 1 916 1 is_stmt 0 view .LVU149
 656 005c 8B2D      		mov r24,r11
 657               	/* epilogue start */
 658 005e DF91      		pop r29
 659 0060 CF91      		pop r28
 660 0062 1F91      		pop r17
 661 0064 0F91      		pop r16
 662               	.LVL41:
 663               		.loc 1 916 1 view .LVU150
 664 0066 FF90      		pop r15
 665 0068 EF90      		pop r14
 666               	.LVL42:
 667               		.loc 1 916 1 view .LVU151
 668 006a DF90      		pop r13
 669               	.LVL43:
 670               		.loc 1 916 1 view .LVU152
 671 006c CF90      		pop r12
 672 006e BF90      		pop r11
 673 0070 0895      		ret
 674               	.LVL44:
 675               	.L25:
 676               	.LBB7:
 905:funsape/device/ssd1306.cpp ****             // Returns error
GAS LISTING /tmp/cckYZbTP.s 			page 29


 677               		.loc 1 905 9 is_stmt 1 view .LVU153
 905:funsape/device/ssd1306.cpp ****             // Returns error
 678               		.loc 1 905 19 is_stmt 0 view .LVU154
 679 0072 F801      		movw r30,r16
 680 0074 8081      		ld r24,Z
 681 0076 9181      		ldd r25,Z+1
 905:funsape/device/ssd1306.cpp ****             // Returns error
 682               		.loc 1 905 40 view .LVU155
 683 0078 2D2F      		mov r18,r29
 684 007a 30E0      		ldi r19,0
 685 007c FC01      		movw r30,r24
 686 007e 0190      		ld __tmp_reg__,Z+
 687 0080 F081      		ld r31,Z
 688 0082 E02D      		mov r30,__tmp_reg__
 689 0084 0680      		ldd __tmp_reg__,Z+6
 690 0086 F781      		ldd r31,Z+7
 691 0088 E02D      		mov r30,__tmp_reg__
 692 008a A701      		movw r20,r14
 693 008c 4C0F      		add r20,r28
 694 008e 511D      		adc r21,__zero_reg__
 695 0090 60E4      		ldi r22,lo8(64)
 696 0092 0995      		icall
 697               	.LVL45:
 698 0094 C82E      		mov r12,r24
 905:funsape/device/ssd1306.cpp ****             // Returns error
 699               		.loc 1 905 9 discriminator 1 view .LVU156
 700 0096 8030      		cpi r24,lo8(0)
 701 0098 01F0      		breq .L32
 910:funsape/device/ssd1306.cpp ****     }
 702               		.loc 1 910 9 is_stmt 1 view .LVU157
 910:funsape/device/ssd1306.cpp ****     }
 703               		.loc 1 910 19 is_stmt 0 view .LVU158
 704 009a CD0F      		add r28,r29
 705               	.LVL46:
 706               	.L23:
 910:funsape/device/ssd1306.cpp ****     }
 707               		.loc 1 910 19 view .LVU159
 708               	.LBE7:
 900:funsape/device/ssd1306.cpp ****         uint8_t chunk = size_p - auxOffset;
 709               		.loc 1 900 21 is_stmt 1 discriminator 1 view .LVU160
 710 009c CD15      		cp r28,r13
 711 009e 00F4      		brsh .L33
 712               	.LBB8:
 901:funsape/device/ssd1306.cpp ****         if(chunk > constSsd1306DataChunk) {
 713               		.loc 1 901 9 view .LVU161
 901:funsape/device/ssd1306.cpp ****         if(chunk > constSsd1306DataChunk) {
 714               		.loc 1 901 17 is_stmt 0 view .LVU162
 715 00a0 DD2D      		mov r29,r13
 716 00a2 DC1B      		sub r29,r28
 717               	.LVL47:
 902:funsape/device/ssd1306.cpp ****             chunk = constSsd1306DataChunk;
 718               		.loc 1 902 9 is_stmt 1 view .LVU163
 719 00a4 D131      		cpi r29,lo8(17)
 720 00a6 00F0      		brlo .L25
 903:funsape/device/ssd1306.cpp ****         }
 721               		.loc 1 903 19 is_stmt 0 view .LVU164
 722 00a8 D0E1      		ldi r29,lo8(16)
GAS LISTING /tmp/cckYZbTP.s 			page 30


 723               	.LVL48:
 903:funsape/device/ssd1306.cpp ****         }
 724               		.loc 1 903 19 view .LVU165
 725 00aa 00C0      		rjmp .L25
 726               	.LVL49:
 727               	.L32:
 907:funsape/device/ssd1306.cpp ****             return false;
 728               		.loc 1 907 13 is_stmt 1 view .LVU166
 907:funsape/device/ssd1306.cpp ****             return false;
 729               		.loc 1 907 38 is_stmt 0 view .LVU167
 730 00ac F801      		movw r30,r16
 731 00ae 8081      		ld r24,Z
 732 00b0 9181      		ldd r25,Z+1
 907:funsape/device/ssd1306.cpp ****             return false;
 733               		.loc 1 907 63 view .LVU168
 734 00b2 FC01      		movw r30,r24
 735 00b4 0190      		ld __tmp_reg__,Z+
 736 00b6 F081      		ld r31,Z
 737 00b8 E02D      		mov r30,__tmp_reg__
 738 00ba 0684      		ldd __tmp_reg__,Z+14
 739 00bc F785      		ldd r31,Z+15
 740 00be E02D      		mov r30,__tmp_reg__
 741 00c0 0995      		icall
 742               	.LVL50:
 907:funsape/device/ssd1306.cpp ****             return false;
 743               		.loc 1 907 30 discriminator 1 view .LVU169
 744 00c2 F801      		movw r30,r16
 745 00c4 9483      		std Z+4,r25
 746 00c6 8383      		std Z+3,r24
 908:funsape/device/ssd1306.cpp ****         }
 747               		.loc 1 908 13 is_stmt 1 view .LVU170
 908:funsape/device/ssd1306.cpp ****         }
 748               		.loc 1 908 20 is_stmt 0 view .LVU171
 749 00c8 BC2C      		mov r11,r12
 750 00ca 00C0      		rjmp .L22
 751               	.LVL51:
 752               	.L33:
 908:funsape/device/ssd1306.cpp ****         }
 753               		.loc 1 908 20 view .LVU172
 754               	.LBE8:
 914:funsape/device/ssd1306.cpp ****     return true;
 755               		.loc 1 914 5 is_stmt 1 view .LVU173
 914:funsape/device/ssd1306.cpp ****     return true;
 756               		.loc 1 914 22 is_stmt 0 view .LVU174
 757 00cc F801      		movw r30,r16
 758 00ce 1482      		std Z+4,__zero_reg__
 759 00d0 1382      		std Z+3,__zero_reg__
 915:funsape/device/ssd1306.cpp **** }
 760               		.loc 1 915 5 is_stmt 1 view .LVU175
 915:funsape/device/ssd1306.cpp **** }
 761               		.loc 1 915 12 is_stmt 0 view .LVU176
 762 00d2 00C0      		rjmp .L22
 763               		.cfi_endproc
 764               	.LFE158:
 766               		.section	.text._ZN7Ssd130611_setAddressEhh,"ax",@progbits
 767               	.global	_ZN7Ssd130611_setAddressEhh
 769               	_ZN7Ssd130611_setAddressEhh:
GAS LISTING /tmp/cckYZbTP.s 			page 31


 770               	.LVL52:
 771               	.LFB159:
 917:funsape/device/ssd1306.cpp **** 
 918:funsape/device/ssd1306.cpp **** bool_t Ssd1306::_setAddress(uint8_t page_p, uint8_t x_p)
 919:funsape/device/ssd1306.cpp **** {
 772               		.loc 1 919 1 is_stmt 1 view -0
 773               		.cfi_startproc
 774               		.loc 1 919 1 is_stmt 0 view .LVU178
 775 0000 0F93      		push r16
 776               	.LCFI22:
 777               		.cfi_def_cfa_offset 3
 778               		.cfi_offset 16, -2
 779 0002 1F93      		push r17
 780               	.LCFI23:
 781               		.cfi_def_cfa_offset 4
 782               		.cfi_offset 17, -3
 783 0004 CF93      		push r28
 784               	.LCFI24:
 785               		.cfi_def_cfa_offset 5
 786               		.cfi_offset 28, -4
 787               	/* prologue: function */
 788               	/* frame size = 0 */
 789               	/* stack size = 3 */
 790               	.L__stack_usage = 3
 791 0006 8C01      		movw r16,r24
 792 0008 C42F      		mov r28,r20
 920:funsape/device/ssd1306.cpp ****     // Sets page and column pointers (page addressing mode)
 921:funsape/device/ssd1306.cpp ****     if(!this->_writeCommand(SSD1306_SET_PAGE_ADDRESS | (page_p & 0x07))) {
 793               		.loc 1 921 5 is_stmt 1 view .LVU179
 794               		.loc 1 921 64 is_stmt 0 view .LVU180
 795 000a 6770      		andi r22,lo8(7)
 796               	.LVL53:
 797               		.loc 1 921 28 view .LVU181
 798 000c 606B      		ori r22,lo8(-80)
 799 000e 0E94 0000 		call _ZN7Ssd130613_writeCommandEh
 800               	.LVL54:
 801               		.loc 1 921 5 discriminator 1 view .LVU182
 802 0012 8111      		cpse r24,__zero_reg__
 803 0014 00C0      		rjmp .L38
 804               	.L34:
 805               	/* epilogue start */
 922:funsape/device/ssd1306.cpp ****         return false;
 923:funsape/device/ssd1306.cpp ****     }
 924:funsape/device/ssd1306.cpp ****     if(!this->_writeCommand(SSD1306_SET_LOW_COLUMN | (x_p & 0x0F))) {
 925:funsape/device/ssd1306.cpp ****         return false;
 926:funsape/device/ssd1306.cpp ****     }
 927:funsape/device/ssd1306.cpp ****     if(!this->_writeCommand(SSD1306_SET_HIGH_COLUMN | ((x_p >> 4) & 0x0F))) {
 928:funsape/device/ssd1306.cpp ****         return false;
 929:funsape/device/ssd1306.cpp ****     }
 930:funsape/device/ssd1306.cpp **** 
 931:funsape/device/ssd1306.cpp ****     // Returns successfully
 932:funsape/device/ssd1306.cpp ****     this->_lastError = Error::NONE;
 933:funsape/device/ssd1306.cpp ****     return true;
 934:funsape/device/ssd1306.cpp **** }
 806               		.loc 1 934 1 view .LVU183
 807 0016 CF91      		pop r28
 808               	.LVL55:
GAS LISTING /tmp/cckYZbTP.s 			page 32


 809               		.loc 1 934 1 view .LVU184
 810 0018 1F91      		pop r17
 811 001a 0F91      		pop r16
 812               	.LVL56:
 813               		.loc 1 934 1 view .LVU185
 814 001c 0895      		ret
 815               	.LVL57:
 816               	.L38:
 924:funsape/device/ssd1306.cpp ****         return false;
 817               		.loc 1 924 5 is_stmt 1 view .LVU186
 924:funsape/device/ssd1306.cpp ****         return false;
 818               		.loc 1 924 28 is_stmt 0 view .LVU187
 819 001e 6C2F      		mov r22,r28
 820 0020 6F70      		andi r22,lo8(15)
 821 0022 C801      		movw r24,r16
 822 0024 0E94 0000 		call _ZN7Ssd130613_writeCommandEh
 823               	.LVL58:
 924:funsape/device/ssd1306.cpp ****         return false;
 824               		.loc 1 924 5 discriminator 1 view .LVU188
 825 0028 8030      		cpi r24,lo8(0)
 826 002a 01F0      		breq .L34
 927:funsape/device/ssd1306.cpp ****         return false;
 827               		.loc 1 927 5 is_stmt 1 view .LVU189
 927:funsape/device/ssd1306.cpp ****         return false;
 828               		.loc 1 927 61 is_stmt 0 view .LVU190
 829 002c 6C2F      		mov r22,r28
 830 002e 6295      		swap r22
 831 0030 6F70      		andi r22,lo8(15)
 927:funsape/device/ssd1306.cpp ****         return false;
 832               		.loc 1 927 28 view .LVU191
 833 0032 6061      		ori r22,lo8(16)
 834 0034 C801      		movw r24,r16
 835 0036 0E94 0000 		call _ZN7Ssd130613_writeCommandEh
 836               	.LVL59:
 927:funsape/device/ssd1306.cpp ****         return false;
 837               		.loc 1 927 5 discriminator 1 view .LVU192
 838 003a 8030      		cpi r24,lo8(0)
 839 003c 01F0      		breq .L34
 932:funsape/device/ssd1306.cpp ****     return true;
 840               		.loc 1 932 5 is_stmt 1 view .LVU193
 932:funsape/device/ssd1306.cpp ****     return true;
 841               		.loc 1 932 22 is_stmt 0 view .LVU194
 842 003e F801      		movw r30,r16
 843 0040 1482      		std Z+4,__zero_reg__
 844 0042 1382      		std Z+3,__zero_reg__
 933:funsape/device/ssd1306.cpp **** }
 845               		.loc 1 933 5 is_stmt 1 view .LVU195
 933:funsape/device/ssd1306.cpp **** }
 846               		.loc 1 933 12 is_stmt 0 view .LVU196
 847 0044 00C0      		rjmp .L34
 848               		.cfi_endproc
 849               	.LFE159:
 851               		.section	.text._ZN7Ssd130610_writeCharEc,"ax",@progbits
 852               	.global	_ZN7Ssd130610_writeCharEc
 854               	_ZN7Ssd130610_writeCharEc:
 855               	.LVL60:
 856               	.LFB160:
GAS LISTING /tmp/cckYZbTP.s 			page 33


 935:funsape/device/ssd1306.cpp **** 
 936:funsape/device/ssd1306.cpp **** bool_t Ssd1306::_writeChar(char_t character_p)
 937:funsape/device/ssd1306.cpp **** {
 857               		.loc 1 937 1 is_stmt 1 view -0
 858               		.cfi_startproc
 859               		.loc 1 937 1 is_stmt 0 view .LVU198
 860 0000 AF92      		push r10
 861               	.LCFI25:
 862               		.cfi_def_cfa_offset 3
 863               		.cfi_offset 10, -2
 864 0002 BF92      		push r11
 865               	.LCFI26:
 866               		.cfi_def_cfa_offset 4
 867               		.cfi_offset 11, -3
 868 0004 CF92      		push r12
 869               	.LCFI27:
 870               		.cfi_def_cfa_offset 5
 871               		.cfi_offset 12, -4
 872 0006 DF92      		push r13
 873               	.LCFI28:
 874               		.cfi_def_cfa_offset 6
 875               		.cfi_offset 13, -5
 876 0008 EF92      		push r14
 877               	.LCFI29:
 878               		.cfi_def_cfa_offset 7
 879               		.cfi_offset 14, -6
 880 000a FF92      		push r15
 881               	.LCFI30:
 882               		.cfi_def_cfa_offset 8
 883               		.cfi_offset 15, -7
 884 000c 0F93      		push r16
 885               	.LCFI31:
 886               		.cfi_def_cfa_offset 9
 887               		.cfi_offset 16, -8
 888 000e 1F93      		push r17
 889               	.LCFI32:
 890               		.cfi_def_cfa_offset 10
 891               		.cfi_offset 17, -9
 892 0010 CF93      		push r28
 893               	.LCFI33:
 894               		.cfi_def_cfa_offset 11
 895               		.cfi_offset 28, -10
 896 0012 DF93      		push r29
 897               	.LCFI34:
 898               		.cfi_def_cfa_offset 12
 899               		.cfi_offset 29, -11
 900 0014 CDB7      		in r28,__SP_L__
 901 0016 DEB7      		in r29,__SP_H__
 902               	.LCFI35:
 903               		.cfi_def_cfa_register 28
 904 0018 6897      		sbiw r28,24
 905               	.LCFI36:
 906               		.cfi_def_cfa_offset 36
 907 001a 0FB6      		in __tmp_reg__,__SREG__
 908 001c F894      		cli
 909 001e DEBF      		out __SP_H__,r29
 910 0020 0FBE      		out __SREG__,__tmp_reg__
GAS LISTING /tmp/cckYZbTP.s 			page 34


 911 0022 CDBF      		out __SP_L__,r28
 912               	/* prologue: function */
 913               	/* frame size = 24 */
 914               	/* stack size = 34 */
 915               	.L__stack_usage = 34
 916 0024 8C01      		movw r16,r24
 938:funsape/device/ssd1306.cpp ****     // Local variables
 939:funsape/device/ssd1306.cpp ****     uint8_t auxBuffer[constSsd1306CellWidth * constSsd1306TextSizeMax];   // up to 6*4
 917               		.loc 1 939 5 is_stmt 1 view .LVU199
 940:funsape/device/ssd1306.cpp ****     uint8_t auxScale                    = this->_textSize;
 918               		.loc 1 940 5 view .LVU200
 919               		.loc 1 940 49 is_stmt 0 view .LVU201
 920 0026 FC01      		movw r30,r24
 921 0028 E184      		ldd r14,Z+9
 922 002a 8E2D      		mov r24,r14
 923               	.LVL61:
 924               		.loc 1 940 49 view .LVU202
 925 002c 8695      		lsr r24
 926 002e 8695      		lsr r24
 927 0030 8695      		lsr r24
 928 0032 8770      		andi r24,lo8(7)
 929               		.loc 1 940 13 view .LVU203
 930 0034 D82E      		mov r13,r24
 931               	.LVL62:
 941:funsape/device/ssd1306.cpp ****     uint8_t auxCode                     = (uint8_t)character_p;
 932               		.loc 1 941 5 is_stmt 1 view .LVU204
 933               		.loc 1 941 13 is_stmt 0 view .LVU205
 934 0036 962F      		mov r25,r22
 935               	.LVL63:
 942:funsape/device/ssd1306.cpp ****     uint8_t auxIndex                    = 0;
 936               		.loc 1 942 5 is_stmt 1 view .LVU206
 943:funsape/device/ssd1306.cpp **** 
 944:funsape/device/ssd1306.cpp ****     // Maps unsupported characters to a blank space
 945:funsape/device/ssd1306.cpp ****     if((auxCode < constSsd1306FontFirst) || (auxCode > constSsd1306FontLast)) {
 937               		.loc 1 945 5 view .LVU207
 938               		.loc 1 945 42 is_stmt 0 view .LVU208
 939 0038 6052      		subi r22,lo8(-(-32))
 940               	.LVL64:
 941               		.loc 1 945 5 view .LVU209
 942 003a 6F35      		cpi r22,lo8(95)
 943 003c 00F0      		brlo .L40
 946:funsape/device/ssd1306.cpp ****         auxCode = constSsd1306FontFirst;
 944               		.loc 1 946 17 view .LVU210
 945 003e 90E2      		ldi r25,lo8(32)
 946               	.LVL65:
 947               	.L40:
 947:funsape/device/ssd1306.cpp ****     }
 948:funsape/device/ssd1306.cpp ****     auxIndex = auxCode - constSsd1306FontFirst;
 948               		.loc 1 948 5 is_stmt 1 view .LVU211
 949               		.loc 1 948 14 is_stmt 0 view .LVU212
 950 0040 0F2E      		mov __tmp_reg__,r31
 951 0042 F0EE      		ldi r31,lo8(-32)
 952 0044 BF2E      		mov r11,r31
 953 0046 F02D      		mov r31,__tmp_reg__
 954 0048 B90E      		add r11,r25
 955               	.LVL66:
 949:funsape/device/ssd1306.cpp **** 
GAS LISTING /tmp/cckYZbTP.s 			page 35


 950:funsape/device/ssd1306.cpp ****     // Wraps to the next line when the glyph does not fit horizontally
 951:funsape/device/ssd1306.cpp ****     if((this->_cursorX + (constSsd1306CellWidth * auxScale)) > constSsd1306Width) {
 956               		.loc 1 951 5 is_stmt 1 view .LVU213
 957               		.loc 1 951 15 is_stmt 0 view .LVU214
 958 004a F801      		movw r30,r16
 959 004c 2085      		ldd r18,Z+8
 960               		.loc 1 951 51 view .LVU215
 961 004e E82E      		mov r14,r24
 962 0050 F12C      		mov r15,__zero_reg__
 963               		.loc 1 951 49 view .LVU216
 964 0052 C701      		movw r24,r14
 965 0054 880F      		lsl r24
 966 0056 991F      		rol r25
 967 0058 8E0D      		add r24,r14
 968 005a 9F1D      		adc r25,r15
 969 005c 880F      		lsl r24
 970 005e 991F      		rol r25
 971               		.loc 1 951 24 view .LVU217
 972 0060 820F      		add r24,r18
 973 0062 911D      		adc r25,__zero_reg__
 974               		.loc 1 951 5 view .LVU218
 975 0064 8138      		cpi r24,-127
 976 0066 9040      		sbci r25,0
 977 0068 04F0      		brlt .L41
 952:funsape/device/ssd1306.cpp ****         this->_cursorX                  = 0;
 978               		.loc 1 952 9 is_stmt 1 view .LVU219
 979               		.loc 1 952 41 is_stmt 0 view .LVU220
 980 006a 1086      		std Z+8,__zero_reg__
 953:funsape/device/ssd1306.cpp ****         this->_cursorPage               += auxScale;
 981               		.loc 1 953 9 is_stmt 1 view .LVU221
 982               		.loc 1 953 15 is_stmt 0 view .LVU222
 983 006c 8185      		ldd r24,Z+9
 984 006e 982F      		mov r25,r24
 985               	.LVL67:
 986               		.loc 1 953 15 view .LVU223
 987 0070 9770      		andi r25,lo8(7)
 988               		.loc 1 953 41 view .LVU224
 989 0072 9D0D      		add r25,r13
 990 0074 9770      		andi r25,lo8(7)
 991 0076 887F      		andi r24,lo8(-8)
 992 0078 892B      		or r24,r25
 993 007a 8187      		std Z+9,r24
 994               	.L41:
 954:funsape/device/ssd1306.cpp ****     }
 955:funsape/device/ssd1306.cpp ****     if((this->_cursorPage + auxScale) > this->_pages) {
 995               		.loc 1 955 5 is_stmt 1 view .LVU225
 996               		.loc 1 955 15 is_stmt 0 view .LVU226
 997 007c F801      		movw r30,r16
 998 007e 8185      		ldd r24,Z+9
 999 0080 8770      		andi r24,lo8(7)
 1000               		.loc 1 955 27 view .LVU227
 1001 0082 8E0D      		add r24,r14
 1002 0084 9F2D      		mov r25,r15
 1003 0086 911D      		adc r25,__zero_reg__
 1004               		.loc 1 955 47 view .LVU228
 1005 0088 2781      		ldd r18,Z+7
 1006               		.loc 1 955 5 view .LVU229
GAS LISTING /tmp/cckYZbTP.s 			page 36


 1007 008a 2817      		cp r18,r24
 1008 008c 1906      		cpc __zero_reg__,r25
 1009 008e 04F4      		brge .L42
 956:funsape/device/ssd1306.cpp ****         this->_cursorPage               = 0;
 1010               		.loc 1 956 9 is_stmt 1 view .LVU230
 1011               		.loc 1 956 41 is_stmt 0 view .LVU231
 1012 0090 8185      		ldd r24,Z+9
 1013 0092 887F      		andi r24,lo8(-8)
 1014 0094 8187      		std Z+9,r24
 1015               	.L42:
 957:funsape/device/ssd1306.cpp ****     }
 958:funsape/device/ssd1306.cpp **** 
 959:funsape/device/ssd1306.cpp ****     // Renders the glyph, one page-row at a time
 960:funsape/device/ssd1306.cpp ****     for(uint8_t pg = 0; pg < auxScale; pg++) {
 1016               		.loc 1 960 5 is_stmt 1 view .LVU232
 1017               	.LVL68:
 1018               	.LBB9:
 1019               		.loc 1 960 17 is_stmt 0 view .LVU233
 1020 0096 C12C      		mov r12,__zero_reg__
 1021               		.loc 1 960 5 view .LVU234
 1022 0098 00C0      		rjmp .L43
 1023               	.LVL69:
 1024               	.L56:
 1025               	.LBB10:
 1026               	.LBB11:
 1027               	.LBB12:
 961:funsape/device/ssd1306.cpp ****         uint8_t auxBufferSize           = 0;
 962:funsape/device/ssd1306.cpp **** 
 963:funsape/device/ssd1306.cpp ****         if(!this->_setAddress(this->_cursorPage + pg, this->_cursorX)) {
 964:funsape/device/ssd1306.cpp ****             return false;
 965:funsape/device/ssd1306.cpp ****         }
 966:funsape/device/ssd1306.cpp ****         for(uint8_t col = 0; col < constSsd1306CellWidth; col++) {
 967:funsape/device/ssd1306.cpp ****             uint8_t auxSourceCol        = 0x00;
 1028               		.loc 1 967 21 view .LVU235
 1029 009a E0E0      		ldi r30,0
 1030 009c 00C0      		rjmp .L46
 1031               	.LVL70:
 1032               	.L48:
 1033               	.LBB13:
 968:funsape/device/ssd1306.cpp ****             uint8_t auxScaledByte       = 0x00;
 969:funsape/device/ssd1306.cpp **** 
 970:funsape/device/ssd1306.cpp ****             if(col < 5) {
 971:funsape/device/ssd1306.cpp ****                 auxSourceCol = pgm_read_byte(&constSsd1306Font[auxIndex][col]);
 972:funsape/device/ssd1306.cpp ****             }
 973:funsape/device/ssd1306.cpp ****             // Vertically expands the source column into this output page byte
 974:funsape/device/ssd1306.cpp ****             for(uint8_t b = 0; b < 8; b++) {
 1034               		.loc 1 974 13 is_stmt 1 discriminator 1 view .LVU236
 1035 009e 2F5F      		subi r18,lo8(-(1))
 1036               	.LVL71:
 1037               	.L47:
 1038               		.loc 1 974 34 discriminator 2 view .LVU237
 1039 00a0 2830      		cpi r18,lo8(8)
 1040 00a2 00F4      		brsh .L58
 1041               	.LBB14:
 975:funsape/device/ssd1306.cpp ****                 uint8_t auxSourceRow = ((pg * 8) + b) / auxScale;
 1042               		.loc 1 975 17 view .LVU238
 1043               		.loc 1 975 42 is_stmt 0 view .LVU239
GAS LISTING /tmp/cckYZbTP.s 			page 37


 1044 00a4 8C2D      		mov r24,r12
 1045 00a6 90E0      		ldi r25,0
 1046               		.loc 1 975 45 view .LVU240
 1047 00a8 880F      		lsl r24
 1048 00aa 991F      		rol r25
 1049 00ac 880F      		lsl r24
 1050 00ae 991F      		rol r25
 1051 00b0 880F      		lsl r24
 1052 00b2 991F      		rol r25
 1053               		.loc 1 975 50 view .LVU241
 1054 00b4 820F      		add r24,r18
 1055 00b6 911D      		adc r25,__zero_reg__
 1056               		.loc 1 975 55 view .LVU242
 1057 00b8 B701      		movw r22,r14
 1058 00ba 0E94 0000 		call __divmodhi4
 1059               	.LVL72:
 976:funsape/device/ssd1306.cpp ****                 if((auxSourceCol >> auxSourceRow) & 0x01) {
 1060               		.loc 1 976 17 is_stmt 1 view .LVU243
 1061               		.loc 1 976 21 is_stmt 0 view .LVU244
 1062 00be 8E2F      		mov r24,r30
 1063 00c0 90E0      		ldi r25,0
 1064               		.loc 1 976 34 view .LVU245
 1065 00c2 00C0      		rjmp 2f
 1066               		1:
 1067 00c4 9595      		asr r25
 1068 00c6 8795      		ror r24
 1069               		2:
 1070 00c8 6A95      		dec r22
 1071 00ca 02F4      		brpl 1b
 1072               		.loc 1 976 17 view .LVU246
 1073 00cc 80FF      		sbrs r24,0
 1074 00ce 00C0      		rjmp .L48
 977:funsape/device/ssd1306.cpp ****                     auxScaledByte |= (1 << b);
 1075               		.loc 1 977 21 is_stmt 1 view .LVU247
 1076               		.loc 1 977 41 is_stmt 0 view .LVU248
 1077 00d0 81E0      		ldi r24,lo8(1)
 1078 00d2 90E0      		ldi r25,0
 1079 00d4 022E      		mov r0,r18
 1080 00d6 00C0      		rjmp 2f
 1081               		1:
 1082 00d8 880F      		lsl r24
 1083 00da 991F      		rol r25
 1084               		2:
 1085 00dc 0A94      		dec r0
 1086 00de 02F4      		brpl 1b
 1087               		.loc 1 977 35 view .LVU249
 1088 00e0 A82A      		or r10,r24
 1089               	.LVL73:
 1090               		.loc 1 977 35 view .LVU250
 1091 00e2 00C0      		rjmp .L48
 1092               	.LVL74:
 1093               	.L58:
 1094               		.loc 1 977 35 view .LVU251
 1095               	.LBE14:
 1096               	.LBE13:
 1097               	.LBB15:
 978:funsape/device/ssd1306.cpp ****                 }
GAS LISTING /tmp/cckYZbTP.s 			page 38


 979:funsape/device/ssd1306.cpp ****             }
 980:funsape/device/ssd1306.cpp ****             // Horizontally repeats the scaled column auxScale times
 981:funsape/device/ssd1306.cpp ****             for(uint8_t rep = 0; rep < auxScale; rep++) {
 1098               		.loc 1 981 25 view .LVU252
 1099 00e4 80E0      		ldi r24,0
 1100 00e6 00C0      		rjmp .L50
 1101               	.LVL75:
 1102               	.L51:
 982:funsape/device/ssd1306.cpp ****                 auxBuffer[auxBufferSize++] = auxScaledByte;
 1103               		.loc 1 982 17 is_stmt 1 view .LVU253
 1104               		.loc 1 982 44 is_stmt 0 view .LVU254
 1105 00e8 FE01      		movw r30,r28
 1106 00ea 3196      		adiw r30,1
 1107 00ec E40F      		add r30,r20
 1108 00ee F11D      		adc r31,__zero_reg__
 1109 00f0 A082      		st Z,r10
 981:funsape/device/ssd1306.cpp ****                 auxBuffer[auxBufferSize++] = auxScaledByte;
 1110               		.loc 1 981 13 is_stmt 1 discriminator 1 view .LVU255
 1111 00f2 8F5F      		subi r24,lo8(-(1))
 1112               	.LVL76:
 1113               		.loc 1 982 40 is_stmt 0 view .LVU256
 1114 00f4 4F5F      		subi r20,lo8(-(1))
 1115               	.LVL77:
 1116               	.L50:
 981:funsape/device/ssd1306.cpp ****                 auxBuffer[auxBufferSize++] = auxScaledByte;
 1117               		.loc 1 981 38 is_stmt 1 discriminator 2 view .LVU257
 1118 00f6 8D15      		cp r24,r13
 1119 00f8 00F0      		brlo .L51
 981:funsape/device/ssd1306.cpp ****                 auxBuffer[auxBufferSize++] = auxScaledByte;
 1120               		.loc 1 981 38 is_stmt 0 discriminator 2 view .LVU258
 1121               	.LBE15:
 1122               	.LBE12:
 966:funsape/device/ssd1306.cpp ****             uint8_t auxSourceCol        = 0x00;
 1123               		.loc 1 966 9 is_stmt 1 discriminator 1 view .LVU259
 1124 00fa 3F5F      		subi r19,lo8(-(1))
 1125               	.LVL78:
 1126               	.L44:
 966:funsape/device/ssd1306.cpp ****             uint8_t auxSourceCol        = 0x00;
 1127               		.loc 1 966 34 discriminator 2 view .LVU260
 1128 00fc 3530      		cpi r19,lo8(5)
 1129 00fe 01F0      		breq .+2
 1130 0100 00F4      		brsh .L59
 1131               	.LBB20:
 967:funsape/device/ssd1306.cpp ****             uint8_t auxScaledByte       = 0x00;
 1132               		.loc 1 967 13 view .LVU261
 1133               	.LVL79:
 968:funsape/device/ssd1306.cpp **** 
 1134               		.loc 1 968 13 view .LVU262
 970:funsape/device/ssd1306.cpp ****                 auxSourceCol = pgm_read_byte(&constSsd1306Font[auxIndex][col]);
 1135               		.loc 1 970 13 view .LVU263
 1136               	.LBB16:
 1137 0102 01F0      		breq .L56
 971:funsape/device/ssd1306.cpp ****             }
 1138               		.loc 1 971 17 view .LVU264
 1139               	.LBB17:
 971:funsape/device/ssd1306.cpp ****             }
 1140               		.loc 1 971 32 view .LVU265
GAS LISTING /tmp/cckYZbTP.s 			page 39


 1141 0104 8B2D      		mov r24,r11
 1142 0106 90E0      		ldi r25,0
 1143 0108 FC01      		movw r30,r24
 1144 010a EE0F      		lsl r30
 1145 010c FF1F      		rol r31
 1146 010e EE0F      		lsl r30
 1147 0110 FF1F      		rol r31
 1148 0112 E80F      		add r30,r24
 1149 0114 F91F      		adc r31,r25
 1150 0116 E30F      		add r30,r19
 1151 0118 F11D      		adc r31,__zero_reg__
 1152 011a E050      		subi r30,lo8(-(_ZL16constSsd1306Font))
 1153 011c F040      		sbci r31,hi8(-(_ZL16constSsd1306Font))
 1154               	.LVL80:
 971:funsape/device/ssd1306.cpp ****             }
 1155               		.loc 1 971 32 view .LVU266
 971:funsape/device/ssd1306.cpp ****             }
 1156               		.loc 1 971 32 view .LVU267
 1157               	/* #APP */
 1158               	 ;  971 "funsape/device/ssd1306.cpp" 1
 1159 011e E491      		lpm r30,Z ; [[len=nl]]
 1160               	 ;  0 "" 2
 1161               	.LVL81:
 971:funsape/device/ssd1306.cpp ****             }
 1162               		.loc 1 971 32 view .LVU268
 1163               	/* #NOAPP */
 1164               	.L46:
 971:funsape/device/ssd1306.cpp ****             }
 1165               		.loc 1 971 32 is_stmt 0 view .LVU269
 1166               	.LBE17:
 1167               	.LBE16:
 974:funsape/device/ssd1306.cpp ****                 uint8_t auxSourceRow = ((pg * 8) + b) / auxScale;
 1168               		.loc 1 974 13 is_stmt 1 view .LVU270
 1169               	.LBB18:
 974:funsape/device/ssd1306.cpp ****                 uint8_t auxSourceRow = ((pg * 8) + b) / auxScale;
 1170               		.loc 1 974 25 is_stmt 0 view .LVU271
 1171 0120 20E0      		ldi r18,0
 1172               	.LBE18:
 968:funsape/device/ssd1306.cpp **** 
 1173               		.loc 1 968 21 view .LVU272
 1174 0122 A12C      		mov r10,__zero_reg__
 1175               	.LBB19:
 974:funsape/device/ssd1306.cpp ****                 uint8_t auxSourceRow = ((pg * 8) + b) / auxScale;
 1176               		.loc 1 974 13 view .LVU273
 1177 0124 00C0      		rjmp .L47
 1178               	.LVL82:
 1179               	.L59:
 974:funsape/device/ssd1306.cpp ****                 uint8_t auxSourceRow = ((pg * 8) + b) / auxScale;
 1180               		.loc 1 974 13 view .LVU274
 1181               	.LBE19:
 1182               	.LBE20:
 1183               	.LBE11:
 983:funsape/device/ssd1306.cpp ****             }
 984:funsape/device/ssd1306.cpp ****         }
 985:funsape/device/ssd1306.cpp ****         if(!this->_writeData(auxBuffer, auxBufferSize)) {
 1184               		.loc 1 985 9 is_stmt 1 view .LVU275
 1185               		.loc 1 985 29 is_stmt 0 view .LVU276
GAS LISTING /tmp/cckYZbTP.s 			page 40


 1186 0126 BE01      		movw r22,r28
 1187 0128 6F5F      		subi r22,-1
 1188 012a 7F4F      		sbci r23,-1
 1189 012c C801      		movw r24,r16
 1190 012e 0E94 0000 		call _ZN7Ssd130610_writeDataEPKhh
 1191               	.LVL83:
 1192               		.loc 1 985 9 discriminator 1 view .LVU277
 1193 0132 8030      		cpi r24,lo8(0)
 1194 0134 01F0      		breq .L39
 1195               	.LBE10:
 960:funsape/device/ssd1306.cpp ****         uint8_t auxBufferSize           = 0;
 1196               		.loc 1 960 5 is_stmt 1 discriminator 1 view .LVU278
 1197 0136 C394      		inc r12
 1198               	.LVL84:
 1199               	.L43:
 960:funsape/device/ssd1306.cpp ****         uint8_t auxBufferSize           = 0;
 1200               		.loc 1 960 28 discriminator 2 view .LVU279
 1201 0138 CD14      		cp r12,r13
 1202 013a 00F4      		brsh .L60
 1203               	.LBB22:
 961:funsape/device/ssd1306.cpp **** 
 1204               		.loc 1 961 9 view .LVU280
 1205               	.LVL85:
 963:funsape/device/ssd1306.cpp ****             return false;
 1206               		.loc 1 963 9 view .LVU281
 963:funsape/device/ssd1306.cpp ****             return false;
 1207               		.loc 1 963 37 is_stmt 0 view .LVU282
 1208 013c F801      		movw r30,r16
 1209 013e 8185      		ldd r24,Z+9
 1210 0140 8770      		andi r24,lo8(7)
 963:funsape/device/ssd1306.cpp ****             return false;
 1211               		.loc 1 963 30 view .LVU283
 1212 0142 8C0D      		add r24,r12
 1213 0144 682F      		mov r22,r24
 1214 0146 4085      		ldd r20,Z+8
 1215 0148 C801      		movw r24,r16
 1216 014a 0E94 0000 		call _ZN7Ssd130611_setAddressEhh
 1217               	.LVL86:
 963:funsape/device/ssd1306.cpp ****             return false;
 1218               		.loc 1 963 9 discriminator 1 view .LVU284
 1219 014e 8030      		cpi r24,lo8(0)
 1220 0150 01F0      		breq .L39
 1221               	.LBB21:
 966:funsape/device/ssd1306.cpp ****             uint8_t auxSourceCol        = 0x00;
 1222               		.loc 1 966 21 view .LVU285
 1223 0152 30E0      		ldi r19,0
 1224               	.LBE21:
 961:funsape/device/ssd1306.cpp **** 
 1225               		.loc 1 961 17 view .LVU286
 1226 0154 40E0      		ldi r20,0
 1227 0156 00C0      		rjmp .L44
 1228               	.LVL87:
 1229               	.L60:
 961:funsape/device/ssd1306.cpp **** 
 1230               		.loc 1 961 17 view .LVU287
 1231               	.LBE22:
 1232               	.LBE9:
GAS LISTING /tmp/cckYZbTP.s 			page 41


 986:funsape/device/ssd1306.cpp ****             return false;
 987:funsape/device/ssd1306.cpp ****         }
 988:funsape/device/ssd1306.cpp ****     }
 989:funsape/device/ssd1306.cpp **** 
 990:funsape/device/ssd1306.cpp ****     // Advances the text cursor
 991:funsape/device/ssd1306.cpp ****     this->_cursorX                      += (constSsd1306CellWidth * auxScale);
 1233               		.loc 1 991 5 is_stmt 1 view .LVU288
 1234               		.loc 1 991 11 is_stmt 0 view .LVU289
 1235 0158 F801      		movw r30,r16
 1236 015a 9085      		ldd r25,Z+8
 1237               		.loc 1 991 41 view .LVU290
 1238 015c 8D2D      		mov r24,r13
 1239 015e 880F      		lsl r24
 1240 0160 8D0D      		add r24,r13
 1241 0162 880F      		lsl r24
 1242 0164 890F      		add r24,r25
 1243 0166 8087      		std Z+8,r24
 992:funsape/device/ssd1306.cpp **** 
 993:funsape/device/ssd1306.cpp ****     // Returns successfully
 994:funsape/device/ssd1306.cpp ****     this->_lastError = Error::NONE;
 1244               		.loc 1 994 5 is_stmt 1 view .LVU291
 1245               		.loc 1 994 22 is_stmt 0 view .LVU292
 1246 0168 1482      		std Z+4,__zero_reg__
 1247 016a 1382      		std Z+3,__zero_reg__
 995:funsape/device/ssd1306.cpp ****     return true;
 1248               		.loc 1 995 5 is_stmt 1 view .LVU293
 1249               		.loc 1 995 12 is_stmt 0 view .LVU294
 1250 016c 81E0      		ldi r24,lo8(1)
 1251               	.L39:
 1252               	/* epilogue start */
 996:funsape/device/ssd1306.cpp **** }
 1253               		.loc 1 996 1 view .LVU295
 1254 016e 6896      		adiw r28,24
 1255 0170 0FB6      		in __tmp_reg__,__SREG__
 1256 0172 F894      		cli
 1257 0174 DEBF      		out __SP_H__,r29
 1258 0176 0FBE      		out __SREG__,__tmp_reg__
 1259 0178 CDBF      		out __SP_L__,r28
 1260 017a DF91      		pop r29
 1261 017c CF91      		pop r28
 1262 017e 1F91      		pop r17
 1263 0180 0F91      		pop r16
 1264               	.LVL88:
 1265               		.loc 1 996 1 view .LVU296
 1266 0182 FF90      		pop r15
 1267 0184 EF90      		pop r14
 1268 0186 DF90      		pop r13
 1269               	.LVL89:
 1270               		.loc 1 996 1 view .LVU297
 1271 0188 CF90      		pop r12
 1272               	.LVL90:
 1273               		.loc 1 996 1 view .LVU298
 1274 018a BF90      		pop r11
 1275               	.LVL91:
 1276               		.loc 1 996 1 view .LVU299
 1277 018c AF90      		pop r10
 1278 018e 0895      		ret
GAS LISTING /tmp/cckYZbTP.s 			page 42


 1279               		.cfi_endproc
 1280               	.LFE160:
 1282               		.section	.text._ZN7Ssd130614_isInitializedEv,"ax",@progbits
 1283               	.global	_ZN7Ssd130614_isInitializedEv
 1285               	_ZN7Ssd130614_isInitializedEv:
 1286               	.LVL92:
 1287               	.LFB161:
 997:funsape/device/ssd1306.cpp **** 
 998:funsape/device/ssd1306.cpp **** bool_t Ssd1306::_isInitialized(void)
 999:funsape/device/ssd1306.cpp **** {
 1288               		.loc 1 999 1 is_stmt 1 view -0
 1289               		.cfi_startproc
 1290               	/* prologue: function */
 1291               	/* frame size = 0 */
 1292               	/* stack size = 0 */
 1293               	.L__stack_usage = 0
 1294               		.loc 1 999 1 is_stmt 0 view .LVU301
 1295 0000 FC01      		movw r30,r24
1000:funsape/device/ssd1306.cpp ****     // Check for errors
1001:funsape/device/ssd1306.cpp ****     if(!this->_initialized) {
 1296               		.loc 1 1001 5 is_stmt 1 view .LVU302
 1297               		.loc 1 1001 15 is_stmt 0 view .LVU303
 1298 0002 9281      		ldd r25,Z+2
 1299 0004 91FB      		bst r25,1
 1300 0006 8827      		clr r24
 1301 0008 80F9      		bld r24,0
 1302               	.LVL93:
 1303               		.loc 1 1001 5 view .LVU304
 1304 000a 91FF      		sbrs r25,1
 1305 000c 00C0      		rjmp .L64
1002:funsape/device/ssd1306.cpp ****         // Returns error
1003:funsape/device/ssd1306.cpp ****         this->_lastError = Error::NOT_INITIALIZED;
1004:funsape/device/ssd1306.cpp ****         return false;
1005:funsape/device/ssd1306.cpp ****     }
1006:funsape/device/ssd1306.cpp **** 
1007:funsape/device/ssd1306.cpp ****     // Returns successfully
1008:funsape/device/ssd1306.cpp ****     this->_lastError = Error::NONE;
 1306               		.loc 1 1008 5 is_stmt 1 view .LVU305
 1307               		.loc 1 1008 22 is_stmt 0 view .LVU306
 1308 000e 1482      		std Z+4,__zero_reg__
 1309 0010 1382      		std Z+3,__zero_reg__
1009:funsape/device/ssd1306.cpp ****     return true;
 1310               		.loc 1 1009 5 is_stmt 1 view .LVU307
 1311               	/* epilogue start */
1010:funsape/device/ssd1306.cpp **** }
 1312               		.loc 1 1010 1 is_stmt 0 view .LVU308
 1313 0012 0895      		ret
 1314               	.L64:
1003:funsape/device/ssd1306.cpp ****         return false;
 1315               		.loc 1 1003 9 is_stmt 1 view .LVU309
1003:funsape/device/ssd1306.cpp ****         return false;
 1316               		.loc 1 1003 26 is_stmt 0 view .LVU310
 1317 0014 26E0      		ldi r18,lo8(6)
 1318 0016 30E0      		ldi r19,0
 1319 0018 3483      		std Z+4,r19
 1320 001a 2383      		std Z+3,r18
1004:funsape/device/ssd1306.cpp ****     }
GAS LISTING /tmp/cckYZbTP.s 			page 43


 1321               		.loc 1 1004 9 is_stmt 1 view .LVU311
1004:funsape/device/ssd1306.cpp ****     }
 1322               		.loc 1 1004 16 is_stmt 0 view .LVU312
 1323 001c 0895      		ret
 1324               		.cfi_endproc
 1325               	.LFE161:
 1327               		.section	.text._ZN7Ssd130611clearScreenEv,"ax",@progbits
 1328               	.global	_ZN7Ssd130611clearScreenEv
 1330               	_ZN7Ssd130611clearScreenEv:
 1331               	.LVL94:
 1332               	.LFB142:
 333:funsape/device/ssd1306.cpp ****     // Mark passage for debugging purpose
 1333               		.loc 1 333 1 is_stmt 1 view -0
 1334               		.cfi_startproc
 333:funsape/device/ssd1306.cpp ****     // Mark passage for debugging purpose
 1335               		.loc 1 333 1 is_stmt 0 view .LVU314
 1336 0000 CF92      		push r12
 1337               	.LCFI37:
 1338               		.cfi_def_cfa_offset 3
 1339               		.cfi_offset 12, -2
 1340 0002 DF92      		push r13
 1341               	.LCFI38:
 1342               		.cfi_def_cfa_offset 4
 1343               		.cfi_offset 13, -3
 1344 0004 EF92      		push r14
 1345               	.LCFI39:
 1346               		.cfi_def_cfa_offset 5
 1347               		.cfi_offset 14, -4
 1348 0006 FF92      		push r15
 1349               	.LCFI40:
 1350               		.cfi_def_cfa_offset 6
 1351               		.cfi_offset 15, -5
 1352 0008 0F93      		push r16
 1353               	.LCFI41:
 1354               		.cfi_def_cfa_offset 7
 1355               		.cfi_offset 16, -6
 1356 000a 1F93      		push r17
 1357               	.LCFI42:
 1358               		.cfi_def_cfa_offset 8
 1359               		.cfi_offset 17, -7
 1360 000c CF93      		push r28
 1361               	.LCFI43:
 1362               		.cfi_def_cfa_offset 9
 1363               		.cfi_offset 28, -8
 1364 000e DF93      		push r29
 1365               	.LCFI44:
 1366               		.cfi_def_cfa_offset 10
 1367               		.cfi_offset 29, -9
 1368 0010 CDB7      		in r28,__SP_L__
 1369 0012 DEB7      		in r29,__SP_H__
 1370               	.LCFI45:
 1371               		.cfi_def_cfa_register 28
 1372 0014 6097      		sbiw r28,16
 1373               	.LCFI46:
 1374               		.cfi_def_cfa_offset 26
 1375 0016 0FB6      		in __tmp_reg__,__SREG__
 1376 0018 F894      		cli
GAS LISTING /tmp/cckYZbTP.s 			page 44


 1377 001a DEBF      		out __SP_H__,r29
 1378 001c 0FBE      		out __SREG__,__tmp_reg__
 1379 001e CDBF      		out __SP_L__,r28
 1380               	/* prologue: function */
 1381               	/* frame size = 16 */
 1382               	/* stack size = 24 */
 1383               	.L__stack_usage = 24
 1384 0020 7C01      		movw r14,r24
 335:funsape/device/ssd1306.cpp **** 
 1385               		.loc 1 335 5 is_stmt 1 view .LVU315
 338:funsape/device/ssd1306.cpp ****         // Returns error
 1386               		.loc 1 338 5 view .LVU316
 338:funsape/device/ssd1306.cpp ****         // Returns error
 1387               		.loc 1 338 29 is_stmt 0 view .LVU317
 1388 0022 0E94 0000 		call _ZN7Ssd130614_isInitializedEv
 1389               	.LVL95:
 338:funsape/device/ssd1306.cpp ****         // Returns error
 1390               		.loc 1 338 29 view .LVU318
 1391 0026 C82E      		mov r12,r24
 338:funsape/device/ssd1306.cpp ****         // Returns error
 1392               		.loc 1 338 5 discriminator 1 view .LVU319
 1393 0028 8030      		cpi r24,lo8(0)
 1394 002a 01F0      		breq .L74
 1395               	.LBB23:
 348:funsape/device/ssd1306.cpp ****         auxBuffer[i] = 0x00;
 1396               		.loc 1 348 17 view .LVU320
 1397 002c 80E0      		ldi r24,0
 1398 002e 00C0      		rjmp .L66
 1399               	.LVL96:
 1400               	.L68:
 349:funsape/device/ssd1306.cpp ****     }
 1401               		.loc 1 349 9 is_stmt 1 view .LVU321
 349:funsape/device/ssd1306.cpp ****     }
 1402               		.loc 1 349 22 is_stmt 0 view .LVU322
 1403 0030 FE01      		movw r30,r28
 1404 0032 3196      		adiw r30,1
 1405 0034 E80F      		add r30,r24
 1406 0036 F11D      		adc r31,__zero_reg__
 1407 0038 1082      		st Z,__zero_reg__
 348:funsape/device/ssd1306.cpp ****         auxBuffer[i] = 0x00;
 1408               		.loc 1 348 5 is_stmt 1 discriminator 1 view .LVU323
 1409 003a 8F5F      		subi r24,lo8(-(1))
 1410               	.LVL97:
 1411               	.L66:
 348:funsape/device/ssd1306.cpp ****         auxBuffer[i] = 0x00;
 1412               		.loc 1 348 26 discriminator 2 view .LVU324
 1413 003c 8031      		cpi r24,lo8(16)
 1414 003e 00F0      		brlo .L68
 1415               	.LBE23:
 1416               	.LBB24:
 353:funsape/device/ssd1306.cpp ****         if(!this->_setAddress(page, 0)) {
 1417               		.loc 1 353 17 is_stmt 0 view .LVU325
 1418 0040 D12C      		mov r13,__zero_reg__
 1419               	.LVL98:
 1420               	.L69:
 353:funsape/device/ssd1306.cpp ****         if(!this->_setAddress(page, 0)) {
 1421               		.loc 1 353 32 is_stmt 1 discriminator 2 view .LVU326
GAS LISTING /tmp/cckYZbTP.s 			page 45


 353:funsape/device/ssd1306.cpp ****         if(!this->_setAddress(page, 0)) {
 1422               		.loc 1 353 40 is_stmt 0 discriminator 2 view .LVU327
 1423 0042 F701      		movw r30,r14
 1424 0044 8781      		ldd r24,Z+7
 353:funsape/device/ssd1306.cpp ****         if(!this->_setAddress(page, 0)) {
 1425               		.loc 1 353 32 discriminator 2 view .LVU328
 1426 0046 D816      		cp r13,r24
 1427 0048 00F4      		brsh .L78
 1428               	.LBB25:
 354:funsape/device/ssd1306.cpp ****             // Returns error
 1429               		.loc 1 354 9 is_stmt 1 view .LVU329
 354:funsape/device/ssd1306.cpp ****             // Returns error
 1430               		.loc 1 354 30 is_stmt 0 view .LVU330
 1431 004a 40E0      		ldi r20,0
 1432 004c 6D2D      		mov r22,r13
 1433 004e C701      		movw r24,r14
 1434 0050 0E94 0000 		call _ZN7Ssd130611_setAddressEhh
 1435               	.LVL99:
 354:funsape/device/ssd1306.cpp ****             // Returns error
 1436               		.loc 1 354 9 discriminator 1 view .LVU331
 1437 0054 8030      		cpi r24,lo8(0)
 1438 0056 01F0      		breq .L65
 359:funsape/device/ssd1306.cpp ****         while(remaining > 0) {
 1439               		.loc 1 359 17 view .LVU332
 1440 0058 10E8      		ldi r17,lo8(-128)
 1441 005a 00C0      		rjmp .L70
 1442               	.LVL100:
 1443               	.L77:
 1444               	.LBB26:
 361:funsape/device/ssd1306.cpp ****             if(!this->_writeData(auxBuffer, chunk)) {
 1445               		.loc 1 361 21 discriminator 1 view .LVU333
 1446 005c 012F      		mov r16,r17
 1447               	.L71:
 1448               	.LVL101:
 362:funsape/device/ssd1306.cpp ****                 // Returns error
 1449               		.loc 1 362 13 is_stmt 1 view .LVU334
 362:funsape/device/ssd1306.cpp ****                 // Returns error
 1450               		.loc 1 362 33 is_stmt 0 view .LVU335
 1451 005e 402F      		mov r20,r16
 1452 0060 BE01      		movw r22,r28
 1453 0062 6F5F      		subi r22,-1
 1454 0064 7F4F      		sbci r23,-1
 1455 0066 C701      		movw r24,r14
 1456 0068 0E94 0000 		call _ZN7Ssd130610_writeDataEPKhh
 1457               	.LVL102:
 362:funsape/device/ssd1306.cpp ****                 // Returns error
 1458               		.loc 1 362 13 discriminator 1 view .LVU336
 1459 006c 8030      		cpi r24,lo8(0)
 1460 006e 01F0      		breq .L65
 367:funsape/device/ssd1306.cpp ****         }
 1461               		.loc 1 367 13 is_stmt 1 view .LVU337
 367:funsape/device/ssd1306.cpp ****         }
 1462               		.loc 1 367 23 is_stmt 0 view .LVU338
 1463 0070 101B      		sub r17,r16
 1464               	.LVL103:
 1465               	.L70:
 367:funsape/device/ssd1306.cpp ****         }
GAS LISTING /tmp/cckYZbTP.s 			page 46


 1466               		.loc 1 367 23 view .LVU339
 1467               	.LBE26:
 360:funsape/device/ssd1306.cpp ****             uint8_t chunk = (remaining > constSsd1306DataChunk) ? constSsd1306DataChunk : remaining
 1468               		.loc 1 360 25 is_stmt 1 discriminator 1 view .LVU340
 1469 0072 1030      		cpi r17,lo8(0)
 1470 0074 01F0      		breq .L79
 1471               	.LBB27:
 361:funsape/device/ssd1306.cpp ****             if(!this->_writeData(auxBuffer, chunk)) {
 1472               		.loc 1 361 13 view .LVU341
 361:funsape/device/ssd1306.cpp ****             if(!this->_writeData(auxBuffer, chunk)) {
 1473               		.loc 1 361 65 is_stmt 0 view .LVU342
 1474 0076 1131      		cpi r17,lo8(17)
 1475 0078 00F0      		brlo .L77
 361:funsape/device/ssd1306.cpp ****             if(!this->_writeData(auxBuffer, chunk)) {
 1476               		.loc 1 361 21 discriminator 2 view .LVU343
 1477 007a 00E1      		ldi r16,lo8(16)
 1478 007c 00C0      		rjmp .L71
 1479               	.L79:
 1480               	.LVL104:
 361:funsape/device/ssd1306.cpp ****             if(!this->_writeData(auxBuffer, chunk)) {
 1481               		.loc 1 361 21 discriminator 2 view .LVU344
 1482               	.LBE27:
 1483               	.LBE25:
 353:funsape/device/ssd1306.cpp ****         if(!this->_setAddress(page, 0)) {
 1484               		.loc 1 353 5 is_stmt 1 discriminator 1 view .LVU345
 1485 007e D394      		inc r13
 1486               	.LVL105:
 353:funsape/device/ssd1306.cpp ****         if(!this->_setAddress(page, 0)) {
 1487               		.loc 1 353 5 is_stmt 0 discriminator 1 view .LVU346
 1488 0080 00C0      		rjmp .L69
 1489               	.LVL106:
 1490               	.L78:
 353:funsape/device/ssd1306.cpp ****         if(!this->_setAddress(page, 0)) {
 1491               		.loc 1 353 5 discriminator 1 view .LVU347
 1492               	.LBE24:
 372:funsape/device/ssd1306.cpp ****     this->_cursorPage                   = 0;
 1493               		.loc 1 372 5 is_stmt 1 view .LVU348
 372:funsape/device/ssd1306.cpp ****     this->_cursorPage                   = 0;
 1494               		.loc 1 372 41 is_stmt 0 view .LVU349
 1495 0082 1086      		std Z+8,__zero_reg__
 373:funsape/device/ssd1306.cpp **** 
 1496               		.loc 1 373 5 is_stmt 1 view .LVU350
 373:funsape/device/ssd1306.cpp **** 
 1497               		.loc 1 373 41 is_stmt 0 view .LVU351
 1498 0084 8185      		ldd r24,Z+9
 1499 0086 887F      		andi r24,lo8(-8)
 1500 0088 8187      		std Z+9,r24
 376:funsape/device/ssd1306.cpp ****     debugMessage(Error::NONE, Debug::CodeIndex::SSD1306_MODULE);
 1501               		.loc 1 376 5 is_stmt 1 view .LVU352
 376:funsape/device/ssd1306.cpp ****     debugMessage(Error::NONE, Debug::CodeIndex::SSD1306_MODULE);
 1502               		.loc 1 376 22 is_stmt 0 view .LVU353
 1503 008a 1482      		std Z+4,__zero_reg__
 1504 008c 1382      		std Z+3,__zero_reg__
 377:funsape/device/ssd1306.cpp ****     return true;
 1505               		.loc 1 377 5 is_stmt 1 view .LVU354
 378:funsape/device/ssd1306.cpp **** }
 1506               		.loc 1 378 5 view .LVU355
GAS LISTING /tmp/cckYZbTP.s 			page 47


 1507               	.LVL107:
 1508               	.L74:
 341:funsape/device/ssd1306.cpp ****     }
 1509               		.loc 1 341 16 is_stmt 0 view .LVU356
 1510 008e 8C2D      		mov r24,r12
 1511               	.L65:
 1512               	/* epilogue start */
 379:funsape/device/ssd1306.cpp **** 
 1513               		.loc 1 379 1 view .LVU357
 1514 0090 6096      		adiw r28,16
 1515 0092 0FB6      		in __tmp_reg__,__SREG__
 1516 0094 F894      		cli
 1517 0096 DEBF      		out __SP_H__,r29
 1518 0098 0FBE      		out __SREG__,__tmp_reg__
 1519 009a CDBF      		out __SP_L__,r28
 1520 009c DF91      		pop r29
 1521 009e CF91      		pop r28
 1522 00a0 1F91      		pop r17
 1523 00a2 0F91      		pop r16
 1524 00a4 FF90      		pop r15
 1525 00a6 EF90      		pop r14
 1526               	.LVL108:
 379:funsape/device/ssd1306.cpp **** 
 1527               		.loc 1 379 1 view .LVU358
 1528 00a8 DF90      		pop r13
 1529 00aa CF90      		pop r12
 1530 00ac 0895      		ret
 1531               		.cfi_endproc
 1532               	.LFE142:
 1534               		.section	.text._ZN7Ssd13064initEP3BusNS_4SizeEh,"ax",@progbits
 1535               	.global	_ZN7Ssd13064initEP3BusNS_4SizeEh
 1537               	_ZN7Ssd13064initEP3BusNS_4SizeEh:
 1538               	.LVL109:
 1539               	.LFB141:
 256:funsape/device/ssd1306.cpp ****     // Mark passage for debugging purpose
 1540               		.loc 1 256 1 is_stmt 1 view -0
 1541               		.cfi_startproc
 256:funsape/device/ssd1306.cpp ****     // Mark passage for debugging purpose
 1542               		.loc 1 256 1 is_stmt 0 view .LVU360
 1543 0000 EF92      		push r14
 1544               	.LCFI47:
 1545               		.cfi_def_cfa_offset 3
 1546               		.cfi_offset 14, -2
 1547 0002 FF92      		push r15
 1548               	.LCFI48:
 1549               		.cfi_def_cfa_offset 4
 1550               		.cfi_offset 15, -3
 1551 0004 0F93      		push r16
 1552               	.LCFI49:
 1553               		.cfi_def_cfa_offset 5
 1554               		.cfi_offset 16, -4
 1555 0006 1F93      		push r17
 1556               	.LCFI50:
 1557               		.cfi_def_cfa_offset 6
 1558               		.cfi_offset 17, -5
 1559 0008 CF93      		push r28
 1560               	.LCFI51:
GAS LISTING /tmp/cckYZbTP.s 			page 48


 1561               		.cfi_def_cfa_offset 7
 1562               		.cfi_offset 28, -6
 1563 000a DF93      		push r29
 1564               	.LCFI52:
 1565               		.cfi_def_cfa_offset 8
 1566               		.cfi_offset 29, -7
 1567               	/* prologue: function */
 1568               	/* frame size = 0 */
 1569               	/* stack size = 6 */
 1570               	.L__stack_usage = 6
 1571 000c EC01      		movw r28,r24
 1572 000e 8B01      		movw r16,r22
 1573 0010 F42E      		mov r15,r20
 1574 0012 E22E      		mov r14,r18
 258:funsape/device/ssd1306.cpp **** 
 1575               		.loc 1 258 5 is_stmt 1 view .LVU361
 261:funsape/device/ssd1306.cpp ****     this->_initialized                  = false;
 1576               		.loc 1 261 5 view .LVU362
 261:funsape/device/ssd1306.cpp ****     this->_initialized                  = false;
 1577               		.loc 1 261 41 is_stmt 0 view .LVU363
 1578 0014 8A81      		ldd r24,Y+2
 1579               	.LVL110:
 261:funsape/device/ssd1306.cpp ****     this->_initialized                  = false;
 1580               		.loc 1 261 41 view .LVU364
 1581 0016 8E7F      		andi r24,lo8(~(1<<0))
 1582 0018 8A83      		std Y+2,r24
 262:funsape/device/ssd1306.cpp **** 
 1583               		.loc 1 262 5 is_stmt 1 view .LVU365
 262:funsape/device/ssd1306.cpp **** 
 1584               		.loc 1 262 41 is_stmt 0 view .LVU366
 1585 001a 8D7F      		andi r24,lo8(~(1<<1))
 1586 001c 8A83      		std Y+2,r24
 265:funsape/device/ssd1306.cpp ****         // Returns error
 1587               		.loc 1 265 5 is_stmt 1 view .LVU367
 1588 001e 6030      		cpi r22,0
 1589 0020 7607      		cpc r23,r22
 1590 0022 01F0      		breq .L91
 270:funsape/device/ssd1306.cpp ****         // Returns error
 1591               		.loc 1 270 12 view .LVU368
 270:funsape/device/ssd1306.cpp ****         // Returns error
 1592               		.loc 1 270 39 is_stmt 0 view .LVU369
 1593 0024 FB01      		movw r30,r22
 1594 0026 0190      		ld __tmp_reg__,Z+
 1595 0028 F081      		ld r31,Z
 1596 002a E02D      		mov r30,__tmp_reg__
 1597 002c 0484      		ldd __tmp_reg__,Z+12
 1598 002e F585      		ldd r31,Z+13
 1599 0030 E02D      		mov r30,__tmp_reg__
 1600 0032 CB01      		movw r24,r22
 1601 0034 0995      		icall
 1602               	.LVL111:
 270:funsape/device/ssd1306.cpp ****         // Returns error
 1603               		.loc 1 270 12 discriminator 1 view .LVU370
 1604 0036 0597      		sbiw r24,5
 1605 0038 01F0      		breq .L83
 272:funsape/device/ssd1306.cpp ****         debugMessage(Error::BUS_HANDLER_NOT_SUPPORTED, Debug::CodeIndex::SSD1306_MODULE);
 1606               		.loc 1 272 9 is_stmt 1 view .LVU371
GAS LISTING /tmp/cckYZbTP.s 			page 49


 272:funsape/device/ssd1306.cpp ****         debugMessage(Error::BUS_HANDLER_NOT_SUPPORTED, Debug::CodeIndex::SSD1306_MODULE);
 1607               		.loc 1 272 26 is_stmt 0 view .LVU372
 1608 003a 81EA      		ldi r24,lo8(-95)
 1609 003c 90E0      		ldi r25,0
 1610 003e 9C83      		std Y+4,r25
 1611 0040 8B83      		std Y+3,r24
 273:funsape/device/ssd1306.cpp ****         return false;
 1612               		.loc 1 273 9 is_stmt 1 view .LVU373
 274:funsape/device/ssd1306.cpp ****     }
 1613               		.loc 1 274 9 view .LVU374
 1614               	.L84:
 269:funsape/device/ssd1306.cpp ****     } else if(busHandler_p->getBusType() != Bus::BusType::TWI) {
 1615               		.loc 1 269 16 is_stmt 0 view .LVU375
 1616 0042 80E0      		ldi r24,0
 1617               	.LVL112:
 1618               	.L80:
 1619               	/* epilogue start */
 330:funsape/device/ssd1306.cpp **** 
 1620               		.loc 1 330 1 view .LVU376
 1621 0044 DF91      		pop r29
 1622 0046 CF91      		pop r28
 1623               	.LVL113:
 330:funsape/device/ssd1306.cpp **** 
 1624               		.loc 1 330 1 view .LVU377
 1625 0048 1F91      		pop r17
 1626 004a 0F91      		pop r16
 1627 004c FF90      		pop r15
 1628               	.LVL114:
 330:funsape/device/ssd1306.cpp **** 
 1629               		.loc 1 330 1 view .LVU378
 1630 004e EF90      		pop r14
 1631               	.LVL115:
 330:funsape/device/ssd1306.cpp **** 
 1632               		.loc 1 330 1 view .LVU379
 1633 0050 0895      		ret
 1634               	.LVL116:
 1635               	.L91:
 267:funsape/device/ssd1306.cpp ****         debugMessage(Error::BUS_HANDLER_POINTER_NULL, Debug::CodeIndex::SSD1306_MODULE);
 1636               		.loc 1 267 9 is_stmt 1 view .LVU380
 267:funsape/device/ssd1306.cpp ****         debugMessage(Error::BUS_HANDLER_POINTER_NULL, Debug::CodeIndex::SSD1306_MODULE);
 1637               		.loc 1 267 26 is_stmt 0 view .LVU381
 1638 0052 82EA      		ldi r24,lo8(-94)
 1639 0054 90E0      		ldi r25,0
 1640 0056 9C83      		std Y+4,r25
 1641 0058 8B83      		std Y+3,r24
 268:funsape/device/ssd1306.cpp ****         return false;
 1642               		.loc 1 268 9 is_stmt 1 view .LVU382
 269:funsape/device/ssd1306.cpp ****     } else if(busHandler_p->getBusType() != Bus::BusType::TWI) {
 1643               		.loc 1 269 9 view .LVU383
 269:funsape/device/ssd1306.cpp ****     } else if(busHandler_p->getBusType() != Bus::BusType::TWI) {
 1644               		.loc 1 269 16 is_stmt 0 view .LVU384
 1645 005a 00C0      		rjmp .L84
 1646               	.L83:
 278:funsape/device/ssd1306.cpp ****     this->_busHandlerSet                = true;
 1647               		.loc 1 278 5 is_stmt 1 view .LVU385
 278:funsape/device/ssd1306.cpp ****     this->_busHandlerSet                = true;
 1648               		.loc 1 278 41 is_stmt 0 view .LVU386
GAS LISTING /tmp/cckYZbTP.s 			page 50


 1649 005c 1983      		std Y+1,r17
 1650 005e 0883      		st Y,r16
 279:funsape/device/ssd1306.cpp ****     this->_deviceAddress                = address_p;
 1651               		.loc 1 279 5 is_stmt 1 view .LVU387
 279:funsape/device/ssd1306.cpp ****     this->_deviceAddress                = address_p;
 1652               		.loc 1 279 41 is_stmt 0 view .LVU388
 1653 0060 8A81      		ldd r24,Y+2
 1654 0062 8160      		ori r24,lo8(1<<0)
 1655 0064 8A83      		std Y+2,r24
 280:funsape/device/ssd1306.cpp ****     this->_size                         = size_p;
 1656               		.loc 1 280 5 is_stmt 1 view .LVU389
 280:funsape/device/ssd1306.cpp ****     this->_size                         = size_p;
 1657               		.loc 1 280 43 is_stmt 0 view .LVU390
 1658 0066 9E2D      		mov r25,r14
 1659 0068 9F77      		andi r25,lo8(127)
 280:funsape/device/ssd1306.cpp ****     this->_size                         = size_p;
 1660               		.loc 1 280 41 view .LVU391
 1661 006a 8D81      		ldd r24,Y+5
 1662 006c 8078      		andi r24,lo8(-128)
 1663 006e 892B      		or r24,r25
 1664 0070 8D83      		std Y+5,r24
 281:funsape/device/ssd1306.cpp ****     this->_pages                        = (size_p == Size::SSD1306_128X64) ? 8 : 4;
 1665               		.loc 1 281 5 is_stmt 1 view .LVU392
 281:funsape/device/ssd1306.cpp ****     this->_pages                        = (size_p == Size::SSD1306_128X64) ? 8 : 4;
 1666               		.loc 1 281 41 is_stmt 0 view .LVU393
 1667 0072 8F2D      		mov r24,r15
 1668 0074 FE82      		std Y+6,r15
 282:funsape/device/ssd1306.cpp ****     this->_cursorX                      = 0;
 1669               		.loc 1 282 5 is_stmt 1 view .LVU394
 282:funsape/device/ssd1306.cpp ****     this->_cursorX                      = 0;
 1670               		.loc 1 282 41 is_stmt 0 view .LVU395
 1671 0076 8111      		cpse r24,__zero_reg__
 1672 0078 00C0      		rjmp .L89
 282:funsape/device/ssd1306.cpp ****     this->_cursorX                      = 0;
 1673               		.loc 1 282 41 discriminator 1 view .LVU396
 1674 007a 88E0      		ldi r24,lo8(8)
 1675               	.L85:
 282:funsape/device/ssd1306.cpp ****     this->_cursorX                      = 0;
 1676               		.loc 1 282 41 discriminator 3 view .LVU397
 1677 007c 8F83      		std Y+7,r24
 283:funsape/device/ssd1306.cpp ****     this->_cursorPage                   = 0;
 1678               		.loc 1 283 5 is_stmt 1 view .LVU398
 283:funsape/device/ssd1306.cpp ****     this->_cursorPage                   = 0;
 1679               		.loc 1 283 41 is_stmt 0 view .LVU399
 1680 007e 1886      		std Y+8,__zero_reg__
 284:funsape/device/ssd1306.cpp ****     this->_textSize                     = 1;
 1681               		.loc 1 284 5 is_stmt 1 view .LVU400
 284:funsape/device/ssd1306.cpp ****     this->_textSize                     = 1;
 1682               		.loc 1 284 41 is_stmt 0 view .LVU401
 1683 0080 8985      		ldd r24,Y+9
 1684 0082 982F      		mov r25,r24
 1685 0084 987F      		andi r25,lo8(-8)
 1686 0086 9987      		std Y+9,r25
 285:funsape/device/ssd1306.cpp **** 
 1687               		.loc 1 285 5 is_stmt 1 view .LVU402
 285:funsape/device/ssd1306.cpp **** 
 1688               		.loc 1 285 41 is_stmt 0 view .LVU403
GAS LISTING /tmp/cckYZbTP.s 			page 51


 1689 0088 807C      		andi r24,lo8(-64)
 1690 008a 8860      		ori r24,lo8(8)
 1691 008c 8987      		std Y+9,r24
 288:funsape/device/ssd1306.cpp ****     uint8_t auxComPins                  = (size_p == Size::SSD1306_128X64) ? 0x12 : 0x02;
 1692               		.loc 1 288 5 is_stmt 1 view .LVU404
 288:funsape/device/ssd1306.cpp ****     uint8_t auxComPins                  = (size_p == Size::SSD1306_128X64) ? 0x12 : 0x02;
 1693               		.loc 1 288 13 is_stmt 0 view .LVU405
 1694 008e 8F2D      		mov r24,r15
 1695 0090 8111      		cpse r24,__zero_reg__
 1696 0092 00C0      		rjmp .L90
 288:funsape/device/ssd1306.cpp ****     uint8_t auxComPins                  = (size_p == Size::SSD1306_128X64) ? 0x12 : 0x02;
 1697               		.loc 1 288 13 discriminator 1 view .LVU406
 1698 0094 1FE3      		ldi r17,lo8(63)
 289:funsape/device/ssd1306.cpp **** 
 1699               		.loc 1 289 13 discriminator 1 view .LVU407
 1700 0096 02E1      		ldi r16,lo8(18)
 1701               	.LVL117:
 1702               	.L86:
 292:funsape/device/ssd1306.cpp ****         // Returns error
 1703               		.loc 1 292 5 is_stmt 1 view .LVU408
 292:funsape/device/ssd1306.cpp ****         // Returns error
 1704               		.loc 1 292 32 is_stmt 0 view .LVU409
 1705 0098 42E1      		ldi r20,lo8(18)
 1706 009a 60E0      		ldi r22,lo8(_ZL24constSsd1306InitSequence)
 1707 009c 70E0      		ldi r23,hi8(_ZL24constSsd1306InitSequence)
 1708 009e CE01      		movw r24,r28
 1709 00a0 0E94 0000 		call _ZN7Ssd130617_writeCommandListEPKhh
 1710               	.LVL118:
 292:funsape/device/ssd1306.cpp ****         // Returns error
 1711               		.loc 1 292 5 discriminator 1 view .LVU410
 1712 00a4 8030      		cpi r24,lo8(0)
 1713 00a6 01F0      		breq .L80
 297:funsape/device/ssd1306.cpp ****         // Returns error
 1714               		.loc 1 297 5 is_stmt 1 view .LVU411
 297:funsape/device/ssd1306.cpp ****         // Returns error
 1715               		.loc 1 297 28 is_stmt 0 view .LVU412
 1716 00a8 68EA      		ldi r22,lo8(-88)
 1717 00aa CE01      		movw r24,r28
 1718 00ac 0E94 0000 		call _ZN7Ssd130613_writeCommandEh
 1719               	.LVL119:
 297:funsape/device/ssd1306.cpp ****         // Returns error
 1720               		.loc 1 297 52 discriminator 1 view .LVU413
 1721 00b0 8030      		cpi r24,lo8(0)
 1722 00b2 01F0      		breq .L80
 297:funsape/device/ssd1306.cpp ****         // Returns error
 1723               		.loc 1 297 75 discriminator 2 view .LVU414
 1724 00b4 612F      		mov r22,r17
 1725 00b6 CE01      		movw r24,r28
 1726 00b8 0E94 0000 		call _ZN7Ssd130613_writeCommandEh
 1727               	.LVL120:
 297:funsape/device/ssd1306.cpp ****         // Returns error
 1728               		.loc 1 297 52 discriminator 3 view .LVU415
 1729 00bc 8030      		cpi r24,lo8(0)
 1730 00be 01F4      		brne .+2
 1731 00c0 00C0      		rjmp .L80
 302:funsape/device/ssd1306.cpp ****         // Returns error
 1732               		.loc 1 302 5 is_stmt 1 view .LVU416
GAS LISTING /tmp/cckYZbTP.s 			page 52


 302:funsape/device/ssd1306.cpp ****         // Returns error
 1733               		.loc 1 302 28 is_stmt 0 view .LVU417
 1734 00c2 6AED      		ldi r22,lo8(-38)
 1735 00c4 CE01      		movw r24,r28
 1736 00c6 0E94 0000 		call _ZN7Ssd130613_writeCommandEh
 1737               	.LVL121:
 302:funsape/device/ssd1306.cpp ****         // Returns error
 1738               		.loc 1 302 51 discriminator 1 view .LVU418
 1739 00ca 8030      		cpi r24,lo8(0)
 1740 00cc 01F4      		brne .+2
 1741 00ce 00C0      		rjmp .L80
 302:funsape/device/ssd1306.cpp ****         // Returns error
 1742               		.loc 1 302 74 discriminator 2 view .LVU419
 1743 00d0 602F      		mov r22,r16
 1744 00d2 CE01      		movw r24,r28
 1745 00d4 0E94 0000 		call _ZN7Ssd130613_writeCommandEh
 1746               	.LVL122:
 302:funsape/device/ssd1306.cpp ****         // Returns error
 1747               		.loc 1 302 51 discriminator 3 view .LVU420
 1748 00d8 8030      		cpi r24,lo8(0)
 1749 00da 01F4      		brne .+2
 1750 00dc 00C0      		rjmp .L80
 307:funsape/device/ssd1306.cpp ****         // Returns error
 1751               		.loc 1 307 5 is_stmt 1 view .LVU421
 307:funsape/device/ssd1306.cpp ****         // Returns error
 1752               		.loc 1 307 28 is_stmt 0 view .LVU422
 1753 00de 61E8      		ldi r22,lo8(-127)
 1754 00e0 CE01      		movw r24,r28
 1755 00e2 0E94 0000 		call _ZN7Ssd130613_writeCommandEh
 1756               	.LVL123:
 307:funsape/device/ssd1306.cpp ****         // Returns error
 1757               		.loc 1 307 51 discriminator 1 view .LVU423
 1758 00e6 8030      		cpi r24,lo8(0)
 1759 00e8 01F4      		brne .+2
 1760 00ea 00C0      		rjmp .L80
 307:funsape/device/ssd1306.cpp ****         // Returns error
 1761               		.loc 1 307 74 discriminator 2 view .LVU424
 1762 00ec 6FEC      		ldi r22,lo8(-49)
 1763 00ee CE01      		movw r24,r28
 1764 00f0 0E94 0000 		call _ZN7Ssd130613_writeCommandEh
 1765               	.LVL124:
 307:funsape/device/ssd1306.cpp ****         // Returns error
 1766               		.loc 1 307 51 discriminator 3 view .LVU425
 1767 00f4 8030      		cpi r24,lo8(0)
 1768 00f6 01F4      		brne .+2
 1769 00f8 00C0      		rjmp .L80
 312:funsape/device/ssd1306.cpp ****         // Returns error
 1770               		.loc 1 312 5 is_stmt 1 view .LVU426
 312:funsape/device/ssd1306.cpp ****         // Returns error
 1771               		.loc 1 312 28 is_stmt 0 view .LVU427
 1772 00fa 6FEA      		ldi r22,lo8(-81)
 1773 00fc CE01      		movw r24,r28
 1774 00fe 0E94 0000 		call _ZN7Ssd130613_writeCommandEh
 1775               	.LVL125:
 312:funsape/device/ssd1306.cpp ****         // Returns error
 1776               		.loc 1 312 5 discriminator 1 view .LVU428
 1777 0102 8030      		cpi r24,lo8(0)
GAS LISTING /tmp/cckYZbTP.s 			page 53


 1778 0104 01F4      		brne .+2
 1779 0106 00C0      		rjmp .L80
 319:funsape/device/ssd1306.cpp ****     if(!this->clearScreen()) {
 1780               		.loc 1 319 5 is_stmt 1 view .LVU429
 319:funsape/device/ssd1306.cpp ****     if(!this->clearScreen()) {
 1781               		.loc 1 319 41 is_stmt 0 view .LVU430
 1782 0108 8A81      		ldd r24,Y+2
 1783 010a 8260      		ori r24,lo8(1<<1)
 1784 010c 8A83      		std Y+2,r24
 320:funsape/device/ssd1306.cpp ****         // Returns error
 1785               		.loc 1 320 5 is_stmt 1 view .LVU431
 320:funsape/device/ssd1306.cpp ****         // Returns error
 1786               		.loc 1 320 26 is_stmt 0 view .LVU432
 1787 010e CE01      		movw r24,r28
 1788 0110 0E94 0000 		call _ZN7Ssd130611clearScreenEv
 1789               	.LVL126:
 320:funsape/device/ssd1306.cpp ****         // Returns error
 1790               		.loc 1 320 5 discriminator 1 view .LVU433
 1791 0114 8030      		cpi r24,lo8(0)
 1792 0116 01F4      		brne .+2
 1793 0118 00C0      		rjmp .L80
 327:funsape/device/ssd1306.cpp ****     debugMessage(Error::NONE, Debug::CodeIndex::SSD1306_MODULE);
 1794               		.loc 1 327 5 is_stmt 1 view .LVU434
 327:funsape/device/ssd1306.cpp ****     debugMessage(Error::NONE, Debug::CodeIndex::SSD1306_MODULE);
 1795               		.loc 1 327 22 is_stmt 0 view .LVU435
 1796 011a 1C82      		std Y+4,__zero_reg__
 1797 011c 1B82      		std Y+3,__zero_reg__
 328:funsape/device/ssd1306.cpp ****     return true;
 1798               		.loc 1 328 5 is_stmt 1 view .LVU436
 329:funsape/device/ssd1306.cpp **** }
 1799               		.loc 1 329 5 view .LVU437
 329:funsape/device/ssd1306.cpp **** }
 1800               		.loc 1 329 12 is_stmt 0 view .LVU438
 1801 011e 00C0      		rjmp .L80
 1802               	.LVL127:
 1803               	.L89:
 282:funsape/device/ssd1306.cpp ****     this->_cursorX                      = 0;
 1804               		.loc 1 282 41 discriminator 2 view .LVU439
 1805 0120 84E0      		ldi r24,lo8(4)
 1806 0122 00C0      		rjmp .L85
 1807               	.L90:
 288:funsape/device/ssd1306.cpp ****     uint8_t auxComPins                  = (size_p == Size::SSD1306_128X64) ? 0x12 : 0x02;
 1808               		.loc 1 288 13 discriminator 2 view .LVU440
 1809 0124 1FE1      		ldi r17,lo8(31)
 289:funsape/device/ssd1306.cpp **** 
 1810               		.loc 1 289 13 discriminator 2 view .LVU441
 1811 0126 02E0      		ldi r16,lo8(2)
 1812               	.LVL128:
 289:funsape/device/ssd1306.cpp **** 
 1813               		.loc 1 289 13 discriminator 2 view .LVU442
 1814 0128 00C0      		rjmp .L86
 1815               		.cfi_endproc
 1816               	.LFE141:
 1818               		.section	.text._ZN7Ssd130615setDisplayStateE10Activation,"ax",@progbits
 1819               	.global	_ZN7Ssd130615setDisplayStateE10Activation
 1821               	_ZN7Ssd130615setDisplayStateE10Activation:
 1822               	.LVL129:
GAS LISTING /tmp/cckYZbTP.s 			page 54


 1823               	.LFB143:
 382:funsape/device/ssd1306.cpp ****     // Mark passage for debugging purpose
 1824               		.loc 1 382 1 is_stmt 1 view -0
 1825               		.cfi_startproc
 382:funsape/device/ssd1306.cpp ****     // Mark passage for debugging purpose
 1826               		.loc 1 382 1 is_stmt 0 view .LVU444
 1827 0000 1F93      		push r17
 1828               	.LCFI53:
 1829               		.cfi_def_cfa_offset 3
 1830               		.cfi_offset 17, -2
 1831 0002 CF93      		push r28
 1832               	.LCFI54:
 1833               		.cfi_def_cfa_offset 4
 1834               		.cfi_offset 28, -3
 1835 0004 DF93      		push r29
 1836               	.LCFI55:
 1837               		.cfi_def_cfa_offset 5
 1838               		.cfi_offset 29, -4
 1839               	/* prologue: function */
 1840               	/* frame size = 0 */
 1841               	/* stack size = 3 */
 1842               	.L__stack_usage = 3
 1843 0006 EC01      		movw r28,r24
 1844 0008 162F      		mov r17,r22
 384:funsape/device/ssd1306.cpp **** 
 1845               		.loc 1 384 5 is_stmt 1 view .LVU445
 387:funsape/device/ssd1306.cpp ****         // Returns error
 1846               		.loc 1 387 5 view .LVU446
 387:funsape/device/ssd1306.cpp ****         // Returns error
 1847               		.loc 1 387 29 is_stmt 0 view .LVU447
 1848 000a 0E94 0000 		call _ZN7Ssd130614_isInitializedEv
 1849               	.LVL130:
 387:funsape/device/ssd1306.cpp ****         // Returns error
 1850               		.loc 1 387 5 discriminator 1 view .LVU448
 1851 000e 8030      		cpi r24,lo8(0)
 1852 0010 01F0      		breq .L92
 394:funsape/device/ssd1306.cpp ****         // Returns error
 1853               		.loc 1 394 5 is_stmt 1 view .LVU449
 394:funsape/device/ssd1306.cpp ****         // Returns error
 1854               		.loc 1 394 28 is_stmt 0 view .LVU450
 1855 0012 1130      		cpi r17,lo8(1)
 1856 0014 01F0      		breq .L98
 394:funsape/device/ssd1306.cpp ****         // Returns error
 1857               		.loc 1 394 28 discriminator 2 view .LVU451
 1858 0016 6EEA      		ldi r22,lo8(-82)
 1859               	.L94:
 394:funsape/device/ssd1306.cpp ****         // Returns error
 1860               		.loc 1 394 28 discriminator 3 view .LVU452
 1861 0018 CE01      		movw r24,r28
 1862 001a 0E94 0000 		call _ZN7Ssd130613_writeCommandEh
 1863               	.LVL131:
 394:funsape/device/ssd1306.cpp ****         // Returns error
 1864               		.loc 1 394 5 discriminator 4 view .LVU453
 1865 001e 8030      		cpi r24,lo8(0)
 1866 0020 01F0      		breq .L92
 401:funsape/device/ssd1306.cpp ****     debugMessage(Error::NONE, Debug::CodeIndex::SSD1306_MODULE);
 1867               		.loc 1 401 5 is_stmt 1 view .LVU454
GAS LISTING /tmp/cckYZbTP.s 			page 55


 401:funsape/device/ssd1306.cpp ****     debugMessage(Error::NONE, Debug::CodeIndex::SSD1306_MODULE);
 1868               		.loc 1 401 22 is_stmt 0 view .LVU455
 1869 0022 1C82      		std Y+4,__zero_reg__
 1870 0024 1B82      		std Y+3,__zero_reg__
 402:funsape/device/ssd1306.cpp ****     return true;
 1871               		.loc 1 402 5 is_stmt 1 view .LVU456
 403:funsape/device/ssd1306.cpp **** }
 1872               		.loc 1 403 5 view .LVU457
 1873               	.L92:
 1874               	/* epilogue start */
 404:funsape/device/ssd1306.cpp **** 
 1875               		.loc 1 404 1 is_stmt 0 view .LVU458
 1876 0026 DF91      		pop r29
 1877 0028 CF91      		pop r28
 1878               	.LVL132:
 404:funsape/device/ssd1306.cpp **** 
 1879               		.loc 1 404 1 view .LVU459
 1880 002a 1F91      		pop r17
 1881               	.LVL133:
 404:funsape/device/ssd1306.cpp **** 
 1882               		.loc 1 404 1 view .LVU460
 1883 002c 0895      		ret
 1884               	.LVL134:
 1885               	.L98:
 394:funsape/device/ssd1306.cpp ****         // Returns error
 1886               		.loc 1 394 28 discriminator 1 view .LVU461
 1887 002e 6FEA      		ldi r22,lo8(-81)
 1888 0030 00C0      		rjmp .L94
 1889               		.cfi_endproc
 1890               	.LFE143:
 1892               		.section	.text._ZN7Ssd130611setContrastEh,"ax",@progbits
 1893               	.global	_ZN7Ssd130611setContrastEh
 1895               	_ZN7Ssd130611setContrastEh:
 1896               	.LVL135:
 1897               	.LFB144:
 407:funsape/device/ssd1306.cpp ****     // Mark passage for debugging purpose
 1898               		.loc 1 407 1 is_stmt 1 view -0
 1899               		.cfi_startproc
 407:funsape/device/ssd1306.cpp ****     // Mark passage for debugging purpose
 1900               		.loc 1 407 1 is_stmt 0 view .LVU463
 1901 0000 1F93      		push r17
 1902               	.LCFI56:
 1903               		.cfi_def_cfa_offset 3
 1904               		.cfi_offset 17, -2
 1905 0002 CF93      		push r28
 1906               	.LCFI57:
 1907               		.cfi_def_cfa_offset 4
 1908               		.cfi_offset 28, -3
 1909 0004 DF93      		push r29
 1910               	.LCFI58:
 1911               		.cfi_def_cfa_offset 5
 1912               		.cfi_offset 29, -4
 1913               	/* prologue: function */
 1914               	/* frame size = 0 */
 1915               	/* stack size = 3 */
 1916               	.L__stack_usage = 3
 1917 0006 EC01      		movw r28,r24
GAS LISTING /tmp/cckYZbTP.s 			page 56


 1918 0008 162F      		mov r17,r22
 409:funsape/device/ssd1306.cpp **** 
 1919               		.loc 1 409 5 is_stmt 1 view .LVU464
 412:funsape/device/ssd1306.cpp ****         // Returns error
 1920               		.loc 1 412 5 view .LVU465
 412:funsape/device/ssd1306.cpp ****         // Returns error
 1921               		.loc 1 412 29 is_stmt 0 view .LVU466
 1922 000a 0E94 0000 		call _ZN7Ssd130614_isInitializedEv
 1923               	.LVL136:
 412:funsape/device/ssd1306.cpp ****         // Returns error
 1924               		.loc 1 412 5 discriminator 1 view .LVU467
 1925 000e 8111      		cpse r24,__zero_reg__
 1926 0010 00C0      		rjmp .L103
 1927               	.L99:
 1928               	/* epilogue start */
 429:funsape/device/ssd1306.cpp **** 
 1929               		.loc 1 429 1 view .LVU468
 1930 0012 DF91      		pop r29
 1931 0014 CF91      		pop r28
 1932               	.LVL137:
 429:funsape/device/ssd1306.cpp **** 
 1933               		.loc 1 429 1 view .LVU469
 1934 0016 1F91      		pop r17
 1935               	.LVL138:
 429:funsape/device/ssd1306.cpp **** 
 1936               		.loc 1 429 1 view .LVU470
 1937 0018 0895      		ret
 1938               	.LVL139:
 1939               	.L103:
 419:funsape/device/ssd1306.cpp ****         // Returns error
 1940               		.loc 1 419 5 is_stmt 1 view .LVU471
 419:funsape/device/ssd1306.cpp ****         // Returns error
 1941               		.loc 1 419 28 is_stmt 0 view .LVU472
 1942 001a 61E8      		ldi r22,lo8(-127)
 1943 001c CE01      		movw r24,r28
 1944 001e 0E94 0000 		call _ZN7Ssd130613_writeCommandEh
 1945               	.LVL140:
 419:funsape/device/ssd1306.cpp ****         // Returns error
 1946               		.loc 1 419 51 discriminator 1 view .LVU473
 1947 0022 8030      		cpi r24,lo8(0)
 1948 0024 01F0      		breq .L99
 419:funsape/device/ssd1306.cpp ****         // Returns error
 1949               		.loc 1 419 74 discriminator 2 view .LVU474
 1950 0026 612F      		mov r22,r17
 1951 0028 CE01      		movw r24,r28
 1952 002a 0E94 0000 		call _ZN7Ssd130613_writeCommandEh
 1953               	.LVL141:
 419:funsape/device/ssd1306.cpp ****         // Returns error
 1954               		.loc 1 419 51 discriminator 3 view .LVU475
 1955 002e 8030      		cpi r24,lo8(0)
 1956 0030 01F0      		breq .L99
 426:funsape/device/ssd1306.cpp ****     debugMessage(Error::NONE, Debug::CodeIndex::SSD1306_MODULE);
 1957               		.loc 1 426 5 is_stmt 1 view .LVU476
 426:funsape/device/ssd1306.cpp ****     debugMessage(Error::NONE, Debug::CodeIndex::SSD1306_MODULE);
 1958               		.loc 1 426 22 is_stmt 0 view .LVU477
 1959 0032 1C82      		std Y+4,__zero_reg__
 1960 0034 1B82      		std Y+3,__zero_reg__
GAS LISTING /tmp/cckYZbTP.s 			page 57


 427:funsape/device/ssd1306.cpp ****     return true;
 1961               		.loc 1 427 5 is_stmt 1 view .LVU478
 428:funsape/device/ssd1306.cpp **** }
 1962               		.loc 1 428 5 view .LVU479
 428:funsape/device/ssd1306.cpp **** }
 1963               		.loc 1 428 12 is_stmt 0 view .LVU480
 1964 0036 00C0      		rjmp .L99
 1965               		.cfi_endproc
 1966               	.LFE144:
 1968               		.section	.text._ZN7Ssd130613setUpsideDownEb,"ax",@progbits
 1969               	.global	_ZN7Ssd130613setUpsideDownEb
 1971               	_ZN7Ssd130613setUpsideDownEb:
 1972               	.LVL142:
 1973               	.LFB145:
 432:funsape/device/ssd1306.cpp ****     // Mark passage for debugging purpose
 1974               		.loc 1 432 1 is_stmt 1 view -0
 1975               		.cfi_startproc
 432:funsape/device/ssd1306.cpp ****     // Mark passage for debugging purpose
 1976               		.loc 1 432 1 is_stmt 0 view .LVU482
 1977 0000 FF92      		push r15
 1978               	.LCFI59:
 1979               		.cfi_def_cfa_offset 3
 1980               		.cfi_offset 15, -2
 1981 0002 0F93      		push r16
 1982               	.LCFI60:
 1983               		.cfi_def_cfa_offset 4
 1984               		.cfi_offset 16, -3
 1985 0004 1F93      		push r17
 1986               	.LCFI61:
 1987               		.cfi_def_cfa_offset 5
 1988               		.cfi_offset 17, -4
 1989 0006 CF93      		push r28
 1990               	.LCFI62:
 1991               		.cfi_def_cfa_offset 6
 1992               		.cfi_offset 28, -5
 1993 0008 DF93      		push r29
 1994               	.LCFI63:
 1995               		.cfi_def_cfa_offset 7
 1996               		.cfi_offset 29, -6
 1997               	/* prologue: function */
 1998               	/* frame size = 0 */
 1999               	/* stack size = 5 */
 2000               	.L__stack_usage = 5
 2001 000a 8C01      		movw r16,r24
 2002 000c C62F      		mov r28,r22
 434:funsape/device/ssd1306.cpp **** 
 2003               		.loc 1 434 5 is_stmt 1 view .LVU483
 437:funsape/device/ssd1306.cpp ****         // Returns error
 2004               		.loc 1 437 5 view .LVU484
 437:funsape/device/ssd1306.cpp ****         // Returns error
 2005               		.loc 1 437 29 is_stmt 0 view .LVU485
 2006 000e 0E94 0000 		call _ZN7Ssd130614_isInitializedEv
 2007               	.LVL143:
 437:funsape/device/ssd1306.cpp ****         // Returns error
 2008               		.loc 1 437 5 discriminator 1 view .LVU486
 2009 0012 8030      		cpi r24,lo8(0)
 2010 0014 01F0      		breq .L104
GAS LISTING /tmp/cckYZbTP.s 			page 58


 444:funsape/device/ssd1306.cpp ****     uint8_t auxComScan                  = (enable_p) ? SSD1306_COM_SCAN_INC : SSD1306_COM_SCAN_DEC;
 2011               		.loc 1 444 5 is_stmt 1 view .LVU487
 444:funsape/device/ssd1306.cpp ****     uint8_t auxComScan                  = (enable_p) ? SSD1306_COM_SCAN_INC : SSD1306_COM_SCAN_DEC;
 2012               		.loc 1 444 13 is_stmt 0 view .LVU488
 2013 0016 C030      		cpi r28,lo8(0)
 2014 0018 01F0      		breq .L108
 444:funsape/device/ssd1306.cpp ****     uint8_t auxComScan                  = (enable_p) ? SSD1306_COM_SCAN_INC : SSD1306_COM_SCAN_DEC;
 2015               		.loc 1 444 13 discriminator 1 view .LVU489
 2016 001a 60EA      		ldi r22,lo8(-96)
 445:funsape/device/ssd1306.cpp **** 
 2017               		.loc 1 445 13 discriminator 1 view .LVU490
 2018 001c 80EC      		ldi r24,lo8(-64)
 2019 001e F82E      		mov r15,r24
 2020               	.L106:
 2021               	.LVL144:
 448:funsape/device/ssd1306.cpp ****         // Returns error
 2022               		.loc 1 448 5 is_stmt 1 view .LVU491
 448:funsape/device/ssd1306.cpp ****         // Returns error
 2023               		.loc 1 448 28 is_stmt 0 view .LVU492
 2024 0020 E801      		movw r28,r16
 2025               	.LVL145:
 448:funsape/device/ssd1306.cpp ****         // Returns error
 2026               		.loc 1 448 28 view .LVU493
 2027 0022 C801      		movw r24,r16
 2028 0024 0E94 0000 		call _ZN7Ssd130613_writeCommandEh
 2029               	.LVL146:
 448:funsape/device/ssd1306.cpp ****         // Returns error
 2030               		.loc 1 448 42 discriminator 1 view .LVU494
 2031 0028 8111      		cpse r24,__zero_reg__
 2032 002a 00C0      		rjmp .L109
 2033               	.LVL147:
 2034               	.L104:
 2035               	/* epilogue start */
 458:funsape/device/ssd1306.cpp **** 
 2036               		.loc 1 458 1 view .LVU495
 2037 002c DF91      		pop r29
 2038 002e CF91      		pop r28
 2039 0030 1F91      		pop r17
 2040 0032 0F91      		pop r16
 2041               	.LVL148:
 458:funsape/device/ssd1306.cpp **** 
 2042               		.loc 1 458 1 view .LVU496
 2043 0034 FF90      		pop r15
 2044 0036 0895      		ret
 2045               	.LVL149:
 2046               	.L108:
 444:funsape/device/ssd1306.cpp ****     uint8_t auxComScan                  = (enable_p) ? SSD1306_COM_SCAN_INC : SSD1306_COM_SCAN_DEC;
 2047               		.loc 1 444 13 discriminator 2 view .LVU497
 2048 0038 61EA      		ldi r22,lo8(-95)
 445:funsape/device/ssd1306.cpp **** 
 2049               		.loc 1 445 13 discriminator 2 view .LVU498
 2050 003a 88EC      		ldi r24,lo8(-56)
 2051 003c F82E      		mov r15,r24
 2052 003e 00C0      		rjmp .L106
 2053               	.LVL150:
 2054               	.L109:
 448:funsape/device/ssd1306.cpp ****         // Returns error
GAS LISTING /tmp/cckYZbTP.s 			page 59


 2055               		.loc 1 448 65 discriminator 2 view .LVU499
 2056 0040 6F2D      		mov r22,r15
 2057 0042 C801      		movw r24,r16
 2058 0044 0E94 0000 		call _ZN7Ssd130613_writeCommandEh
 2059               	.LVL151:
 448:funsape/device/ssd1306.cpp ****         // Returns error
 2060               		.loc 1 448 42 discriminator 3 view .LVU500
 2061 0048 8030      		cpi r24,lo8(0)
 2062 004a 01F0      		breq .L104
 455:funsape/device/ssd1306.cpp ****     debugMessage(Error::NONE, Debug::CodeIndex::SSD1306_MODULE);
 2063               		.loc 1 455 5 is_stmt 1 view .LVU501
 455:funsape/device/ssd1306.cpp ****     debugMessage(Error::NONE, Debug::CodeIndex::SSD1306_MODULE);
 2064               		.loc 1 455 22 is_stmt 0 view .LVU502
 2065 004c 1C82      		std Y+4,__zero_reg__
 2066 004e 1B82      		std Y+3,__zero_reg__
 456:funsape/device/ssd1306.cpp ****     return true;
 2067               		.loc 1 456 5 is_stmt 1 view .LVU503
 457:funsape/device/ssd1306.cpp **** }
 2068               		.loc 1 457 5 view .LVU504
 457:funsape/device/ssd1306.cpp **** }
 2069               		.loc 1 457 12 is_stmt 0 view .LVU505
 2070 0050 00C0      		rjmp .L104
 2071               		.cfi_endproc
 2072               	.LFE145:
 2074               		.section	.text._ZN7Ssd13069setCursorEhh,"ax",@progbits
 2075               	.global	_ZN7Ssd13069setCursorEhh
 2077               	_ZN7Ssd13069setCursorEhh:
 2078               	.LVL152:
 2079               	.LFB148:
 491:funsape/device/ssd1306.cpp ****     // Mark passage for debugging purpose
 2080               		.loc 1 491 1 is_stmt 1 view -0
 2081               		.cfi_startproc
 491:funsape/device/ssd1306.cpp ****     // Mark passage for debugging purpose
 2082               		.loc 1 491 1 is_stmt 0 view .LVU507
 2083 0000 0F93      		push r16
 2084               	.LCFI64:
 2085               		.cfi_def_cfa_offset 3
 2086               		.cfi_offset 16, -2
 2087 0002 1F93      		push r17
 2088               	.LCFI65:
 2089               		.cfi_def_cfa_offset 4
 2090               		.cfi_offset 17, -3
 2091 0004 CF93      		push r28
 2092               	.LCFI66:
 2093               		.cfi_def_cfa_offset 5
 2094               		.cfi_offset 28, -4
 2095 0006 DF93      		push r29
 2096               	.LCFI67:
 2097               		.cfi_def_cfa_offset 6
 2098               		.cfi_offset 29, -5
 2099               	/* prologue: function */
 2100               	/* frame size = 0 */
 2101               	/* stack size = 4 */
 2102               	.L__stack_usage = 4
 2103 0008 EC01      		movw r28,r24
 2104 000a 162F      		mov r17,r22
 2105 000c 042F      		mov r16,r20
GAS LISTING /tmp/cckYZbTP.s 			page 60


 493:funsape/device/ssd1306.cpp **** 
 2106               		.loc 1 493 5 is_stmt 1 view .LVU508
 496:funsape/device/ssd1306.cpp ****         // Returns error
 2107               		.loc 1 496 5 view .LVU509
 496:funsape/device/ssd1306.cpp ****         // Returns error
 2108               		.loc 1 496 29 is_stmt 0 view .LVU510
 2109 000e 0E94 0000 		call _ZN7Ssd130614_isInitializedEv
 2110               	.LVL153:
 496:funsape/device/ssd1306.cpp ****         // Returns error
 2111               		.loc 1 496 5 discriminator 1 view .LVU511
 2112 0012 8030      		cpi r24,lo8(0)
 2113 0014 01F0      		breq .L110
 501:funsape/device/ssd1306.cpp ****         // Returns error
 2114               		.loc 1 501 5 is_stmt 1 view .LVU512
 2115 0016 1030      		cpi r17,lo8(0)
 2116 0018 04F0      		brlt .L113
 501:funsape/device/ssd1306.cpp ****         // Returns error
 2117               		.loc 1 501 55 is_stmt 0 discriminator 1 view .LVU513
 2118 001a 9F81      		ldd r25,Y+7
 501:funsape/device/ssd1306.cpp ****         // Returns error
 2119               		.loc 1 501 35 discriminator 1 view .LVU514
 2120 001c 0917      		cp r16,r25
 2121 001e 00F4      		brsh .L113
 509:funsape/device/ssd1306.cpp ****     this->_cursorPage                   = page_p;
 2122               		.loc 1 509 5 is_stmt 1 view .LVU515
 509:funsape/device/ssd1306.cpp ****     this->_cursorPage                   = page_p;
 2123               		.loc 1 509 41 is_stmt 0 view .LVU516
 2124 0020 1887      		std Y+8,r17
 510:funsape/device/ssd1306.cpp **** 
 2125               		.loc 1 510 5 is_stmt 1 view .LVU517
 510:funsape/device/ssd1306.cpp **** 
 2126               		.loc 1 510 43 is_stmt 0 view .LVU518
 2127 0022 902F      		mov r25,r16
 2128 0024 9770      		andi r25,lo8(7)
 510:funsape/device/ssd1306.cpp **** 
 2129               		.loc 1 510 41 view .LVU519
 2130 0026 2985      		ldd r18,Y+9
 2131 0028 287F      		andi r18,lo8(-8)
 2132 002a 922B      		or r25,r18
 2133 002c 9987      		std Y+9,r25
 513:funsape/device/ssd1306.cpp ****     debugMessage(Error::NONE, Debug::CodeIndex::SSD1306_MODULE);
 2134               		.loc 1 513 5 is_stmt 1 view .LVU520
 513:funsape/device/ssd1306.cpp ****     debugMessage(Error::NONE, Debug::CodeIndex::SSD1306_MODULE);
 2135               		.loc 1 513 22 is_stmt 0 view .LVU521
 2136 002e 1C82      		std Y+4,__zero_reg__
 2137 0030 1B82      		std Y+3,__zero_reg__
 514:funsape/device/ssd1306.cpp ****     return true;
 2138               		.loc 1 514 5 is_stmt 1 view .LVU522
 515:funsape/device/ssd1306.cpp **** }
 2139               		.loc 1 515 5 view .LVU523
 515:funsape/device/ssd1306.cpp **** }
 2140               		.loc 1 515 12 is_stmt 0 view .LVU524
 2141 0032 00C0      		rjmp .L110
 2142               	.L113:
 503:funsape/device/ssd1306.cpp ****         debugMessage(Error::ARGUMENT_VALUE_INVALID, Debug::CodeIndex::SSD1306_MODULE);
 2143               		.loc 1 503 9 is_stmt 1 view .LVU525
 503:funsape/device/ssd1306.cpp ****         debugMessage(Error::ARGUMENT_VALUE_INVALID, Debug::CodeIndex::SSD1306_MODULE);
GAS LISTING /tmp/cckYZbTP.s 			page 61


 2144               		.loc 1 503 26 is_stmt 0 view .LVU526
 2145 0034 82E5      		ldi r24,lo8(82)
 2146 0036 90E0      		ldi r25,0
 2147 0038 9C83      		std Y+4,r25
 2148 003a 8B83      		std Y+3,r24
 504:funsape/device/ssd1306.cpp ****         return false;
 2149               		.loc 1 504 9 is_stmt 1 view .LVU527
 505:funsape/device/ssd1306.cpp ****     }
 2150               		.loc 1 505 9 view .LVU528
 505:funsape/device/ssd1306.cpp ****     }
 2151               		.loc 1 505 16 is_stmt 0 view .LVU529
 2152 003c 80E0      		ldi r24,0
 2153               	.L110:
 2154               	/* epilogue start */
 516:funsape/device/ssd1306.cpp **** 
 2155               		.loc 1 516 1 view .LVU530
 2156 003e DF91      		pop r29
 2157 0040 CF91      		pop r28
 2158               	.LVL154:
 516:funsape/device/ssd1306.cpp **** 
 2159               		.loc 1 516 1 view .LVU531
 2160 0042 1F91      		pop r17
 2161               	.LVL155:
 516:funsape/device/ssd1306.cpp **** 
 2162               		.loc 1 516 1 view .LVU532
 2163 0044 0F91      		pop r16
 2164               	.LVL156:
 516:funsape/device/ssd1306.cpp **** 
 2165               		.loc 1 516 1 view .LVU533
 2166 0046 0895      		ret
 2167               		.cfi_endproc
 2168               	.LFE148:
 2170               		.section	.text._ZN7Ssd13065printEc,"ax",@progbits
 2171               	.global	_ZN7Ssd13065printEc
 2173               	_ZN7Ssd13065printEc:
 2174               	.LVL157:
 2175               	.LFB150:
 533:funsape/device/ssd1306.cpp ****     // Mark passage for debugging purpose
 2176               		.loc 1 533 1 is_stmt 1 view -0
 2177               		.cfi_startproc
 533:funsape/device/ssd1306.cpp ****     // Mark passage for debugging purpose
 2178               		.loc 1 533 1 is_stmt 0 view .LVU535
 2179 0000 0F93      		push r16
 2180               	.LCFI68:
 2181               		.cfi_def_cfa_offset 3
 2182               		.cfi_offset 16, -2
 2183 0002 1F93      		push r17
 2184               	.LCFI69:
 2185               		.cfi_def_cfa_offset 4
 2186               		.cfi_offset 17, -3
 2187 0004 CF93      		push r28
 2188               	.LCFI70:
 2189               		.cfi_def_cfa_offset 5
 2190               		.cfi_offset 28, -4
 2191 0006 DF93      		push r29
 2192               	.LCFI71:
 2193               		.cfi_def_cfa_offset 6
GAS LISTING /tmp/cckYZbTP.s 			page 62


 2194               		.cfi_offset 29, -5
 2195               	/* prologue: function */
 2196               	/* frame size = 0 */
 2197               	/* stack size = 4 */
 2198               	.L__stack_usage = 4
 2199 0008 EC01      		movw r28,r24
 2200 000a 162F      		mov r17,r22
 535:funsape/device/ssd1306.cpp **** 
 2201               		.loc 1 535 5 is_stmt 1 view .LVU536
 538:funsape/device/ssd1306.cpp ****         // Returns error
 2202               		.loc 1 538 5 view .LVU537
 538:funsape/device/ssd1306.cpp ****         // Returns error
 2203               		.loc 1 538 29 is_stmt 0 view .LVU538
 2204 000c 0E94 0000 		call _ZN7Ssd130614_isInitializedEv
 2205               	.LVL158:
 538:funsape/device/ssd1306.cpp ****         // Returns error
 2206               		.loc 1 538 29 view .LVU539
 2207 0010 082F      		mov r16,r24
 538:funsape/device/ssd1306.cpp ****         // Returns error
 2208               		.loc 1 538 5 discriminator 1 view .LVU540
 2209 0012 8030      		cpi r24,lo8(0)
 2210 0014 01F0      		breq .L116
 544:funsape/device/ssd1306.cpp ****         this->_cursorX                  = 0;
 2211               		.loc 1 544 5 is_stmt 1 view .LVU541
 2212 0016 1A30      		cpi r17,lo8(10)
 2213 0018 01F4      		brne .L119
 545:funsape/device/ssd1306.cpp ****         this->_cursorPage               += this->_textSize;
 2214               		.loc 1 545 9 view .LVU542
 545:funsape/device/ssd1306.cpp ****         this->_cursorPage               += this->_textSize;
 2215               		.loc 1 545 41 is_stmt 0 view .LVU543
 2216 001a 1886      		std Y+8,__zero_reg__
 546:funsape/device/ssd1306.cpp ****         if((this->_cursorPage + this->_textSize) > this->_pages) {
 2217               		.loc 1 546 9 is_stmt 1 view .LVU544
 546:funsape/device/ssd1306.cpp ****         if((this->_cursorPage + this->_textSize) > this->_pages) {
 2218               		.loc 1 546 15 is_stmt 0 view .LVU545
 2219 001c 9985      		ldd r25,Y+9
 2220 001e 892F      		mov r24,r25
 2221 0020 8770      		andi r24,lo8(7)
 546:funsape/device/ssd1306.cpp ****         if((this->_cursorPage + this->_textSize) > this->_pages) {
 2222               		.loc 1 546 50 view .LVU546
 2223 0022 292F      		mov r18,r25
 2224 0024 2695      		lsr r18
 2225 0026 2695      		lsr r18
 2226 0028 2695      		lsr r18
 2227 002a 2770      		andi r18,lo8(7)
 546:funsape/device/ssd1306.cpp ****         if((this->_cursorPage + this->_textSize) > this->_pages) {
 2228               		.loc 1 546 41 view .LVU547
 2229 002c 820F      		add r24,r18
 2230 002e 8770      		andi r24,lo8(7)
 2231 0030 987F      		andi r25,lo8(-8)
 2232 0032 982B      		or r25,r24
 2233 0034 9987      		std Y+9,r25
 547:funsape/device/ssd1306.cpp ****             this->_cursorPage           = 0;
 2234               		.loc 1 547 9 is_stmt 1 view .LVU548
 547:funsape/device/ssd1306.cpp ****             this->_cursorPage           = 0;
 2235               		.loc 1 547 31 is_stmt 0 view .LVU549
 2236 0036 820F      		add r24,r18
GAS LISTING /tmp/cckYZbTP.s 			page 63


 2237 0038 9927      		clr r25
 2238 003a 991F      		rol r25
 547:funsape/device/ssd1306.cpp ****             this->_cursorPage           = 0;
 2239               		.loc 1 547 58 view .LVU550
 2240 003c 2F81      		ldd r18,Y+7
 547:funsape/device/ssd1306.cpp ****             this->_cursorPage           = 0;
 2241               		.loc 1 547 9 view .LVU551
 2242 003e 2817      		cp r18,r24
 2243 0040 1906      		cpc __zero_reg__,r25
 2244 0042 04F4      		brge .L120
 548:funsape/device/ssd1306.cpp ****         }
 2245               		.loc 1 548 13 is_stmt 1 view .LVU552
 548:funsape/device/ssd1306.cpp ****         }
 2246               		.loc 1 548 41 is_stmt 0 view .LVU553
 2247 0044 8985      		ldd r24,Y+9
 2248 0046 887F      		andi r24,lo8(-8)
 2249 0048 8987      		std Y+9,r24
 2250 004a 00C0      		rjmp .L120
 2251               	.L119:
 551:funsape/device/ssd1306.cpp ****             // Returns error
 2252               		.loc 1 551 9 is_stmt 1 view .LVU554
 551:funsape/device/ssd1306.cpp ****             // Returns error
 2253               		.loc 1 551 29 is_stmt 0 view .LVU555
 2254 004c 612F      		mov r22,r17
 2255 004e CE01      		movw r24,r28
 2256 0050 0E94 0000 		call _ZN7Ssd130610_writeCharEc
 2257               	.LVL159:
 551:funsape/device/ssd1306.cpp ****             // Returns error
 2258               		.loc 1 551 9 discriminator 1 view .LVU556
 2259 0054 8030      		cpi r24,lo8(0)
 2260 0056 01F0      		breq .L122
 2261               	.L120:
 559:funsape/device/ssd1306.cpp ****     debugMessage(Error::NONE, Debug::CodeIndex::SSD1306_MODULE);
 2262               		.loc 1 559 5 is_stmt 1 view .LVU557
 559:funsape/device/ssd1306.cpp ****     debugMessage(Error::NONE, Debug::CodeIndex::SSD1306_MODULE);
 2263               		.loc 1 559 22 is_stmt 0 view .LVU558
 2264 0058 1C82      		std Y+4,__zero_reg__
 2265 005a 1B82      		std Y+3,__zero_reg__
 560:funsape/device/ssd1306.cpp ****     return true;
 2266               		.loc 1 560 5 is_stmt 1 view .LVU559
 561:funsape/device/ssd1306.cpp **** }
 2267               		.loc 1 561 5 view .LVU560
 2268               	.L116:
 562:funsape/device/ssd1306.cpp **** 
 2269               		.loc 1 562 1 is_stmt 0 view .LVU561
 2270 005c 802F      		mov r24,r16
 2271               	/* epilogue start */
 2272 005e DF91      		pop r29
 2273 0060 CF91      		pop r28
 2274               	.LVL160:
 562:funsape/device/ssd1306.cpp **** 
 2275               		.loc 1 562 1 view .LVU562
 2276 0062 1F91      		pop r17
 2277               	.LVL161:
 562:funsape/device/ssd1306.cpp **** 
 2278               		.loc 1 562 1 view .LVU563
 2279 0064 0F91      		pop r16
GAS LISTING /tmp/cckYZbTP.s 			page 64


 2280 0066 0895      		ret
 2281               	.LVL162:
 2282               	.L122:
 554:funsape/device/ssd1306.cpp ****         }
 2283               		.loc 1 554 20 view .LVU564
 2284 0068 082F      		mov r16,r24
 2285 006a 00C0      		rjmp .L116
 2286               		.cfi_endproc
 2287               	.LFE150:
 2289               		.section	.text._ZL15ssd1306WriteStdcP6__file,"ax",@progbits
 2291               	_ZL15ssd1306WriteStdcP6__file:
 2292               	.LVL163:
 2293               	.LFB162:
1011:funsape/device/ssd1306.cpp **** 
1012:funsape/device/ssd1306.cpp **** // =============================================================================
1013:funsape/device/ssd1306.cpp **** // Class protected methods
1014:funsape/device/ssd1306.cpp **** // =============================================================================
1015:funsape/device/ssd1306.cpp **** 
1016:funsape/device/ssd1306.cpp **** // NONE
1017:funsape/device/ssd1306.cpp **** 
1018:funsape/device/ssd1306.cpp **** // =============================================================================
1019:funsape/device/ssd1306.cpp **** // Static functions definitions
1020:funsape/device/ssd1306.cpp **** // =============================================================================
1021:funsape/device/ssd1306.cpp **** 
1022:funsape/device/ssd1306.cpp **** static int ssd1306WriteStd(char character_p, FILE *stream_p)
1023:funsape/device/ssd1306.cpp **** {
 2294               		.loc 1 1023 1 is_stmt 1 view -0
 2295               		.cfi_startproc
 2296               	/* prologue: function */
 2297               	/* frame size = 0 */
 2298               	/* stack size = 0 */
 2299               	.L__stack_usage = 0
1024:funsape/device/ssd1306.cpp ****     (void)stream_p;
 2300               		.loc 1 1024 5 view .LVU566
1025:funsape/device/ssd1306.cpp **** 
1026:funsape/device/ssd1306.cpp ****     defaultSsd1306Display->print(character_p);
 2301               		.loc 1 1026 5 view .LVU567
 2302               		.loc 1 1026 33 is_stmt 0 view .LVU568
 2303 0000 682F      		mov r22,r24
 2304               	.LVL164:
 2305               		.loc 1 1026 33 view .LVU569
 2306 0002 8091 0000 		lds r24,defaultSsd1306Display
 2307 0006 9091 0000 		lds r25,defaultSsd1306Display+1
 2308               	.LVL165:
 2309               		.loc 1 1026 33 view .LVU570
 2310 000a 0E94 0000 		call _ZN7Ssd13065printEc
 2311               	.LVL166:
1027:funsape/device/ssd1306.cpp **** 
1028:funsape/device/ssd1306.cpp ****     return 0;
 2312               		.loc 1 1028 5 is_stmt 1 view .LVU571
1029:funsape/device/ssd1306.cpp **** }
 2313               		.loc 1 1029 1 is_stmt 0 view .LVU572
 2314 000e 80E0      		ldi r24,0
 2315 0010 90E0      		ldi r25,0
 2316               	/* epilogue start */
 2317 0012 0895      		ret
 2318               		.cfi_endproc
GAS LISTING /tmp/cckYZbTP.s 			page 65


 2319               	.LFE162:
 2321               		.section	.text._ZN7Ssd13065printEPKc,"ax",@progbits
 2322               	.global	_ZN7Ssd13065printEPKc
 2324               	_ZN7Ssd13065printEPKc:
 2325               	.LVL167:
 2326               	.LFB151:
 565:funsape/device/ssd1306.cpp ****     // Mark passage for debugging purpose
 2327               		.loc 1 565 1 is_stmt 1 view -0
 2328               		.cfi_startproc
 565:funsape/device/ssd1306.cpp ****     // Mark passage for debugging purpose
 2329               		.loc 1 565 1 is_stmt 0 view .LVU574
 2330 0000 DF92      		push r13
 2331               	.LCFI72:
 2332               		.cfi_def_cfa_offset 3
 2333               		.cfi_offset 13, -2
 2334 0002 EF92      		push r14
 2335               	.LCFI73:
 2336               		.cfi_def_cfa_offset 4
 2337               		.cfi_offset 14, -3
 2338 0004 FF92      		push r15
 2339               	.LCFI74:
 2340               		.cfi_def_cfa_offset 5
 2341               		.cfi_offset 15, -4
 2342 0006 0F93      		push r16
 2343               	.LCFI75:
 2344               		.cfi_def_cfa_offset 6
 2345               		.cfi_offset 16, -5
 2346 0008 1F93      		push r17
 2347               	.LCFI76:
 2348               		.cfi_def_cfa_offset 7
 2349               		.cfi_offset 17, -6
 2350 000a CF93      		push r28
 2351               	.LCFI77:
 2352               		.cfi_def_cfa_offset 8
 2353               		.cfi_offset 28, -7
 2354 000c DF93      		push r29
 2355               	.LCFI78:
 2356               		.cfi_def_cfa_offset 9
 2357               		.cfi_offset 29, -8
 2358               	/* prologue: function */
 2359               	/* frame size = 0 */
 2360               	/* stack size = 7 */
 2361               	.L__stack_usage = 7
 2362 000e 8C01      		movw r16,r24
 2363 0010 7B01      		movw r14,r22
 567:funsape/device/ssd1306.cpp **** 
 2364               		.loc 1 567 5 is_stmt 1 view .LVU575
 570:funsape/device/ssd1306.cpp **** 
 2365               		.loc 1 570 5 view .LVU576
 2366               	.LVL168:
 573:funsape/device/ssd1306.cpp ****         // Returns error
 2367               		.loc 1 573 5 view .LVU577
 573:funsape/device/ssd1306.cpp ****         // Returns error
 2368               		.loc 1 573 29 is_stmt 0 view .LVU578
 2369 0012 0E94 0000 		call _ZN7Ssd130614_isInitializedEv
 2370               	.LVL169:
 573:funsape/device/ssd1306.cpp ****         // Returns error
GAS LISTING /tmp/cckYZbTP.s 			page 66


 2371               		.loc 1 573 29 view .LVU579
 2372 0016 D82E      		mov r13,r24
 573:funsape/device/ssd1306.cpp ****         // Returns error
 2373               		.loc 1 573 5 discriminator 1 view .LVU580
 2374 0018 8030      		cpi r24,lo8(0)
 2375 001a 01F0      		breq .L124
 578:funsape/device/ssd1306.cpp ****         // Returns error
 2376               		.loc 1 578 5 is_stmt 1 view .LVU581
 2377 001c E114      		cp r14,__zero_reg__
 2378 001e FE04      		cpc r15,r14
 2379 0020 01F0      		breq .L132
 570:funsape/device/ssd1306.cpp **** 
 2380               		.loc 1 570 14 is_stmt 0 view .LVU582
 2381 0022 C0E0      		ldi r28,0
 2382 0024 D0E0      		ldi r29,0
 2383 0026 00C0      		rjmp .L127
 2384               	.L132:
 580:funsape/device/ssd1306.cpp ****         debugMessage(Error::ARGUMENT_POINTER_NULL, Debug::CodeIndex::SSD1306_MODULE);
 2385               		.loc 1 580 9 is_stmt 1 view .LVU583
 580:funsape/device/ssd1306.cpp ****         debugMessage(Error::ARGUMENT_POINTER_NULL, Debug::CodeIndex::SSD1306_MODULE);
 2386               		.loc 1 580 26 is_stmt 0 view .LVU584
 2387 0028 81E5      		ldi r24,lo8(81)
 2388 002a 90E0      		ldi r25,0
 2389 002c F801      		movw r30,r16
 2390 002e 9483      		std Z+4,r25
 2391 0030 8383      		std Z+3,r24
 581:funsape/device/ssd1306.cpp ****         return false;
 2392               		.loc 1 581 9 is_stmt 1 view .LVU585
 582:funsape/device/ssd1306.cpp ****     }
 2393               		.loc 1 582 9 view .LVU586
 582:funsape/device/ssd1306.cpp ****     }
 2394               		.loc 1 582 16 is_stmt 0 view .LVU587
 2395 0032 D12C      		mov r13,__zero_reg__
 2396 0034 00C0      		rjmp .L124
 2397               	.LVL170:
 2398               	.L134:
 591:funsape/device/ssd1306.cpp ****     }
 2399               		.loc 1 591 9 is_stmt 1 view .LVU588
 591:funsape/device/ssd1306.cpp ****     }
 2400               		.loc 1 591 10 is_stmt 0 view .LVU589
 2401 0036 2196      		adiw r28,1
 2402               	.LVL171:
 2403               	.L127:
 585:funsape/device/ssd1306.cpp ****         if(!this->print(string_p[i])) {
 2404               		.loc 1 585 21 is_stmt 1 discriminator 1 view .LVU590
 2405 0038 F701      		movw r30,r14
 2406 003a EC0F      		add r30,r28
 2407 003c FD1F      		adc r31,r29
 2408 003e 6081      		ld r22,Z
 2409 0040 6030      		cpi r22,lo8(0)
 2410 0042 01F0      		breq .L133
 586:funsape/device/ssd1306.cpp ****             // Returns error
 2411               		.loc 1 586 9 view .LVU591
 586:funsape/device/ssd1306.cpp ****             // Returns error
 2412               		.loc 1 586 24 is_stmt 0 view .LVU592
 2413 0044 C801      		movw r24,r16
 2414 0046 0E94 0000 		call _ZN7Ssd13065printEc
GAS LISTING /tmp/cckYZbTP.s 			page 67


 2415               	.LVL172:
 586:funsape/device/ssd1306.cpp ****             // Returns error
 2416               		.loc 1 586 9 discriminator 1 view .LVU593
 2417 004a 8111      		cpse r24,__zero_reg__
 2418 004c 00C0      		rjmp .L134
 589:funsape/device/ssd1306.cpp ****         }
 2419               		.loc 1 589 20 view .LVU594
 2420 004e D82E      		mov r13,r24
 2421 0050 00C0      		rjmp .L124
 2422               	.L133:
 595:funsape/device/ssd1306.cpp ****     debugMessage(Error::NONE, Debug::CodeIndex::SSD1306_MODULE);
 2423               		.loc 1 595 5 is_stmt 1 view .LVU595
 595:funsape/device/ssd1306.cpp ****     debugMessage(Error::NONE, Debug::CodeIndex::SSD1306_MODULE);
 2424               		.loc 1 595 22 is_stmt 0 view .LVU596
 2425 0052 F801      		movw r30,r16
 2426 0054 1482      		std Z+4,__zero_reg__
 2427 0056 1382      		std Z+3,__zero_reg__
 596:funsape/device/ssd1306.cpp ****     return true;
 2428               		.loc 1 596 5 is_stmt 1 view .LVU597
 597:funsape/device/ssd1306.cpp **** }
 2429               		.loc 1 597 5 view .LVU598
 2430               	.LVL173:
 2431               	.L124:
 598:funsape/device/ssd1306.cpp **** 
 2432               		.loc 1 598 1 is_stmt 0 view .LVU599
 2433 0058 8D2D      		mov r24,r13
 2434               	/* epilogue start */
 2435 005a DF91      		pop r29
 2436 005c CF91      		pop r28
 2437 005e 1F91      		pop r17
 2438 0060 0F91      		pop r16
 2439               	.LVL174:
 598:funsape/device/ssd1306.cpp **** 
 2440               		.loc 1 598 1 view .LVU600
 2441 0062 FF90      		pop r15
 2442 0064 EF90      		pop r14
 2443               	.LVL175:
 598:funsape/device/ssd1306.cpp **** 
 2444               		.loc 1 598 1 view .LVU601
 2445 0066 DF90      		pop r13
 2446 0068 0895      		ret
 2447               		.cfi_endproc
 2448               	.LFE151:
 2450               		.section	.text._ZN7Ssd13068fillRectEhhhhb,"ax",@progbits
 2451               	.global	_ZN7Ssd13068fillRectEhhhhb
 2453               	_ZN7Ssd13068fillRectEhhhhb:
 2454               	.LVL176:
 2455               	.LFB152:
 603:funsape/device/ssd1306.cpp ****     // Mark passage for debugging purpose
 2456               		.loc 1 603 1 is_stmt 1 view -0
 2457               		.cfi_startproc
 603:funsape/device/ssd1306.cpp ****     // Mark passage for debugging purpose
 2458               		.loc 1 603 1 is_stmt 0 view .LVU603
 2459 0000 9F92      		push r9
 2460               	.LCFI79:
 2461               		.cfi_def_cfa_offset 3
 2462               		.cfi_offset 9, -2
GAS LISTING /tmp/cckYZbTP.s 			page 68


 2463 0002 AF92      		push r10
 2464               	.LCFI80:
 2465               		.cfi_def_cfa_offset 4
 2466               		.cfi_offset 10, -3
 2467 0004 BF92      		push r11
 2468               	.LCFI81:
 2469               		.cfi_def_cfa_offset 5
 2470               		.cfi_offset 11, -4
 2471 0006 CF92      		push r12
 2472               	.LCFI82:
 2473               		.cfi_def_cfa_offset 6
 2474               		.cfi_offset 12, -5
 2475 0008 DF92      		push r13
 2476               	.LCFI83:
 2477               		.cfi_def_cfa_offset 7
 2478               		.cfi_offset 13, -6
 2479 000a EF92      		push r14
 2480               	.LCFI84:
 2481               		.cfi_def_cfa_offset 8
 2482               		.cfi_offset 14, -7
 2483 000c FF92      		push r15
 2484               	.LCFI85:
 2485               		.cfi_def_cfa_offset 9
 2486               		.cfi_offset 15, -8
 2487 000e 0F93      		push r16
 2488               	.LCFI86:
 2489               		.cfi_def_cfa_offset 10
 2490               		.cfi_offset 16, -9
 2491 0010 1F93      		push r17
 2492               	.LCFI87:
 2493               		.cfi_def_cfa_offset 11
 2494               		.cfi_offset 17, -10
 2495 0012 CF93      		push r28
 2496               	.LCFI88:
 2497               		.cfi_def_cfa_offset 12
 2498               		.cfi_offset 28, -11
 2499 0014 DF93      		push r29
 2500               	.LCFI89:
 2501               		.cfi_def_cfa_offset 13
 2502               		.cfi_offset 29, -12
 2503 0016 CDB7      		in r28,__SP_L__
 2504 0018 DEB7      		in r29,__SP_H__
 2505               	.LCFI90:
 2506               		.cfi_def_cfa_register 28
 2507 001a 6097      		sbiw r28,16
 2508               	.LCFI91:
 2509               		.cfi_def_cfa_offset 29
 2510 001c 0FB6      		in __tmp_reg__,__SREG__
 2511 001e F894      		cli
 2512 0020 DEBF      		out __SP_H__,r29
 2513 0022 0FBE      		out __SREG__,__tmp_reg__
 2514 0024 CDBF      		out __SP_L__,r28
 2515               	/* prologue: function */
 2516               	/* frame size = 16 */
 2517               	/* stack size = 27 */
 2518               	.L__stack_usage = 27
 2519 0026 6C01      		movw r12,r24
GAS LISTING /tmp/cckYZbTP.s 			page 69


 2520 0028 162F      		mov r17,r22
 2521 002a F42E      		mov r15,r20
 2522 002c B22E      		mov r11,r18
 605:funsape/device/ssd1306.cpp ****             Debug::CodeIndex::SSD1306_MODULE);
 2523               		.loc 1 605 5 is_stmt 1 view .LVU604
 609:funsape/device/ssd1306.cpp ****         // Returns error
 2524               		.loc 1 609 5 view .LVU605
 609:funsape/device/ssd1306.cpp ****         // Returns error
 2525               		.loc 1 609 29 is_stmt 0 view .LVU606
 2526 002e 0E94 0000 		call _ZN7Ssd130614_isInitializedEv
 2527               	.LVL177:
 609:funsape/device/ssd1306.cpp ****         // Returns error
 2528               		.loc 1 609 29 view .LVU607
 2529 0032 A82E      		mov r10,r24
 609:funsape/device/ssd1306.cpp ****         // Returns error
 2530               		.loc 1 609 5 discriminator 1 view .LVU608
 2531 0034 8030      		cpi r24,lo8(0)
 2532 0036 01F0      		breq .L135
 614:funsape/device/ssd1306.cpp ****         // Returns error
 2533               		.loc 1 614 5 is_stmt 1 view .LVU609
 2534 0038 1030      		cpi r17,lo8(0)
 2535 003a 04F0      		brlt .L138
 614:funsape/device/ssd1306.cpp ****         // Returns error
 2536               		.loc 1 614 55 is_stmt 0 discriminator 1 view .LVU610
 2537 003c F601      		movw r30,r12
 2538 003e 8781      		ldd r24,Z+7
 2539 0040 982E      		mov r9,r24
 614:funsape/device/ssd1306.cpp ****         // Returns error
 2540               		.loc 1 614 35 discriminator 1 view .LVU611
 2541 0042 F816      		cp r15,r24
 2542 0044 00F4      		brsh .L138
 614:funsape/device/ssd1306.cpp ****         // Returns error
 2543               		.loc 1 614 63 discriminator 2 view .LVU612
 2544 0046 B114      		cp r11,__zero_reg__
 2545 0048 01F0      		breq .L138
 614:funsape/device/ssd1306.cpp ****         // Returns error
 2546               		.loc 1 614 81 discriminator 3 view .LVU613
 2547 004a 0030      		cpi r16,lo8(0)
 2548 004c 01F0      		breq .L138
 622:funsape/device/ssd1306.cpp ****     uint8_t auxValue                    = (on_p) ? 0xFF : 0x00;
 2549               		.loc 1 622 5 is_stmt 1 view .LVU614
 623:funsape/device/ssd1306.cpp ****     uint8_t auxWidth                    = width_p;
 2550               		.loc 1 623 5 view .LVU615
 623:funsape/device/ssd1306.cpp ****     uint8_t auxWidth                    = width_p;
 2551               		.loc 1 623 13 is_stmt 0 view .LVU616
 2552 004e E114      		cp r14,__zero_reg__
 2553 0050 01F0      		breq .L151
 623:funsape/device/ssd1306.cpp ****     uint8_t auxWidth                    = width_p;
 2554               		.loc 1 623 13 discriminator 1 view .LVU617
 2555 0052 9FEF      		ldi r25,lo8(-1)
 2556               	.L140:
 2557               	.LVL178:
 624:funsape/device/ssd1306.cpp ****     uint8_t auxLastPage                 = page_p + heightPages_p;
 2558               		.loc 1 624 5 is_stmt 1 view .LVU618
 625:funsape/device/ssd1306.cpp **** 
 2559               		.loc 1 625 5 view .LVU619
 625:funsape/device/ssd1306.cpp **** 
GAS LISTING /tmp/cckYZbTP.s 			page 70


 2560               		.loc 1 625 13 is_stmt 0 view .LVU620
 2561 0054 0F0D      		add r16,r15
 2562               	.LVL179:
 627:funsape/device/ssd1306.cpp ****         auxWidth = constSsd1306Width - x_p;
 2563               		.loc 1 627 5 is_stmt 1 view .LVU621
 627:funsape/device/ssd1306.cpp ****         auxWidth = constSsd1306Width - x_p;
 2564               		.loc 1 627 13 is_stmt 0 view .LVU622
 2565 0056 212F      		mov r18,r17
 2566 0058 2B0D      		add r18,r11
 2567 005a 3327      		clr r19
 2568 005c 331F      		rol r19
 627:funsape/device/ssd1306.cpp ****         auxWidth = constSsd1306Width - x_p;
 2569               		.loc 1 627 5 view .LVU623
 2570 005e 2138      		cpi r18,-127
 2571 0060 3040      		sbci r19,0
 2572 0062 04F0      		brlt .L141
 628:funsape/device/ssd1306.cpp ****     }
 2573               		.loc 1 628 9 is_stmt 1 view .LVU624
 628:funsape/device/ssd1306.cpp ****     }
 2574               		.loc 1 628 18 is_stmt 0 view .LVU625
 2575 0064 80E8      		ldi r24,lo8(-128)
 2576 0066 811B      		sub r24,r17
 2577 0068 B82E      		mov r11,r24
 2578               	.LVL180:
 2579               	.L141:
 630:funsape/device/ssd1306.cpp ****         auxLastPage = this->_pages;
 2580               		.loc 1 630 5 is_stmt 1 view .LVU626
 2581 006a 9016      		cp r9,r16
 2582 006c 00F0      		brlo .L142
 625:funsape/device/ssd1306.cpp **** 
 2583               		.loc 1 625 13 is_stmt 0 view .LVU627
 2584 006e 902E      		mov r9,r16
 2585               	.L142:
 2586               	.LVL181:
 633:funsape/device/ssd1306.cpp ****         auxBuffer[i] = auxValue;
 2587               		.loc 1 633 5 is_stmt 1 view .LVU628
 2588               	.LBB28:
 633:funsape/device/ssd1306.cpp ****         auxBuffer[i] = auxValue;
 2589               		.loc 1 633 17 is_stmt 0 view .LVU629
 2590 0070 80E0      		ldi r24,0
 633:funsape/device/ssd1306.cpp ****         auxBuffer[i] = auxValue;
 2591               		.loc 1 633 5 view .LVU630
 2592 0072 00C0      		rjmp .L143
 2593               	.LVL182:
 2594               	.L138:
 633:funsape/device/ssd1306.cpp ****         auxBuffer[i] = auxValue;
 2595               		.loc 1 633 5 view .LVU631
 2596               	.LBE28:
 616:funsape/device/ssd1306.cpp ****         debugMessage(Error::ARGUMENT_VALUE_INVALID, Debug::CodeIndex::SSD1306_MODULE);
 2597               		.loc 1 616 9 is_stmt 1 view .LVU632
 616:funsape/device/ssd1306.cpp ****         debugMessage(Error::ARGUMENT_VALUE_INVALID, Debug::CodeIndex::SSD1306_MODULE);
 2598               		.loc 1 616 26 is_stmt 0 view .LVU633
 2599 0074 82E5      		ldi r24,lo8(82)
 2600 0076 90E0      		ldi r25,0
 2601 0078 F601      		movw r30,r12
 2602 007a 9483      		std Z+4,r25
 2603 007c 8383      		std Z+3,r24
GAS LISTING /tmp/cckYZbTP.s 			page 71


 617:funsape/device/ssd1306.cpp ****         return false;
 2604               		.loc 1 617 9 is_stmt 1 view .LVU634
 618:funsape/device/ssd1306.cpp ****     }
 2605               		.loc 1 618 9 view .LVU635
 618:funsape/device/ssd1306.cpp ****     }
 2606               		.loc 1 618 16 is_stmt 0 view .LVU636
 2607 007e A12C      		mov r10,__zero_reg__
 2608               	.LVL183:
 2609               	.L135:
 660:funsape/device/ssd1306.cpp **** 
 2610               		.loc 1 660 1 view .LVU637
 2611 0080 8A2D      		mov r24,r10
 2612               	/* epilogue start */
 2613 0082 6096      		adiw r28,16
 2614 0084 0FB6      		in __tmp_reg__,__SREG__
 2615 0086 F894      		cli
 2616 0088 DEBF      		out __SP_H__,r29
 2617 008a 0FBE      		out __SREG__,__tmp_reg__
 2618 008c CDBF      		out __SP_L__,r28
 2619 008e DF91      		pop r29
 2620 0090 CF91      		pop r28
 2621 0092 1F91      		pop r17
 2622               	.LVL184:
 660:funsape/device/ssd1306.cpp **** 
 2623               		.loc 1 660 1 view .LVU638
 2624 0094 0F91      		pop r16
 2625 0096 FF90      		pop r15
 2626 0098 EF90      		pop r14
 2627 009a DF90      		pop r13
 2628 009c CF90      		pop r12
 2629               	.LVL185:
 660:funsape/device/ssd1306.cpp **** 
 2630               		.loc 1 660 1 view .LVU639
 2631 009e BF90      		pop r11
 2632 00a0 AF90      		pop r10
 2633 00a2 9F90      		pop r9
 2634 00a4 0895      		ret
 2635               	.LVL186:
 2636               	.L151:
 623:funsape/device/ssd1306.cpp ****     uint8_t auxWidth                    = width_p;
 2637               		.loc 1 623 13 discriminator 2 view .LVU640
 2638 00a6 90E0      		ldi r25,0
 2639 00a8 00C0      		rjmp .L140
 2640               	.LVL187:
 2641               	.L144:
 2642               	.LBB29:
 634:funsape/device/ssd1306.cpp ****     }
 2643               		.loc 1 634 9 is_stmt 1 view .LVU641
 634:funsape/device/ssd1306.cpp ****     }
 2644               		.loc 1 634 22 is_stmt 0 view .LVU642
 2645 00aa FE01      		movw r30,r28
 2646 00ac 3196      		adiw r30,1
 2647 00ae E80F      		add r30,r24
 2648 00b0 F11D      		adc r31,__zero_reg__
 2649 00b2 9083      		st Z,r25
 633:funsape/device/ssd1306.cpp ****         auxBuffer[i] = auxValue;
 2650               		.loc 1 633 5 is_stmt 1 discriminator 1 view .LVU643
GAS LISTING /tmp/cckYZbTP.s 			page 72


 2651 00b4 8F5F      		subi r24,lo8(-(1))
 2652               	.LVL188:
 2653               	.L143:
 633:funsape/device/ssd1306.cpp ****         auxBuffer[i] = auxValue;
 2654               		.loc 1 633 26 discriminator 2 view .LVU644
 2655 00b6 8031      		cpi r24,lo8(16)
 2656 00b8 00F0      		brlo .L144
 2657               	.LVL189:
 2658               	.L145:
 633:funsape/device/ssd1306.cpp ****         auxBuffer[i] = auxValue;
 2659               		.loc 1 633 26 is_stmt 0 discriminator 2 view .LVU645
 2660               	.LBE29:
 2661               	.LBB30:
 638:funsape/device/ssd1306.cpp ****         if(!this->_setAddress(page, x_p)) {
 2662               		.loc 1 638 37 is_stmt 1 discriminator 2 view .LVU646
 2663 00ba F914      		cp r15,r9
 2664 00bc 00F4      		brsh .L156
 2665               	.LBB31:
 639:funsape/device/ssd1306.cpp ****             // Returns error
 2666               		.loc 1 639 9 view .LVU647
 639:funsape/device/ssd1306.cpp ****             // Returns error
 2667               		.loc 1 639 30 is_stmt 0 view .LVU648
 2668 00be 412F      		mov r20,r17
 2669 00c0 6F2D      		mov r22,r15
 2670 00c2 C601      		movw r24,r12
 2671 00c4 0E94 0000 		call _ZN7Ssd130611_setAddressEhh
 2672               	.LVL190:
 639:funsape/device/ssd1306.cpp ****             // Returns error
 2673               		.loc 1 639 9 discriminator 1 view .LVU649
 2674 00c8 8030      		cpi r24,lo8(0)
 2675 00ca 01F0      		breq .L157
 644:funsape/device/ssd1306.cpp ****         while(remaining > 0) {
 2676               		.loc 1 644 17 view .LVU650
 2677 00cc 0B2D      		mov r16,r11
 2678 00ce 00C0      		rjmp .L146
 2679               	.L157:
 639:funsape/device/ssd1306.cpp ****             // Returns error
 2680               		.loc 1 639 9 discriminator 1 view .LVU651
 2681 00d0 A82E      		mov r10,r24
 2682 00d2 00C0      		rjmp .L135
 2683               	.LVL191:
 2684               	.L153:
 2685               	.LBB32:
 646:funsape/device/ssd1306.cpp ****             if(!this->_writeData(auxBuffer, chunk)) {
 2686               		.loc 1 646 21 discriminator 1 view .LVU652
 2687 00d4 E02E      		mov r14,r16
 2688               	.L147:
 2689               	.LVL192:
 647:funsape/device/ssd1306.cpp ****                 // Returns error
 2690               		.loc 1 647 13 is_stmt 1 view .LVU653
 647:funsape/device/ssd1306.cpp ****                 // Returns error
 2691               		.loc 1 647 33 is_stmt 0 view .LVU654
 2692 00d6 4E2D      		mov r20,r14
 2693 00d8 BE01      		movw r22,r28
 2694 00da 6F5F      		subi r22,-1
 2695 00dc 7F4F      		sbci r23,-1
 2696 00de C601      		movw r24,r12
GAS LISTING /tmp/cckYZbTP.s 			page 73


 2697 00e0 0E94 0000 		call _ZN7Ssd130610_writeDataEPKhh
 2698               	.LVL193:
 647:funsape/device/ssd1306.cpp ****                 // Returns error
 2699               		.loc 1 647 13 discriminator 1 view .LVU655
 2700 00e4 8030      		cpi r24,lo8(0)
 2701 00e6 01F0      		breq .L154
 652:funsape/device/ssd1306.cpp ****         }
 2702               		.loc 1 652 13 is_stmt 1 view .LVU656
 652:funsape/device/ssd1306.cpp ****         }
 2703               		.loc 1 652 23 is_stmt 0 view .LVU657
 2704 00e8 0E19      		sub r16,r14
 2705               	.LVL194:
 2706               	.L146:
 652:funsape/device/ssd1306.cpp ****         }
 2707               		.loc 1 652 23 view .LVU658
 2708               	.LBE32:
 645:funsape/device/ssd1306.cpp ****             uint8_t chunk = (remaining > constSsd1306DataChunk) ? constSsd1306DataChunk : remaining
 2709               		.loc 1 645 25 is_stmt 1 discriminator 1 view .LVU659
 2710 00ea 0030      		cpi r16,lo8(0)
 2711 00ec 01F0      		breq .L158
 2712               	.LBB33:
 646:funsape/device/ssd1306.cpp ****             if(!this->_writeData(auxBuffer, chunk)) {
 2713               		.loc 1 646 13 view .LVU660
 646:funsape/device/ssd1306.cpp ****             if(!this->_writeData(auxBuffer, chunk)) {
 2714               		.loc 1 646 65 is_stmt 0 view .LVU661
 2715 00ee 0131      		cpi r16,lo8(17)
 2716 00f0 00F0      		brlo .L153
 646:funsape/device/ssd1306.cpp ****             if(!this->_writeData(auxBuffer, chunk)) {
 2717               		.loc 1 646 21 discriminator 2 view .LVU662
 2718 00f2 6894      		set
 2719 00f4 EE24      		clr r14
 2720 00f6 E4F8      		bld r14,4
 2721 00f8 00C0      		rjmp .L147
 2722               	.L158:
 2723               	.LVL195:
 646:funsape/device/ssd1306.cpp ****             if(!this->_writeData(auxBuffer, chunk)) {
 2724               		.loc 1 646 21 discriminator 2 view .LVU663
 2725               	.LBE33:
 2726               	.LBE31:
 638:funsape/device/ssd1306.cpp ****         if(!this->_setAddress(page, x_p)) {
 2727               		.loc 1 638 5 is_stmt 1 discriminator 1 view .LVU664
 2728 00fa 8F2D      		mov r24,r15
 2729 00fc 8F5F      		subi r24,lo8(-(1))
 2730 00fe F82E      		mov r15,r24
 2731               	.LVL196:
 638:funsape/device/ssd1306.cpp ****         if(!this->_setAddress(page, x_p)) {
 2732               		.loc 1 638 5 is_stmt 0 discriminator 1 view .LVU665
 2733 0100 00C0      		rjmp .L145
 2734               	.LVL197:
 2735               	.L156:
 638:funsape/device/ssd1306.cpp ****         if(!this->_setAddress(page, x_p)) {
 2736               		.loc 1 638 5 discriminator 1 view .LVU666
 2737               	.LBE30:
 657:funsape/device/ssd1306.cpp ****     debugMessage(Error::NONE, Debug::CodeIndex::SSD1306_MODULE);
 2738               		.loc 1 657 5 is_stmt 1 view .LVU667
 657:funsape/device/ssd1306.cpp ****     debugMessage(Error::NONE, Debug::CodeIndex::SSD1306_MODULE);
 2739               		.loc 1 657 22 is_stmt 0 view .LVU668
GAS LISTING /tmp/cckYZbTP.s 			page 74


 2740 0102 F601      		movw r30,r12
 2741 0104 1482      		std Z+4,__zero_reg__
 2742 0106 1382      		std Z+3,__zero_reg__
 658:funsape/device/ssd1306.cpp ****     return true;
 2743               		.loc 1 658 5 is_stmt 1 view .LVU669
 659:funsape/device/ssd1306.cpp **** }
 2744               		.loc 1 659 5 view .LVU670
 659:funsape/device/ssd1306.cpp **** }
 2745               		.loc 1 659 12 is_stmt 0 view .LVU671
 2746 0108 00C0      		rjmp .L135
 2747               	.LVL198:
 2748               	.L154:
 2749               	.LBB36:
 2750               	.LBB35:
 2751               	.LBB34:
 647:funsape/device/ssd1306.cpp ****                 // Returns error
 2752               		.loc 1 647 13 discriminator 1 view .LVU672
 2753 010a A82E      		mov r10,r24
 2754               	.LVL199:
 647:funsape/device/ssd1306.cpp ****                 // Returns error
 2755               		.loc 1 647 13 discriminator 1 view .LVU673
 2756 010c 00C0      		rjmp .L135
 2757               	.LBE34:
 2758               	.LBE35:
 2759               	.LBE36:
 2760               		.cfi_endproc
 2761               	.LFE152:
 2763               		.section	.text._ZN7Ssd13068drawRectEhhhh,"ax",@progbits
 2764               	.global	_ZN7Ssd13068drawRectEhhhh
 2766               	_ZN7Ssd13068drawRectEhhhh:
 2767               	.LVL200:
 2768               	.LFB153:
 663:funsape/device/ssd1306.cpp ****     // Mark passage for debugging purpose
 2769               		.loc 1 663 1 is_stmt 1 view -0
 2770               		.cfi_startproc
 663:funsape/device/ssd1306.cpp ****     // Mark passage for debugging purpose
 2771               		.loc 1 663 1 is_stmt 0 view .LVU675
 2772 0000 8F92      		push r8
 2773               	.LCFI92:
 2774               		.cfi_def_cfa_offset 3
 2775               		.cfi_offset 8, -2
 2776 0002 9F92      		push r9
 2777               	.LCFI93:
 2778               		.cfi_def_cfa_offset 4
 2779               		.cfi_offset 9, -3
 2780 0004 AF92      		push r10
 2781               	.LCFI94:
 2782               		.cfi_def_cfa_offset 5
 2783               		.cfi_offset 10, -4
 2784 0006 BF92      		push r11
 2785               	.LCFI95:
 2786               		.cfi_def_cfa_offset 6
 2787               		.cfi_offset 11, -5
 2788 0008 CF92      		push r12
 2789               	.LCFI96:
 2790               		.cfi_def_cfa_offset 7
 2791               		.cfi_offset 12, -6
GAS LISTING /tmp/cckYZbTP.s 			page 75


 2792 000a DF92      		push r13
 2793               	.LCFI97:
 2794               		.cfi_def_cfa_offset 8
 2795               		.cfi_offset 13, -7
 2796 000c EF92      		push r14
 2797               	.LCFI98:
 2798               		.cfi_def_cfa_offset 9
 2799               		.cfi_offset 14, -8
 2800 000e FF92      		push r15
 2801               	.LCFI99:
 2802               		.cfi_def_cfa_offset 10
 2803               		.cfi_offset 15, -9
 2804 0010 0F93      		push r16
 2805               	.LCFI100:
 2806               		.cfi_def_cfa_offset 11
 2807               		.cfi_offset 16, -10
 2808 0012 1F93      		push r17
 2809               	.LCFI101:
 2810               		.cfi_def_cfa_offset 12
 2811               		.cfi_offset 17, -11
 2812 0014 CF93      		push r28
 2813               	.LCFI102:
 2814               		.cfi_def_cfa_offset 13
 2815               		.cfi_offset 28, -12
 2816 0016 DF93      		push r29
 2817               	.LCFI103:
 2818               		.cfi_def_cfa_offset 14
 2819               		.cfi_offset 29, -13
 2820 0018 CDB7      		in r28,__SP_L__
 2821 001a DEB7      		in r29,__SP_H__
 2822               	.LCFI104:
 2823               		.cfi_def_cfa_register 28
 2824 001c 6097      		sbiw r28,16
 2825               	.LCFI105:
 2826               		.cfi_def_cfa_offset 30
 2827 001e 0FB6      		in __tmp_reg__,__SREG__
 2828 0020 F894      		cli
 2829 0022 DEBF      		out __SP_H__,r29
 2830 0024 0FBE      		out __SREG__,__tmp_reg__
 2831 0026 CDBF      		out __SP_L__,r28
 2832               	/* prologue: function */
 2833               	/* frame size = 16 */
 2834               	/* stack size = 28 */
 2835               	.L__stack_usage = 28
 2836 0028 7C01      		movw r14,r24
 2837 002a D62E      		mov r13,r22
 2838 002c 862E      		mov r8,r22
 2839 002e C42E      		mov r12,r20
 2840 0030 122F      		mov r17,r18
 665:funsape/device/ssd1306.cpp ****             Debug::CodeIndex::SSD1306_MODULE);
 2841               		.loc 1 665 5 is_stmt 1 view .LVU676
 669:funsape/device/ssd1306.cpp ****         // Returns error
 2842               		.loc 1 669 5 view .LVU677
 669:funsape/device/ssd1306.cpp ****         // Returns error
 2843               		.loc 1 669 29 is_stmt 0 view .LVU678
 2844 0032 0E94 0000 		call _ZN7Ssd130614_isInitializedEv
 2845               	.LVL201:
GAS LISTING /tmp/cckYZbTP.s 			page 76


 669:funsape/device/ssd1306.cpp ****         // Returns error
 2846               		.loc 1 669 29 view .LVU679
 2847 0036 982E      		mov r9,r24
 669:funsape/device/ssd1306.cpp ****         // Returns error
 2848               		.loc 1 669 5 discriminator 1 view .LVU680
 2849 0038 8030      		cpi r24,lo8(0)
 2850 003a 01F0      		breq .L159
 674:funsape/device/ssd1306.cpp ****         // Returns error
 2851               		.loc 1 674 5 is_stmt 1 view .LVU681
 2852 003c D114      		cp r13,__zero_reg__
 2853 003e 04F0      		brlt .L162
 674:funsape/device/ssd1306.cpp ****         // Returns error
 2854               		.loc 1 674 55 is_stmt 0 discriminator 1 view .LVU682
 2855 0040 F701      		movw r30,r14
 2856 0042 A780      		ldd r10,Z+7
 674:funsape/device/ssd1306.cpp ****         // Returns error
 2857               		.loc 1 674 35 discriminator 1 view .LVU683
 2858 0044 CA14      		cp r12,r10
 2859 0046 00F4      		brsh .L162
 674:funsape/device/ssd1306.cpp ****         // Returns error
 2860               		.loc 1 674 63 discriminator 2 view .LVU684
 2861 0048 1230      		cpi r17,lo8(2)
 2862 004a 00F0      		brlo .L162
 674:funsape/device/ssd1306.cpp ****         // Returns error
 2863               		.loc 1 674 80 discriminator 3 view .LVU685
 2864 004c 0030      		cpi r16,lo8(0)
 2865 004e 01F0      		breq .L162
 682:funsape/device/ssd1306.cpp ****     uint8_t auxWidth                    = width_p;
 2866               		.loc 1 682 5 is_stmt 1 view .LVU686
 683:funsape/device/ssd1306.cpp ****     uint8_t auxLastPage                 = page_p + heightPages_p;
 2867               		.loc 1 683 5 view .LVU687
 2868               	.LVL202:
 684:funsape/device/ssd1306.cpp **** 
 2869               		.loc 1 684 5 view .LVU688
 684:funsape/device/ssd1306.cpp **** 
 2870               		.loc 1 684 13 is_stmt 0 view .LVU689
 2871 0050 0C0D      		add r16,r12
 2872               	.LVL203:
 686:funsape/device/ssd1306.cpp ****         auxWidth = constSsd1306Width - x_p;
 2873               		.loc 1 686 5 is_stmt 1 view .LVU690
 686:funsape/device/ssd1306.cpp ****         auxWidth = constSsd1306Width - x_p;
 2874               		.loc 1 686 13 is_stmt 0 view .LVU691
 2875 0052 8D2D      		mov r24,r13
 2876 0054 810F      		add r24,r17
 2877 0056 9927      		clr r25
 2878 0058 991F      		rol r25
 686:funsape/device/ssd1306.cpp ****         auxWidth = constSsd1306Width - x_p;
 2879               		.loc 1 686 5 view .LVU692
 2880 005a 8138      		cpi r24,-127
 2881 005c 9040      		sbci r25,0
 2882 005e 04F0      		brlt .L164
 687:funsape/device/ssd1306.cpp ****     }
 2883               		.loc 1 687 9 is_stmt 1 view .LVU693
 687:funsape/device/ssd1306.cpp ****     }
 2884               		.loc 1 687 18 is_stmt 0 view .LVU694
 2885 0060 10E8      		ldi r17,lo8(-128)
 2886               	.LVL204:
GAS LISTING /tmp/cckYZbTP.s 			page 77


 687:funsape/device/ssd1306.cpp ****     }
 2887               		.loc 1 687 18 view .LVU695
 2888 0062 1D19      		sub r17,r13
 2889               	.L164:
 2890               	.LVL205:
 689:funsape/device/ssd1306.cpp ****         auxLastPage = this->_pages;
 2891               		.loc 1 689 5 is_stmt 1 view .LVU696
 2892 0064 A016      		cp r10,r16
 2893 0066 00F0      		brlo .L165
 684:funsape/device/ssd1306.cpp **** 
 2894               		.loc 1 684 13 is_stmt 0 view .LVU697
 2895 0068 A02E      		mov r10,r16
 2896               	.L165:
 2897               	.LVL206:
 694:funsape/device/ssd1306.cpp ****         bool_t auxIsTopPage             = (page == page_p);
 2898               		.loc 1 694 5 is_stmt 1 view .LVU698
 2899               	.LBB37:
 694:funsape/device/ssd1306.cpp ****         bool_t auxIsTopPage             = (page == page_p);
 2900               		.loc 1 694 17 is_stmt 0 view .LVU699
 2901 006a DC2C      		mov r13,r12
 694:funsape/device/ssd1306.cpp ****         bool_t auxIsTopPage             = (page == page_p);
 2902               		.loc 1 694 5 view .LVU700
 2903 006c 00C0      		rjmp .L166
 2904               	.LVL207:
 2905               	.L162:
 694:funsape/device/ssd1306.cpp ****         bool_t auxIsTopPage             = (page == page_p);
 2906               		.loc 1 694 5 view .LVU701
 2907               	.LBE37:
 676:funsape/device/ssd1306.cpp ****         debugMessage(Error::ARGUMENT_VALUE_INVALID, Debug::CodeIndex::SSD1306_MODULE);
 2908               		.loc 1 676 9 is_stmt 1 view .LVU702
 676:funsape/device/ssd1306.cpp ****         debugMessage(Error::ARGUMENT_VALUE_INVALID, Debug::CodeIndex::SSD1306_MODULE);
 2909               		.loc 1 676 26 is_stmt 0 view .LVU703
 2910 006e 82E5      		ldi r24,lo8(82)
 2911 0070 90E0      		ldi r25,0
 2912 0072 F701      		movw r30,r14
 2913 0074 9483      		std Z+4,r25
 2914 0076 8383      		std Z+3,r24
 677:funsape/device/ssd1306.cpp ****         return false;
 2915               		.loc 1 677 9 is_stmt 1 view .LVU704
 678:funsape/device/ssd1306.cpp ****     }
 2916               		.loc 1 678 9 view .LVU705
 678:funsape/device/ssd1306.cpp ****     }
 2917               		.loc 1 678 16 is_stmt 0 view .LVU706
 2918 0078 912C      		mov r9,__zero_reg__
 2919               	.LVL208:
 2920               	.L159:
 739:funsape/device/ssd1306.cpp **** 
 2921               		.loc 1 739 1 view .LVU707
 2922 007a 892D      		mov r24,r9
 2923               	/* epilogue start */
 2924 007c 6096      		adiw r28,16
 2925 007e 0FB6      		in __tmp_reg__,__SREG__
 2926 0080 F894      		cli
 2927 0082 DEBF      		out __SP_H__,r29
 2928 0084 0FBE      		out __SREG__,__tmp_reg__
 2929 0086 CDBF      		out __SP_L__,r28
 2930 0088 DF91      		pop r29
GAS LISTING /tmp/cckYZbTP.s 			page 78


 2931 008a CF91      		pop r28
 2932 008c 1F91      		pop r17
 2933 008e 0F91      		pop r16
 2934 0090 FF90      		pop r15
 2935 0092 EF90      		pop r14
 2936               	.LVL209:
 739:funsape/device/ssd1306.cpp **** 
 2937               		.loc 1 739 1 view .LVU708
 2938 0094 DF90      		pop r13
 2939 0096 CF90      		pop r12
 2940               	.LVL210:
 739:funsape/device/ssd1306.cpp **** 
 2941               		.loc 1 739 1 view .LVU709
 2942 0098 BF90      		pop r11
 2943 009a AF90      		pop r10
 2944 009c 9F90      		pop r9
 2945 009e 8F90      		pop r8
 2946               	.LVL211:
 739:funsape/device/ssd1306.cpp **** 
 2947               		.loc 1 739 1 view .LVU710
 2948 00a0 0895      		ret
 2949               	.LVL212:
 2950               	.L186:
 2951               	.LBB47:
 2952               	.LBB38:
 702:funsape/device/ssd1306.cpp ****         }
 2953               		.loc 1 702 20 view .LVU711
 2954 00a2 982E      		mov r9,r24
 2955 00a4 00C0      		rjmp .L159
 2956               	.LVL213:
 2957               	.L168:
 2958               	.LBB39:
 2959               	.LBB40:
 707:funsape/device/ssd1306.cpp ****             } else {
 2960               		.loc 1 707 41 view .LVU712
 2961 00a6 9FEF      		ldi r25,lo8(-1)
 2962               	.LVL214:
 2963               	.L170:
 716:funsape/device/ssd1306.cpp ****             if(auxIndex == constSsd1306DataChunk) {
 2964               		.loc 1 716 13 is_stmt 1 view .LVU713
 716:funsape/device/ssd1306.cpp ****             if(auxIndex == constSsd1306DataChunk) {
 2965               		.loc 1 716 31 is_stmt 0 view .LVU714
 2966 00a8 482F      		mov r20,r24
 2967 00aa 4F5F      		subi r20,lo8(-(1))
 2968               	.LVL215:
 716:funsape/device/ssd1306.cpp ****             if(auxIndex == constSsd1306DataChunk) {
 2969               		.loc 1 716 41 view .LVU715
 2970 00ac FE01      		movw r30,r28
 2971 00ae 3196      		adiw r30,1
 2972 00b0 E80F      		add r30,r24
 2973 00b2 F11D      		adc r31,__zero_reg__
 2974 00b4 9083      		st Z,r25
 717:funsape/device/ssd1306.cpp ****                 if(!this->_writeData(auxBuffer, auxIndex)) {
 2975               		.loc 1 717 13 is_stmt 1 view .LVU716
 2976 00b6 8F30      		cpi r24,lo8(15)
 2977 00b8 01F0      		breq .L182
 2978               	.LVL216:
GAS LISTING /tmp/cckYZbTP.s 			page 79


 2979               	.L172:
 717:funsape/device/ssd1306.cpp ****                 if(!this->_writeData(auxBuffer, auxIndex)) {
 2980               		.loc 1 717 13 is_stmt 0 view .LVU717
 2981               	.LBE40:
 704:funsape/device/ssd1306.cpp ****             uint8_t auxByte             = 0x00;
 2982               		.loc 1 704 9 is_stmt 1 discriminator 1 view .LVU718
 2983 00ba 0F5F      		subi r16,lo8(-(1))
 2984               	.LVL217:
 704:funsape/device/ssd1306.cpp ****             uint8_t auxByte             = 0x00;
 2985               		.loc 1 704 9 is_stmt 0 discriminator 1 view .LVU719
 2986 00bc 842F      		mov r24,r20
 2987               	.LVL218:
 2988               	.L167:
 704:funsape/device/ssd1306.cpp ****             uint8_t auxByte             = 0x00;
 2989               		.loc 1 704 30 is_stmt 1 discriminator 2 view .LVU720
 2990 00be 0117      		cp r16,r17
 2991 00c0 00F4      		brsh .L183
 2992               	.LBB41:
 705:funsape/device/ssd1306.cpp ****             if((i == 0) || (i == (uint8_t)(auxWidth - 1))) {
 2993               		.loc 1 705 13 view .LVU721
 2994               	.LVL219:
 706:funsape/device/ssd1306.cpp ****                 auxByte                 = 0xFF;                 // left / right side
 2995               		.loc 1 706 13 view .LVU722
 2996 00c2 0030      		cpi r16,lo8(0)
 2997 00c4 01F0      		breq .L168
 706:funsape/device/ssd1306.cpp ****                 auxByte                 = 0xFF;                 // left / right side
 2998               		.loc 1 706 53 is_stmt 0 discriminator 1 view .LVU723
 2999 00c6 912F      		mov r25,r17
 3000 00c8 9150      		subi r25,lo8(-(-1))
 706:funsape/device/ssd1306.cpp ****                 auxByte                 = 0xFF;                 // left / right side
 3001               		.loc 1 706 25 discriminator 1 view .LVU724
 3002 00ca 9017      		cp r25,r16
 3003 00cc 01F0      		breq .L168
 709:funsape/device/ssd1306.cpp ****                     auxByte             |= 0x01;                // top edge
 3004               		.loc 1 709 17 is_stmt 1 view .LVU725
 3005 00ce DC14      		cp r13,r12
 3006 00d0 01F0      		breq .L178
 705:funsape/device/ssd1306.cpp ****             if((i == 0) || (i == (uint8_t)(auxWidth - 1))) {
 3007               		.loc 1 705 21 is_stmt 0 view .LVU726
 3008 00d2 90E0      		ldi r25,0
 3009               	.L171:
 3010               	.LVL220:
 712:funsape/device/ssd1306.cpp ****                     auxByte             |= 0x80;                // bottom edge
 3011               		.loc 1 712 17 is_stmt 1 view .LVU727
 3012 00d4 BD10      		cpse r11,r13
 3013 00d6 00C0      		rjmp .L170
 713:funsape/device/ssd1306.cpp ****                 }
 3014               		.loc 1 713 21 view .LVU728
 713:funsape/device/ssd1306.cpp ****                 }
 3015               		.loc 1 713 41 is_stmt 0 view .LVU729
 3016 00d8 9068      		ori r25,lo8(-128)
 3017               	.LVL221:
 713:funsape/device/ssd1306.cpp ****                 }
 3018               		.loc 1 713 41 view .LVU730
 3019 00da 00C0      		rjmp .L170
 3020               	.LVL222:
 3021               	.L178:
GAS LISTING /tmp/cckYZbTP.s 			page 80


 710:funsape/device/ssd1306.cpp ****                 }
 3022               		.loc 1 710 41 view .LVU731
 3023 00dc 91E0      		ldi r25,lo8(1)
 3024 00de 00C0      		rjmp .L171
 3025               	.LVL223:
 3026               	.L182:
 718:funsape/device/ssd1306.cpp ****                     // Returns error
 3027               		.loc 1 718 17 is_stmt 1 view .LVU732
 718:funsape/device/ssd1306.cpp ****                     // Returns error
 3028               		.loc 1 718 37 is_stmt 0 view .LVU733
 3029 00e0 BE01      		movw r22,r28
 3030 00e2 6F5F      		subi r22,-1
 3031 00e4 7F4F      		sbci r23,-1
 3032 00e6 C701      		movw r24,r14
 3033 00e8 0E94 0000 		call _ZN7Ssd130610_writeDataEPKhh
 3034               	.LVL224:
 718:funsape/device/ssd1306.cpp ****                     // Returns error
 3035               		.loc 1 718 17 discriminator 1 view .LVU734
 3036 00ec 8030      		cpi r24,lo8(0)
 3037 00ee 01F0      		breq .L179
 723:funsape/device/ssd1306.cpp ****             }
 3038               		.loc 1 723 41 view .LVU735
 3039 00f0 40E0      		ldi r20,0
 3040 00f2 00C0      		rjmp .L172
 3041               	.LVL225:
 3042               	.L183:
 723:funsape/device/ssd1306.cpp ****             }
 3043               		.loc 1 723 41 view .LVU736
 3044               	.LBE41:
 3045               	.LBE39:
 726:funsape/device/ssd1306.cpp ****             if(!this->_writeData(auxBuffer, auxIndex)) {
 3046               		.loc 1 726 9 is_stmt 1 view .LVU737
 3047 00f4 8111      		cpse r24,__zero_reg__
 3048 00f6 00C0      		rjmp .L184
 3049               	.LVL226:
 3050               	.L174:
 726:funsape/device/ssd1306.cpp ****             if(!this->_writeData(auxBuffer, auxIndex)) {
 3051               		.loc 1 726 9 is_stmt 0 view .LVU738
 3052               	.LBE38:
 694:funsape/device/ssd1306.cpp ****         bool_t auxIsTopPage             = (page == page_p);
 3053               		.loc 1 694 5 is_stmt 1 discriminator 1 view .LVU739
 3054 00f8 D394      		inc r13
 3055               	.LVL227:
 3056               	.L166:
 694:funsape/device/ssd1306.cpp ****         bool_t auxIsTopPage             = (page == page_p);
 3057               		.loc 1 694 37 discriminator 2 view .LVU740
 3058 00fa DA14      		cp r13,r10
 3059 00fc 00F4      		brsh .L185
 3060               	.LBB45:
 695:funsape/device/ssd1306.cpp ****         bool_t auxIsBottomPage          = (page == (uint8_t)(auxLastPage - 1));
 3061               		.loc 1 695 9 view .LVU741
 3062               	.LVL228:
 696:funsape/device/ssd1306.cpp ****         uint8_t auxIndex                = 0;
 3063               		.loc 1 696 9 view .LVU742
 696:funsape/device/ssd1306.cpp ****         uint8_t auxIndex                = 0;
 3064               		.loc 1 696 74 is_stmt 0 view .LVU743
 3065 00fe BA2C      		mov r11,r10
GAS LISTING /tmp/cckYZbTP.s 			page 81


 3066 0100 BA94      		dec r11
 3067               	.LVL229:
 697:funsape/device/ssd1306.cpp **** 
 3068               		.loc 1 697 9 is_stmt 1 view .LVU744
 699:funsape/device/ssd1306.cpp ****             // Returns error
 3069               		.loc 1 699 9 view .LVU745
 699:funsape/device/ssd1306.cpp ****             // Returns error
 3070               		.loc 1 699 30 is_stmt 0 view .LVU746
 3071 0102 482D      		mov r20,r8
 3072 0104 6D2D      		mov r22,r13
 3073 0106 C701      		movw r24,r14
 3074 0108 0E94 0000 		call _ZN7Ssd130611_setAddressEhh
 3075               	.LVL230:
 699:funsape/device/ssd1306.cpp ****             // Returns error
 3076               		.loc 1 699 9 discriminator 1 view .LVU747
 3077 010c 8030      		cpi r24,lo8(0)
 3078 010e 01F0      		breq .L186
 3079               	.LBB43:
 704:funsape/device/ssd1306.cpp ****             uint8_t auxByte             = 0x00;
 3080               		.loc 1 704 21 view .LVU748
 3081 0110 00E0      		ldi r16,0
 3082               	.LBE43:
 697:funsape/device/ssd1306.cpp **** 
 3083               		.loc 1 697 17 view .LVU749
 3084 0112 80E0      		ldi r24,0
 3085 0114 00C0      		rjmp .L167
 3086               	.LVL231:
 3087               	.L184:
 727:funsape/device/ssd1306.cpp ****                 // Returns error
 3088               		.loc 1 727 13 is_stmt 1 view .LVU750
 727:funsape/device/ssd1306.cpp ****                 // Returns error
 3089               		.loc 1 727 33 is_stmt 0 view .LVU751
 3090 0116 482F      		mov r20,r24
 3091 0118 BE01      		movw r22,r28
 3092 011a 6F5F      		subi r22,-1
 3093 011c 7F4F      		sbci r23,-1
 3094 011e C701      		movw r24,r14
 3095               	.LVL232:
 727:funsape/device/ssd1306.cpp ****                 // Returns error
 3096               		.loc 1 727 33 view .LVU752
 3097 0120 0E94 0000 		call _ZN7Ssd130610_writeDataEPKhh
 3098               	.LVL233:
 727:funsape/device/ssd1306.cpp ****                 // Returns error
 3099               		.loc 1 727 13 discriminator 1 view .LVU753
 3100 0124 8111      		cpse r24,__zero_reg__
 3101 0126 00C0      		rjmp .L174
 730:funsape/device/ssd1306.cpp ****             }
 3102               		.loc 1 730 24 view .LVU754
 3103 0128 982E      		mov r9,r24
 3104 012a 00C0      		rjmp .L159
 3105               	.LVL234:
 3106               	.L185:
 730:funsape/device/ssd1306.cpp ****             }
 3107               		.loc 1 730 24 view .LVU755
 3108               	.LBE45:
 3109               	.LBE47:
 736:funsape/device/ssd1306.cpp ****     debugMessage(Error::NONE, Debug::CodeIndex::SSD1306_MODULE);
GAS LISTING /tmp/cckYZbTP.s 			page 82


 3110               		.loc 1 736 5 is_stmt 1 view .LVU756
 736:funsape/device/ssd1306.cpp ****     debugMessage(Error::NONE, Debug::CodeIndex::SSD1306_MODULE);
 3111               		.loc 1 736 22 is_stmt 0 view .LVU757
 3112 012c F701      		movw r30,r14
 3113 012e 1482      		std Z+4,__zero_reg__
 3114 0130 1382      		std Z+3,__zero_reg__
 737:funsape/device/ssd1306.cpp ****     return true;
 3115               		.loc 1 737 5 is_stmt 1 view .LVU758
 738:funsape/device/ssd1306.cpp **** }
 3116               		.loc 1 738 5 view .LVU759
 738:funsape/device/ssd1306.cpp **** }
 3117               		.loc 1 738 12 is_stmt 0 view .LVU760
 3118 0132 00C0      		rjmp .L159
 3119               	.LVL235:
 3120               	.L179:
 3121               	.LBB48:
 3122               	.LBB46:
 3123               	.LBB44:
 3124               	.LBB42:
 721:funsape/device/ssd1306.cpp ****                 }
 3125               		.loc 1 721 28 view .LVU761
 3126 0134 982E      		mov r9,r24
 3127 0136 00C0      		rjmp .L159
 3128               	.LBE42:
 3129               	.LBE44:
 3130               	.LBE46:
 3131               	.LBE48:
 3132               		.cfi_endproc
 3133               	.LFE153:
 3135               		.section	.text._ZN7Ssd13069drawHLineEhhh,"ax",@progbits
 3136               	.global	_ZN7Ssd13069drawHLineEhhh
 3138               	_ZN7Ssd13069drawHLineEhhh:
 3139               	.LVL236:
 3140               	.LFB154:
 742:funsape/device/ssd1306.cpp ****     // Mark passage for debugging purpose
 3141               		.loc 1 742 1 is_stmt 1 view -0
 3142               		.cfi_startproc
 742:funsape/device/ssd1306.cpp ****     // Mark passage for debugging purpose
 3143               		.loc 1 742 1 is_stmt 0 view .LVU763
 3144 0000 CF92      		push r12
 3145               	.LCFI106:
 3146               		.cfi_def_cfa_offset 3
 3147               		.cfi_offset 12, -2
 3148 0002 DF92      		push r13
 3149               	.LCFI107:
 3150               		.cfi_def_cfa_offset 4
 3151               		.cfi_offset 13, -3
 3152 0004 EF92      		push r14
 3153               	.LCFI108:
 3154               		.cfi_def_cfa_offset 5
 3155               		.cfi_offset 14, -4
 3156 0006 FF92      		push r15
 3157               	.LCFI109:
 3158               		.cfi_def_cfa_offset 6
 3159               		.cfi_offset 15, -5
 3160 0008 0F93      		push r16
 3161               	.LCFI110:
GAS LISTING /tmp/cckYZbTP.s 			page 83


 3162               		.cfi_def_cfa_offset 7
 3163               		.cfi_offset 16, -6
 3164 000a 1F93      		push r17
 3165               	.LCFI111:
 3166               		.cfi_def_cfa_offset 8
 3167               		.cfi_offset 17, -7
 3168 000c CF93      		push r28
 3169               	.LCFI112:
 3170               		.cfi_def_cfa_offset 9
 3171               		.cfi_offset 28, -8
 3172 000e DF93      		push r29
 3173               	.LCFI113:
 3174               		.cfi_def_cfa_offset 10
 3175               		.cfi_offset 29, -9
 3176 0010 CDB7      		in r28,__SP_L__
 3177 0012 DEB7      		in r29,__SP_H__
 3178               	.LCFI114:
 3179               		.cfi_def_cfa_register 28
 3180 0014 6097      		sbiw r28,16
 3181               	.LCFI115:
 3182               		.cfi_def_cfa_offset 26
 3183 0016 0FB6      		in __tmp_reg__,__SREG__
 3184 0018 F894      		cli
 3185 001a DEBF      		out __SP_H__,r29
 3186 001c 0FBE      		out __SREG__,__tmp_reg__
 3187 001e CDBF      		out __SP_L__,r28
 3188               	/* prologue: function */
 3189               	/* frame size = 16 */
 3190               	/* stack size = 24 */
 3191               	.L__stack_usage = 24
 3192 0020 7C01      		movw r14,r24
 3193 0022 062F      		mov r16,r22
 3194 0024 D42E      		mov r13,r20
 3195 0026 122F      		mov r17,r18
 744:funsape/device/ssd1306.cpp **** 
 3196               		.loc 1 744 5 is_stmt 1 view .LVU764
 747:funsape/device/ssd1306.cpp ****         // Returns error
 3197               		.loc 1 747 5 view .LVU765
 747:funsape/device/ssd1306.cpp ****         // Returns error
 3198               		.loc 1 747 29 is_stmt 0 view .LVU766
 3199 0028 0E94 0000 		call _ZN7Ssd130614_isInitializedEv
 3200               	.LVL237:
 747:funsape/device/ssd1306.cpp ****         // Returns error
 3201               		.loc 1 747 29 view .LVU767
 3202 002c C82E      		mov r12,r24
 747:funsape/device/ssd1306.cpp ****         // Returns error
 3203               		.loc 1 747 5 discriminator 1 view .LVU768
 3204 002e 8030      		cpi r24,lo8(0)
 3205 0030 01F0      		breq .L187
 752:funsape/device/ssd1306.cpp ****         // Returns error
 3206               		.loc 1 752 5 is_stmt 1 view .LVU769
 3207 0032 0030      		cpi r16,lo8(0)
 3208 0034 04F0      		brlt .L189
 752:funsape/device/ssd1306.cpp ****         // Returns error
 3209               		.loc 1 752 62 is_stmt 0 discriminator 1 view .LVU770
 3210 0036 F701      		movw r30,r14
 3211 0038 8781      		ldd r24,Z+7
GAS LISTING /tmp/cckYZbTP.s 			page 84


 752:funsape/device/ssd1306.cpp ****         // Returns error
 3212               		.loc 1 752 43 discriminator 1 view .LVU771
 3213 003a 880F      		lsl r24
 3214 003c 880F      		lsl r24
 3215 003e 880F      		lsl r24
 752:funsape/device/ssd1306.cpp ****         // Returns error
 3216               		.loc 1 752 35 discriminator 1 view .LVU772
 3217 0040 D816      		cp r13,r24
 3218 0042 00F4      		brsh .L189
 752:funsape/device/ssd1306.cpp ****         // Returns error
 3219               		.loc 1 752 75 discriminator 2 view .LVU773
 3220 0044 1030      		cpi r17,lo8(0)
 3221 0046 01F0      		breq .L189
 760:funsape/device/ssd1306.cpp ****     uint8_t auxMask                     = (1 << (y_p % 8));
 3222               		.loc 1 760 5 is_stmt 1 view .LVU774
 761:funsape/device/ssd1306.cpp ****     uint8_t auxWidth                    = width_p;
 3223               		.loc 1 761 5 view .LVU775
 761:funsape/device/ssd1306.cpp ****     uint8_t auxWidth                    = width_p;
 3224               		.loc 1 761 13 is_stmt 0 view .LVU776
 3225 0048 91E0      		ldi r25,lo8(1)
 3226 004a 8D2D      		mov r24,r13
 3227 004c 8770      		andi r24,lo8(7)
 3228 004e 00C0      		rjmp 2f
 3229               		1:
 3230 0050 990F      		lsl r25
 3231               		2:
 3232 0052 8A95      		dec r24
 3233 0054 02F4      		brpl 1b
 3234               	.LVL238:
 762:funsape/device/ssd1306.cpp **** 
 3235               		.loc 1 762 5 is_stmt 1 view .LVU777
 764:funsape/device/ssd1306.cpp ****         auxWidth = constSsd1306Width - x_p;
 3236               		.loc 1 764 5 view .LVU778
 764:funsape/device/ssd1306.cpp ****         auxWidth = constSsd1306Width - x_p;
 3237               		.loc 1 764 13 is_stmt 0 view .LVU779
 3238 0056 202F      		mov r18,r16
 3239 0058 210F      		add r18,r17
 3240 005a 3327      		clr r19
 3241 005c 331F      		rol r19
 764:funsape/device/ssd1306.cpp ****         auxWidth = constSsd1306Width - x_p;
 3242               		.loc 1 764 5 view .LVU780
 3243 005e 2138      		cpi r18,-127
 3244 0060 3040      		sbci r19,0
 3245 0062 04F0      		brlt .L191
 765:funsape/device/ssd1306.cpp ****     }
 3246               		.loc 1 765 9 is_stmt 1 view .LVU781
 765:funsape/device/ssd1306.cpp ****     }
 3247               		.loc 1 765 18 is_stmt 0 view .LVU782
 3248 0064 10E8      		ldi r17,lo8(-128)
 3249               	.LVL239:
 765:funsape/device/ssd1306.cpp ****     }
 3250               		.loc 1 765 18 view .LVU783
 3251 0066 101B      		sub r17,r16
 3252               	.L191:
 3253               	.LVL240:
 767:funsape/device/ssd1306.cpp ****         auxBuffer[i] = auxMask;
 3254               		.loc 1 767 5 is_stmt 1 view .LVU784
GAS LISTING /tmp/cckYZbTP.s 			page 85


 3255               	.LBB49:
 767:funsape/device/ssd1306.cpp ****         auxBuffer[i] = auxMask;
 3256               		.loc 1 767 17 is_stmt 0 view .LVU785
 3257 0068 80E0      		ldi r24,0
 767:funsape/device/ssd1306.cpp ****         auxBuffer[i] = auxMask;
 3258               		.loc 1 767 5 view .LVU786
 3259 006a 00C0      		rjmp .L192
 3260               	.LVL241:
 3261               	.L189:
 767:funsape/device/ssd1306.cpp ****         auxBuffer[i] = auxMask;
 3262               		.loc 1 767 5 view .LVU787
 3263               	.LBE49:
 754:funsape/device/ssd1306.cpp ****         debugMessage(Error::ARGUMENT_VALUE_INVALID, Debug::CodeIndex::SSD1306_MODULE);
 3264               		.loc 1 754 9 is_stmt 1 view .LVU788
 754:funsape/device/ssd1306.cpp ****         debugMessage(Error::ARGUMENT_VALUE_INVALID, Debug::CodeIndex::SSD1306_MODULE);
 3265               		.loc 1 754 26 is_stmt 0 view .LVU789
 3266 006c 82E5      		ldi r24,lo8(82)
 3267 006e 90E0      		ldi r25,0
 3268 0070 F701      		movw r30,r14
 3269 0072 9483      		std Z+4,r25
 3270 0074 8383      		std Z+3,r24
 755:funsape/device/ssd1306.cpp ****         return false;
 3271               		.loc 1 755 9 is_stmt 1 view .LVU790
 756:funsape/device/ssd1306.cpp ****     }
 3272               		.loc 1 756 9 view .LVU791
 756:funsape/device/ssd1306.cpp ****     }
 3273               		.loc 1 756 16 is_stmt 0 view .LVU792
 3274 0076 C12C      		mov r12,__zero_reg__
 3275               	.LVL242:
 3276               	.L187:
 792:funsape/device/ssd1306.cpp **** 
 3277               		.loc 1 792 1 view .LVU793
 3278 0078 8C2D      		mov r24,r12
 3279               	/* epilogue start */
 3280 007a 6096      		adiw r28,16
 3281 007c 0FB6      		in __tmp_reg__,__SREG__
 3282 007e F894      		cli
 3283 0080 DEBF      		out __SP_H__,r29
 3284 0082 0FBE      		out __SREG__,__tmp_reg__
 3285 0084 CDBF      		out __SP_L__,r28
 3286 0086 DF91      		pop r29
 3287 0088 CF91      		pop r28
 3288 008a 1F91      		pop r17
 3289 008c 0F91      		pop r16
 3290 008e FF90      		pop r15
 3291 0090 EF90      		pop r14
 3292               	.LVL243:
 792:funsape/device/ssd1306.cpp **** 
 3293               		.loc 1 792 1 view .LVU794
 3294 0092 DF90      		pop r13
 3295               	.LVL244:
 792:funsape/device/ssd1306.cpp **** 
 3296               		.loc 1 792 1 view .LVU795
 3297 0094 CF90      		pop r12
 3298 0096 0895      		ret
 3299               	.LVL245:
 3300               	.L193:
