GAS LISTING /tmp/cc7wpQ70.s 			page 1


   1               		.file	"ssd1306.cpp"
   2               	__SP_H__ = 0x3e
   3               	__SP_L__ = 0x3d
   4               	__SREG__ = 0x3f
   5               	__tmp_reg__ = 0
   6               	__zero_reg__ = 1
   7               		.text
   8               	.Ltext0:
   9               		.cfi_sections	.debug_frame
  10               		.file 1 "funsape/device/ssd1306.cpp"
  11               		.section	.text._ZN7Ssd1306C2Ev,"ax",@progbits
  12               	.global	_ZN7Ssd1306C2Ev
  14               	_ZN7Ssd1306C2Ev:
  15               	.LVL0:
  16               	.LFB136:
   1:funsape/device/ssd1306.cpp **** //!
   2:funsape/device/ssd1306.cpp **** //! \file           ssd1306.cpp
   3:funsape/device/ssd1306.cpp **** //! \brief          SSD1306 OLED (I2C) module interface for the FunSAPE AVR8 Library
   4:funsape/device/ssd1306.cpp **** //! \author         Franko
   5:funsape/device/ssd1306.cpp **** //! \date           2026-07-13
   6:funsape/device/ssd1306.cpp **** //! \version        24.07
   7:funsape/device/ssd1306.cpp **** //! \copyright      license
   8:funsape/device/ssd1306.cpp **** //! \details        Text-oriented driver for the SSD1306 128x64 / 128x32 OLED
   9:funsape/device/ssd1306.cpp **** //!                     display over I2C (TWI), using direct GDDRAM writes (no
  10:funsape/device/ssd1306.cpp **** //!                     framebuffer). See header for feature limitations.
  11:funsape/device/ssd1306.cpp **** //! \todo           Todo list
  12:funsape/device/ssd1306.cpp **** //!
  13:funsape/device/ssd1306.cpp **** 
  14:funsape/device/ssd1306.cpp **** // =============================================================================
  15:funsape/device/ssd1306.cpp **** // System file dependencies
  16:funsape/device/ssd1306.cpp **** // =============================================================================
  17:funsape/device/ssd1306.cpp **** 
  18:funsape/device/ssd1306.cpp **** #include "ssd1306.hpp"
  19:funsape/device/ssd1306.cpp **** #if !defined(__SSD1306_HPP)
  20:funsape/device/ssd1306.cpp **** #   error "Header file is corrupted!"
  21:funsape/device/ssd1306.cpp **** #elif __SSD1306_HPP != 2604
  22:funsape/device/ssd1306.cpp **** #   error "Version mismatch between source and header files!"
  23:funsape/device/ssd1306.cpp **** #endif
  24:funsape/device/ssd1306.cpp **** 
  25:funsape/device/ssd1306.cpp **** #include <stdio.h>
  26:funsape/device/ssd1306.cpp **** #include <avr/pgmspace.h>
  27:funsape/device/ssd1306.cpp **** 
  28:funsape/device/ssd1306.cpp **** // =============================================================================
  29:funsape/device/ssd1306.cpp **** // File exclusive - Constants
  30:funsape/device/ssd1306.cpp **** // =============================================================================
  31:funsape/device/ssd1306.cpp **** 
  32:funsape/device/ssd1306.cpp **** //     ////////////////////     I2C CONTROL BYTES     ///////////////////     //
  33:funsape/device/ssd1306.cpp **** 
  34:funsape/device/ssd1306.cpp **** #define SSD1306_CONTROL_COMMAND         0x00
  35:funsape/device/ssd1306.cpp **** #define SSD1306_CONTROL_DATA            0x40
  36:funsape/device/ssd1306.cpp **** 
  37:funsape/device/ssd1306.cpp **** //     //////////////////////     COMMAND SET     //////////////////////     //
  38:funsape/device/ssd1306.cpp **** 
  39:funsape/device/ssd1306.cpp **** #define SSD1306_SET_CONTRAST            0x81
  40:funsape/device/ssd1306.cpp **** #define SSD1306_DISPLAY_ALL_ON_RESUME   0xA4
  41:funsape/device/ssd1306.cpp **** #define SSD1306_NORMAL_DISPLAY          0xA6
  42:funsape/device/ssd1306.cpp **** #define SSD1306_INVERT_DISPLAY          0xA7
GAS LISTING /tmp/cc7wpQ70.s 			page 2


  43:funsape/device/ssd1306.cpp **** #define SSD1306_DISPLAY_OFF             0xAE
  44:funsape/device/ssd1306.cpp **** #define SSD1306_DISPLAY_ON              0xAF
  45:funsape/device/ssd1306.cpp **** #define SSD1306_SET_DISPLAY_OFFSET      0xD3
  46:funsape/device/ssd1306.cpp **** #define SSD1306_SET_COM_PINS            0xDA
  47:funsape/device/ssd1306.cpp **** #define SSD1306_SET_VCOM_DETECT         0xDB
  48:funsape/device/ssd1306.cpp **** #define SSD1306_SET_DISPLAY_CLOCK_DIV   0xD5
  49:funsape/device/ssd1306.cpp **** #define SSD1306_SET_PRECHARGE           0xD9
  50:funsape/device/ssd1306.cpp **** #define SSD1306_SET_MULTIPLEX           0xA8
  51:funsape/device/ssd1306.cpp **** #define SSD1306_SET_LOW_COLUMN          0x00
  52:funsape/device/ssd1306.cpp **** #define SSD1306_SET_HIGH_COLUMN         0x10
  53:funsape/device/ssd1306.cpp **** #define SSD1306_SET_START_LINE          0x40
  54:funsape/device/ssd1306.cpp **** #define SSD1306_MEMORY_MODE             0x20
  55:funsape/device/ssd1306.cpp **** #define SSD1306_SET_PAGE_ADDRESS        0xB0
  56:funsape/device/ssd1306.cpp **** #define SSD1306_COM_SCAN_INC            0xC0
  57:funsape/device/ssd1306.cpp **** #define SSD1306_COM_SCAN_DEC            0xC8
  58:funsape/device/ssd1306.cpp **** #define SSD1306_SEG_REMAP               0xA0
  59:funsape/device/ssd1306.cpp **** #define SSD1306_CHARGE_PUMP             0x8D
  60:funsape/device/ssd1306.cpp **** 
  61:funsape/device/ssd1306.cpp **** //     ////////////////////     DRIVER CONSTANTS     ///////////////////     //
  62:funsape/device/ssd1306.cpp **** 
  63:funsape/device/ssd1306.cpp **** cuint8_t constSsd1306Width              = 128;      // display width in pixels
  64:funsape/device/ssd1306.cpp **** cuint8_t constSsd1306CellWidth          = 6;        // 5 glyph columns + 1 spacing
  65:funsape/device/ssd1306.cpp **** cuint8_t constSsd1306FontFirst          = 0x20;     // first supported ASCII char
  66:funsape/device/ssd1306.cpp **** cuint8_t constSsd1306FontLast           = 0x7E;     // last supported ASCII char
  67:funsape/device/ssd1306.cpp **** cuint8_t constSsd1306DataChunk          = 16;       // max data bytes per TWI write
  68:funsape/device/ssd1306.cpp **** cuint8_t constSsd1306TextSizeMax        = 4;        // max text scale factor
  69:funsape/device/ssd1306.cpp **** 
  70:funsape/device/ssd1306.cpp **** // =============================================================================
  71:funsape/device/ssd1306.cpp **** // File exclusive - New data types
  72:funsape/device/ssd1306.cpp **** // =============================================================================
  73:funsape/device/ssd1306.cpp **** 
  74:funsape/device/ssd1306.cpp **** // NONE
  75:funsape/device/ssd1306.cpp **** 
  76:funsape/device/ssd1306.cpp **** // =============================================================================
  77:funsape/device/ssd1306.cpp **** // Static function declarations
  78:funsape/device/ssd1306.cpp **** // =============================================================================
  79:funsape/device/ssd1306.cpp **** 
  80:funsape/device/ssd1306.cpp **** static int ssd1306WriteStd(char character_p, FILE *stream_p);
  81:funsape/device/ssd1306.cpp **** 
  82:funsape/device/ssd1306.cpp **** // =============================================================================
  83:funsape/device/ssd1306.cpp **** // File exclusive - Global variables
  84:funsape/device/ssd1306.cpp **** // =============================================================================
  85:funsape/device/ssd1306.cpp **** 
  86:funsape/device/ssd1306.cpp **** //     ////////////////     POWER-ON COMMAND SEQUENCE     ///////////////     //
  87:funsape/device/ssd1306.cpp **** //     Size-dependent commands (multiplex and COM pins) are sent separately.
  88:funsape/device/ssd1306.cpp **** 
  89:funsape/device/ssd1306.cpp **** static const uint8_t constSsd1306InitSequence[] PROGMEM = {
  90:funsape/device/ssd1306.cpp ****     SSD1306_DISPLAY_OFF,
  91:funsape/device/ssd1306.cpp ****     SSD1306_SET_DISPLAY_CLOCK_DIV,      0x80,
  92:funsape/device/ssd1306.cpp ****     SSD1306_SET_DISPLAY_OFFSET,         0x00,
  93:funsape/device/ssd1306.cpp ****     SSD1306_SET_START_LINE |            0x00,
  94:funsape/device/ssd1306.cpp ****     SSD1306_CHARGE_PUMP,                0x14,
  95:funsape/device/ssd1306.cpp ****     SSD1306_MEMORY_MODE,                0x02,       // page addressing mode
  96:funsape/device/ssd1306.cpp ****     SSD1306_SEG_REMAP |                 0x01,
  97:funsape/device/ssd1306.cpp ****     SSD1306_COM_SCAN_DEC,
  98:funsape/device/ssd1306.cpp ****     SSD1306_SET_PRECHARGE,              0xF1,
  99:funsape/device/ssd1306.cpp ****     SSD1306_SET_VCOM_DETECT,            0x40,
GAS LISTING /tmp/cc7wpQ70.s 			page 3


 100:funsape/device/ssd1306.cpp ****     SSD1306_DISPLAY_ALL_ON_RESUME,
 101:funsape/device/ssd1306.cpp ****     SSD1306_NORMAL_DISPLAY,
 102:funsape/device/ssd1306.cpp **** };
 103:funsape/device/ssd1306.cpp **** 
 104:funsape/device/ssd1306.cpp **** //     /////////////////////     5x7 ASCII FONT     ////////////////////     //
 105:funsape/device/ssd1306.cpp **** //     Column-major, 5 columns per glyph, bit 0 = top row. Covers 0x20-0x7E.
 106:funsape/device/ssd1306.cpp **** 
 107:funsape/device/ssd1306.cpp **** static const uint8_t constSsd1306Font[][5] PROGMEM = {
 108:funsape/device/ssd1306.cpp ****     {0x00, 0x00, 0x00, 0x00, 0x00},     // 0x20 ' '
 109:funsape/device/ssd1306.cpp ****     {0x00, 0x00, 0x5F, 0x00, 0x00},     // 0x21 '!'
 110:funsape/device/ssd1306.cpp ****     {0x00, 0x07, 0x00, 0x07, 0x00},     // 0x22 '"'
 111:funsape/device/ssd1306.cpp ****     {0x14, 0x7F, 0x14, 0x7F, 0x14},     // 0x23 '#'
 112:funsape/device/ssd1306.cpp ****     {0x24, 0x2A, 0x7F, 0x2A, 0x12},     // 0x24 '$'
 113:funsape/device/ssd1306.cpp ****     {0x23, 0x13, 0x08, 0x64, 0x62},     // 0x25 '%'
 114:funsape/device/ssd1306.cpp ****     {0x36, 0x49, 0x55, 0x22, 0x50},     // 0x26 '&'
 115:funsape/device/ssd1306.cpp ****     {0x00, 0x05, 0x03, 0x00, 0x00},     // 0x27 '''
 116:funsape/device/ssd1306.cpp ****     {0x00, 0x1C, 0x22, 0x41, 0x00},     // 0x28 '('
 117:funsape/device/ssd1306.cpp ****     {0x00, 0x41, 0x22, 0x1C, 0x00},     // 0x29 ')'
 118:funsape/device/ssd1306.cpp ****     {0x14, 0x08, 0x3E, 0x08, 0x14},     // 0x2A '*'
 119:funsape/device/ssd1306.cpp ****     {0x08, 0x08, 0x3E, 0x08, 0x08},     // 0x2B '+'
 120:funsape/device/ssd1306.cpp ****     {0x00, 0x50, 0x30, 0x00, 0x00},     // 0x2C ','
 121:funsape/device/ssd1306.cpp ****     {0x08, 0x08, 0x08, 0x08, 0x08},     // 0x2D '-'
 122:funsape/device/ssd1306.cpp ****     {0x00, 0x60, 0x60, 0x00, 0x00},     // 0x2E '.'
 123:funsape/device/ssd1306.cpp ****     {0x20, 0x10, 0x08, 0x04, 0x02},     // 0x2F '/'
 124:funsape/device/ssd1306.cpp ****     {0x3E, 0x51, 0x49, 0x45, 0x3E},     // 0x30 '0'
 125:funsape/device/ssd1306.cpp ****     {0x00, 0x42, 0x7F, 0x40, 0x00},     // 0x31 '1'
 126:funsape/device/ssd1306.cpp ****     {0x42, 0x61, 0x51, 0x49, 0x46},     // 0x32 '2'
 127:funsape/device/ssd1306.cpp ****     {0x21, 0x41, 0x45, 0x4B, 0x31},     // 0x33 '3'
 128:funsape/device/ssd1306.cpp ****     {0x18, 0x14, 0x12, 0x7F, 0x10},     // 0x34 '4'
 129:funsape/device/ssd1306.cpp ****     {0x27, 0x45, 0x45, 0x45, 0x39},     // 0x35 '5'
 130:funsape/device/ssd1306.cpp ****     {0x3C, 0x4A, 0x49, 0x49, 0x30},     // 0x36 '6'
 131:funsape/device/ssd1306.cpp ****     {0x01, 0x71, 0x09, 0x05, 0x03},     // 0x37 '7'
 132:funsape/device/ssd1306.cpp ****     {0x36, 0x49, 0x49, 0x49, 0x36},     // 0x38 '8'
 133:funsape/device/ssd1306.cpp ****     {0x06, 0x49, 0x49, 0x29, 0x1E},     // 0x39 '9'
 134:funsape/device/ssd1306.cpp ****     {0x00, 0x36, 0x36, 0x00, 0x00},     // 0x3A ':'
 135:funsape/device/ssd1306.cpp ****     {0x00, 0x56, 0x36, 0x00, 0x00},     // 0x3B ';'
 136:funsape/device/ssd1306.cpp ****     {0x08, 0x14, 0x22, 0x41, 0x00},     // 0x3C '<'
 137:funsape/device/ssd1306.cpp ****     {0x14, 0x14, 0x14, 0x14, 0x14},     // 0x3D '='
 138:funsape/device/ssd1306.cpp ****     {0x00, 0x41, 0x22, 0x14, 0x08},     // 0x3E '>'
 139:funsape/device/ssd1306.cpp ****     {0x02, 0x01, 0x51, 0x09, 0x06},     // 0x3F '?'
 140:funsape/device/ssd1306.cpp ****     {0x32, 0x49, 0x79, 0x41, 0x3E},     // 0x40 '@'
 141:funsape/device/ssd1306.cpp ****     {0x7E, 0x11, 0x11, 0x11, 0x7E},     // 0x41 'A'
 142:funsape/device/ssd1306.cpp ****     {0x7F, 0x49, 0x49, 0x49, 0x36},     // 0x42 'B'
 143:funsape/device/ssd1306.cpp ****     {0x3E, 0x41, 0x41, 0x41, 0x22},     // 0x43 'C'
 144:funsape/device/ssd1306.cpp ****     {0x7F, 0x41, 0x41, 0x22, 0x1C},     // 0x44 'D'
 145:funsape/device/ssd1306.cpp ****     {0x7F, 0x49, 0x49, 0x49, 0x41},     // 0x45 'E'
 146:funsape/device/ssd1306.cpp ****     {0x7F, 0x09, 0x09, 0x09, 0x01},     // 0x46 'F'
 147:funsape/device/ssd1306.cpp ****     {0x3E, 0x41, 0x49, 0x49, 0x7A},     // 0x47 'G'
 148:funsape/device/ssd1306.cpp ****     {0x7F, 0x08, 0x08, 0x08, 0x7F},     // 0x48 'H'
 149:funsape/device/ssd1306.cpp ****     {0x00, 0x41, 0x7F, 0x41, 0x00},     // 0x49 'I'
 150:funsape/device/ssd1306.cpp ****     {0x20, 0x40, 0x41, 0x3F, 0x01},     // 0x4A 'J'
 151:funsape/device/ssd1306.cpp ****     {0x7F, 0x08, 0x14, 0x22, 0x41},     // 0x4B 'K'
 152:funsape/device/ssd1306.cpp ****     {0x7F, 0x40, 0x40, 0x40, 0x40},     // 0x4C 'L'
 153:funsape/device/ssd1306.cpp ****     {0x7F, 0x02, 0x0C, 0x02, 0x7F},     // 0x4D 'M'
 154:funsape/device/ssd1306.cpp ****     {0x7F, 0x04, 0x08, 0x10, 0x7F},     // 0x4E 'N'
 155:funsape/device/ssd1306.cpp ****     {0x3E, 0x41, 0x41, 0x41, 0x3E},     // 0x4F 'O'
 156:funsape/device/ssd1306.cpp ****     {0x7F, 0x09, 0x09, 0x09, 0x06},     // 0x50 'P'
GAS LISTING /tmp/cc7wpQ70.s 			page 4


 157:funsape/device/ssd1306.cpp ****     {0x3E, 0x41, 0x51, 0x21, 0x5E},     // 0x51 'Q'
 158:funsape/device/ssd1306.cpp ****     {0x7F, 0x09, 0x19, 0x29, 0x46},     // 0x52 'R'
 159:funsape/device/ssd1306.cpp ****     {0x46, 0x49, 0x49, 0x49, 0x31},     // 0x53 'S'
 160:funsape/device/ssd1306.cpp ****     {0x01, 0x01, 0x7F, 0x01, 0x01},     // 0x54 'T'
 161:funsape/device/ssd1306.cpp ****     {0x3F, 0x40, 0x40, 0x40, 0x3F},     // 0x55 'U'
 162:funsape/device/ssd1306.cpp ****     {0x1F, 0x20, 0x40, 0x20, 0x1F},     // 0x56 'V'
 163:funsape/device/ssd1306.cpp ****     {0x3F, 0x40, 0x38, 0x40, 0x3F},     // 0x57 'W'
 164:funsape/device/ssd1306.cpp ****     {0x63, 0x14, 0x08, 0x14, 0x63},     // 0x58 'X'
 165:funsape/device/ssd1306.cpp ****     {0x07, 0x08, 0x70, 0x08, 0x07},     // 0x59 'Y'
 166:funsape/device/ssd1306.cpp ****     {0x61, 0x51, 0x49, 0x45, 0x43},     // 0x5A 'Z'
 167:funsape/device/ssd1306.cpp ****     {0x00, 0x7F, 0x41, 0x41, 0x00},     // 0x5B '['
 168:funsape/device/ssd1306.cpp ****     {0x02, 0x04, 0x08, 0x10, 0x20},     // 0x5C '\'
 169:funsape/device/ssd1306.cpp ****     {0x00, 0x41, 0x41, 0x7F, 0x00},     // 0x5D ']'
 170:funsape/device/ssd1306.cpp ****     {0x04, 0x02, 0x01, 0x02, 0x04},     // 0x5E '^'
 171:funsape/device/ssd1306.cpp ****     {0x40, 0x40, 0x40, 0x40, 0x40},     // 0x5F '_'
 172:funsape/device/ssd1306.cpp ****     {0x00, 0x01, 0x02, 0x04, 0x00},     // 0x60 '`'
 173:funsape/device/ssd1306.cpp ****     {0x20, 0x54, 0x54, 0x54, 0x78},     // 0x61 'a'
 174:funsape/device/ssd1306.cpp ****     {0x7F, 0x48, 0x44, 0x44, 0x38},     // 0x62 'b'
 175:funsape/device/ssd1306.cpp ****     {0x38, 0x44, 0x44, 0x44, 0x20},     // 0x63 'c'
 176:funsape/device/ssd1306.cpp ****     {0x38, 0x44, 0x44, 0x48, 0x7F},     // 0x64 'd'
 177:funsape/device/ssd1306.cpp ****     {0x38, 0x54, 0x54, 0x54, 0x18},     // 0x65 'e'
 178:funsape/device/ssd1306.cpp ****     {0x08, 0x7E, 0x09, 0x01, 0x02},     // 0x66 'f'
 179:funsape/device/ssd1306.cpp ****     {0x0C, 0x52, 0x52, 0x52, 0x3E},     // 0x67 'g'
 180:funsape/device/ssd1306.cpp ****     {0x7F, 0x08, 0x04, 0x04, 0x78},     // 0x68 'h'
 181:funsape/device/ssd1306.cpp ****     {0x00, 0x44, 0x7D, 0x40, 0x00},     // 0x69 'i'
 182:funsape/device/ssd1306.cpp ****     {0x20, 0x40, 0x44, 0x3D, 0x00},     // 0x6A 'j'
 183:funsape/device/ssd1306.cpp ****     {0x7F, 0x10, 0x28, 0x44, 0x00},     // 0x6B 'k'
 184:funsape/device/ssd1306.cpp ****     {0x00, 0x41, 0x7F, 0x40, 0x00},     // 0x6C 'l'
 185:funsape/device/ssd1306.cpp ****     {0x7C, 0x04, 0x18, 0x04, 0x78},     // 0x6D 'm'
 186:funsape/device/ssd1306.cpp ****     {0x7C, 0x08, 0x04, 0x04, 0x78},     // 0x6E 'n'
 187:funsape/device/ssd1306.cpp ****     {0x38, 0x44, 0x44, 0x44, 0x38},     // 0x6F 'o'
 188:funsape/device/ssd1306.cpp ****     {0x7C, 0x14, 0x14, 0x14, 0x08},     // 0x70 'p'
 189:funsape/device/ssd1306.cpp ****     {0x08, 0x14, 0x14, 0x18, 0x7C},     // 0x71 'q'
 190:funsape/device/ssd1306.cpp ****     {0x7C, 0x08, 0x04, 0x04, 0x08},     // 0x72 'r'
 191:funsape/device/ssd1306.cpp ****     {0x48, 0x54, 0x54, 0x54, 0x20},     // 0x73 's'
 192:funsape/device/ssd1306.cpp ****     {0x04, 0x3F, 0x44, 0x40, 0x20},     // 0x74 't'
 193:funsape/device/ssd1306.cpp ****     {0x3C, 0x40, 0x40, 0x20, 0x7C},     // 0x75 'u'
 194:funsape/device/ssd1306.cpp ****     {0x1C, 0x20, 0x40, 0x20, 0x1C},     // 0x76 'v'
 195:funsape/device/ssd1306.cpp ****     {0x3C, 0x40, 0x30, 0x40, 0x3C},     // 0x77 'w'
 196:funsape/device/ssd1306.cpp ****     {0x44, 0x28, 0x10, 0x28, 0x44},     // 0x78 'x'
 197:funsape/device/ssd1306.cpp ****     {0x0C, 0x50, 0x50, 0x50, 0x3C},     // 0x79 'y'
 198:funsape/device/ssd1306.cpp ****     {0x44, 0x64, 0x54, 0x4C, 0x44},     // 0x7A 'z'
 199:funsape/device/ssd1306.cpp ****     {0x00, 0x08, 0x36, 0x41, 0x00},     // 0x7B '{'
 200:funsape/device/ssd1306.cpp ****     {0x00, 0x00, 0x7F, 0x00, 0x00},     // 0x7C '|'
 201:funsape/device/ssd1306.cpp ****     {0x00, 0x41, 0x36, 0x08, 0x00},     // 0x7D '}'
 202:funsape/device/ssd1306.cpp ****     {0x08, 0x04, 0x08, 0x10, 0x08},     // 0x7E '~'
 203:funsape/device/ssd1306.cpp **** };
 204:funsape/device/ssd1306.cpp **** 
 205:funsape/device/ssd1306.cpp **** FILE ssd1306Stream                      = {0};
 206:funsape/device/ssd1306.cpp **** Ssd1306 *defaultSsd1306Display          = nullptr;
 207:funsape/device/ssd1306.cpp **** 
 208:funsape/device/ssd1306.cpp **** // =============================================================================
 209:funsape/device/ssd1306.cpp **** // File exclusive - Macro-functions
 210:funsape/device/ssd1306.cpp **** // =============================================================================
 211:funsape/device/ssd1306.cpp **** 
 212:funsape/device/ssd1306.cpp **** // NONE
 213:funsape/device/ssd1306.cpp **** 
GAS LISTING /tmp/cc7wpQ70.s 			page 5


 214:funsape/device/ssd1306.cpp **** // =============================================================================
 215:funsape/device/ssd1306.cpp **** // Class constructors
 216:funsape/device/ssd1306.cpp **** // =============================================================================
 217:funsape/device/ssd1306.cpp **** 
 218:funsape/device/ssd1306.cpp **** Ssd1306::Ssd1306(void)
  17               		.loc 1 218 1 view -0
  18               		.cfi_startproc
  19               	/* prologue: function */
  20               	/* frame size = 0 */
  21               	/* stack size = 0 */
  22               	.L__stack_usage = 0
  23               		.loc 1 218 1 is_stmt 0 view .LVU1
  24 0000 FC01      		movw r30,r24
  25               	.LBB2:
 219:funsape/device/ssd1306.cpp **** {
 220:funsape/device/ssd1306.cpp ****     // Mark passage for debugging purpose
 221:funsape/device/ssd1306.cpp ****     debugMark(PSTR("Ssd1306::Ssd1306(void)"), Debug::CodeIndex::SSD1306_MODULE);
  26               		.loc 1 221 5 is_stmt 1 view .LVU2
 222:funsape/device/ssd1306.cpp **** 
 223:funsape/device/ssd1306.cpp ****     fdev_setup_stream(&ssd1306Stream, ssd1306WriteStd, nullptr, _FDEV_SETUP_WRITE);
  27               		.loc 1 223 5 view .LVU3
  28               		.loc 1 223 5 view .LVU4
  29 0002 A0E0      		ldi r26,lo8(ssd1306Stream+8)
  30 0004 B0E0      		ldi r27,hi8(ssd1306Stream+8)
  31 0006 80E0      		ldi r24,lo8(gs(_ZL15ssd1306WriteStdcP6__file))
  32 0008 90E0      		ldi r25,hi8(gs(_ZL15ssd1306WriteStdcP6__file))
  33               	.LVL1:
  34               		.loc 1 223 5 is_stmt 0 view .LVU5
  35 000a 8D93      		st X+,r24
  36 000c 9D93      		st X+,r25
  37               		.loc 1 223 5 is_stmt 1 view .LVU6
  38 000e 1D92      		st X+,__zero_reg__
  39 0010 1D92      		st X+,__zero_reg__
  40               		.loc 1 223 5 view .LVU7
  41 0012 82E0      		ldi r24,lo8(2)
  42 0014 1997      		sbiw r26,9
  43 0016 8C93      		st X,r24
  44               		.loc 1 223 5 view .LVU8
  45 0018 1996      		adiw r26,9
  46 001a 1D92      		st X+,__zero_reg__
  47 001c 1D92      		st X+,__zero_reg__
  48               		.loc 1 223 5 view .LVU9
 224:funsape/device/ssd1306.cpp **** 
 225:funsape/device/ssd1306.cpp ****     // Reset data members
 226:funsape/device/ssd1306.cpp ****     this->_busHandler                   = nullptr;
  49               		.loc 1 226 5 view .LVU10
  50               		.loc 1 226 41 is_stmt 0 view .LVU11
  51 001e 1182      		std Z+1,__zero_reg__
  52 0020 1082      		st Z,__zero_reg__
 227:funsape/device/ssd1306.cpp ****     this->_frameBuffer                  = nullptr;
  53               		.loc 1 227 5 is_stmt 1 view .LVU12
  54               		.loc 1 227 41 is_stmt 0 view .LVU13
  55 0022 1382      		std Z+3,__zero_reg__
  56 0024 1282      		std Z+2,__zero_reg__
 228:funsape/device/ssd1306.cpp ****     this->_dirtyPageMask                = 0;
  57               		.loc 1 228 5 is_stmt 1 view .LVU14
  58               		.loc 1 228 41 is_stmt 0 view .LVU15
GAS LISTING /tmp/cc7wpQ70.s 			page 6


  59 0026 1482      		std Z+4,__zero_reg__
 229:funsape/device/ssd1306.cpp ****     this->_busHandlerSet                = false;
  60               		.loc 1 229 5 is_stmt 1 view .LVU16
  61               		.loc 1 229 41 is_stmt 0 view .LVU17
  62 0028 8581      		ldd r24,Z+5
  63 002a 8E7F      		andi r24,lo8(~(1<<0))
  64 002c 8583      		std Z+5,r24
 230:funsape/device/ssd1306.cpp ****     this->_buffered                     = false;
  65               		.loc 1 230 5 is_stmt 1 view .LVU18
  66               		.loc 1 230 41 is_stmt 0 view .LVU19
  67 002e 8D7F      		andi r24,lo8(~(1<<1))
  68 0030 8583      		std Z+5,r24
 231:funsape/device/ssd1306.cpp ****     this->_initialized                  = false;
  69               		.loc 1 231 5 is_stmt 1 view .LVU20
  70               		.loc 1 231 41 is_stmt 0 view .LVU21
  71 0032 8B7F      		andi r24,lo8(~(1<<2))
  72 0034 8583      		std Z+5,r24
 232:funsape/device/ssd1306.cpp ****     this->_deviceAddress                = 0x3C;
  73               		.loc 1 232 5 is_stmt 1 view .LVU22
  74               		.loc 1 232 41 is_stmt 0 view .LVU23
  75 0036 8085      		ldd r24,Z+8
  76 0038 8078      		andi r24,lo8(-128)
  77 003a 8C63      		ori r24,lo8(60)
  78 003c 8087      		std Z+8,r24
 233:funsape/device/ssd1306.cpp ****     this->_size                         = Size::SSD1306_128X64;
  79               		.loc 1 233 5 is_stmt 1 view .LVU24
  80               		.loc 1 233 41 is_stmt 0 view .LVU25
  81 003e 1186      		std Z+9,__zero_reg__
 234:funsape/device/ssd1306.cpp ****     this->_pages                        = 8;
  82               		.loc 1 234 5 is_stmt 1 view .LVU26
  83               		.loc 1 234 41 is_stmt 0 view .LVU27
  84 0040 88E0      		ldi r24,lo8(8)
  85 0042 8287      		std Z+10,r24
 235:funsape/device/ssd1306.cpp ****     this->_cursorX                      = 0;
  86               		.loc 1 235 5 is_stmt 1 view .LVU28
  87               		.loc 1 235 41 is_stmt 0 view .LVU29
  88 0044 1386      		std Z+11,__zero_reg__
 236:funsape/device/ssd1306.cpp ****     this->_cursorY                      = 0;
  89               		.loc 1 236 5 is_stmt 1 view .LVU30
  90               		.loc 1 236 41 is_stmt 0 view .LVU31
  91 0046 1486      		std Z+12,__zero_reg__
 237:funsape/device/ssd1306.cpp ****     this->_textSize                     = 1;
  92               		.loc 1 237 5 is_stmt 1 view .LVU32
  93               		.loc 1 237 41 is_stmt 0 view .LVU33
  94 0048 8585      		ldd r24,Z+13
  95 004a 887F      		andi r24,lo8(-8)
  96 004c 8160      		ori r24,lo8(1)
  97 004e 8587      		std Z+13,r24
 238:funsape/device/ssd1306.cpp **** 
 239:funsape/device/ssd1306.cpp ****     // Returns successfully
 240:funsape/device/ssd1306.cpp ****     this->_lastError = Error::NONE;
  98               		.loc 1 240 5 is_stmt 1 view .LVU34
  99               		.loc 1 240 22 is_stmt 0 view .LVU35
 100 0050 1782      		std Z+7,__zero_reg__
 101 0052 1682      		std Z+6,__zero_reg__
 241:funsape/device/ssd1306.cpp ****     debugMessage(Error::NONE, Debug::CodeIndex::SSD1306_MODULE);
 102               		.loc 1 241 5 is_stmt 1 view .LVU36
GAS LISTING /tmp/cc7wpQ70.s 			page 7


 242:funsape/device/ssd1306.cpp ****     return;
 103               		.loc 1 242 5 view .LVU37
 104               	/* epilogue start */
 105               	.LBE2:
 243:funsape/device/ssd1306.cpp **** }
 106               		.loc 1 243 1 is_stmt 0 view .LVU38
 107 0054 0895      		ret
 108               		.cfi_endproc
 109               	.LFE136:
 111               	.global	_ZN7Ssd1306C1Ev
 112               		.set	_ZN7Ssd1306C1Ev,_ZN7Ssd1306C2Ev
 113               		.section	.text._ZN7Ssd1306D2Ev,"ax",@progbits
 114               	.global	_ZN7Ssd1306D2Ev
 116               	_ZN7Ssd1306D2Ev:
 117               	.LVL2:
 118               	.LFB139:
 244:funsape/device/ssd1306.cpp **** 
 245:funsape/device/ssd1306.cpp **** Ssd1306::~Ssd1306(void)
 119               		.loc 1 245 1 is_stmt 1 view -0
 120               		.cfi_startproc
 121               	/* prologue: function */
 122               	/* frame size = 0 */
 123               	/* stack size = 0 */
 124               	.L__stack_usage = 0
 125               	.LBB3:
 246:funsape/device/ssd1306.cpp **** {
 247:funsape/device/ssd1306.cpp ****     // Returns successfully
 248:funsape/device/ssd1306.cpp ****     debugMessage(Error::NONE, Debug::CodeIndex::SSD1306_MODULE);
 126               		.loc 1 248 5 view .LVU40
 249:funsape/device/ssd1306.cpp ****     return;
 127               		.loc 1 249 5 view .LVU41
 128               	/* epilogue start */
 129               	.LBE3:
 250:funsape/device/ssd1306.cpp **** }
 130               		.loc 1 250 1 is_stmt 0 view .LVU42
 131 0000 0895      		ret
 132               		.cfi_endproc
 133               	.LFE139:
 135               	.global	_ZN7Ssd1306D1Ev
 136               		.set	_ZN7Ssd1306D1Ev,_ZN7Ssd1306D2Ev
 137               		.section	.text._ZN7Ssd130612getLastErrorEv,"ax",@progbits
 138               	.global	_ZN7Ssd130612getLastErrorEv
 140               	_ZN7Ssd130612getLastErrorEv:
 141               	.LVL3:
 142               	.LFB147:
 251:funsape/device/ssd1306.cpp **** 
 252:funsape/device/ssd1306.cpp **** // =============================================================================
 253:funsape/device/ssd1306.cpp **** // Class public methods
 254:funsape/device/ssd1306.cpp **** // =============================================================================
 255:funsape/device/ssd1306.cpp **** 
 256:funsape/device/ssd1306.cpp **** //     ///////////////////     CONTROL AND STATUS     ///////////////////     //
 257:funsape/device/ssd1306.cpp **** 
 258:funsape/device/ssd1306.cpp **** bool_t Ssd1306::init(Bus *busHandler_p, const Size size_p, cuint8_t address_p, uint8_t *frameBuffer
 259:funsape/device/ssd1306.cpp **** {
 260:funsape/device/ssd1306.cpp ****     // Mark passage for debugging purpose
 261:funsape/device/ssd1306.cpp ****     debugMark(PSTR("Ssd1306::init(Bus *, const Size, cuint8_t, uint8_t *)"), Debug::CodeIndex::SSD1
 262:funsape/device/ssd1306.cpp **** 
GAS LISTING /tmp/cc7wpQ70.s 			page 8


 263:funsape/device/ssd1306.cpp ****     // Updates data members
 264:funsape/device/ssd1306.cpp ****     this->_busHandlerSet                = false;
 265:funsape/device/ssd1306.cpp ****     this->_initialized                  = false;
 266:funsape/device/ssd1306.cpp **** 
 267:funsape/device/ssd1306.cpp ****     // Check function arguments for errors
 268:funsape/device/ssd1306.cpp ****     if(!isPointerValid(busHandler_p)) {
 269:funsape/device/ssd1306.cpp ****         // Returns error
 270:funsape/device/ssd1306.cpp ****         this->_lastError = Error::BUS_HANDLER_POINTER_NULL;
 271:funsape/device/ssd1306.cpp ****         debugMessage(Error::BUS_HANDLER_POINTER_NULL, Debug::CodeIndex::SSD1306_MODULE);
 272:funsape/device/ssd1306.cpp ****         return false;
 273:funsape/device/ssd1306.cpp ****     } else if(busHandler_p->getBusType() != Bus::BusType::TWI) {
 274:funsape/device/ssd1306.cpp ****         // Returns error
 275:funsape/device/ssd1306.cpp ****         this->_lastError = Error::BUS_HANDLER_NOT_SUPPORTED;
 276:funsape/device/ssd1306.cpp ****         debugMessage(Error::BUS_HANDLER_NOT_SUPPORTED, Debug::CodeIndex::SSD1306_MODULE);
 277:funsape/device/ssd1306.cpp ****         return false;
 278:funsape/device/ssd1306.cpp ****     }
 279:funsape/device/ssd1306.cpp **** 
 280:funsape/device/ssd1306.cpp ****     // Updates data members
 281:funsape/device/ssd1306.cpp ****     this->_busHandler                   = busHandler_p;
 282:funsape/device/ssd1306.cpp ****     this->_busHandlerSet                = true;
 283:funsape/device/ssd1306.cpp ****     this->_deviceAddress                = address_p;
 284:funsape/device/ssd1306.cpp ****     this->_size                         = size_p;
 285:funsape/device/ssd1306.cpp ****     this->_pages                        = (size_p == Size::SSD1306_128X64) ? 8 : 4;
 286:funsape/device/ssd1306.cpp ****     this->_frameBuffer                  = frameBuffer_p;
 287:funsape/device/ssd1306.cpp ****     this->_buffered                     = isPointerValid(frameBuffer_p);
 288:funsape/device/ssd1306.cpp ****     this->_dirtyPageMask                = 0;
 289:funsape/device/ssd1306.cpp ****     this->_cursorX                      = 0;
 290:funsape/device/ssd1306.cpp ****     this->_cursorY                      = 0;
 291:funsape/device/ssd1306.cpp ****     this->_textSize                     = 1;
 292:funsape/device/ssd1306.cpp **** 
 293:funsape/device/ssd1306.cpp ****     // Local variables
 294:funsape/device/ssd1306.cpp ****     uint8_t auxMultiplex                = (size_p == Size::SSD1306_128X64) ? 0x3F : 0x1F;
 295:funsape/device/ssd1306.cpp ****     uint8_t auxComPins                  = (size_p == Size::SSD1306_128X64) ? 0x12 : 0x02;
 296:funsape/device/ssd1306.cpp **** 
 297:funsape/device/ssd1306.cpp ****     // Sends power-on command sequence
 298:funsape/device/ssd1306.cpp ****     if(!this->_writeCommandList(constSsd1306InitSequence, sizeof(constSsd1306InitSequence))) {
 299:funsape/device/ssd1306.cpp ****         // Returns error
 300:funsape/device/ssd1306.cpp ****         debugMessage(this->_lastError, Debug::CodeIndex::SSD1306_MODULE);
 301:funsape/device/ssd1306.cpp ****         return false;
 302:funsape/device/ssd1306.cpp ****     }
 303:funsape/device/ssd1306.cpp ****     if(!this->_writeCommand(SSD1306_SET_MULTIPLEX) || !this->_writeCommand(auxMultiplex)) {
 304:funsape/device/ssd1306.cpp ****         // Returns error
 305:funsape/device/ssd1306.cpp ****         debugMessage(this->_lastError, Debug::CodeIndex::SSD1306_MODULE);
 306:funsape/device/ssd1306.cpp ****         return false;
 307:funsape/device/ssd1306.cpp ****     }
 308:funsape/device/ssd1306.cpp ****     if(!this->_writeCommand(SSD1306_SET_COM_PINS) || !this->_writeCommand(auxComPins)) {
 309:funsape/device/ssd1306.cpp ****         // Returns error
 310:funsape/device/ssd1306.cpp ****         debugMessage(this->_lastError, Debug::CodeIndex::SSD1306_MODULE);
 311:funsape/device/ssd1306.cpp ****         return false;
 312:funsape/device/ssd1306.cpp ****     }
 313:funsape/device/ssd1306.cpp ****     if(!this->_writeCommand(SSD1306_SET_CONTRAST) || !this->_writeCommand(0xCF)) {
 314:funsape/device/ssd1306.cpp ****         // Returns error
 315:funsape/device/ssd1306.cpp ****         debugMessage(this->_lastError, Debug::CodeIndex::SSD1306_MODULE);
 316:funsape/device/ssd1306.cpp ****         return false;
 317:funsape/device/ssd1306.cpp ****     }
 318:funsape/device/ssd1306.cpp ****     if(!this->_writeCommand(SSD1306_DISPLAY_ON)) {
 319:funsape/device/ssd1306.cpp ****         // Returns error
GAS LISTING /tmp/cc7wpQ70.s 			page 9


 320:funsape/device/ssd1306.cpp ****         debugMessage(this->_lastError, Debug::CodeIndex::SSD1306_MODULE);
 321:funsape/device/ssd1306.cpp ****         return false;
 322:funsape/device/ssd1306.cpp ****     }
 323:funsape/device/ssd1306.cpp **** 
 324:funsape/device/ssd1306.cpp ****     // Marks device as initialized and clears the display
 325:funsape/device/ssd1306.cpp ****     this->_initialized                  = true;
 326:funsape/device/ssd1306.cpp ****     if(!this->clearScreen()) {
 327:funsape/device/ssd1306.cpp ****         // Returns error
 328:funsape/device/ssd1306.cpp ****         debugMessage(this->_lastError, Debug::CodeIndex::SSD1306_MODULE);
 329:funsape/device/ssd1306.cpp ****         return false;
 330:funsape/device/ssd1306.cpp ****     }
 331:funsape/device/ssd1306.cpp ****     if(this->_buffered) {
 332:funsape/device/ssd1306.cpp ****         // Blanks the panel once so it does not show framebuffer garbage
 333:funsape/device/ssd1306.cpp ****         if(!this->display()) {
 334:funsape/device/ssd1306.cpp ****             // Returns error
 335:funsape/device/ssd1306.cpp ****             debugMessage(this->_lastError, Debug::CodeIndex::SSD1306_MODULE);
 336:funsape/device/ssd1306.cpp ****             return false;
 337:funsape/device/ssd1306.cpp ****         }
 338:funsape/device/ssd1306.cpp ****     }
 339:funsape/device/ssd1306.cpp **** 
 340:funsape/device/ssd1306.cpp ****     // Returns successfully
 341:funsape/device/ssd1306.cpp ****     this->_lastError = Error::NONE;
 342:funsape/device/ssd1306.cpp ****     debugMessage(Error::NONE, Debug::CodeIndex::SSD1306_MODULE);
 343:funsape/device/ssd1306.cpp ****     return true;
 344:funsape/device/ssd1306.cpp **** }
 345:funsape/device/ssd1306.cpp **** 
 346:funsape/device/ssd1306.cpp **** bool_t Ssd1306::clearScreen(void)
 347:funsape/device/ssd1306.cpp **** {
 348:funsape/device/ssd1306.cpp ****     // Mark passage for debugging purpose
 349:funsape/device/ssd1306.cpp ****     debugMark(PSTR("Ssd1306::clearScreen(void)"), Debug::CodeIndex::SSD1306_MODULE);
 350:funsape/device/ssd1306.cpp **** 
 351:funsape/device/ssd1306.cpp ****     // Check for errors
 352:funsape/device/ssd1306.cpp ****     if(!this->_isInitialized()) {
 353:funsape/device/ssd1306.cpp ****         // Returns error
 354:funsape/device/ssd1306.cpp ****         debugMessage(this->_lastError, Debug::CodeIndex::SSD1306_MODULE);
 355:funsape/device/ssd1306.cpp ****         return false;
 356:funsape/device/ssd1306.cpp ****     }
 357:funsape/device/ssd1306.cpp **** 
 358:funsape/device/ssd1306.cpp ****     // Buffered mode: clears the RAM buffer and marks every page dirty
 359:funsape/device/ssd1306.cpp ****     // (the panel is only updated on the next display() call)
 360:funsape/device/ssd1306.cpp ****     if(this->_buffered) {
 361:funsape/device/ssd1306.cpp ****         uint16_t auxSize = (uint16_t)this->_pages * constSsd1306Width;
 362:funsape/device/ssd1306.cpp ****         for(uint16_t i = 0; i < auxSize; i++) {
 363:funsape/device/ssd1306.cpp ****             this->_frameBuffer[i] = 0x00;
 364:funsape/device/ssd1306.cpp ****         }
 365:funsape/device/ssd1306.cpp ****         this->_dirtyPageMask            = (uint8_t)((1 << this->_pages) - 1);
 366:funsape/device/ssd1306.cpp ****         this->_cursorX                  = 0;
 367:funsape/device/ssd1306.cpp ****         this->_cursorY                  = 0;
 368:funsape/device/ssd1306.cpp ****         this->_lastError = Error::NONE;
 369:funsape/device/ssd1306.cpp ****         debugMessage(Error::NONE, Debug::CodeIndex::SSD1306_MODULE);
 370:funsape/device/ssd1306.cpp ****         return true;
 371:funsape/device/ssd1306.cpp ****     }
 372:funsape/device/ssd1306.cpp **** 
 373:funsape/device/ssd1306.cpp ****     // Local variables
 374:funsape/device/ssd1306.cpp ****     uint8_t auxBuffer[constSsd1306DataChunk];
 375:funsape/device/ssd1306.cpp **** 
 376:funsape/device/ssd1306.cpp ****     // Prepares a blank chunk
GAS LISTING /tmp/cc7wpQ70.s 			page 10


 377:funsape/device/ssd1306.cpp ****     for(uint8_t i = 0; i < constSsd1306DataChunk; i++) {
 378:funsape/device/ssd1306.cpp ****         auxBuffer[i] = 0x00;
 379:funsape/device/ssd1306.cpp ****     }
 380:funsape/device/ssd1306.cpp **** 
 381:funsape/device/ssd1306.cpp ****     // Writes zeros to every page
 382:funsape/device/ssd1306.cpp ****     for(uint8_t page = 0; page < this->_pages; page++) {
 383:funsape/device/ssd1306.cpp ****         if(!this->_setAddress(page, 0)) {
 384:funsape/device/ssd1306.cpp ****             // Returns error
 385:funsape/device/ssd1306.cpp ****             debugMessage(this->_lastError, Debug::CodeIndex::SSD1306_MODULE);
 386:funsape/device/ssd1306.cpp ****             return false;
 387:funsape/device/ssd1306.cpp ****         }
 388:funsape/device/ssd1306.cpp ****         uint8_t remaining = constSsd1306Width;
 389:funsape/device/ssd1306.cpp ****         while(remaining > 0) {
 390:funsape/device/ssd1306.cpp ****             uint8_t chunk = (remaining > constSsd1306DataChunk) ? constSsd1306DataChunk : remaining
 391:funsape/device/ssd1306.cpp ****             if(!this->_writeData(auxBuffer, chunk)) {
 392:funsape/device/ssd1306.cpp ****                 // Returns error
 393:funsape/device/ssd1306.cpp ****                 debugMessage(this->_lastError, Debug::CodeIndex::SSD1306_MODULE);
 394:funsape/device/ssd1306.cpp ****                 return false;
 395:funsape/device/ssd1306.cpp ****             }
 396:funsape/device/ssd1306.cpp ****             remaining -= chunk;
 397:funsape/device/ssd1306.cpp ****         }
 398:funsape/device/ssd1306.cpp ****     }
 399:funsape/device/ssd1306.cpp **** 
 400:funsape/device/ssd1306.cpp ****     // Homes the text cursor
 401:funsape/device/ssd1306.cpp ****     this->_cursorX                      = 0;
 402:funsape/device/ssd1306.cpp ****     this->_cursorY                      = 0;
 403:funsape/device/ssd1306.cpp **** 
 404:funsape/device/ssd1306.cpp ****     // Returns successfully
 405:funsape/device/ssd1306.cpp ****     this->_lastError = Error::NONE;
 406:funsape/device/ssd1306.cpp ****     debugMessage(Error::NONE, Debug::CodeIndex::SSD1306_MODULE);
 407:funsape/device/ssd1306.cpp ****     return true;
 408:funsape/device/ssd1306.cpp **** }
 409:funsape/device/ssd1306.cpp **** 
 410:funsape/device/ssd1306.cpp **** bool_t Ssd1306::display(void)
 411:funsape/device/ssd1306.cpp **** {
 412:funsape/device/ssd1306.cpp ****     // Mark passage for debugging purpose
 413:funsape/device/ssd1306.cpp ****     debugMark(PSTR("Ssd1306::display(void)"), Debug::CodeIndex::SSD1306_MODULE);
 414:funsape/device/ssd1306.cpp **** 
 415:funsape/device/ssd1306.cpp ****     // Check for errors
 416:funsape/device/ssd1306.cpp ****     if(!this->_isInitialized()) {
 417:funsape/device/ssd1306.cpp ****         // Returns error
 418:funsape/device/ssd1306.cpp ****         debugMessage(this->_lastError, Debug::CodeIndex::SSD1306_MODULE);
 419:funsape/device/ssd1306.cpp ****         return false;
 420:funsape/device/ssd1306.cpp ****     }
 421:funsape/device/ssd1306.cpp **** 
 422:funsape/device/ssd1306.cpp ****     // Direct mode: nothing to flush (no-op success)
 423:funsape/device/ssd1306.cpp ****     if(!this->_buffered) {
 424:funsape/device/ssd1306.cpp ****         this->_lastError = Error::NONE;
 425:funsape/device/ssd1306.cpp ****         debugMessage(Error::NONE, Debug::CodeIndex::SSD1306_MODULE);
 426:funsape/device/ssd1306.cpp ****         return true;
 427:funsape/device/ssd1306.cpp ****     }
 428:funsape/device/ssd1306.cpp **** 
 429:funsape/device/ssd1306.cpp ****     // Buffered mode: flushes only the pages changed since the last call
 430:funsape/device/ssd1306.cpp ****     for(uint8_t page = 0; page < this->_pages; page++) {
 431:funsape/device/ssd1306.cpp ****         if(this->_dirtyPageMask & (1 << page)) {
 432:funsape/device/ssd1306.cpp ****             if(!this->_setAddress(page, 0)) {
 433:funsape/device/ssd1306.cpp ****                 // Returns error
GAS LISTING /tmp/cc7wpQ70.s 			page 11


 434:funsape/device/ssd1306.cpp ****                 debugMessage(this->_lastError, Debug::CodeIndex::SSD1306_MODULE);
 435:funsape/device/ssd1306.cpp ****                 return false;
 436:funsape/device/ssd1306.cpp ****             }
 437:funsape/device/ssd1306.cpp ****             if(!this->_writeData(&this->_frameBuffer[(uint16_t)page * constSsd1306Width], constSsd1
 438:funsape/device/ssd1306.cpp ****                 // Returns error
 439:funsape/device/ssd1306.cpp ****                 debugMessage(this->_lastError, Debug::CodeIndex::SSD1306_MODULE);
 440:funsape/device/ssd1306.cpp ****                 return false;
 441:funsape/device/ssd1306.cpp ****             }
 442:funsape/device/ssd1306.cpp ****         }
 443:funsape/device/ssd1306.cpp ****     }
 444:funsape/device/ssd1306.cpp ****     this->_dirtyPageMask                = 0;
 445:funsape/device/ssd1306.cpp **** 
 446:funsape/device/ssd1306.cpp ****     // Returns successfully
 447:funsape/device/ssd1306.cpp ****     this->_lastError = Error::NONE;
 448:funsape/device/ssd1306.cpp ****     debugMessage(Error::NONE, Debug::CodeIndex::SSD1306_MODULE);
 449:funsape/device/ssd1306.cpp ****     return true;
 450:funsape/device/ssd1306.cpp **** }
 451:funsape/device/ssd1306.cpp **** 
 452:funsape/device/ssd1306.cpp **** bool_t Ssd1306::setDisplayState(const Activation state_p)
 453:funsape/device/ssd1306.cpp **** {
 454:funsape/device/ssd1306.cpp ****     // Mark passage for debugging purpose
 455:funsape/device/ssd1306.cpp ****     debugMark(PSTR("Ssd1306::setDisplayState(const Activation)"), Debug::CodeIndex::SSD1306_MODULE)
 456:funsape/device/ssd1306.cpp **** 
 457:funsape/device/ssd1306.cpp ****     // Check for errors
 458:funsape/device/ssd1306.cpp ****     if(!this->_isInitialized()) {
 459:funsape/device/ssd1306.cpp ****         // Returns error
 460:funsape/device/ssd1306.cpp ****         debugMessage(this->_lastError, Debug::CodeIndex::SSD1306_MODULE);
 461:funsape/device/ssd1306.cpp ****         return false;
 462:funsape/device/ssd1306.cpp ****     }
 463:funsape/device/ssd1306.cpp **** 
 464:funsape/device/ssd1306.cpp ****     // Sends command
 465:funsape/device/ssd1306.cpp ****     if(!this->_writeCommand((state_p == Activation::ON) ? SSD1306_DISPLAY_ON : SSD1306_DISPLAY_OFF)
 466:funsape/device/ssd1306.cpp ****         // Returns error
 467:funsape/device/ssd1306.cpp ****         debugMessage(this->_lastError, Debug::CodeIndex::SSD1306_MODULE);
 468:funsape/device/ssd1306.cpp ****         return false;
 469:funsape/device/ssd1306.cpp ****     }
 470:funsape/device/ssd1306.cpp **** 
 471:funsape/device/ssd1306.cpp ****     // Returns successfully
 472:funsape/device/ssd1306.cpp ****     this->_lastError = Error::NONE;
 473:funsape/device/ssd1306.cpp ****     debugMessage(Error::NONE, Debug::CodeIndex::SSD1306_MODULE);
 474:funsape/device/ssd1306.cpp ****     return true;
 475:funsape/device/ssd1306.cpp **** }
 476:funsape/device/ssd1306.cpp **** 
 477:funsape/device/ssd1306.cpp **** bool_t Ssd1306::setContrast(cuint8_t contrast_p)
 478:funsape/device/ssd1306.cpp **** {
 479:funsape/device/ssd1306.cpp ****     // Mark passage for debugging purpose
 480:funsape/device/ssd1306.cpp ****     debugMark(PSTR("Ssd1306::setContrast(cuint8_t)"), Debug::CodeIndex::SSD1306_MODULE);
 481:funsape/device/ssd1306.cpp **** 
 482:funsape/device/ssd1306.cpp ****     // Check for errors
 483:funsape/device/ssd1306.cpp ****     if(!this->_isInitialized()) {
 484:funsape/device/ssd1306.cpp ****         // Returns error
 485:funsape/device/ssd1306.cpp ****         debugMessage(this->_lastError, Debug::CodeIndex::SSD1306_MODULE);
 486:funsape/device/ssd1306.cpp ****         return false;
 487:funsape/device/ssd1306.cpp ****     }
 488:funsape/device/ssd1306.cpp **** 
 489:funsape/device/ssd1306.cpp ****     // Sends command
 490:funsape/device/ssd1306.cpp ****     if(!this->_writeCommand(SSD1306_SET_CONTRAST) || !this->_writeCommand(contrast_p)) {
GAS LISTING /tmp/cc7wpQ70.s 			page 12


 491:funsape/device/ssd1306.cpp ****         // Returns error
 492:funsape/device/ssd1306.cpp ****         debugMessage(this->_lastError, Debug::CodeIndex::SSD1306_MODULE);
 493:funsape/device/ssd1306.cpp ****         return false;
 494:funsape/device/ssd1306.cpp ****     }
 495:funsape/device/ssd1306.cpp **** 
 496:funsape/device/ssd1306.cpp ****     // Returns successfully
 497:funsape/device/ssd1306.cpp ****     this->_lastError = Error::NONE;
 498:funsape/device/ssd1306.cpp ****     debugMessage(Error::NONE, Debug::CodeIndex::SSD1306_MODULE);
 499:funsape/device/ssd1306.cpp ****     return true;
 500:funsape/device/ssd1306.cpp **** }
 501:funsape/device/ssd1306.cpp **** 
 502:funsape/device/ssd1306.cpp **** bool_t Ssd1306::setUpsideDown(cbool_t enable_p)
 503:funsape/device/ssd1306.cpp **** {
 504:funsape/device/ssd1306.cpp ****     // Mark passage for debugging purpose
 505:funsape/device/ssd1306.cpp ****     debugMark(PSTR("Ssd1306::setUpsideDown(cbool_t)"), Debug::CodeIndex::SSD1306_MODULE);
 506:funsape/device/ssd1306.cpp **** 
 507:funsape/device/ssd1306.cpp ****     // Check for errors
 508:funsape/device/ssd1306.cpp ****     if(!this->_isInitialized()) {
 509:funsape/device/ssd1306.cpp ****         // Returns error
 510:funsape/device/ssd1306.cpp ****         debugMessage(this->_lastError, Debug::CodeIndex::SSD1306_MODULE);
 511:funsape/device/ssd1306.cpp ****         return false;
 512:funsape/device/ssd1306.cpp ****     }
 513:funsape/device/ssd1306.cpp **** 
 514:funsape/device/ssd1306.cpp ****     // Local variables
 515:funsape/device/ssd1306.cpp ****     uint8_t auxSegRemap                 = (enable_p) ? SSD1306_SEG_REMAP : (SSD1306_SEG_REMAP | 0x0
 516:funsape/device/ssd1306.cpp ****     uint8_t auxComScan                  = (enable_p) ? SSD1306_COM_SCAN_INC : SSD1306_COM_SCAN_DEC;
 517:funsape/device/ssd1306.cpp **** 
 518:funsape/device/ssd1306.cpp ****     // Sends the orientation commands
 519:funsape/device/ssd1306.cpp ****     if(!this->_writeCommand(auxSegRemap) || !this->_writeCommand(auxComScan)) {
 520:funsape/device/ssd1306.cpp ****         // Returns error
 521:funsape/device/ssd1306.cpp ****         debugMessage(this->_lastError, Debug::CodeIndex::SSD1306_MODULE);
 522:funsape/device/ssd1306.cpp ****         return false;
 523:funsape/device/ssd1306.cpp ****     }
 524:funsape/device/ssd1306.cpp **** 
 525:funsape/device/ssd1306.cpp ****     // Returns successfully
 526:funsape/device/ssd1306.cpp ****     this->_lastError = Error::NONE;
 527:funsape/device/ssd1306.cpp ****     debugMessage(Error::NONE, Debug::CodeIndex::SSD1306_MODULE);
 528:funsape/device/ssd1306.cpp ****     return true;
 529:funsape/device/ssd1306.cpp **** }
 530:funsape/device/ssd1306.cpp **** 
 531:funsape/device/ssd1306.cpp **** Error Ssd1306::getLastError(void)
 532:funsape/device/ssd1306.cpp **** {
 143               		.loc 1 532 1 is_stmt 1 view -0
 144               		.cfi_startproc
 145               	/* prologue: function */
 146               	/* frame size = 0 */
 147               	/* stack size = 0 */
 148               	.L__stack_usage = 0
 533:funsape/device/ssd1306.cpp ****     // Returns last error
 534:funsape/device/ssd1306.cpp ****     return this->_lastError;
 149               		.loc 1 534 5 view .LVU44
 535:funsape/device/ssd1306.cpp **** }
 150               		.loc 1 535 1 is_stmt 0 view .LVU45
 151 0000 FC01      		movw r30,r24
 152 0002 8681      		ldd r24,Z+6
 153 0004 9781      		ldd r25,Z+7
 154               	.LVL4:
GAS LISTING /tmp/cc7wpQ70.s 			page 13


 155               	/* epilogue start */
 156               		.loc 1 535 1 view .LVU46
 157 0006 0895      		ret
 158               		.cfi_endproc
 159               	.LFE147:
 161               		.section	.text._ZN7Ssd130611setTextSizeEh,"ax",@progbits
 162               	.global	_ZN7Ssd130611setTextSizeEh
 164               	_ZN7Ssd130611setTextSizeEh:
 165               	.LVL5:
 166               	.LFB148:
 536:funsape/device/ssd1306.cpp **** 
 537:funsape/device/ssd1306.cpp **** //     //////////////////////////     TEXT     /////////////////////////     //
 538:funsape/device/ssd1306.cpp **** 
 539:funsape/device/ssd1306.cpp **** bool_t Ssd1306::setTextSize(cuint8_t size_p)
 540:funsape/device/ssd1306.cpp **** {
 167               		.loc 1 540 1 is_stmt 1 view -0
 168               		.cfi_startproc
 169               	/* prologue: function */
 170               	/* frame size = 0 */
 171               	/* stack size = 0 */
 172               	.L__stack_usage = 0
 173               		.loc 1 540 1 is_stmt 0 view .LVU48
 174 0000 FC01      		movw r30,r24
 541:funsape/device/ssd1306.cpp ****     // Mark passage for debugging purpose
 542:funsape/device/ssd1306.cpp ****     debugMark(PSTR("Ssd1306::setTextSize(cuint8_t)"), Debug::CodeIndex::SSD1306_MODULE);
 175               		.loc 1 542 5 is_stmt 1 view .LVU49
 543:funsape/device/ssd1306.cpp **** 
 544:funsape/device/ssd1306.cpp ****     // Check function arguments for errors
 545:funsape/device/ssd1306.cpp ****     if((size_p == 0) || (size_p > constSsd1306TextSizeMax)) {
 176               		.loc 1 545 5 view .LVU50
 177               		.loc 1 545 22 is_stmt 0 view .LVU51
 178 0002 862F      		mov r24,r22
 179               	.LVL6:
 180               		.loc 1 545 22 view .LVU52
 181 0004 8150      		subi r24,lo8(-(-1))
 182               		.loc 1 545 5 view .LVU53
 183 0006 8430      		cpi r24,lo8(4)
 184 0008 00F4      		brsh .L7
 546:funsape/device/ssd1306.cpp ****         // Returns error
 547:funsape/device/ssd1306.cpp ****         this->_lastError = Error::ARGUMENT_VALUE_INVALID;
 548:funsape/device/ssd1306.cpp ****         debugMessage(Error::ARGUMENT_VALUE_INVALID, Debug::CodeIndex::SSD1306_MODULE);
 549:funsape/device/ssd1306.cpp ****         return false;
 550:funsape/device/ssd1306.cpp ****     }
 551:funsape/device/ssd1306.cpp **** 
 552:funsape/device/ssd1306.cpp ****     // Updates data members
 553:funsape/device/ssd1306.cpp ****     this->_textSize                     = size_p;
 185               		.loc 1 553 5 is_stmt 1 view .LVU54
 186               		.loc 1 553 43 is_stmt 0 view .LVU55
 187 000a 6770      		andi r22,lo8(7)
 188               	.LVL7:
 189               		.loc 1 553 41 view .LVU56
 190 000c 9585      		ldd r25,Z+13
 191 000e 987F      		andi r25,lo8(-8)
 192 0010 962B      		or r25,r22
 193 0012 9587      		std Z+13,r25
 554:funsape/device/ssd1306.cpp **** 
 555:funsape/device/ssd1306.cpp ****     // Returns successfully
GAS LISTING /tmp/cc7wpQ70.s 			page 14


 556:funsape/device/ssd1306.cpp ****     this->_lastError = Error::NONE;
 194               		.loc 1 556 5 is_stmt 1 view .LVU57
 195               		.loc 1 556 22 is_stmt 0 view .LVU58
 196 0014 1782      		std Z+7,__zero_reg__
 197 0016 1682      		std Z+6,__zero_reg__
 557:funsape/device/ssd1306.cpp ****     debugMessage(Error::NONE, Debug::CodeIndex::SSD1306_MODULE);
 198               		.loc 1 557 5 is_stmt 1 view .LVU59
 558:funsape/device/ssd1306.cpp ****     return true;
 199               		.loc 1 558 5 view .LVU60
 200               		.loc 1 558 12 is_stmt 0 view .LVU61
 201 0018 81E0      		ldi r24,lo8(1)
 202               	.LVL8:
 203               	/* epilogue start */
 559:funsape/device/ssd1306.cpp **** }
 204               		.loc 1 559 1 view .LVU62
 205 001a 0895      		ret
 206               	.LVL9:
 207               	.L7:
 547:funsape/device/ssd1306.cpp ****         debugMessage(Error::ARGUMENT_VALUE_INVALID, Debug::CodeIndex::SSD1306_MODULE);
 208               		.loc 1 547 9 is_stmt 1 view .LVU63
 547:funsape/device/ssd1306.cpp ****         debugMessage(Error::ARGUMENT_VALUE_INVALID, Debug::CodeIndex::SSD1306_MODULE);
 209               		.loc 1 547 26 is_stmt 0 view .LVU64
 210 001c 82E5      		ldi r24,lo8(82)
 211 001e 90E0      		ldi r25,0
 212 0020 9783      		std Z+7,r25
 213 0022 8683      		std Z+6,r24
 548:funsape/device/ssd1306.cpp ****         return false;
 214               		.loc 1 548 9 is_stmt 1 view .LVU65
 549:funsape/device/ssd1306.cpp ****     }
 215               		.loc 1 549 9 view .LVU66
 549:funsape/device/ssd1306.cpp ****     }
 216               		.loc 1 549 16 is_stmt 0 view .LVU67
 217 0024 80E0      		ldi r24,0
 218 0026 0895      		ret
 219               		.cfi_endproc
 220               	.LFE148:
 222               		.section	.text._ZN7Ssd13065stdioEv,"ax",@progbits
 223               	.global	_ZN7Ssd13065stdioEv
 225               	_ZN7Ssd13065stdioEv:
 226               	.LVL10:
 227               	.LFB151:
 560:funsape/device/ssd1306.cpp **** 
 561:funsape/device/ssd1306.cpp **** bool_t Ssd1306::setCursor(cuint8_t x_p, cuint8_t page_p)
 562:funsape/device/ssd1306.cpp **** {
 563:funsape/device/ssd1306.cpp ****     // Mark passage for debugging purpose
 564:funsape/device/ssd1306.cpp ****     debugMark(PSTR("Ssd1306::setCursor(cuint8_t, cuint8_t)"), Debug::CodeIndex::SSD1306_MODULE);
 565:funsape/device/ssd1306.cpp **** 
 566:funsape/device/ssd1306.cpp ****     // Check for errors
 567:funsape/device/ssd1306.cpp ****     if(!this->_isInitialized()) {
 568:funsape/device/ssd1306.cpp ****         // Returns error
 569:funsape/device/ssd1306.cpp ****         debugMessage(this->_lastError, Debug::CodeIndex::SSD1306_MODULE);
 570:funsape/device/ssd1306.cpp ****         return false;
 571:funsape/device/ssd1306.cpp ****     }
 572:funsape/device/ssd1306.cpp ****     if((x_p >= constSsd1306Width) || (page_p >= this->_pages)) {
 573:funsape/device/ssd1306.cpp ****         // Returns error
 574:funsape/device/ssd1306.cpp ****         this->_lastError = Error::ARGUMENT_VALUE_INVALID;
 575:funsape/device/ssd1306.cpp ****         debugMessage(Error::ARGUMENT_VALUE_INVALID, Debug::CodeIndex::SSD1306_MODULE);
GAS LISTING /tmp/cc7wpQ70.s 			page 15


 576:funsape/device/ssd1306.cpp ****         return false;
 577:funsape/device/ssd1306.cpp ****     }
 578:funsape/device/ssd1306.cpp **** 
 579:funsape/device/ssd1306.cpp ****     // Updates data members (Y stored in pixels: page * 8)
 580:funsape/device/ssd1306.cpp ****     this->_cursorX                      = x_p;
 581:funsape/device/ssd1306.cpp ****     this->_cursorY                      = (uint8_t)(page_p * 8);
 582:funsape/device/ssd1306.cpp **** 
 583:funsape/device/ssd1306.cpp ****     // Returns successfully
 584:funsape/device/ssd1306.cpp ****     this->_lastError = Error::NONE;
 585:funsape/device/ssd1306.cpp ****     debugMessage(Error::NONE, Debug::CodeIndex::SSD1306_MODULE);
 586:funsape/device/ssd1306.cpp ****     return true;
 587:funsape/device/ssd1306.cpp **** }
 588:funsape/device/ssd1306.cpp **** 
 589:funsape/device/ssd1306.cpp **** bool_t Ssd1306::setCursorPixel(cuint8_t x_p, cuint8_t y_p)
 590:funsape/device/ssd1306.cpp **** {
 591:funsape/device/ssd1306.cpp ****     // Mark passage for debugging purpose
 592:funsape/device/ssd1306.cpp ****     debugMark(PSTR("Ssd1306::setCursorPixel(cuint8_t, cuint8_t)"), Debug::CodeIndex::SSD1306_MODULE
 593:funsape/device/ssd1306.cpp **** 
 594:funsape/device/ssd1306.cpp ****     // Check for errors
 595:funsape/device/ssd1306.cpp ****     if(!this->_isInitialized()) {
 596:funsape/device/ssd1306.cpp ****         // Returns error
 597:funsape/device/ssd1306.cpp ****         debugMessage(this->_lastError, Debug::CodeIndex::SSD1306_MODULE);
 598:funsape/device/ssd1306.cpp ****         return false;
 599:funsape/device/ssd1306.cpp ****     }
 600:funsape/device/ssd1306.cpp ****     if(!this->_buffered) {
 601:funsape/device/ssd1306.cpp ****         // Returns error (arbitrary-Y text needs the framebuffer)
 602:funsape/device/ssd1306.cpp ****         this->_lastError = Error::FEATURE_NOT_SUPPORTED;
 603:funsape/device/ssd1306.cpp ****         debugMessage(Error::FEATURE_NOT_SUPPORTED, Debug::CodeIndex::SSD1306_MODULE);
 604:funsape/device/ssd1306.cpp ****         return false;
 605:funsape/device/ssd1306.cpp ****     }
 606:funsape/device/ssd1306.cpp ****     if((x_p >= constSsd1306Width) || (y_p >= (uint8_t)(this->_pages * 8))) {
 607:funsape/device/ssd1306.cpp ****         // Returns error
 608:funsape/device/ssd1306.cpp ****         this->_lastError = Error::ARGUMENT_VALUE_INVALID;
 609:funsape/device/ssd1306.cpp ****         debugMessage(Error::ARGUMENT_VALUE_INVALID, Debug::CodeIndex::SSD1306_MODULE);
 610:funsape/device/ssd1306.cpp ****         return false;
 611:funsape/device/ssd1306.cpp ****     }
 612:funsape/device/ssd1306.cpp **** 
 613:funsape/device/ssd1306.cpp ****     // Updates data members
 614:funsape/device/ssd1306.cpp ****     this->_cursorX                      = x_p;
 615:funsape/device/ssd1306.cpp ****     this->_cursorY                      = y_p;
 616:funsape/device/ssd1306.cpp **** 
 617:funsape/device/ssd1306.cpp ****     // Returns successfully
 618:funsape/device/ssd1306.cpp ****     this->_lastError = Error::NONE;
 619:funsape/device/ssd1306.cpp ****     debugMessage(Error::NONE, Debug::CodeIndex::SSD1306_MODULE);
 620:funsape/device/ssd1306.cpp ****     return true;
 621:funsape/device/ssd1306.cpp **** }
 622:funsape/device/ssd1306.cpp **** 
 623:funsape/device/ssd1306.cpp **** bool_t Ssd1306::stdio(void)
 624:funsape/device/ssd1306.cpp **** {
 228               		.loc 1 624 1 is_stmt 1 view -0
 229               		.cfi_startproc
 230               	/* prologue: function */
 231               	/* frame size = 0 */
 232               	/* stack size = 0 */
 233               	.L__stack_usage = 0
 625:funsape/device/ssd1306.cpp ****     // Mark passage for debugging purpose
 626:funsape/device/ssd1306.cpp ****     debugMark(PSTR("Ssd1306::stdio(void)"), Debug::CodeIndex::SSD1306_MODULE);
GAS LISTING /tmp/cc7wpQ70.s 			page 16


 234               		.loc 1 626 5 view .LVU69
 627:funsape/device/ssd1306.cpp **** 
 628:funsape/device/ssd1306.cpp ****     stdin = stdout = stderr             = &ssd1306Stream;
 235               		.loc 1 628 5 view .LVU70
 236               		.loc 1 628 41 is_stmt 0 view .LVU71
 237 0000 E0E0      		ldi r30,lo8(__iob)
 238 0002 F0E0      		ldi r31,hi8(__iob)
 239 0004 20E0      		ldi r18,lo8(ssd1306Stream)
 240 0006 30E0      		ldi r19,hi8(ssd1306Stream)
 241 0008 3583      		std Z+5,r19
 242 000a 2483      		std Z+4,r18
 243               		.loc 1 628 20 view .LVU72
 244 000c 3383      		std Z+3,r19
 245 000e 2283      		std Z+2,r18
 246               		.loc 1 628 11 view .LVU73
 247 0010 3183      		std Z+1,r19
 248 0012 2083      		st Z,r18
 629:funsape/device/ssd1306.cpp ****     defaultSsd1306Display               = this;
 249               		.loc 1 629 5 is_stmt 1 view .LVU74
 250               		.loc 1 629 41 is_stmt 0 view .LVU75
 251 0014 9093 0000 		sts defaultSsd1306Display+1,r25
 252 0018 8093 0000 		sts defaultSsd1306Display,r24
 630:funsape/device/ssd1306.cpp **** 
 631:funsape/device/ssd1306.cpp ****     // Returns successfully
 632:funsape/device/ssd1306.cpp ****     this->_lastError = Error::NONE;
 253               		.loc 1 632 5 is_stmt 1 view .LVU76
 254               		.loc 1 632 22 is_stmt 0 view .LVU77
 255 001c FC01      		movw r30,r24
 256 001e 1782      		std Z+7,__zero_reg__
 257 0020 1682      		std Z+6,__zero_reg__
 633:funsape/device/ssd1306.cpp ****     debugMessage(Error::NONE, Debug::CodeIndex::SSD1306_MODULE);
 258               		.loc 1 633 5 is_stmt 1 view .LVU78
 634:funsape/device/ssd1306.cpp ****     return true;
 259               		.loc 1 634 5 view .LVU79
 635:funsape/device/ssd1306.cpp **** }
 260               		.loc 1 635 1 is_stmt 0 view .LVU80
 261 0022 81E0      		ldi r24,lo8(1)
 262               	.LVL11:
 263               	/* epilogue start */
 264               		.loc 1 635 1 view .LVU81
 265 0024 0895      		ret
 266               		.cfi_endproc
 267               	.LFE151:
 269               		.section	.text._ZN7Ssd130613_writeCommandEh,"ax",@progbits
 270               	.global	_ZN7Ssd130613_writeCommandEh
 272               	_ZN7Ssd130613_writeCommandEh:
 273               	.LVL12:
 274               	.LFB160:
 636:funsape/device/ssd1306.cpp **** 
 637:funsape/device/ssd1306.cpp **** bool_t Ssd1306::print(cchar_t character_p)
 638:funsape/device/ssd1306.cpp **** {
 639:funsape/device/ssd1306.cpp ****     // Mark passage for debugging purpose
 640:funsape/device/ssd1306.cpp ****     debugMark(PSTR("Ssd1306::print(cchar_t)"), Debug::CodeIndex::SSD1306_MODULE);
 641:funsape/device/ssd1306.cpp **** 
 642:funsape/device/ssd1306.cpp ****     // Check for errors
 643:funsape/device/ssd1306.cpp ****     if(!this->_isInitialized()) {
 644:funsape/device/ssd1306.cpp ****         // Returns error
GAS LISTING /tmp/cc7wpQ70.s 			page 17


 645:funsape/device/ssd1306.cpp ****         debugMessage(this->_lastError, Debug::CodeIndex::SSD1306_MODULE);
 646:funsape/device/ssd1306.cpp ****         return false;
 647:funsape/device/ssd1306.cpp ****     }
 648:funsape/device/ssd1306.cpp **** 
 649:funsape/device/ssd1306.cpp ****     if(character_p == '\n') {
 650:funsape/device/ssd1306.cpp ****         this->_cursorX                  = 0;
 651:funsape/device/ssd1306.cpp ****         this->_cursorY                  += (uint8_t)(this->_textSize * 8);
 652:funsape/device/ssd1306.cpp ****         if((this->_cursorY + (this->_textSize * 8)) > (this->_pages * 8)) {
 653:funsape/device/ssd1306.cpp ****             this->_cursorY              = 0;
 654:funsape/device/ssd1306.cpp ****         }
 655:funsape/device/ssd1306.cpp ****     } else {
 656:funsape/device/ssd1306.cpp ****         if(!this->_writeChar(character_p)) {
 657:funsape/device/ssd1306.cpp ****             // Returns error
 658:funsape/device/ssd1306.cpp ****             debugMessage(this->_lastError, Debug::CodeIndex::SSD1306_MODULE);
 659:funsape/device/ssd1306.cpp ****             return false;
 660:funsape/device/ssd1306.cpp ****         }
 661:funsape/device/ssd1306.cpp ****     }
 662:funsape/device/ssd1306.cpp **** 
 663:funsape/device/ssd1306.cpp ****     // Returns successfully
 664:funsape/device/ssd1306.cpp ****     this->_lastError = Error::NONE;
 665:funsape/device/ssd1306.cpp ****     debugMessage(Error::NONE, Debug::CodeIndex::SSD1306_MODULE);
 666:funsape/device/ssd1306.cpp ****     return true;
 667:funsape/device/ssd1306.cpp **** }
 668:funsape/device/ssd1306.cpp **** 
 669:funsape/device/ssd1306.cpp **** bool_t Ssd1306::print(cchar_t *string_p)
 670:funsape/device/ssd1306.cpp **** {
 671:funsape/device/ssd1306.cpp ****     // Mark passage for debugging purpose
 672:funsape/device/ssd1306.cpp ****     debugMark(PSTR("Ssd1306::print(cchar_t *)"), Debug::CodeIndex::SSD1306_MODULE);
 673:funsape/device/ssd1306.cpp **** 
 674:funsape/device/ssd1306.cpp ****     // Local variables
 675:funsape/device/ssd1306.cpp ****     uint16_t i                          = 0;
 676:funsape/device/ssd1306.cpp **** 
 677:funsape/device/ssd1306.cpp ****     // Check for errors
 678:funsape/device/ssd1306.cpp ****     if(!this->_isInitialized()) {
 679:funsape/device/ssd1306.cpp ****         // Returns error
 680:funsape/device/ssd1306.cpp ****         debugMessage(this->_lastError, Debug::CodeIndex::SSD1306_MODULE);
 681:funsape/device/ssd1306.cpp ****         return false;
 682:funsape/device/ssd1306.cpp ****     }
 683:funsape/device/ssd1306.cpp ****     if(!isPointerValid(string_p)) {
 684:funsape/device/ssd1306.cpp ****         // Returns error
 685:funsape/device/ssd1306.cpp ****         this->_lastError = Error::ARGUMENT_POINTER_NULL;
 686:funsape/device/ssd1306.cpp ****         debugMessage(Error::ARGUMENT_POINTER_NULL, Debug::CodeIndex::SSD1306_MODULE);
 687:funsape/device/ssd1306.cpp ****         return false;
 688:funsape/device/ssd1306.cpp ****     }
 689:funsape/device/ssd1306.cpp **** 
 690:funsape/device/ssd1306.cpp ****     while(string_p[i]) {
 691:funsape/device/ssd1306.cpp ****         if(!this->print(string_p[i])) {
 692:funsape/device/ssd1306.cpp ****             // Returns error
 693:funsape/device/ssd1306.cpp ****             debugMessage(this->_lastError, Debug::CodeIndex::SSD1306_MODULE);
 694:funsape/device/ssd1306.cpp ****             return false;
 695:funsape/device/ssd1306.cpp ****         }
 696:funsape/device/ssd1306.cpp ****         i++;
 697:funsape/device/ssd1306.cpp ****     }
 698:funsape/device/ssd1306.cpp **** 
 699:funsape/device/ssd1306.cpp ****     // Returns successfully
 700:funsape/device/ssd1306.cpp ****     this->_lastError = Error::NONE;
 701:funsape/device/ssd1306.cpp ****     debugMessage(Error::NONE, Debug::CodeIndex::SSD1306_MODULE);
GAS LISTING /tmp/cc7wpQ70.s 			page 18


 702:funsape/device/ssd1306.cpp ****     return true;
 703:funsape/device/ssd1306.cpp **** }
 704:funsape/device/ssd1306.cpp **** 
 705:funsape/device/ssd1306.cpp **** //     ////////////////////////     GRAPHICS     ///////////////////////     //
 706:funsape/device/ssd1306.cpp **** 
 707:funsape/device/ssd1306.cpp **** bool_t Ssd1306::drawPixel(cuint8_t x_p, cuint8_t y_p, cbool_t on_p)
 708:funsape/device/ssd1306.cpp **** {
 709:funsape/device/ssd1306.cpp ****     // Mark passage for debugging purpose
 710:funsape/device/ssd1306.cpp ****     debugMark(PSTR("Ssd1306::drawPixel(cuint8_t, cuint8_t, cbool_t)"), Debug::CodeIndex::SSD1306_MO
 711:funsape/device/ssd1306.cpp **** 
 712:funsape/device/ssd1306.cpp ****     // Check for errors
 713:funsape/device/ssd1306.cpp ****     if(!this->_isInitialized()) {
 714:funsape/device/ssd1306.cpp ****         // Returns error
 715:funsape/device/ssd1306.cpp ****         debugMessage(this->_lastError, Debug::CodeIndex::SSD1306_MODULE);
 716:funsape/device/ssd1306.cpp ****         return false;
 717:funsape/device/ssd1306.cpp ****     }
 718:funsape/device/ssd1306.cpp ****     if(!this->_buffered) {
 719:funsape/device/ssd1306.cpp ****         // Returns error (arbitrary pixel plotting needs the framebuffer)
 720:funsape/device/ssd1306.cpp ****         this->_lastError = Error::FEATURE_NOT_SUPPORTED;
 721:funsape/device/ssd1306.cpp ****         debugMessage(Error::FEATURE_NOT_SUPPORTED, Debug::CodeIndex::SSD1306_MODULE);
 722:funsape/device/ssd1306.cpp ****         return false;
 723:funsape/device/ssd1306.cpp ****     }
 724:funsape/device/ssd1306.cpp ****     if((x_p >= constSsd1306Width) || (y_p >= (uint8_t)(this->_pages * 8))) {
 725:funsape/device/ssd1306.cpp ****         // Returns error
 726:funsape/device/ssd1306.cpp ****         this->_lastError = Error::ARGUMENT_VALUE_INVALID;
 727:funsape/device/ssd1306.cpp ****         debugMessage(Error::ARGUMENT_VALUE_INVALID, Debug::CodeIndex::SSD1306_MODULE);
 728:funsape/device/ssd1306.cpp ****         return false;
 729:funsape/device/ssd1306.cpp ****     }
 730:funsape/device/ssd1306.cpp **** 
 731:funsape/device/ssd1306.cpp ****     // Sets the pixel in the framebuffer
 732:funsape/device/ssd1306.cpp ****     this->_setPixel(x_p, y_p, on_p);
 733:funsape/device/ssd1306.cpp **** 
 734:funsape/device/ssd1306.cpp ****     // Returns successfully
 735:funsape/device/ssd1306.cpp ****     this->_lastError = Error::NONE;
 736:funsape/device/ssd1306.cpp ****     debugMessage(Error::NONE, Debug::CodeIndex::SSD1306_MODULE);
 737:funsape/device/ssd1306.cpp ****     return true;
 738:funsape/device/ssd1306.cpp **** }
 739:funsape/device/ssd1306.cpp **** 
 740:funsape/device/ssd1306.cpp **** bool_t Ssd1306::drawLine(cuint8_t x0_p, cuint8_t y0_p, cuint8_t x1_p, cuint8_t y1_p, cbool_t on_p)
 741:funsape/device/ssd1306.cpp **** {
 742:funsape/device/ssd1306.cpp ****     // Mark passage for debugging purpose
 743:funsape/device/ssd1306.cpp ****     debugMark(PSTR("Ssd1306::drawLine(cuint8_t, cuint8_t, cuint8_t, cuint8_t, cbool_t)"),
 744:funsape/device/ssd1306.cpp ****             Debug::CodeIndex::SSD1306_MODULE);
 745:funsape/device/ssd1306.cpp **** 
 746:funsape/device/ssd1306.cpp ****     // Check for errors
 747:funsape/device/ssd1306.cpp ****     if(!this->_isInitialized()) {
 748:funsape/device/ssd1306.cpp ****         // Returns error
 749:funsape/device/ssd1306.cpp ****         debugMessage(this->_lastError, Debug::CodeIndex::SSD1306_MODULE);
 750:funsape/device/ssd1306.cpp ****         return false;
 751:funsape/device/ssd1306.cpp ****     }
 752:funsape/device/ssd1306.cpp ****     if(!this->_buffered) {
 753:funsape/device/ssd1306.cpp ****         // Returns error (line drawing needs the framebuffer)
 754:funsape/device/ssd1306.cpp ****         this->_lastError = Error::FEATURE_NOT_SUPPORTED;
 755:funsape/device/ssd1306.cpp ****         debugMessage(Error::FEATURE_NOT_SUPPORTED, Debug::CodeIndex::SSD1306_MODULE);
 756:funsape/device/ssd1306.cpp ****         return false;
 757:funsape/device/ssd1306.cpp ****     }
 758:funsape/device/ssd1306.cpp **** 
GAS LISTING /tmp/cc7wpQ70.s 			page 19


 759:funsape/device/ssd1306.cpp ****     // Local variables (Bresenham line algorithm)
 760:funsape/device/ssd1306.cpp ****     int16_t auxX0                       = x0_p;
 761:funsape/device/ssd1306.cpp ****     int16_t auxY0                       = y0_p;
 762:funsape/device/ssd1306.cpp ****     int16_t auxDx                       = (x1_p >= x0_p) ? (x1_p - x0_p) : (x0_p - x1_p);
 763:funsape/device/ssd1306.cpp ****     int16_t auxDy                       = (y1_p >= y0_p) ? -(y1_p - y0_p) : -(y0_p - y1_p);
 764:funsape/device/ssd1306.cpp ****     int16_t auxSx                       = (x0_p < x1_p) ? 1 : -1;
 765:funsape/device/ssd1306.cpp ****     int16_t auxSy                       = (y0_p < y1_p) ? 1 : -1;
 766:funsape/device/ssd1306.cpp ****     int16_t auxErr                      = auxDx + auxDy;
 767:funsape/device/ssd1306.cpp **** 
 768:funsape/device/ssd1306.cpp ****     // Walks the line, one pixel at a time
 769:funsape/device/ssd1306.cpp ****     while(true) {
 770:funsape/device/ssd1306.cpp ****         this->_setPixel((uint8_t)auxX0, (uint8_t)auxY0, on_p);
 771:funsape/device/ssd1306.cpp ****         if((auxX0 == (int16_t)x1_p) && (auxY0 == (int16_t)y1_p)) {
 772:funsape/device/ssd1306.cpp ****             break;
 773:funsape/device/ssd1306.cpp ****         }
 774:funsape/device/ssd1306.cpp ****         int16_t auxErr2 = (int16_t)(2 * auxErr);
 775:funsape/device/ssd1306.cpp ****         if(auxErr2 >= auxDy) {
 776:funsape/device/ssd1306.cpp ****             auxErr                      += auxDy;
 777:funsape/device/ssd1306.cpp ****             auxX0                       += auxSx;
 778:funsape/device/ssd1306.cpp ****         }
 779:funsape/device/ssd1306.cpp ****         if(auxErr2 <= auxDx) {
 780:funsape/device/ssd1306.cpp ****             auxErr                      += auxDx;
 781:funsape/device/ssd1306.cpp ****             auxY0                       += auxSy;
 782:funsape/device/ssd1306.cpp ****         }
 783:funsape/device/ssd1306.cpp ****     }
 784:funsape/device/ssd1306.cpp **** 
 785:funsape/device/ssd1306.cpp ****     // Returns successfully
 786:funsape/device/ssd1306.cpp ****     this->_lastError = Error::NONE;
 787:funsape/device/ssd1306.cpp ****     debugMessage(Error::NONE, Debug::CodeIndex::SSD1306_MODULE);
 788:funsape/device/ssd1306.cpp ****     return true;
 789:funsape/device/ssd1306.cpp **** }
 790:funsape/device/ssd1306.cpp **** 
 791:funsape/device/ssd1306.cpp **** bool_t Ssd1306::fillRect(cuint8_t x_p, cuint8_t page_p, cuint8_t width_p, cuint8_t heightPages_p, c
 792:funsape/device/ssd1306.cpp **** {
 793:funsape/device/ssd1306.cpp ****     // Mark passage for debugging purpose
 794:funsape/device/ssd1306.cpp ****     debugMark(PSTR("Ssd1306::fillRect(cuint8_t, cuint8_t, cuint8_t, cuint8_t, cbool_t)"),
 795:funsape/device/ssd1306.cpp ****             Debug::CodeIndex::SSD1306_MODULE);
 796:funsape/device/ssd1306.cpp **** 
 797:funsape/device/ssd1306.cpp ****     // Check for errors
 798:funsape/device/ssd1306.cpp ****     if(!this->_isInitialized()) {
 799:funsape/device/ssd1306.cpp ****         // Returns error
 800:funsape/device/ssd1306.cpp ****         debugMessage(this->_lastError, Debug::CodeIndex::SSD1306_MODULE);
 801:funsape/device/ssd1306.cpp ****         return false;
 802:funsape/device/ssd1306.cpp ****     }
 803:funsape/device/ssd1306.cpp ****     if((x_p >= constSsd1306Width) || (page_p >= this->_pages) || (width_p == 0) || (heightPages_p =
 804:funsape/device/ssd1306.cpp ****         // Returns error
 805:funsape/device/ssd1306.cpp ****         this->_lastError = Error::ARGUMENT_VALUE_INVALID;
 806:funsape/device/ssd1306.cpp ****         debugMessage(Error::ARGUMENT_VALUE_INVALID, Debug::CodeIndex::SSD1306_MODULE);
 807:funsape/device/ssd1306.cpp ****         return false;
 808:funsape/device/ssd1306.cpp ****     }
 809:funsape/device/ssd1306.cpp **** 
 810:funsape/device/ssd1306.cpp ****     // Buffered mode: fills the block pixel by pixel (out-of-bounds is ignored)
 811:funsape/device/ssd1306.cpp ****     if(this->_buffered) {
 812:funsape/device/ssd1306.cpp ****         uint16_t auxBottom = (uint16_t)(page_p + heightPages_p) * 8;         // exclusive
 813:funsape/device/ssd1306.cpp ****         for(uint16_t y = (uint16_t)(page_p * 8); y < auxBottom; y++) {
 814:funsape/device/ssd1306.cpp ****             for(uint16_t x = x_p; x < (uint16_t)(x_p + width_p); x++) {
 815:funsape/device/ssd1306.cpp ****                 this->_setPixel((uint8_t)x, (uint8_t)y, on_p);
GAS LISTING /tmp/cc7wpQ70.s 			page 20


 816:funsape/device/ssd1306.cpp ****             }
 817:funsape/device/ssd1306.cpp ****         }
 818:funsape/device/ssd1306.cpp ****         this->_lastError = Error::NONE;
 819:funsape/device/ssd1306.cpp ****         debugMessage(Error::NONE, Debug::CodeIndex::SSD1306_MODULE);
 820:funsape/device/ssd1306.cpp ****         return true;
 821:funsape/device/ssd1306.cpp ****     }
 822:funsape/device/ssd1306.cpp **** 
 823:funsape/device/ssd1306.cpp ****     // Local variables (clamps region to the display bounds)
 824:funsape/device/ssd1306.cpp ****     uint8_t auxBuffer[constSsd1306DataChunk];
 825:funsape/device/ssd1306.cpp ****     uint8_t auxValue                    = (on_p) ? 0xFF : 0x00;
 826:funsape/device/ssd1306.cpp ****     uint8_t auxWidth                    = width_p;
 827:funsape/device/ssd1306.cpp ****     uint8_t auxLastPage                 = page_p + heightPages_p;
 828:funsape/device/ssd1306.cpp **** 
 829:funsape/device/ssd1306.cpp ****     if((x_p + auxWidth) > constSsd1306Width) {
 830:funsape/device/ssd1306.cpp ****         auxWidth = constSsd1306Width - x_p;
 831:funsape/device/ssd1306.cpp ****     }
 832:funsape/device/ssd1306.cpp ****     if(auxLastPage > this->_pages) {
 833:funsape/device/ssd1306.cpp ****         auxLastPage = this->_pages;
 834:funsape/device/ssd1306.cpp ****     }
 835:funsape/device/ssd1306.cpp ****     for(uint8_t i = 0; i < constSsd1306DataChunk; i++) {
 836:funsape/device/ssd1306.cpp ****         auxBuffer[i] = auxValue;
 837:funsape/device/ssd1306.cpp ****     }
 838:funsape/device/ssd1306.cpp **** 
 839:funsape/device/ssd1306.cpp ****     // Writes the block page by page
 840:funsape/device/ssd1306.cpp ****     for(uint8_t page = page_p; page < auxLastPage; page++) {
 841:funsape/device/ssd1306.cpp ****         if(!this->_setAddress(page, x_p)) {
 842:funsape/device/ssd1306.cpp ****             // Returns error
 843:funsape/device/ssd1306.cpp ****             debugMessage(this->_lastError, Debug::CodeIndex::SSD1306_MODULE);
 844:funsape/device/ssd1306.cpp ****             return false;
 845:funsape/device/ssd1306.cpp ****         }
 846:funsape/device/ssd1306.cpp ****         uint8_t remaining = auxWidth;
 847:funsape/device/ssd1306.cpp ****         while(remaining > 0) {
 848:funsape/device/ssd1306.cpp ****             uint8_t chunk = (remaining > constSsd1306DataChunk) ? constSsd1306DataChunk : remaining
 849:funsape/device/ssd1306.cpp ****             if(!this->_writeData(auxBuffer, chunk)) {
 850:funsape/device/ssd1306.cpp ****                 // Returns error
 851:funsape/device/ssd1306.cpp ****                 debugMessage(this->_lastError, Debug::CodeIndex::SSD1306_MODULE);
 852:funsape/device/ssd1306.cpp ****                 return false;
 853:funsape/device/ssd1306.cpp ****             }
 854:funsape/device/ssd1306.cpp ****             remaining -= chunk;
 855:funsape/device/ssd1306.cpp ****         }
 856:funsape/device/ssd1306.cpp ****     }
 857:funsape/device/ssd1306.cpp **** 
 858:funsape/device/ssd1306.cpp ****     // Returns successfully
 859:funsape/device/ssd1306.cpp ****     this->_lastError = Error::NONE;
 860:funsape/device/ssd1306.cpp ****     debugMessage(Error::NONE, Debug::CodeIndex::SSD1306_MODULE);
 861:funsape/device/ssd1306.cpp ****     return true;
 862:funsape/device/ssd1306.cpp **** }
 863:funsape/device/ssd1306.cpp **** 
 864:funsape/device/ssd1306.cpp **** bool_t Ssd1306::drawRect(cuint8_t x_p, cuint8_t page_p, cuint8_t width_p, cuint8_t heightPages_p)
 865:funsape/device/ssd1306.cpp **** {
 866:funsape/device/ssd1306.cpp ****     // Mark passage for debugging purpose
 867:funsape/device/ssd1306.cpp ****     debugMark(PSTR("Ssd1306::drawRect(cuint8_t, cuint8_t, cuint8_t, cuint8_t)"),
 868:funsape/device/ssd1306.cpp ****             Debug::CodeIndex::SSD1306_MODULE);
 869:funsape/device/ssd1306.cpp **** 
 870:funsape/device/ssd1306.cpp ****     // Check for errors
 871:funsape/device/ssd1306.cpp ****     if(!this->_isInitialized()) {
 872:funsape/device/ssd1306.cpp ****         // Returns error
GAS LISTING /tmp/cc7wpQ70.s 			page 21


 873:funsape/device/ssd1306.cpp ****         debugMessage(this->_lastError, Debug::CodeIndex::SSD1306_MODULE);
 874:funsape/device/ssd1306.cpp ****         return false;
 875:funsape/device/ssd1306.cpp ****     }
 876:funsape/device/ssd1306.cpp ****     if((x_p >= constSsd1306Width) || (page_p >= this->_pages) || (width_p < 2) || (heightPages_p ==
 877:funsape/device/ssd1306.cpp ****         // Returns error
 878:funsape/device/ssd1306.cpp ****         this->_lastError = Error::ARGUMENT_VALUE_INVALID;
 879:funsape/device/ssd1306.cpp ****         debugMessage(Error::ARGUMENT_VALUE_INVALID, Debug::CodeIndex::SSD1306_MODULE);
 880:funsape/device/ssd1306.cpp ****         return false;
 881:funsape/device/ssd1306.cpp ****     }
 882:funsape/device/ssd1306.cpp **** 
 883:funsape/device/ssd1306.cpp ****     // Buffered mode: draws the 4 edges pixel by pixel (clamped to the panel)
 884:funsape/device/ssd1306.cpp ****     if(this->_buffered) {
 885:funsape/device/ssd1306.cpp ****         uint16_t auxBottom16 = (uint16_t)(page_p + heightPages_p) * 8;
 886:funsape/device/ssd1306.cpp ****         uint16_t auxRight16  = (uint16_t)x_p + width_p;
 887:funsape/device/ssd1306.cpp ****         if(auxBottom16 > (uint16_t)(this->_pages * 8)) {
 888:funsape/device/ssd1306.cpp ****             auxBottom16 = (uint16_t)(this->_pages * 8);
 889:funsape/device/ssd1306.cpp ****         }
 890:funsape/device/ssd1306.cpp ****         if(auxRight16 > constSsd1306Width) {
 891:funsape/device/ssd1306.cpp ****             auxRight16 = constSsd1306Width;
 892:funsape/device/ssd1306.cpp ****         }
 893:funsape/device/ssd1306.cpp ****         uint8_t auxTop      = (uint8_t)(page_p * 8);
 894:funsape/device/ssd1306.cpp ****         uint8_t auxBottom   = (uint8_t)(auxBottom16 - 1);
 895:funsape/device/ssd1306.cpp ****         uint8_t auxRight    = (uint8_t)(auxRight16 - 1);
 896:funsape/device/ssd1306.cpp **** 
 897:funsape/device/ssd1306.cpp ****         for(uint16_t x = x_p; x <= auxRight; x++) {
 898:funsape/device/ssd1306.cpp ****             this->_setPixel((uint8_t)x, auxTop, true);
 899:funsape/device/ssd1306.cpp ****             this->_setPixel((uint8_t)x, auxBottom, true);
 900:funsape/device/ssd1306.cpp ****         }
 901:funsape/device/ssd1306.cpp ****         for(uint16_t y = auxTop; y <= auxBottom; y++) {
 902:funsape/device/ssd1306.cpp ****             this->_setPixel(x_p, (uint8_t)y, true);
 903:funsape/device/ssd1306.cpp ****             this->_setPixel(auxRight, (uint8_t)y, true);
 904:funsape/device/ssd1306.cpp ****         }
 905:funsape/device/ssd1306.cpp ****         this->_lastError = Error::NONE;
 906:funsape/device/ssd1306.cpp ****         debugMessage(Error::NONE, Debug::CodeIndex::SSD1306_MODULE);
 907:funsape/device/ssd1306.cpp ****         return true;
 908:funsape/device/ssd1306.cpp ****     }
 909:funsape/device/ssd1306.cpp **** 
 910:funsape/device/ssd1306.cpp ****     // Local variables (clamps region to the display bounds)
 911:funsape/device/ssd1306.cpp ****     uint8_t auxBuffer[constSsd1306DataChunk];
 912:funsape/device/ssd1306.cpp ****     uint8_t auxWidth                    = width_p;
 913:funsape/device/ssd1306.cpp ****     uint8_t auxLastPage                 = page_p + heightPages_p;
 914:funsape/device/ssd1306.cpp **** 
 915:funsape/device/ssd1306.cpp ****     if((x_p + auxWidth) > constSsd1306Width) {
 916:funsape/device/ssd1306.cpp ****         auxWidth = constSsd1306Width - x_p;
 917:funsape/device/ssd1306.cpp ****     }
 918:funsape/device/ssd1306.cpp ****     if(auxLastPage > this->_pages) {
 919:funsape/device/ssd1306.cpp ****         auxLastPage = this->_pages;
 920:funsape/device/ssd1306.cpp ****     }
 921:funsape/device/ssd1306.cpp **** 
 922:funsape/device/ssd1306.cpp ****     // Writes the outline page by page (whole page-columns, so corners are correct)
 923:funsape/device/ssd1306.cpp ****     for(uint8_t page = page_p; page < auxLastPage; page++) {
 924:funsape/device/ssd1306.cpp ****         bool_t auxIsTopPage             = (page == page_p);
 925:funsape/device/ssd1306.cpp ****         bool_t auxIsBottomPage          = (page == (uint8_t)(auxLastPage - 1));
 926:funsape/device/ssd1306.cpp ****         uint8_t auxIndex                = 0;
 927:funsape/device/ssd1306.cpp **** 
 928:funsape/device/ssd1306.cpp ****         if(!this->_setAddress(page, x_p)) {
 929:funsape/device/ssd1306.cpp ****             // Returns error
GAS LISTING /tmp/cc7wpQ70.s 			page 22


 930:funsape/device/ssd1306.cpp ****             debugMessage(this->_lastError, Debug::CodeIndex::SSD1306_MODULE);
 931:funsape/device/ssd1306.cpp ****             return false;
 932:funsape/device/ssd1306.cpp ****         }
 933:funsape/device/ssd1306.cpp ****         for(uint8_t i = 0; i < auxWidth; i++) {
 934:funsape/device/ssd1306.cpp ****             uint8_t auxByte             = 0x00;
 935:funsape/device/ssd1306.cpp ****             if((i == 0) || (i == (uint8_t)(auxWidth - 1))) {
 936:funsape/device/ssd1306.cpp ****                 auxByte                 = 0xFF;                 // left / right side
 937:funsape/device/ssd1306.cpp ****             } else {
 938:funsape/device/ssd1306.cpp ****                 if(auxIsTopPage) {
 939:funsape/device/ssd1306.cpp ****                     auxByte             |= 0x01;                // top edge
 940:funsape/device/ssd1306.cpp ****                 }
 941:funsape/device/ssd1306.cpp ****                 if(auxIsBottomPage) {
 942:funsape/device/ssd1306.cpp ****                     auxByte             |= 0x80;                // bottom edge
 943:funsape/device/ssd1306.cpp ****                 }
 944:funsape/device/ssd1306.cpp ****             }
 945:funsape/device/ssd1306.cpp ****             auxBuffer[auxIndex++]       = auxByte;
 946:funsape/device/ssd1306.cpp ****             if(auxIndex == constSsd1306DataChunk) {
 947:funsape/device/ssd1306.cpp ****                 if(!this->_writeData(auxBuffer, auxIndex)) {
 948:funsape/device/ssd1306.cpp ****                     // Returns error
 949:funsape/device/ssd1306.cpp ****                     debugMessage(this->_lastError, Debug::CodeIndex::SSD1306_MODULE);
 950:funsape/device/ssd1306.cpp ****                     return false;
 951:funsape/device/ssd1306.cpp ****                 }
 952:funsape/device/ssd1306.cpp ****                 auxIndex                = 0;
 953:funsape/device/ssd1306.cpp ****             }
 954:funsape/device/ssd1306.cpp ****         }
 955:funsape/device/ssd1306.cpp ****         if(auxIndex > 0) {
 956:funsape/device/ssd1306.cpp ****             if(!this->_writeData(auxBuffer, auxIndex)) {
 957:funsape/device/ssd1306.cpp ****                 // Returns error
 958:funsape/device/ssd1306.cpp ****                 debugMessage(this->_lastError, Debug::CodeIndex::SSD1306_MODULE);
 959:funsape/device/ssd1306.cpp ****                 return false;
 960:funsape/device/ssd1306.cpp ****             }
 961:funsape/device/ssd1306.cpp ****         }
 962:funsape/device/ssd1306.cpp ****     }
 963:funsape/device/ssd1306.cpp **** 
 964:funsape/device/ssd1306.cpp ****     // Returns successfully
 965:funsape/device/ssd1306.cpp ****     this->_lastError = Error::NONE;
 966:funsape/device/ssd1306.cpp ****     debugMessage(Error::NONE, Debug::CodeIndex::SSD1306_MODULE);
 967:funsape/device/ssd1306.cpp ****     return true;
 968:funsape/device/ssd1306.cpp **** }
 969:funsape/device/ssd1306.cpp **** 
 970:funsape/device/ssd1306.cpp **** bool_t Ssd1306::drawHLine(cuint8_t x_p, cuint8_t y_p, cuint8_t width_p)
 971:funsape/device/ssd1306.cpp **** {
 972:funsape/device/ssd1306.cpp ****     // Mark passage for debugging purpose
 973:funsape/device/ssd1306.cpp ****     debugMark(PSTR("Ssd1306::drawHLine(cuint8_t, cuint8_t, cuint8_t)"), Debug::CodeIndex::SSD1306_M
 974:funsape/device/ssd1306.cpp **** 
 975:funsape/device/ssd1306.cpp ****     // Check for errors
 976:funsape/device/ssd1306.cpp ****     if(!this->_isInitialized()) {
 977:funsape/device/ssd1306.cpp ****         // Returns error
 978:funsape/device/ssd1306.cpp ****         debugMessage(this->_lastError, Debug::CodeIndex::SSD1306_MODULE);
 979:funsape/device/ssd1306.cpp ****         return false;
 980:funsape/device/ssd1306.cpp ****     }
 981:funsape/device/ssd1306.cpp ****     if((x_p >= constSsd1306Width) || (y_p >= (uint8_t)(this->_pages * 8)) || (width_p == 0)) {
 982:funsape/device/ssd1306.cpp ****         // Returns error
 983:funsape/device/ssd1306.cpp ****         this->_lastError = Error::ARGUMENT_VALUE_INVALID;
 984:funsape/device/ssd1306.cpp ****         debugMessage(Error::ARGUMENT_VALUE_INVALID, Debug::CodeIndex::SSD1306_MODULE);
 985:funsape/device/ssd1306.cpp ****         return false;
 986:funsape/device/ssd1306.cpp ****     }
GAS LISTING /tmp/cc7wpQ70.s 			page 23


 987:funsape/device/ssd1306.cpp **** 
 988:funsape/device/ssd1306.cpp ****     // Buffered mode: sets the line pixel by pixel (out-of-bounds is ignored)
 989:funsape/device/ssd1306.cpp ****     if(this->_buffered) {
 990:funsape/device/ssd1306.cpp ****         for(uint16_t x = x_p; x < (uint16_t)(x_p + width_p); x++) {
 991:funsape/device/ssd1306.cpp ****             this->_setPixel((uint8_t)x, y_p, true);
 992:funsape/device/ssd1306.cpp ****         }
 993:funsape/device/ssd1306.cpp ****         this->_lastError = Error::NONE;
 994:funsape/device/ssd1306.cpp ****         debugMessage(Error::NONE, Debug::CodeIndex::SSD1306_MODULE);
 995:funsape/device/ssd1306.cpp ****         return true;
 996:funsape/device/ssd1306.cpp ****     }
 997:funsape/device/ssd1306.cpp **** 
 998:funsape/device/ssd1306.cpp ****     // Local variables
 999:funsape/device/ssd1306.cpp ****     uint8_t auxBuffer[constSsd1306DataChunk];
1000:funsape/device/ssd1306.cpp ****     uint8_t auxMask                     = (1 << (y_p % 8));
1001:funsape/device/ssd1306.cpp ****     uint8_t auxWidth                    = width_p;
1002:funsape/device/ssd1306.cpp **** 
1003:funsape/device/ssd1306.cpp ****     if((x_p + auxWidth) > constSsd1306Width) {
1004:funsape/device/ssd1306.cpp ****         auxWidth = constSsd1306Width - x_p;
1005:funsape/device/ssd1306.cpp ****     }
1006:funsape/device/ssd1306.cpp ****     for(uint8_t i = 0; i < constSsd1306DataChunk; i++) {
1007:funsape/device/ssd1306.cpp ****         auxBuffer[i] = auxMask;
1008:funsape/device/ssd1306.cpp ****     }
1009:funsape/device/ssd1306.cpp **** 
1010:funsape/device/ssd1306.cpp ****     // Writes the line
1011:funsape/device/ssd1306.cpp ****     if(!this->_setAddress(y_p / 8, x_p)) {
1012:funsape/device/ssd1306.cpp ****         // Returns error
1013:funsape/device/ssd1306.cpp ****         debugMessage(this->_lastError, Debug::CodeIndex::SSD1306_MODULE);
1014:funsape/device/ssd1306.cpp ****         return false;
1015:funsape/device/ssd1306.cpp ****     }
1016:funsape/device/ssd1306.cpp ****     uint8_t remaining                   = auxWidth;
1017:funsape/device/ssd1306.cpp ****     while(remaining > 0) {
1018:funsape/device/ssd1306.cpp ****         uint8_t chunk = (remaining > constSsd1306DataChunk) ? constSsd1306DataChunk : remaining;
1019:funsape/device/ssd1306.cpp ****         if(!this->_writeData(auxBuffer, chunk)) {
1020:funsape/device/ssd1306.cpp ****             // Returns error
1021:funsape/device/ssd1306.cpp ****             debugMessage(this->_lastError, Debug::CodeIndex::SSD1306_MODULE);
1022:funsape/device/ssd1306.cpp ****             return false;
1023:funsape/device/ssd1306.cpp ****         }
1024:funsape/device/ssd1306.cpp ****         remaining -= chunk;
1025:funsape/device/ssd1306.cpp ****     }
1026:funsape/device/ssd1306.cpp **** 
1027:funsape/device/ssd1306.cpp ****     // Returns successfully
1028:funsape/device/ssd1306.cpp ****     this->_lastError = Error::NONE;
1029:funsape/device/ssd1306.cpp ****     debugMessage(Error::NONE, Debug::CodeIndex::SSD1306_MODULE);
1030:funsape/device/ssd1306.cpp ****     return true;
1031:funsape/device/ssd1306.cpp **** }
1032:funsape/device/ssd1306.cpp **** 
1033:funsape/device/ssd1306.cpp **** bool_t Ssd1306::drawVLine(cuint8_t x_p, cuint8_t y_p, cuint8_t height_p)
1034:funsape/device/ssd1306.cpp **** {
1035:funsape/device/ssd1306.cpp ****     // Mark passage for debugging purpose
1036:funsape/device/ssd1306.cpp ****     debugMark(PSTR("Ssd1306::drawVLine(cuint8_t, cuint8_t, cuint8_t)"), Debug::CodeIndex::SSD1306_M
1037:funsape/device/ssd1306.cpp **** 
1038:funsape/device/ssd1306.cpp ****     // Check for errors
1039:funsape/device/ssd1306.cpp ****     if(!this->_isInitialized()) {
1040:funsape/device/ssd1306.cpp ****         // Returns error
1041:funsape/device/ssd1306.cpp ****         debugMessage(this->_lastError, Debug::CodeIndex::SSD1306_MODULE);
1042:funsape/device/ssd1306.cpp ****         return false;
1043:funsape/device/ssd1306.cpp ****     }
GAS LISTING /tmp/cc7wpQ70.s 			page 24


1044:funsape/device/ssd1306.cpp ****     if((x_p >= constSsd1306Width) || (y_p >= (uint8_t)(this->_pages * 8)) || (height_p == 0)) {
1045:funsape/device/ssd1306.cpp ****         // Returns error
1046:funsape/device/ssd1306.cpp ****         this->_lastError = Error::ARGUMENT_VALUE_INVALID;
1047:funsape/device/ssd1306.cpp ****         debugMessage(Error::ARGUMENT_VALUE_INVALID, Debug::CodeIndex::SSD1306_MODULE);
1048:funsape/device/ssd1306.cpp ****         return false;
1049:funsape/device/ssd1306.cpp ****     }
1050:funsape/device/ssd1306.cpp **** 
1051:funsape/device/ssd1306.cpp ****     // Buffered mode: sets the line pixel by pixel (out-of-bounds is ignored)
1052:funsape/device/ssd1306.cpp ****     if(this->_buffered) {
1053:funsape/device/ssd1306.cpp ****         for(uint16_t y = y_p; y < (uint16_t)(y_p + height_p); y++) {
1054:funsape/device/ssd1306.cpp ****             this->_setPixel(x_p, (uint8_t)y, true);
1055:funsape/device/ssd1306.cpp ****         }
1056:funsape/device/ssd1306.cpp ****         this->_lastError = Error::NONE;
1057:funsape/device/ssd1306.cpp ****         debugMessage(Error::NONE, Debug::CodeIndex::SSD1306_MODULE);
1058:funsape/device/ssd1306.cpp ****         return true;
1059:funsape/device/ssd1306.cpp ****     }
1060:funsape/device/ssd1306.cpp **** 
1061:funsape/device/ssd1306.cpp ****     // Local variables (clamps to the display bottom)
1062:funsape/device/ssd1306.cpp ****     uint8_t auxEndY                     = y_p + height_p - 1;
1063:funsape/device/ssd1306.cpp ****     if(auxEndY >= (uint8_t)(this->_pages * 8)) {
1064:funsape/device/ssd1306.cpp ****         auxEndY = (this->_pages * 8) - 1;
1065:funsape/device/ssd1306.cpp ****     }
1066:funsape/device/ssd1306.cpp **** 
1067:funsape/device/ssd1306.cpp ****     // Writes one masked byte per affected page
1068:funsape/device/ssd1306.cpp ****     for(uint8_t page = (y_p / 8); page <= (auxEndY / 8); page++) {
1069:funsape/device/ssd1306.cpp ****         uint8_t auxPageTop              = page * 8;
1070:funsape/device/ssd1306.cpp ****         uint8_t auxLow                  = (y_p > auxPageTop) ? (y_p - auxPageTop) : 0;
1071:funsape/device/ssd1306.cpp ****         uint8_t auxHigh                 = (auxEndY < (uint8_t)(auxPageTop + 7)) ? (auxEndY - auxPag
1072:funsape/device/ssd1306.cpp ****         uint8_t auxMask                 = 0x00;
1073:funsape/device/ssd1306.cpp **** 
1074:funsape/device/ssd1306.cpp ****         for(uint8_t b = auxLow; b <= auxHigh; b++) {
1075:funsape/device/ssd1306.cpp ****             auxMask |= (1 << b);
1076:funsape/device/ssd1306.cpp ****         }
1077:funsape/device/ssd1306.cpp ****         if(!this->_setAddress(page, x_p)) {
1078:funsape/device/ssd1306.cpp ****             // Returns error
1079:funsape/device/ssd1306.cpp ****             debugMessage(this->_lastError, Debug::CodeIndex::SSD1306_MODULE);
1080:funsape/device/ssd1306.cpp ****             return false;
1081:funsape/device/ssd1306.cpp ****         }
1082:funsape/device/ssd1306.cpp ****         if(!this->_writeData(&auxMask, 1)) {
1083:funsape/device/ssd1306.cpp ****             // Returns error
1084:funsape/device/ssd1306.cpp ****             debugMessage(this->_lastError, Debug::CodeIndex::SSD1306_MODULE);
1085:funsape/device/ssd1306.cpp ****             return false;
1086:funsape/device/ssd1306.cpp ****         }
1087:funsape/device/ssd1306.cpp ****     }
1088:funsape/device/ssd1306.cpp **** 
1089:funsape/device/ssd1306.cpp ****     // Returns successfully
1090:funsape/device/ssd1306.cpp ****     this->_lastError = Error::NONE;
1091:funsape/device/ssd1306.cpp ****     debugMessage(Error::NONE, Debug::CodeIndex::SSD1306_MODULE);
1092:funsape/device/ssd1306.cpp ****     return true;
1093:funsape/device/ssd1306.cpp **** }
1094:funsape/device/ssd1306.cpp **** 
1095:funsape/device/ssd1306.cpp **** // =============================================================================
1096:funsape/device/ssd1306.cpp **** // Class private methods
1097:funsape/device/ssd1306.cpp **** // =============================================================================
1098:funsape/device/ssd1306.cpp **** 
1099:funsape/device/ssd1306.cpp **** bool_t Ssd1306::_writeCommand(uint8_t command_p)
1100:funsape/device/ssd1306.cpp **** {
GAS LISTING /tmp/cc7wpQ70.s 			page 25


 275               		.loc 1 1100 1 is_stmt 1 view -0
 276               		.cfi_startproc
 277               		.loc 1 1100 1 is_stmt 0 view .LVU83
 278 0000 FF92      		push r15
 279               	.LCFI0:
 280               		.cfi_def_cfa_offset 3
 281               		.cfi_offset 15, -2
 282 0002 0F93      		push r16
 283               	.LCFI1:
 284               		.cfi_def_cfa_offset 4
 285               		.cfi_offset 16, -3
 286 0004 1F93      		push r17
 287               	.LCFI2:
 288               		.cfi_def_cfa_offset 5
 289               		.cfi_offset 17, -4
 290 0006 CF93      		push r28
 291               	.LCFI3:
 292               		.cfi_def_cfa_offset 6
 293               		.cfi_offset 28, -5
 294 0008 DF93      		push r29
 295               	.LCFI4:
 296               		.cfi_def_cfa_offset 7
 297               		.cfi_offset 29, -6
 298 000a 0F92      		push __tmp_reg__
 299               	.LCFI5:
 300               		.cfi_def_cfa_offset 8
 301 000c CDB7      		in r28,__SP_L__
 302 000e DEB7      		in r29,__SP_H__
 303               	.LCFI6:
 304               		.cfi_def_cfa_register 28
 305               	/* prologue: function */
 306               	/* frame size = 1 */
 307               	/* stack size = 6 */
 308               	.L__stack_usage = 6
 309 0010 8C01      		movw r16,r24
1101:funsape/device/ssd1306.cpp ****     // Local variables
1102:funsape/device/ssd1306.cpp ****     uint8_t auxCommand                  = command_p;
 310               		.loc 1 1102 5 is_stmt 1 view .LVU84
 311               		.loc 1 1102 13 is_stmt 0 view .LVU85
 312 0012 6983      		std Y+1,r22
1103:funsape/device/ssd1306.cpp **** 
1104:funsape/device/ssd1306.cpp ****     // Selects device and sends the command byte (control byte 0x00)
1105:funsape/device/ssd1306.cpp ****     if(!this->_busHandler->setDevice(this->_deviceAddress)) {
 313               		.loc 1 1105 5 is_stmt 1 view .LVU86
 314               		.loc 1 1105 15 is_stmt 0 view .LVU87
 315 0014 FC01      		movw r30,r24
 316 0016 8081      		ld r24,Z
 317 0018 9181      		ldd r25,Z+1
 318               	.LVL13:
 319               		.loc 1 1105 44 view .LVU88
 320 001a 6085      		ldd r22,Z+8
 321               	.LVL14:
 322               		.loc 1 1105 44 view .LVU89
 323 001c 6F77      		andi r22,lo8(127)
 324               		.loc 1 1105 37 view .LVU90
 325 001e 70E0      		ldi r23,0
 326 0020 FC01      		movw r30,r24
GAS LISTING /tmp/cc7wpQ70.s 			page 26


 327 0022 0190      		ld __tmp_reg__,Z+
 328 0024 F081      		ld r31,Z
 329 0026 E02D      		mov r30,__tmp_reg__
 330 0028 0084      		ldd __tmp_reg__,Z+8
 331 002a F185      		ldd r31,Z+9
 332 002c E02D      		mov r30,__tmp_reg__
 333 002e 40E0      		ldi r20,0
 334 0030 0995      		icall
 335               	.LVL15:
 336               		.loc 1 1105 37 view .LVU91
 337 0032 F82E      		mov r15,r24
 338               		.loc 1 1105 5 discriminator 1 view .LVU92
 339 0034 8030      		cpi r24,lo8(0)
 340 0036 01F0      		breq .L14
1106:funsape/device/ssd1306.cpp ****         // Returns error
1107:funsape/device/ssd1306.cpp ****         this->_lastError = this->_busHandler->getLastError();
1108:funsape/device/ssd1306.cpp ****         return false;
1109:funsape/device/ssd1306.cpp ****     }
1110:funsape/device/ssd1306.cpp ****     if(!this->_busHandler->writeReg(SSD1306_CONTROL_COMMAND, &auxCommand, 1)) {
 341               		.loc 1 1110 5 is_stmt 1 view .LVU93
 342               		.loc 1 1110 15 is_stmt 0 view .LVU94
 343 0038 F801      		movw r30,r16
 344 003a 8081      		ld r24,Z
 345 003c 9181      		ldd r25,Z+1
 346               		.loc 1 1110 36 view .LVU95
 347 003e FC01      		movw r30,r24
 348 0040 0190      		ld __tmp_reg__,Z+
 349 0042 F081      		ld r31,Z
 350 0044 E02D      		mov r30,__tmp_reg__
 351 0046 0680      		ldd __tmp_reg__,Z+6
 352 0048 F781      		ldd r31,Z+7
 353 004a E02D      		mov r30,__tmp_reg__
 354 004c 21E0      		ldi r18,lo8(1)
 355 004e 30E0      		ldi r19,0
 356 0050 AE01      		movw r20,r28
 357 0052 4F5F      		subi r20,-1
 358 0054 5F4F      		sbci r21,-1
 359 0056 60E0      		ldi r22,0
 360 0058 0995      		icall
 361               	.LVL16:
 362 005a F82E      		mov r15,r24
 363               		.loc 1 1110 5 discriminator 1 view .LVU96
 364 005c 8030      		cpi r24,lo8(0)
 365 005e 01F0      		breq .L15
1111:funsape/device/ssd1306.cpp ****         // Returns error
1112:funsape/device/ssd1306.cpp ****         this->_lastError = this->_busHandler->getLastError();
1113:funsape/device/ssd1306.cpp ****         return false;
1114:funsape/device/ssd1306.cpp ****     }
1115:funsape/device/ssd1306.cpp **** 
1116:funsape/device/ssd1306.cpp ****     // Returns successfully
1117:funsape/device/ssd1306.cpp ****     this->_lastError = Error::NONE;
 366               		.loc 1 1117 5 is_stmt 1 view .LVU97
 367               		.loc 1 1117 22 is_stmt 0 view .LVU98
 368 0060 F801      		movw r30,r16
 369 0062 1782      		std Z+7,__zero_reg__
 370 0064 1682      		std Z+6,__zero_reg__
1118:funsape/device/ssd1306.cpp ****     return true;
GAS LISTING /tmp/cc7wpQ70.s 			page 27


 371               		.loc 1 1118 5 is_stmt 1 view .LVU99
 372               	.L9:
1119:funsape/device/ssd1306.cpp **** }
 373               		.loc 1 1119 1 is_stmt 0 view .LVU100
 374 0066 8F2D      		mov r24,r15
 375               	/* epilogue start */
 376 0068 0F90      		pop __tmp_reg__
 377 006a DF91      		pop r29
 378 006c CF91      		pop r28
 379 006e 1F91      		pop r17
 380 0070 0F91      		pop r16
 381               	.LVL17:
 382               		.loc 1 1119 1 view .LVU101
 383 0072 FF90      		pop r15
 384 0074 0895      		ret
 385               	.LVL18:
 386               	.L14:
1107:funsape/device/ssd1306.cpp ****         return false;
 387               		.loc 1 1107 9 is_stmt 1 view .LVU102
1107:funsape/device/ssd1306.cpp ****         return false;
 388               		.loc 1 1107 34 is_stmt 0 view .LVU103
 389 0076 F801      		movw r30,r16
 390 0078 8081      		ld r24,Z
 391 007a 9181      		ldd r25,Z+1
1107:funsape/device/ssd1306.cpp ****         return false;
 392               		.loc 1 1107 59 view .LVU104
 393 007c FC01      		movw r30,r24
 394 007e 0190      		ld __tmp_reg__,Z+
 395 0080 F081      		ld r31,Z
 396 0082 E02D      		mov r30,__tmp_reg__
 397 0084 0684      		ldd __tmp_reg__,Z+14
 398 0086 F785      		ldd r31,Z+15
 399 0088 E02D      		mov r30,__tmp_reg__
 400 008a 0995      		icall
 401               	.LVL19:
1107:funsape/device/ssd1306.cpp ****         return false;
 402               		.loc 1 1107 26 discriminator 1 view .LVU105
 403 008c F801      		movw r30,r16
 404 008e 9783      		std Z+7,r25
 405 0090 8683      		std Z+6,r24
1108:funsape/device/ssd1306.cpp ****     }
 406               		.loc 1 1108 9 is_stmt 1 view .LVU106
1108:funsape/device/ssd1306.cpp ****     }
 407               		.loc 1 1108 16 is_stmt 0 view .LVU107
 408 0092 00C0      		rjmp .L9
 409               	.L15:
1112:funsape/device/ssd1306.cpp ****         return false;
 410               		.loc 1 1112 9 is_stmt 1 view .LVU108
1112:funsape/device/ssd1306.cpp ****         return false;
 411               		.loc 1 1112 34 is_stmt 0 view .LVU109
 412 0094 F801      		movw r30,r16
 413 0096 8081      		ld r24,Z
 414 0098 9181      		ldd r25,Z+1
1112:funsape/device/ssd1306.cpp ****         return false;
 415               		.loc 1 1112 59 view .LVU110
 416 009a FC01      		movw r30,r24
 417 009c 0190      		ld __tmp_reg__,Z+
GAS LISTING /tmp/cc7wpQ70.s 			page 28


 418 009e F081      		ld r31,Z
 419 00a0 E02D      		mov r30,__tmp_reg__
 420 00a2 0684      		ldd __tmp_reg__,Z+14
 421 00a4 F785      		ldd r31,Z+15
 422 00a6 E02D      		mov r30,__tmp_reg__
 423 00a8 0995      		icall
 424               	.LVL20:
1112:funsape/device/ssd1306.cpp ****         return false;
 425               		.loc 1 1112 26 discriminator 1 view .LVU111
 426 00aa F801      		movw r30,r16
 427 00ac 9783      		std Z+7,r25
 428 00ae 8683      		std Z+6,r24
1113:funsape/device/ssd1306.cpp ****     }
 429               		.loc 1 1113 9 is_stmt 1 view .LVU112
1113:funsape/device/ssd1306.cpp ****     }
 430               		.loc 1 1113 16 is_stmt 0 view .LVU113
 431 00b0 00C0      		rjmp .L9
 432               		.cfi_endproc
 433               	.LFE160:
 435               		.section	.text._ZN7Ssd130617_writeCommandListEPKhh,"ax",@progbits
 436               	.global	_ZN7Ssd130617_writeCommandListEPKhh
 438               	_ZN7Ssd130617_writeCommandListEPKhh:
 439               	.LVL21:
 440               	.LFB161:
1120:funsape/device/ssd1306.cpp **** 
1121:funsape/device/ssd1306.cpp **** bool_t Ssd1306::_writeCommandList(const uint8_t *commands_p, uint8_t size_p)
1122:funsape/device/ssd1306.cpp **** {
 441               		.loc 1 1122 1 is_stmt 1 view -0
 442               		.cfi_startproc
 443               		.loc 1 1122 1 is_stmt 0 view .LVU115
 444 0000 EF92      		push r14
 445               	.LCFI7:
 446               		.cfi_def_cfa_offset 3
 447               		.cfi_offset 14, -2
 448 0002 FF92      		push r15
 449               	.LCFI8:
 450               		.cfi_def_cfa_offset 4
 451               		.cfi_offset 15, -3
 452 0004 0F93      		push r16
 453               	.LCFI9:
 454               		.cfi_def_cfa_offset 5
 455               		.cfi_offset 16, -4
 456 0006 1F93      		push r17
 457               	.LCFI10:
 458               		.cfi_def_cfa_offset 6
 459               		.cfi_offset 17, -5
 460 0008 CF93      		push r28
 461               	.LCFI11:
 462               		.cfi_def_cfa_offset 7
 463               		.cfi_offset 28, -6
 464 000a DF93      		push r29
 465               	.LCFI12:
 466               		.cfi_def_cfa_offset 8
 467               		.cfi_offset 29, -7
 468               	/* prologue: function */
 469               	/* frame size = 0 */
 470               	/* stack size = 6 */
GAS LISTING /tmp/cc7wpQ70.s 			page 29


 471               	.L__stack_usage = 6
 472 000c 8C01      		movw r16,r24
 473 000e 7B01      		movw r14,r22
 474 0010 D42F      		mov r29,r20
1123:funsape/device/ssd1306.cpp ****     // Sends each command byte read from PROGMEM
1124:funsape/device/ssd1306.cpp ****     for(uint8_t i = 0; i < size_p; i++) {
 475               		.loc 1 1124 5 is_stmt 1 view .LVU116
 476               	.LVL22:
 477               	.LBB4:
 478               		.loc 1 1124 17 is_stmt 0 view .LVU117
 479 0012 C0E0      		ldi r28,0
 480               		.loc 1 1124 5 view .LVU118
 481 0014 00C0      		rjmp .L17
 482               	.LVL23:
 483               	.L21:
 484               		.loc 1 1124 5 is_stmt 1 discriminator 1 view .LVU119
 485 0016 CF5F      		subi r28,lo8(-(1))
 486               	.LVL24:
 487               	.L17:
 488               		.loc 1 1124 26 discriminator 2 view .LVU120
 489 0018 CD17      		cp r28,r29
 490 001a 00F4      		brsh .L20
1125:funsape/device/ssd1306.cpp ****         if(!this->_writeCommand(pgm_read_byte(&commands_p[i]))) {
 491               		.loc 1 1125 9 view .LVU121
 492               	.LBB5:
 493               	.LBB6:
 494               		.loc 1 1125 33 view .LVU122
 495 001c F701      		movw r30,r14
 496 001e EC0F      		add r30,r28
 497 0020 F11D      		adc r31,__zero_reg__
 498               	.LVL25:
 499               		.loc 1 1125 33 view .LVU123
 500               		.loc 1 1125 33 view .LVU124
 501               	/* #APP */
 502               	 ;  1125 "funsape/device/ssd1306.cpp" 1
 503 0022 6491      		lpm r22,Z ; [[len=nl]]
 504               	 ;  0 "" 2
 505               	.LVL26:
 506               		.loc 1 1125 33 view .LVU125
 507               	/* #NOAPP */
 508               	.LBE6:
 509               		.loc 1 1125 32 is_stmt 0 view .LVU126
 510 0024 C801      		movw r24,r16
 511 0026 0E94 0000 		call _ZN7Ssd130613_writeCommandEh
 512               	.LVL27:
 513               		.loc 1 1125 9 discriminator 1 view .LVU127
 514 002a 8111      		cpse r24,__zero_reg__
 515 002c 00C0      		rjmp .L21
 516 002e 00C0      		rjmp .L16
 517               	.LVL28:
 518               	.L20:
 519               		.loc 1 1125 9 discriminator 1 view .LVU128
 520               	.LBE5:
 521               	.LBE4:
1126:funsape/device/ssd1306.cpp ****             // Returns error
1127:funsape/device/ssd1306.cpp ****             return false;
1128:funsape/device/ssd1306.cpp ****         }
GAS LISTING /tmp/cc7wpQ70.s 			page 30


1129:funsape/device/ssd1306.cpp ****     }
1130:funsape/device/ssd1306.cpp **** 
1131:funsape/device/ssd1306.cpp ****     // Returns successfully
1132:funsape/device/ssd1306.cpp ****     this->_lastError = Error::NONE;
 522               		.loc 1 1132 5 is_stmt 1 view .LVU129
 523               		.loc 1 1132 22 is_stmt 0 view .LVU130
 524 0030 F801      		movw r30,r16
 525 0032 1782      		std Z+7,__zero_reg__
 526 0034 1682      		std Z+6,__zero_reg__
1133:funsape/device/ssd1306.cpp ****     return true;
 527               		.loc 1 1133 5 is_stmt 1 view .LVU131
 528               		.loc 1 1133 12 is_stmt 0 view .LVU132
 529 0036 81E0      		ldi r24,lo8(1)
 530               	.L16:
 531               	/* epilogue start */
1134:funsape/device/ssd1306.cpp **** }
 532               		.loc 1 1134 1 view .LVU133
 533 0038 DF91      		pop r29
 534               	.LVL29:
 535               		.loc 1 1134 1 view .LVU134
 536 003a CF91      		pop r28
 537               	.LVL30:
 538               		.loc 1 1134 1 view .LVU135
 539 003c 1F91      		pop r17
 540 003e 0F91      		pop r16
 541               	.LVL31:
 542               		.loc 1 1134 1 view .LVU136
 543 0040 FF90      		pop r15
 544 0042 EF90      		pop r14
 545               	.LVL32:
 546               		.loc 1 1134 1 view .LVU137
 547 0044 0895      		ret
 548               		.cfi_endproc
 549               	.LFE161:
 551               		.section	.text._ZN7Ssd130610_writeDataEPKhh,"ax",@progbits
 552               	.global	_ZN7Ssd130610_writeDataEPKhh
 554               	_ZN7Ssd130610_writeDataEPKhh:
 555               	.LVL33:
 556               	.LFB162:
1135:funsape/device/ssd1306.cpp **** 
1136:funsape/device/ssd1306.cpp **** bool_t Ssd1306::_writeData(cuint8_t *data_p, uint8_t size_p)
1137:funsape/device/ssd1306.cpp **** {
 557               		.loc 1 1137 1 is_stmt 1 view -0
 558               		.cfi_startproc
 559               		.loc 1 1137 1 is_stmt 0 view .LVU139
 560 0000 BF92      		push r11
 561               	.LCFI13:
 562               		.cfi_def_cfa_offset 3
 563               		.cfi_offset 11, -2
 564 0002 CF92      		push r12
 565               	.LCFI14:
 566               		.cfi_def_cfa_offset 4
 567               		.cfi_offset 12, -3
 568 0004 DF92      		push r13
 569               	.LCFI15:
 570               		.cfi_def_cfa_offset 5
 571               		.cfi_offset 13, -4
GAS LISTING /tmp/cc7wpQ70.s 			page 31


 572 0006 EF92      		push r14
 573               	.LCFI16:
 574               		.cfi_def_cfa_offset 6
 575               		.cfi_offset 14, -5
 576 0008 FF92      		push r15
 577               	.LCFI17:
 578               		.cfi_def_cfa_offset 7
 579               		.cfi_offset 15, -6
 580 000a 0F93      		push r16
 581               	.LCFI18:
 582               		.cfi_def_cfa_offset 8
 583               		.cfi_offset 16, -7
 584 000c 1F93      		push r17
 585               	.LCFI19:
 586               		.cfi_def_cfa_offset 9
 587               		.cfi_offset 17, -8
 588 000e CF93      		push r28
 589               	.LCFI20:
 590               		.cfi_def_cfa_offset 10
 591               		.cfi_offset 28, -9
 592 0010 DF93      		push r29
 593               	.LCFI21:
 594               		.cfi_def_cfa_offset 11
 595               		.cfi_offset 29, -10
 596               	/* prologue: function */
 597               	/* frame size = 0 */
 598               	/* stack size = 9 */
 599               	.L__stack_usage = 9
 600 0012 8C01      		movw r16,r24
 601 0014 7B01      		movw r14,r22
 602 0016 D42E      		mov r13,r20
1138:funsape/device/ssd1306.cpp ****     // Local variables
1139:funsape/device/ssd1306.cpp ****     uint8_t auxOffset                   = 0;
 603               		.loc 1 1139 5 is_stmt 1 view .LVU140
 604               	.LVL34:
1140:funsape/device/ssd1306.cpp **** 
1141:funsape/device/ssd1306.cpp ****     // Selects device
1142:funsape/device/ssd1306.cpp ****     if(!this->_busHandler->setDevice(this->_deviceAddress)) {
 605               		.loc 1 1142 5 view .LVU141
 606               		.loc 1 1142 15 is_stmt 0 view .LVU142
 607 0018 FC01      		movw r30,r24
 608 001a 8081      		ld r24,Z
 609 001c 9181      		ldd r25,Z+1
 610               	.LVL35:
 611               		.loc 1 1142 44 view .LVU143
 612 001e 6085      		ldd r22,Z+8
 613               	.LVL36:
 614               		.loc 1 1142 44 view .LVU144
 615 0020 6F77      		andi r22,lo8(127)
 616               		.loc 1 1142 37 view .LVU145
 617 0022 70E0      		ldi r23,0
 618 0024 FC01      		movw r30,r24
 619 0026 0190      		ld __tmp_reg__,Z+
 620 0028 F081      		ld r31,Z
 621 002a E02D      		mov r30,__tmp_reg__
 622 002c 0084      		ldd __tmp_reg__,Z+8
 623 002e F185      		ldd r31,Z+9
GAS LISTING /tmp/cc7wpQ70.s 			page 32


 624 0030 E02D      		mov r30,__tmp_reg__
 625 0032 40E0      		ldi r20,0
 626               	.LVL37:
 627               		.loc 1 1142 37 view .LVU146
 628 0034 0995      		icall
 629               	.LVL38:
 630 0036 B82E      		mov r11,r24
 631               		.loc 1 1142 5 discriminator 1 view .LVU147
 632 0038 8030      		cpi r24,lo8(0)
 633 003a 01F0      		breq .L31
1139:funsape/device/ssd1306.cpp **** 
 634               		.loc 1 1139 13 view .LVU148
 635 003c C0E0      		ldi r28,0
 636 003e 00C0      		rjmp .L23
 637               	.L31:
1143:funsape/device/ssd1306.cpp ****         // Returns error
1144:funsape/device/ssd1306.cpp ****         this->_lastError = this->_busHandler->getLastError();
 638               		.loc 1 1144 9 is_stmt 1 view .LVU149
 639               		.loc 1 1144 34 is_stmt 0 view .LVU150
 640 0040 F801      		movw r30,r16
 641 0042 8081      		ld r24,Z
 642 0044 9181      		ldd r25,Z+1
 643               		.loc 1 1144 59 view .LVU151
 644 0046 FC01      		movw r30,r24
 645 0048 0190      		ld __tmp_reg__,Z+
 646 004a F081      		ld r31,Z
 647 004c E02D      		mov r30,__tmp_reg__
 648 004e 0684      		ldd __tmp_reg__,Z+14
 649 0050 F785      		ldd r31,Z+15
 650 0052 E02D      		mov r30,__tmp_reg__
 651 0054 0995      		icall
 652               	.LVL39:
 653               		.loc 1 1144 26 discriminator 1 view .LVU152
 654 0056 F801      		movw r30,r16
 655 0058 9783      		std Z+7,r25
 656 005a 8683      		std Z+6,r24
1145:funsape/device/ssd1306.cpp ****         return false;
 657               		.loc 1 1145 9 is_stmt 1 view .LVU153
 658               	.LVL40:
 659               	.L22:
1146:funsape/device/ssd1306.cpp ****     }
1147:funsape/device/ssd1306.cpp **** 
1148:funsape/device/ssd1306.cpp ****     // Sends data in chunks (control byte 0x40) to respect the TWI buffer size
1149:funsape/device/ssd1306.cpp ****     while(auxOffset < size_p) {
1150:funsape/device/ssd1306.cpp ****         uint8_t chunk = size_p - auxOffset;
1151:funsape/device/ssd1306.cpp ****         if(chunk > constSsd1306DataChunk) {
1152:funsape/device/ssd1306.cpp ****             chunk = constSsd1306DataChunk;
1153:funsape/device/ssd1306.cpp ****         }
1154:funsape/device/ssd1306.cpp ****         if(!this->_busHandler->writeReg(SSD1306_CONTROL_DATA, &data_p[auxOffset], chunk)) {
1155:funsape/device/ssd1306.cpp ****             // Returns error
1156:funsape/device/ssd1306.cpp ****             this->_lastError = this->_busHandler->getLastError();
1157:funsape/device/ssd1306.cpp ****             return false;
1158:funsape/device/ssd1306.cpp ****         }
1159:funsape/device/ssd1306.cpp ****         auxOffset += chunk;
1160:funsape/device/ssd1306.cpp ****     }
1161:funsape/device/ssd1306.cpp **** 
1162:funsape/device/ssd1306.cpp ****     // Returns successfully
GAS LISTING /tmp/cc7wpQ70.s 			page 33


1163:funsape/device/ssd1306.cpp ****     this->_lastError = Error::NONE;
1164:funsape/device/ssd1306.cpp ****     return true;
1165:funsape/device/ssd1306.cpp **** }
 660               		.loc 1 1165 1 is_stmt 0 view .LVU154
 661 005c 8B2D      		mov r24,r11
 662               	/* epilogue start */
 663 005e DF91      		pop r29
 664 0060 CF91      		pop r28
 665 0062 1F91      		pop r17
 666 0064 0F91      		pop r16
 667               	.LVL41:
 668               		.loc 1 1165 1 view .LVU155
 669 0066 FF90      		pop r15
 670 0068 EF90      		pop r14
 671               	.LVL42:
 672               		.loc 1 1165 1 view .LVU156
 673 006a DF90      		pop r13
 674               	.LVL43:
 675               		.loc 1 1165 1 view .LVU157
 676 006c CF90      		pop r12
 677 006e BF90      		pop r11
 678 0070 0895      		ret
 679               	.LVL44:
 680               	.L25:
 681               	.LBB7:
1154:funsape/device/ssd1306.cpp ****             // Returns error
 682               		.loc 1 1154 9 is_stmt 1 view .LVU158
1154:funsape/device/ssd1306.cpp ****             // Returns error
 683               		.loc 1 1154 19 is_stmt 0 view .LVU159
 684 0072 F801      		movw r30,r16
 685 0074 8081      		ld r24,Z
 686 0076 9181      		ldd r25,Z+1
1154:funsape/device/ssd1306.cpp ****             // Returns error
 687               		.loc 1 1154 40 view .LVU160
 688 0078 2D2F      		mov r18,r29
 689 007a 30E0      		ldi r19,0
 690 007c FC01      		movw r30,r24
 691 007e 0190      		ld __tmp_reg__,Z+
 692 0080 F081      		ld r31,Z
 693 0082 E02D      		mov r30,__tmp_reg__
 694 0084 0680      		ldd __tmp_reg__,Z+6
 695 0086 F781      		ldd r31,Z+7
 696 0088 E02D      		mov r30,__tmp_reg__
 697 008a A701      		movw r20,r14
 698 008c 4C0F      		add r20,r28
 699 008e 511D      		adc r21,__zero_reg__
 700 0090 60E4      		ldi r22,lo8(64)
 701 0092 0995      		icall
 702               	.LVL45:
 703 0094 C82E      		mov r12,r24
1154:funsape/device/ssd1306.cpp ****             // Returns error
 704               		.loc 1 1154 9 discriminator 1 view .LVU161
 705 0096 8030      		cpi r24,lo8(0)
 706 0098 01F0      		breq .L32
1159:funsape/device/ssd1306.cpp ****     }
 707               		.loc 1 1159 9 is_stmt 1 view .LVU162
1159:funsape/device/ssd1306.cpp ****     }
GAS LISTING /tmp/cc7wpQ70.s 			page 34


 708               		.loc 1 1159 19 is_stmt 0 view .LVU163
 709 009a CD0F      		add r28,r29
 710               	.LVL46:
 711               	.L23:
1159:funsape/device/ssd1306.cpp ****     }
 712               		.loc 1 1159 19 view .LVU164
 713               	.LBE7:
1149:funsape/device/ssd1306.cpp ****         uint8_t chunk = size_p - auxOffset;
 714               		.loc 1 1149 21 is_stmt 1 discriminator 1 view .LVU165
 715 009c CD15      		cp r28,r13
 716 009e 00F4      		brsh .L33
 717               	.LBB8:
1150:funsape/device/ssd1306.cpp ****         if(chunk > constSsd1306DataChunk) {
 718               		.loc 1 1150 9 view .LVU166
1150:funsape/device/ssd1306.cpp ****         if(chunk > constSsd1306DataChunk) {
 719               		.loc 1 1150 17 is_stmt 0 view .LVU167
 720 00a0 DD2D      		mov r29,r13
 721 00a2 DC1B      		sub r29,r28
 722               	.LVL47:
1151:funsape/device/ssd1306.cpp ****             chunk = constSsd1306DataChunk;
 723               		.loc 1 1151 9 is_stmt 1 view .LVU168
 724 00a4 D131      		cpi r29,lo8(17)
 725 00a6 00F0      		brlo .L25
1152:funsape/device/ssd1306.cpp ****         }
 726               		.loc 1 1152 19 is_stmt 0 view .LVU169
 727 00a8 D0E1      		ldi r29,lo8(16)
 728               	.LVL48:
1152:funsape/device/ssd1306.cpp ****         }
 729               		.loc 1 1152 19 view .LVU170
 730 00aa 00C0      		rjmp .L25
 731               	.LVL49:
 732               	.L32:
1156:funsape/device/ssd1306.cpp ****             return false;
 733               		.loc 1 1156 13 is_stmt 1 view .LVU171
1156:funsape/device/ssd1306.cpp ****             return false;
 734               		.loc 1 1156 38 is_stmt 0 view .LVU172
 735 00ac F801      		movw r30,r16
 736 00ae 8081      		ld r24,Z
 737 00b0 9181      		ldd r25,Z+1
1156:funsape/device/ssd1306.cpp ****             return false;
 738               		.loc 1 1156 63 view .LVU173
 739 00b2 FC01      		movw r30,r24
 740 00b4 0190      		ld __tmp_reg__,Z+
 741 00b6 F081      		ld r31,Z
 742 00b8 E02D      		mov r30,__tmp_reg__
 743 00ba 0684      		ldd __tmp_reg__,Z+14
 744 00bc F785      		ldd r31,Z+15
 745 00be E02D      		mov r30,__tmp_reg__
 746 00c0 0995      		icall
 747               	.LVL50:
1156:funsape/device/ssd1306.cpp ****             return false;
 748               		.loc 1 1156 30 discriminator 1 view .LVU174
 749 00c2 F801      		movw r30,r16
 750 00c4 9783      		std Z+7,r25
 751 00c6 8683      		std Z+6,r24
1157:funsape/device/ssd1306.cpp ****         }
 752               		.loc 1 1157 13 is_stmt 1 view .LVU175
GAS LISTING /tmp/cc7wpQ70.s 			page 35


1157:funsape/device/ssd1306.cpp ****         }
 753               		.loc 1 1157 20 is_stmt 0 view .LVU176
 754 00c8 BC2C      		mov r11,r12
 755 00ca 00C0      		rjmp .L22
 756               	.LVL51:
 757               	.L33:
1157:funsape/device/ssd1306.cpp ****         }
 758               		.loc 1 1157 20 view .LVU177
 759               	.LBE8:
1163:funsape/device/ssd1306.cpp ****     return true;
 760               		.loc 1 1163 5 is_stmt 1 view .LVU178
1163:funsape/device/ssd1306.cpp ****     return true;
 761               		.loc 1 1163 22 is_stmt 0 view .LVU179
 762 00cc F801      		movw r30,r16
 763 00ce 1782      		std Z+7,__zero_reg__
 764 00d0 1682      		std Z+6,__zero_reg__
1164:funsape/device/ssd1306.cpp **** }
 765               		.loc 1 1164 5 is_stmt 1 view .LVU180
1164:funsape/device/ssd1306.cpp **** }
 766               		.loc 1 1164 12 is_stmt 0 view .LVU181
 767 00d2 00C0      		rjmp .L22
 768               		.cfi_endproc
 769               	.LFE162:
 771               		.section	.text._ZN7Ssd130611_setAddressEhh,"ax",@progbits
 772               	.global	_ZN7Ssd130611_setAddressEhh
 774               	_ZN7Ssd130611_setAddressEhh:
 775               	.LVL52:
 776               	.LFB163:
1166:funsape/device/ssd1306.cpp **** 
1167:funsape/device/ssd1306.cpp **** bool_t Ssd1306::_setAddress(uint8_t page_p, uint8_t x_p)
1168:funsape/device/ssd1306.cpp **** {
 777               		.loc 1 1168 1 is_stmt 1 view -0
 778               		.cfi_startproc
 779               		.loc 1 1168 1 is_stmt 0 view .LVU183
 780 0000 0F93      		push r16
 781               	.LCFI22:
 782               		.cfi_def_cfa_offset 3
 783               		.cfi_offset 16, -2
 784 0002 1F93      		push r17
 785               	.LCFI23:
 786               		.cfi_def_cfa_offset 4
 787               		.cfi_offset 17, -3
 788 0004 CF93      		push r28
 789               	.LCFI24:
 790               		.cfi_def_cfa_offset 5
 791               		.cfi_offset 28, -4
 792               	/* prologue: function */
 793               	/* frame size = 0 */
 794               	/* stack size = 3 */
 795               	.L__stack_usage = 3
 796 0006 8C01      		movw r16,r24
 797 0008 C42F      		mov r28,r20
1169:funsape/device/ssd1306.cpp ****     // Sets page and column pointers (page addressing mode)
1170:funsape/device/ssd1306.cpp ****     if(!this->_writeCommand(SSD1306_SET_PAGE_ADDRESS | (page_p & 0x07))) {
 798               		.loc 1 1170 5 is_stmt 1 view .LVU184
 799               		.loc 1 1170 64 is_stmt 0 view .LVU185
 800 000a 6770      		andi r22,lo8(7)
GAS LISTING /tmp/cc7wpQ70.s 			page 36


 801               	.LVL53:
 802               		.loc 1 1170 28 view .LVU186
 803 000c 606B      		ori r22,lo8(-80)
 804 000e 0E94 0000 		call _ZN7Ssd130613_writeCommandEh
 805               	.LVL54:
 806               		.loc 1 1170 5 discriminator 1 view .LVU187
 807 0012 8111      		cpse r24,__zero_reg__
 808 0014 00C0      		rjmp .L38
 809               	.L34:
 810               	/* epilogue start */
1171:funsape/device/ssd1306.cpp ****         return false;
1172:funsape/device/ssd1306.cpp ****     }
1173:funsape/device/ssd1306.cpp ****     if(!this->_writeCommand(SSD1306_SET_LOW_COLUMN | (x_p & 0x0F))) {
1174:funsape/device/ssd1306.cpp ****         return false;
1175:funsape/device/ssd1306.cpp ****     }
1176:funsape/device/ssd1306.cpp ****     if(!this->_writeCommand(SSD1306_SET_HIGH_COLUMN | ((x_p >> 4) & 0x0F))) {
1177:funsape/device/ssd1306.cpp ****         return false;
1178:funsape/device/ssd1306.cpp ****     }
1179:funsape/device/ssd1306.cpp **** 
1180:funsape/device/ssd1306.cpp ****     // Returns successfully
1181:funsape/device/ssd1306.cpp ****     this->_lastError = Error::NONE;
1182:funsape/device/ssd1306.cpp ****     return true;
1183:funsape/device/ssd1306.cpp **** }
 811               		.loc 1 1183 1 view .LVU188
 812 0016 CF91      		pop r28
 813               	.LVL55:
 814               		.loc 1 1183 1 view .LVU189
 815 0018 1F91      		pop r17
 816 001a 0F91      		pop r16
 817               	.LVL56:
 818               		.loc 1 1183 1 view .LVU190
 819 001c 0895      		ret
 820               	.LVL57:
 821               	.L38:
1173:funsape/device/ssd1306.cpp ****         return false;
 822               		.loc 1 1173 5 is_stmt 1 view .LVU191
1173:funsape/device/ssd1306.cpp ****         return false;
 823               		.loc 1 1173 28 is_stmt 0 view .LVU192
 824 001e 6C2F      		mov r22,r28
 825 0020 6F70      		andi r22,lo8(15)
 826 0022 C801      		movw r24,r16
 827 0024 0E94 0000 		call _ZN7Ssd130613_writeCommandEh
 828               	.LVL58:
1173:funsape/device/ssd1306.cpp ****         return false;
 829               		.loc 1 1173 5 discriminator 1 view .LVU193
 830 0028 8030      		cpi r24,lo8(0)
 831 002a 01F0      		breq .L34
1176:funsape/device/ssd1306.cpp ****         return false;
 832               		.loc 1 1176 5 is_stmt 1 view .LVU194
1176:funsape/device/ssd1306.cpp ****         return false;
 833               		.loc 1 1176 61 is_stmt 0 view .LVU195
 834 002c 6C2F      		mov r22,r28
 835 002e 6295      		swap r22
 836 0030 6F70      		andi r22,lo8(15)
1176:funsape/device/ssd1306.cpp ****         return false;
 837               		.loc 1 1176 28 view .LVU196
 838 0032 6061      		ori r22,lo8(16)
GAS LISTING /tmp/cc7wpQ70.s 			page 37


 839 0034 C801      		movw r24,r16
 840 0036 0E94 0000 		call _ZN7Ssd130613_writeCommandEh
 841               	.LVL59:
1176:funsape/device/ssd1306.cpp ****         return false;
 842               		.loc 1 1176 5 discriminator 1 view .LVU197
 843 003a 8030      		cpi r24,lo8(0)
 844 003c 01F0      		breq .L34
1181:funsape/device/ssd1306.cpp ****     return true;
 845               		.loc 1 1181 5 is_stmt 1 view .LVU198
1181:funsape/device/ssd1306.cpp ****     return true;
 846               		.loc 1 1181 22 is_stmt 0 view .LVU199
 847 003e F801      		movw r30,r16
 848 0040 1782      		std Z+7,__zero_reg__
 849 0042 1682      		std Z+6,__zero_reg__
1182:funsape/device/ssd1306.cpp **** }
 850               		.loc 1 1182 5 is_stmt 1 view .LVU200
1182:funsape/device/ssd1306.cpp **** }
 851               		.loc 1 1182 12 is_stmt 0 view .LVU201
 852 0044 00C0      		rjmp .L34
 853               		.cfi_endproc
 854               	.LFE163:
 856               		.section	.text._ZN7Ssd13069_setPixelEhhb,"ax",@progbits
 857               	.global	_ZN7Ssd13069_setPixelEhhb
 859               	_ZN7Ssd13069_setPixelEhhb:
 860               	.LVL60:
 861               	.LFB164:
1184:funsape/device/ssd1306.cpp **** 
1185:funsape/device/ssd1306.cpp **** void Ssd1306::_setPixel(uint8_t x_p, uint8_t y_p, bool_t on_p)
1186:funsape/device/ssd1306.cpp **** {
 862               		.loc 1 1186 1 is_stmt 1 view -0
 863               		.cfi_startproc
 864               		.loc 1 1186 1 is_stmt 0 view .LVU203
 865 0000 CF93      		push r28
 866               	.LCFI25:
 867               		.cfi_def_cfa_offset 3
 868               		.cfi_offset 28, -2
 869 0002 DF93      		push r29
 870               	.LCFI26:
 871               		.cfi_def_cfa_offset 4
 872               		.cfi_offset 29, -3
 873               	/* prologue: function */
 874               	/* frame size = 0 */
 875               	/* stack size = 2 */
 876               	.L__stack_usage = 2
 877 0004 FC01      		movw r30,r24
1187:funsape/device/ssd1306.cpp ****     // Ignores out-of-bounds pixels
1188:funsape/device/ssd1306.cpp ****     if((x_p >= constSsd1306Width) || (y_p >= (uint8_t)(this->_pages * 8))) {
 878               		.loc 1 1188 5 is_stmt 1 view .LVU204
 879 0006 6030      		cpi r22,lo8(0)
 880 0008 04F0      		brlt .L39
 881               		.loc 1 1188 62 is_stmt 0 discriminator 1 view .LVU205
 882 000a 8285      		ldd r24,Z+10
 883               	.LVL61:
 884               		.loc 1 1188 43 discriminator 1 view .LVU206
 885 000c 880F      		lsl r24
 886 000e 880F      		lsl r24
 887 0010 880F      		lsl r24
GAS LISTING /tmp/cc7wpQ70.s 			page 38


 888               		.loc 1 1188 35 discriminator 1 view .LVU207
 889 0012 4817      		cp r20,r24
 890 0014 00F4      		brsh .L39
1189:funsape/device/ssd1306.cpp ****         return;
1190:funsape/device/ssd1306.cpp ****     }
1191:funsape/device/ssd1306.cpp **** 
1192:funsape/device/ssd1306.cpp ****     // Local variables
1193:funsape/device/ssd1306.cpp ****     uint16_t auxIndex                   = ((uint16_t)(y_p >> 3) * constSsd1306Width) + x_p;
 891               		.loc 1 1193 5 is_stmt 1 view .LVU208
 892               		.loc 1 1193 59 is_stmt 0 view .LVU209
 893 0016 542F      		mov r21,r20
 894 0018 5695      		lsr r21
 895 001a 5695      		lsr r21
 896 001c 5695      		lsr r21
 897               		.loc 1 1193 65 view .LVU210
 898 001e 30E8      		ldi r19,lo8(-128)
 899 0020 539F      		mul r21,r19
 900 0022 C001      		movw r24,r0
 901 0024 1124      		clr __zero_reg__
 902               		.loc 1 1193 14 view .LVU211
 903 0026 680F      		add r22,r24
 904 0028 792F      		mov r23,r25
 905 002a 711D      		adc r23,__zero_reg__
 906               	.LVL62:
1194:funsape/device/ssd1306.cpp ****     uint8_t auxBit                      = (1 << (y_p & 0x07));
 907               		.loc 1 1194 5 is_stmt 1 view .LVU212
 908               		.loc 1 1194 54 is_stmt 0 view .LVU213
 909 002c 4770      		andi r20,lo8(7)
 910               	.LVL63:
 911               		.loc 1 1194 46 view .LVU214
 912 002e 81E0      		ldi r24,lo8(1)
 913 0030 90E0      		ldi r25,0
 914 0032 00C0      		rjmp 2f
 915               		1:
 916 0034 880F      		lsl r24
 917 0036 991F      		rol r25
 918               		2:
 919 0038 4A95      		dec r20
 920 003a 02F4      		brpl 1b
 921 003c EC01      		movw r28,r24
 922               	.LVL64:
1195:funsape/device/ssd1306.cpp **** 
1196:funsape/device/ssd1306.cpp ****     // Updates the framebuffer and marks the page dirty
1197:funsape/device/ssd1306.cpp ****     if(on_p) {
 923               		.loc 1 1197 5 is_stmt 1 view .LVU215
 924 003e 2030      		cpi r18,lo8(0)
 925 0040 01F0      		breq .L41
1198:funsape/device/ssd1306.cpp ****         this->_frameBuffer[auxIndex]    |= auxBit;
 926               		.loc 1 1198 9 view .LVU216
 927               		.loc 1 1198 15 is_stmt 0 view .LVU217
 928 0042 A281      		ldd r26,Z+2
 929 0044 B381      		ldd r27,Z+3
 930               		.loc 1 1198 36 view .LVU218
 931 0046 A60F      		add r26,r22
 932 0048 B71F      		adc r27,r23
 933 004a 9C91      		ld r25,X
 934               		.loc 1 1198 41 view .LVU219
GAS LISTING /tmp/cc7wpQ70.s 			page 39


 935 004c 8C2F      		mov r24,r28
 936               	.LVL65:
 937               		.loc 1 1198 41 view .LVU220
 938 004e 892B      		or r24,r25
 939 0050 8C93      		st X,r24
 940               	.L42:
1199:funsape/device/ssd1306.cpp ****     } else {
1200:funsape/device/ssd1306.cpp ****         this->_frameBuffer[auxIndex]    &= (uint8_t)(~auxBit);
1201:funsape/device/ssd1306.cpp ****     }
1202:funsape/device/ssd1306.cpp ****     this->_dirtyPageMask                |= (uint8_t)(1 << (y_p >> 3));
 941               		.loc 1 1202 5 is_stmt 1 view .LVU221
 942               		.loc 1 1202 11 is_stmt 0 view .LVU222
 943 0052 8481      		ldd r24,Z+4
 944               		.loc 1 1202 56 view .LVU223
 945 0054 21E0      		ldi r18,lo8(1)
 946 0056 30E0      		ldi r19,0
 947               	.LVL66:
 948               		.loc 1 1202 56 view .LVU224
 949 0058 00C0      		rjmp 2f
 950               		1:
 951 005a 220F      		lsl r18
 952 005c 331F      		rol r19
 953               		2:
 954 005e 5A95      		dec r21
 955 0060 02F4      		brpl 1b
 956               		.loc 1 1202 41 view .LVU225
 957 0062 822B      		or r24,r18
 958 0064 8483      		std Z+4,r24
1203:funsape/device/ssd1306.cpp **** 
1204:funsape/device/ssd1306.cpp ****     return;
 959               		.loc 1 1204 5 is_stmt 1 view .LVU226
 960               	.LVL67:
 961               	.L39:
 962               	/* epilogue start */
1205:funsape/device/ssd1306.cpp **** }
 963               		.loc 1 1205 1 is_stmt 0 view .LVU227
 964 0066 DF91      		pop r29
 965 0068 CF91      		pop r28
 966 006a 0895      		ret
 967               	.LVL68:
 968               	.L41:
1200:funsape/device/ssd1306.cpp ****     }
 969               		.loc 1 1200 9 is_stmt 1 view .LVU228
1200:funsape/device/ssd1306.cpp ****     }
 970               		.loc 1 1200 15 is_stmt 0 view .LVU229
 971 006c A281      		ldd r26,Z+2
 972 006e B381      		ldd r27,Z+3
1200:funsape/device/ssd1306.cpp ****     }
 973               		.loc 1 1200 36 view .LVU230
 974 0070 A60F      		add r26,r22
 975 0072 B71F      		adc r27,r23
 976 0074 9C91      		ld r25,X
1200:funsape/device/ssd1306.cpp ****     }
 977               		.loc 1 1200 41 view .LVU231
 978 0076 8C2F      		mov r24,r28
 979               	.LVL69:
1200:funsape/device/ssd1306.cpp ****     }
GAS LISTING /tmp/cc7wpQ70.s 			page 40


 980               		.loc 1 1200 41 view .LVU232
 981 0078 8095      		com r24
 982 007a 8923      		and r24,r25
 983 007c 8C93      		st X,r24
 984 007e 00C0      		rjmp .L42
 985               		.cfi_endproc
 986               	.LFE164:
 988               		.section	.text._ZN7Ssd130610_writeCharEc,"ax",@progbits
 989               	.global	_ZN7Ssd130610_writeCharEc
 991               	_ZN7Ssd130610_writeCharEc:
 992               	.LVL70:
 993               	.LFB165:
1206:funsape/device/ssd1306.cpp **** 
1207:funsape/device/ssd1306.cpp **** bool_t Ssd1306::_writeChar(char_t character_p)
1208:funsape/device/ssd1306.cpp **** {
 994               		.loc 1 1208 1 is_stmt 1 view -0
 995               		.cfi_startproc
 996               		.loc 1 1208 1 is_stmt 0 view .LVU234
 997 0000 6F92      		push r6
 998               	.LCFI27:
 999               		.cfi_def_cfa_offset 3
 1000               		.cfi_offset 6, -2
 1001 0002 7F92      		push r7
 1002               	.LCFI28:
 1003               		.cfi_def_cfa_offset 4
 1004               		.cfi_offset 7, -3
 1005 0004 8F92      		push r8
 1006               	.LCFI29:
 1007               		.cfi_def_cfa_offset 5
 1008               		.cfi_offset 8, -4
 1009 0006 9F92      		push r9
 1010               	.LCFI30:
 1011               		.cfi_def_cfa_offset 6
 1012               		.cfi_offset 9, -5
 1013 0008 AF92      		push r10
 1014               	.LCFI31:
 1015               		.cfi_def_cfa_offset 7
 1016               		.cfi_offset 10, -6
 1017 000a BF92      		push r11
 1018               	.LCFI32:
 1019               		.cfi_def_cfa_offset 8
 1020               		.cfi_offset 11, -7
 1021 000c CF92      		push r12
 1022               	.LCFI33:
 1023               		.cfi_def_cfa_offset 9
 1024               		.cfi_offset 12, -8
 1025 000e DF92      		push r13
 1026               	.LCFI34:
 1027               		.cfi_def_cfa_offset 10
 1028               		.cfi_offset 13, -9
 1029 0010 EF92      		push r14
 1030               	.LCFI35:
 1031               		.cfi_def_cfa_offset 11
 1032               		.cfi_offset 14, -10
 1033 0012 FF92      		push r15
 1034               	.LCFI36:
 1035               		.cfi_def_cfa_offset 12
GAS LISTING /tmp/cc7wpQ70.s 			page 41


 1036               		.cfi_offset 15, -11
 1037 0014 0F93      		push r16
 1038               	.LCFI37:
 1039               		.cfi_def_cfa_offset 13
 1040               		.cfi_offset 16, -12
 1041 0016 1F93      		push r17
 1042               	.LCFI38:
 1043               		.cfi_def_cfa_offset 14
 1044               		.cfi_offset 17, -13
 1045 0018 CF93      		push r28
 1046               	.LCFI39:
 1047               		.cfi_def_cfa_offset 15
 1048               		.cfi_offset 28, -14
 1049 001a DF93      		push r29
 1050               	.LCFI40:
 1051               		.cfi_def_cfa_offset 16
 1052               		.cfi_offset 29, -15
 1053 001c CDB7      		in r28,__SP_L__
 1054 001e DEB7      		in r29,__SP_H__
 1055               	.LCFI41:
 1056               		.cfi_def_cfa_register 28
 1057 0020 6897      		sbiw r28,24
 1058               	.LCFI42:
 1059               		.cfi_def_cfa_offset 40
 1060 0022 0FB6      		in __tmp_reg__,__SREG__
 1061 0024 F894      		cli
 1062 0026 DEBF      		out __SP_H__,r29
 1063 0028 0FBE      		out __SREG__,__tmp_reg__
 1064 002a CDBF      		out __SP_L__,r28
 1065               	/* prologue: function */
 1066               	/* frame size = 24 */
 1067               	/* stack size = 38 */
 1068               	.L__stack_usage = 38
 1069 002c 8C01      		movw r16,r24
1209:funsape/device/ssd1306.cpp ****     // Local variables
1210:funsape/device/ssd1306.cpp ****     uint8_t auxScale                    = this->_textSize;
 1070               		.loc 1 1210 5 is_stmt 1 view .LVU235
 1071               		.loc 1 1210 49 is_stmt 0 view .LVU236
 1072 002e FC01      		movw r30,r24
 1073 0030 8585      		ldd r24,Z+13
 1074               	.LVL71:
 1075               		.loc 1 1210 49 view .LVU237
 1076 0032 8770      		andi r24,lo8(7)
 1077 0034 F82E      		mov r15,r24
 1078               		.loc 1 1210 13 view .LVU238
 1079 0036 E82E      		mov r14,r24
 1080               	.LVL72:
1211:funsape/device/ssd1306.cpp ****     uint8_t auxCode                     = (uint8_t)character_p;
 1081               		.loc 1 1211 5 is_stmt 1 view .LVU239
 1082               		.loc 1 1211 13 is_stmt 0 view .LVU240
 1083 0038 862F      		mov r24,r22
 1084               	.LVL73:
1212:funsape/device/ssd1306.cpp ****     uint8_t auxIndex                    = 0;
 1085               		.loc 1 1212 5 is_stmt 1 view .LVU241
1213:funsape/device/ssd1306.cpp **** 
1214:funsape/device/ssd1306.cpp ****     // Maps unsupported characters to a blank space
1215:funsape/device/ssd1306.cpp ****     if((auxCode < constSsd1306FontFirst) || (auxCode > constSsd1306FontLast)) {
GAS LISTING /tmp/cc7wpQ70.s 			page 42


 1086               		.loc 1 1215 5 view .LVU242
 1087               		.loc 1 1215 42 is_stmt 0 view .LVU243
 1088 003a 6052      		subi r22,lo8(-(-32))
 1089               	.LVL74:
 1090               		.loc 1 1215 5 view .LVU244
 1091 003c 6F35      		cpi r22,lo8(95)
 1092 003e 00F0      		brlo .L44
1216:funsape/device/ssd1306.cpp ****         auxCode = constSsd1306FontFirst;
 1093               		.loc 1 1216 17 view .LVU245
 1094 0040 80E2      		ldi r24,lo8(32)
 1095               	.LVL75:
 1096               	.L44:
1217:funsape/device/ssd1306.cpp ****     }
1218:funsape/device/ssd1306.cpp ****     auxIndex = auxCode - constSsd1306FontFirst;
 1097               		.loc 1 1218 5 is_stmt 1 view .LVU246
 1098               		.loc 1 1218 14 is_stmt 0 view .LVU247
 1099 0042 0F2E      		mov __tmp_reg__,r31
 1100 0044 F0EE      		ldi r31,lo8(-32)
 1101 0046 9F2E      		mov r9,r31
 1102 0048 F02D      		mov r31,__tmp_reg__
 1103 004a 980E      		add r9,r24
 1104               	.LVL76:
1219:funsape/device/ssd1306.cpp **** 
1220:funsape/device/ssd1306.cpp ****     // Wraps to the next line when the glyph does not fit horizontally
1221:funsape/device/ssd1306.cpp ****     if((this->_cursorX + (constSsd1306CellWidth * auxScale)) > constSsd1306Width) {
 1105               		.loc 1 1221 5 is_stmt 1 view .LVU248
 1106               		.loc 1 1221 15 is_stmt 0 view .LVU249
 1107 004c F801      		movw r30,r16
 1108 004e 2385      		ldd r18,Z+11
 1109               		.loc 1 1221 51 view .LVU250
 1110 0050 CF2C      		mov r12,r15
 1111 0052 D12C      		mov r13,__zero_reg__
 1112               		.loc 1 1221 49 view .LVU251
 1113 0054 C601      		movw r24,r12
 1114               	.LVL77:
 1115               		.loc 1 1221 49 view .LVU252
 1116 0056 880F      		lsl r24
 1117 0058 991F      		rol r25
 1118 005a 8C0D      		add r24,r12
 1119 005c 9D1D      		adc r25,r13
 1120 005e 880F      		lsl r24
 1121 0060 991F      		rol r25
 1122               		.loc 1 1221 24 view .LVU253
 1123 0062 820F      		add r24,r18
 1124 0064 911D      		adc r25,__zero_reg__
 1125               		.loc 1 1221 5 view .LVU254
 1126 0066 8138      		cpi r24,-127
 1127 0068 9040      		sbci r25,0
 1128 006a 04F0      		brlt .L45
 1129               	.LVL78:
1222:funsape/device/ssd1306.cpp ****         this->_cursorX                  = 0;
 1130               		.loc 1 1222 9 is_stmt 1 view .LVU255
 1131               		.loc 1 1222 41 is_stmt 0 view .LVU256
 1132 006c 1386      		std Z+11,__zero_reg__
1223:funsape/device/ssd1306.cpp ****         this->_cursorY                  += (uint8_t)(auxScale * 8);
 1133               		.loc 1 1223 9 is_stmt 1 view .LVU257
 1134               		.loc 1 1223 15 is_stmt 0 view .LVU258
GAS LISTING /tmp/cc7wpQ70.s 			page 43


 1135 006e 9485      		ldd r25,Z+12
 1136               		.loc 1 1223 41 view .LVU259
 1137 0070 8F2D      		mov r24,r15
 1138 0072 880F      		lsl r24
 1139 0074 880F      		lsl r24
 1140 0076 880F      		lsl r24
 1141 0078 890F      		add r24,r25
 1142 007a 8487      		std Z+12,r24
 1143               	.L45:
1224:funsape/device/ssd1306.cpp ****     }
1225:funsape/device/ssd1306.cpp ****     if((this->_cursorY + (auxScale * 8)) > (this->_pages * 8)) {
 1144               		.loc 1 1225 5 is_stmt 1 view .LVU260
 1145               		.loc 1 1225 15 is_stmt 0 view .LVU261
 1146 007c F801      		movw r30,r16
 1147 007e 8485      		ldd r24,Z+12
 1148               		.loc 1 1225 36 view .LVU262
 1149 0080 9601      		movw r18,r12
 1150 0082 220F      		lsl r18
 1151 0084 331F      		rol r19
 1152 0086 220F      		lsl r18
 1153 0088 331F      		rol r19
 1154 008a 220F      		lsl r18
 1155 008c 331F      		rol r19
 1156               		.loc 1 1225 24 view .LVU263
 1157 008e 280F      		add r18,r24
 1158 0090 311D      		adc r19,__zero_reg__
 1159               		.loc 1 1225 51 view .LVU264
 1160 0092 8285      		ldd r24,Z+10
 1161 0094 90E0      		ldi r25,0
 1162               		.loc 1 1225 58 view .LVU265
 1163 0096 880F      		lsl r24
 1164 0098 991F      		rol r25
 1165 009a 880F      		lsl r24
 1166 009c 991F      		rol r25
 1167 009e 880F      		lsl r24
 1168 00a0 991F      		rol r25
 1169               		.loc 1 1225 5 view .LVU266
 1170 00a2 8217      		cp r24,r18
 1171 00a4 9307      		cpc r25,r19
 1172 00a6 04F4      		brge .L46
1226:funsape/device/ssd1306.cpp ****         this->_cursorY                  = 0;
 1173               		.loc 1 1226 9 is_stmt 1 view .LVU267
 1174               		.loc 1 1226 41 is_stmt 0 view .LVU268
 1175 00a8 1486      		std Z+12,__zero_reg__
 1176               	.L46:
1227:funsape/device/ssd1306.cpp ****     }
1228:funsape/device/ssd1306.cpp **** 
1229:funsape/device/ssd1306.cpp ****     // Buffered mode: composes the whole cell (on AND off pixels) into RAM,
1230:funsape/device/ssd1306.cpp ****     // at any Y. Each source pixel becomes an auxScale x auxScale block.
1231:funsape/device/ssd1306.cpp ****     if(this->_buffered) {
 1177               		.loc 1 1231 5 is_stmt 1 view .LVU269
 1178               	.LBB9:
 1179               		.loc 1 1231 14 is_stmt 0 view .LVU270
 1180 00aa F801      		movw r30,r16
 1181 00ac 8581      		ldd r24,Z+5
 1182 00ae 81FB      		bst r24,1
 1183 00b0 8824      		clr r8
GAS LISTING /tmp/cc7wpQ70.s 			page 44


 1184 00b2 80F8      		bld r8,0
 1185               		.loc 1 1231 5 view .LVU271
 1186 00b4 81FD      		sbrc r24,1
 1187 00b6 00C0      		rjmp .L76
 1188               		.loc 1 1231 5 view .LVU272
 1189               	.LBE9:
1232:funsape/device/ssd1306.cpp ****         for(uint8_t col = 0; col < constSsd1306CellWidth; col++) {
1233:funsape/device/ssd1306.cpp ****             uint8_t auxSourceCol        = 0x00;
1234:funsape/device/ssd1306.cpp **** 
1235:funsape/device/ssd1306.cpp ****             if(col < 5) {
1236:funsape/device/ssd1306.cpp ****                 auxSourceCol = pgm_read_byte(&constSsd1306Font[auxIndex][col]);
1237:funsape/device/ssd1306.cpp ****             }
1238:funsape/device/ssd1306.cpp ****             for(uint8_t row = 0; row < 8; row++) {
1239:funsape/device/ssd1306.cpp ****                 bool_t auxOn = (auxSourceCol >> row) & 0x01;
1240:funsape/device/ssd1306.cpp ****                 for(uint8_t dx = 0; dx < auxScale; dx++) {
1241:funsape/device/ssd1306.cpp ****                     for(uint8_t dy = 0; dy < auxScale; dy++) {
1242:funsape/device/ssd1306.cpp ****                         this->_setPixel(
1243:funsape/device/ssd1306.cpp ****                                 this->_cursorX + (col * auxScale) + dx,
1244:funsape/device/ssd1306.cpp ****                                 this->_cursorY + (row * auxScale) + dy,
1245:funsape/device/ssd1306.cpp ****                                 auxOn);
1246:funsape/device/ssd1306.cpp ****                     }
1247:funsape/device/ssd1306.cpp ****                 }
1248:funsape/device/ssd1306.cpp ****             }
1249:funsape/device/ssd1306.cpp ****         }
1250:funsape/device/ssd1306.cpp ****         this->_cursorX                  += (constSsd1306CellWidth * auxScale);
1251:funsape/device/ssd1306.cpp ****         this->_lastError = Error::NONE;
1252:funsape/device/ssd1306.cpp ****         return true;
1253:funsape/device/ssd1306.cpp ****     }
1254:funsape/device/ssd1306.cpp **** 
1255:funsape/device/ssd1306.cpp ****     // Direct mode: renders the glyph one page-row at a time (Y is page-aligned)
1256:funsape/device/ssd1306.cpp ****     uint8_t auxBuffer[constSsd1306CellWidth * constSsd1306TextSizeMax];   // up to 6*4
 1190               		.loc 1 1256 5 is_stmt 1 view .LVU273
1257:funsape/device/ssd1306.cpp ****     uint8_t auxPage                     = (this->_cursorY >> 3);
 1191               		.loc 1 1257 5 view .LVU274
 1192               		.loc 1 1257 50 is_stmt 0 view .LVU275
 1193 00b8 A484      		ldd r10,Z+12
 1194               		.loc 1 1257 13 view .LVU276
 1195 00ba A694      		lsr r10
 1196 00bc A694      		lsr r10
 1197 00be A694      		lsr r10
 1198               	.LVL79:
1258:funsape/device/ssd1306.cpp **** 
1259:funsape/device/ssd1306.cpp ****     for(uint8_t pg = 0; pg < auxScale; pg++) {
 1199               		.loc 1 1259 5 is_stmt 1 view .LVU277
 1200               	.LBB24:
 1201               		.loc 1 1259 17 is_stmt 0 view .LVU278
 1202 00c0 B12C      		mov r11,__zero_reg__
 1203               		.loc 1 1259 5 view .LVU279
 1204 00c2 00C0      		rjmp .L57
 1205               	.LVL80:
 1206               	.L69:
 1207               		.loc 1 1259 5 view .LVU280
 1208               	.LBE24:
 1209               	.LBB38:
 1210               	.LBB10:
 1211               	.LBB11:
 1212               	.LBB12:
GAS LISTING /tmp/cc7wpQ70.s 			page 45


1233:funsape/device/ssd1306.cpp **** 
 1213               		.loc 1 1233 21 view .LVU281
 1214 00c4 712C      		mov r7,__zero_reg__
 1215 00c6 00C0      		rjmp .L49
 1216               	.LVL81:
 1217               	.L52:
 1218               	.LBB13:
 1219               	.LBB14:
 1220               	.LBB15:
 1221               	.LBB16:
1242:funsape/device/ssd1306.cpp ****                                 this->_cursorX + (col * auxScale) + dx,
 1222               		.loc 1 1242 25 is_stmt 1 view .LVU282
1244:funsape/device/ssd1306.cpp ****                                 auxOn);
 1223               		.loc 1 1244 39 is_stmt 0 view .LVU283
 1224 00c8 F801      		movw r30,r16
 1225 00ca 4485      		ldd r20,Z+12
1244:funsape/device/ssd1306.cpp ****                                 auxOn);
 1226               		.loc 1 1244 48 view .LVU284
 1227 00cc BF9C      		mul r11,r15
 1228 00ce 400D      		add r20,r0
 1229 00d0 1124      		clr __zero_reg__
1243:funsape/device/ssd1306.cpp ****                                 this->_cursorY + (row * auxScale) + dy,
 1230               		.loc 1 1243 39 view .LVU285
 1231 00d2 6385      		ldd r22,Z+11
1243:funsape/device/ssd1306.cpp ****                                 this->_cursorY + (row * auxScale) + dy,
 1232               		.loc 1 1243 48 view .LVU286
 1233 00d4 AF9C      		mul r10,r15
 1234 00d6 600D      		add r22,r0
 1235 00d8 1124      		clr __zero_reg__
1242:funsape/device/ssd1306.cpp ****                                 this->_cursorX + (col * auxScale) + dx,
 1236               		.loc 1 1242 40 view .LVU287
 1237 00da 682E      		mov r6,r24
 1238 00dc 480F      		add r20,r24
 1239 00de 6D0D      		add r22,r13
 1240 00e0 2C2D      		mov r18,r12
 1241 00e2 C801      		movw r24,r16
 1242               	.LVL82:
1242:funsape/device/ssd1306.cpp ****                                 this->_cursorX + (col * auxScale) + dx,
 1243               		.loc 1 1242 40 view .LVU288
 1244 00e4 0E94 0000 		call _ZN7Ssd13069_setPixelEhhb
 1245               	.LVL83:
1241:funsape/device/ssd1306.cpp ****                         this->_setPixel(
 1246               		.loc 1 1241 21 is_stmt 1 discriminator 1 view .LVU289
 1247 00e8 862D      		mov r24,r6
 1248 00ea 8F5F      		subi r24,lo8(-(1))
 1249               	.LVL84:
 1250               	.L53:
1241:funsape/device/ssd1306.cpp ****                         this->_setPixel(
 1251               		.loc 1 1241 44 discriminator 2 view .LVU290
 1252 00ec 8E15      		cp r24,r14
 1253 00ee 00F0      		brlo .L52
 1254               	.LBE16:
1240:funsape/device/ssd1306.cpp ****                     for(uint8_t dy = 0; dy < auxScale; dy++) {
 1255               		.loc 1 1240 17 discriminator 1 view .LVU291
 1256 00f0 D394      		inc r13
 1257               	.LVL85:
 1258               	.L51:
GAS LISTING /tmp/cc7wpQ70.s 			page 46


1240:funsape/device/ssd1306.cpp ****                     for(uint8_t dy = 0; dy < auxScale; dy++) {
 1259               		.loc 1 1240 40 discriminator 2 view .LVU292
 1260 00f2 DE14      		cp r13,r14
 1261 00f4 00F4      		brsh .L77
 1262               	.LBB17:
1241:funsape/device/ssd1306.cpp ****                         this->_setPixel(
 1263               		.loc 1 1241 33 is_stmt 0 view .LVU293
 1264 00f6 80E0      		ldi r24,0
 1265 00f8 00C0      		rjmp .L53
 1266               	.L77:
 1267               	.LBE17:
 1268               	.LBE15:
 1269               	.LBE14:
1238:funsape/device/ssd1306.cpp ****                 bool_t auxOn = (auxSourceCol >> row) & 0x01;
 1270               		.loc 1 1238 13 is_stmt 1 discriminator 1 view .LVU294
 1271 00fa B394      		inc r11
 1272               	.LVL86:
 1273               	.L50:
1238:funsape/device/ssd1306.cpp ****                 bool_t auxOn = (auxSourceCol >> row) & 0x01;
 1274               		.loc 1 1238 38 discriminator 2 view .LVU295
 1275 00fc 8B2D      		mov r24,r11
 1276 00fe 8830      		cpi r24,lo8(8)
 1277 0100 00F4      		brsh .L78
 1278               	.LBB19:
1239:funsape/device/ssd1306.cpp ****                 for(uint8_t dx = 0; dx < auxScale; dx++) {
 1279               		.loc 1 1239 17 view .LVU296
1239:funsape/device/ssd1306.cpp ****                 for(uint8_t dx = 0; dx < auxScale; dx++) {
 1280               		.loc 1 1239 33 is_stmt 0 view .LVU297
 1281 0102 C72C      		mov r12,r7
 1282 0104 D12C      		mov r13,__zero_reg__
1239:funsape/device/ssd1306.cpp ****                 for(uint8_t dx = 0; dx < auxScale; dx++) {
 1283               		.loc 1 1239 46 view .LVU298
 1284 0106 0B2C      		mov r0,r11
 1285 0108 00C0      		rjmp 2f
 1286               		1:
 1287 010a D594      		asr r13
 1288 010c C794      		ror r12
 1289               		2:
 1290 010e 0A94      		dec r0
 1291 0110 02F4      		brpl 1b
1239:funsape/device/ssd1306.cpp ****                 for(uint8_t dx = 0; dx < auxScale; dx++) {
 1292               		.loc 1 1239 24 view .LVU299
 1293 0112 C0FA      		bst r12,0
 1294 0114 CC24      		clr r12
 1295 0116 C0F8      		bld r12,0
 1296               	.LVL87:
1240:funsape/device/ssd1306.cpp ****                     for(uint8_t dy = 0; dy < auxScale; dy++) {
 1297               		.loc 1 1240 17 is_stmt 1 view .LVU300
 1298               	.LBB18:
1240:funsape/device/ssd1306.cpp ****                     for(uint8_t dy = 0; dy < auxScale; dy++) {
 1299               		.loc 1 1240 29 is_stmt 0 view .LVU301
 1300 0118 D12C      		mov r13,__zero_reg__
1240:funsape/device/ssd1306.cpp ****                     for(uint8_t dy = 0; dy < auxScale; dy++) {
 1301               		.loc 1 1240 17 view .LVU302
 1302 011a 00C0      		rjmp .L51
 1303               	.LVL88:
 1304               	.L78:
GAS LISTING /tmp/cc7wpQ70.s 			page 47


1240:funsape/device/ssd1306.cpp ****                     for(uint8_t dy = 0; dy < auxScale; dy++) {
 1305               		.loc 1 1240 17 view .LVU303
 1306               	.LBE18:
 1307               	.LBE19:
 1308               	.LBE13:
 1309               	.LBE12:
1232:funsape/device/ssd1306.cpp ****             uint8_t auxSourceCol        = 0x00;
 1310               		.loc 1 1232 9 is_stmt 1 discriminator 1 view .LVU304
 1311 011c A394      		inc r10
 1312               	.LVL89:
 1313               	.L47:
1232:funsape/device/ssd1306.cpp ****             uint8_t auxSourceCol        = 0x00;
 1314               		.loc 1 1232 34 discriminator 2 view .LVU305
 1315 011e 8A2D      		mov r24,r10
 1316 0120 8630      		cpi r24,lo8(6)
 1317 0122 00F4      		brsh .L79
 1318               	.LBB23:
1233:funsape/device/ssd1306.cpp **** 
 1319               		.loc 1 1233 13 view .LVU306
 1320               	.LVL90:
1235:funsape/device/ssd1306.cpp ****                 auxSourceCol = pgm_read_byte(&constSsd1306Font[auxIndex][col]);
 1321               		.loc 1 1235 13 view .LVU307
 1322               	.LBB20:
 1323 0124 8A2D      		mov r24,r10
 1324 0126 8530      		cpi r24,lo8(5)
 1325 0128 00F4      		brsh .L69
1236:funsape/device/ssd1306.cpp ****             }
 1326               		.loc 1 1236 17 view .LVU308
 1327               	.LBB21:
1236:funsape/device/ssd1306.cpp ****             }
 1328               		.loc 1 1236 32 view .LVU309
 1329 012a 892D      		mov r24,r9
 1330 012c 90E0      		ldi r25,0
 1331 012e FC01      		movw r30,r24
 1332 0130 EE0F      		lsl r30
 1333 0132 FF1F      		rol r31
 1334 0134 EE0F      		lsl r30
 1335 0136 FF1F      		rol r31
 1336 0138 E80F      		add r30,r24
 1337 013a F91F      		adc r31,r25
 1338 013c EA0D      		add r30,r10
 1339 013e F11D      		adc r31,__zero_reg__
 1340 0140 E050      		subi r30,lo8(-(_ZL16constSsd1306Font))
 1341 0142 F040      		sbci r31,hi8(-(_ZL16constSsd1306Font))
 1342               	.LVL91:
1236:funsape/device/ssd1306.cpp ****             }
 1343               		.loc 1 1236 32 view .LVU310
1236:funsape/device/ssd1306.cpp ****             }
 1344               		.loc 1 1236 32 view .LVU311
 1345               	/* #APP */
 1346               	 ;  1236 "funsape/device/ssd1306.cpp" 1
 1347 0144 E491      		lpm r30,Z ; [[len=nl]]
 1348               	 ;  0 "" 2
 1349               	.LVL92:
1236:funsape/device/ssd1306.cpp ****             }
 1350               		.loc 1 1236 32 is_stmt 0 view .LVU312
 1351               	/* #NOAPP */
GAS LISTING /tmp/cc7wpQ70.s 			page 48


 1352 0146 7E2E      		mov r7,r30
 1353               	.LVL93:
1236:funsape/device/ssd1306.cpp ****             }
 1354               		.loc 1 1236 32 is_stmt 1 view .LVU313
 1355               	.L49:
1236:funsape/device/ssd1306.cpp ****             }
 1356               		.loc 1 1236 32 is_stmt 0 view .LVU314
 1357               	.LBE21:
 1358               	.LBE20:
1238:funsape/device/ssd1306.cpp ****                 bool_t auxOn = (auxSourceCol >> row) & 0x01;
 1359               		.loc 1 1238 13 is_stmt 1 view .LVU315
 1360               	.LBB22:
1238:funsape/device/ssd1306.cpp ****                 bool_t auxOn = (auxSourceCol >> row) & 0x01;
 1361               		.loc 1 1238 25 is_stmt 0 view .LVU316
 1362 0148 B12C      		mov r11,__zero_reg__
1238:funsape/device/ssd1306.cpp ****                 bool_t auxOn = (auxSourceCol >> row) & 0x01;
 1363               		.loc 1 1238 13 view .LVU317
 1364 014a 00C0      		rjmp .L50
 1365               	.LVL94:
 1366               	.L76:
1238:funsape/device/ssd1306.cpp ****                 bool_t auxOn = (auxSourceCol >> row) & 0x01;
 1367               		.loc 1 1238 13 view .LVU318
 1368               	.LBE22:
 1369               	.LBE23:
1232:funsape/device/ssd1306.cpp ****             uint8_t auxSourceCol        = 0x00;
 1370               		.loc 1 1232 21 view .LVU319
 1371 014c A12C      		mov r10,__zero_reg__
 1372 014e 00C0      		rjmp .L47
 1373               	.LVL95:
 1374               	.L79:
1232:funsape/device/ssd1306.cpp ****             uint8_t auxSourceCol        = 0x00;
 1375               		.loc 1 1232 21 view .LVU320
 1376               	.LBE11:
1250:funsape/device/ssd1306.cpp ****         this->_lastError = Error::NONE;
 1377               		.loc 1 1250 9 is_stmt 1 view .LVU321
1250:funsape/device/ssd1306.cpp ****         this->_lastError = Error::NONE;
 1378               		.loc 1 1250 15 is_stmt 0 view .LVU322
 1379 0150 F801      		movw r30,r16
 1380 0152 9385      		ldd r25,Z+11
1250:funsape/device/ssd1306.cpp ****         this->_lastError = Error::NONE;
 1381               		.loc 1 1250 41 view .LVU323
 1382 0154 8F2D      		mov r24,r15
 1383 0156 880F      		lsl r24
 1384 0158 8F0D      		add r24,r15
 1385 015a 880F      		lsl r24
 1386 015c 890F      		add r24,r25
 1387 015e 8387      		std Z+11,r24
1251:funsape/device/ssd1306.cpp ****         return true;
 1388               		.loc 1 1251 9 is_stmt 1 view .LVU324
1251:funsape/device/ssd1306.cpp ****         return true;
 1389               		.loc 1 1251 26 is_stmt 0 view .LVU325
 1390 0160 1782      		std Z+7,__zero_reg__
 1391 0162 1682      		std Z+6,__zero_reg__
1252:funsape/device/ssd1306.cpp ****     }
 1392               		.loc 1 1252 9 is_stmt 1 view .LVU326
 1393               	.LVL96:
 1394               	.L43:
GAS LISTING /tmp/cc7wpQ70.s 			page 49


1252:funsape/device/ssd1306.cpp ****     }
 1395               		.loc 1 1252 9 is_stmt 0 view .LVU327
 1396               	.LBE10:
 1397               	.LBE38:
1260:funsape/device/ssd1306.cpp ****         uint8_t auxBufferSize           = 0;
1261:funsape/device/ssd1306.cpp **** 
1262:funsape/device/ssd1306.cpp ****         if(!this->_setAddress(auxPage + pg, this->_cursorX)) {
1263:funsape/device/ssd1306.cpp ****             return false;
1264:funsape/device/ssd1306.cpp ****         }
1265:funsape/device/ssd1306.cpp ****         for(uint8_t col = 0; col < constSsd1306CellWidth; col++) {
1266:funsape/device/ssd1306.cpp ****             uint8_t auxSourceCol        = 0x00;
1267:funsape/device/ssd1306.cpp ****             uint8_t auxScaledByte       = 0x00;
1268:funsape/device/ssd1306.cpp **** 
1269:funsape/device/ssd1306.cpp ****             if(col < 5) {
1270:funsape/device/ssd1306.cpp ****                 auxSourceCol = pgm_read_byte(&constSsd1306Font[auxIndex][col]);
1271:funsape/device/ssd1306.cpp ****             }
1272:funsape/device/ssd1306.cpp ****             // Vertically expands the source column into this output page byte
1273:funsape/device/ssd1306.cpp ****             for(uint8_t b = 0; b < 8; b++) {
1274:funsape/device/ssd1306.cpp ****                 uint8_t auxSourceRow = ((pg * 8) + b) / auxScale;
1275:funsape/device/ssd1306.cpp ****                 if((auxSourceCol >> auxSourceRow) & 0x01) {
1276:funsape/device/ssd1306.cpp ****                     auxScaledByte |= (1 << b);
1277:funsape/device/ssd1306.cpp ****                 }
1278:funsape/device/ssd1306.cpp ****             }
1279:funsape/device/ssd1306.cpp ****             // Horizontally repeats the scaled column auxScale times
1280:funsape/device/ssd1306.cpp ****             for(uint8_t rep = 0; rep < auxScale; rep++) {
1281:funsape/device/ssd1306.cpp ****                 auxBuffer[auxBufferSize++] = auxScaledByte;
1282:funsape/device/ssd1306.cpp ****             }
1283:funsape/device/ssd1306.cpp ****         }
1284:funsape/device/ssd1306.cpp ****         if(!this->_writeData(auxBuffer, auxBufferSize)) {
1285:funsape/device/ssd1306.cpp ****             return false;
1286:funsape/device/ssd1306.cpp ****         }
1287:funsape/device/ssd1306.cpp ****     }
1288:funsape/device/ssd1306.cpp **** 
1289:funsape/device/ssd1306.cpp ****     // Advances the text cursor
1290:funsape/device/ssd1306.cpp ****     this->_cursorX                      += (constSsd1306CellWidth * auxScale);
1291:funsape/device/ssd1306.cpp **** 
1292:funsape/device/ssd1306.cpp ****     // Returns successfully
1293:funsape/device/ssd1306.cpp ****     this->_lastError = Error::NONE;
1294:funsape/device/ssd1306.cpp ****     return true;
1295:funsape/device/ssd1306.cpp **** }
 1398               		.loc 1 1295 1 view .LVU328
 1399 0164 882D      		mov r24,r8
 1400               	/* epilogue start */
 1401 0166 6896      		adiw r28,24
 1402 0168 0FB6      		in __tmp_reg__,__SREG__
 1403 016a F894      		cli
 1404 016c DEBF      		out __SP_H__,r29
 1405 016e 0FBE      		out __SREG__,__tmp_reg__
 1406 0170 CDBF      		out __SP_L__,r28
 1407 0172 DF91      		pop r29
 1408 0174 CF91      		pop r28
 1409 0176 1F91      		pop r17
 1410 0178 0F91      		pop r16
 1411               	.LVL97:
 1412               		.loc 1 1295 1 view .LVU329
 1413 017a FF90      		pop r15
 1414 017c EF90      		pop r14
GAS LISTING /tmp/cc7wpQ70.s 			page 50


 1415               	.LVL98:
 1416               		.loc 1 1295 1 view .LVU330
 1417 017e DF90      		pop r13
 1418 0180 CF90      		pop r12
 1419 0182 BF90      		pop r11
 1420 0184 AF90      		pop r10
 1421 0186 9F90      		pop r9
 1422               	.LVL99:
 1423               		.loc 1 1295 1 view .LVU331
 1424 0188 8F90      		pop r8
 1425 018a 7F90      		pop r7
 1426 018c 6F90      		pop r6
 1427 018e 0895      		ret
 1428               	.LVL100:
 1429               	.L72:
 1430               	.LBB39:
 1431               	.LBB25:
 1432               	.LBB26:
 1433               	.LBB27:
1266:funsape/device/ssd1306.cpp ****             uint8_t auxScaledByte       = 0x00;
 1434               		.loc 1 1266 21 view .LVU332
 1435 0190 E0E0      		ldi r30,0
 1436 0192 00C0      		rjmp .L59
 1437               	.LVL101:
 1438               	.L61:
 1439               	.LBB28:
1273:funsape/device/ssd1306.cpp ****                 uint8_t auxSourceRow = ((pg * 8) + b) / auxScale;
 1440               		.loc 1 1273 13 is_stmt 1 discriminator 1 view .LVU333
 1441 0194 2F5F      		subi r18,lo8(-(1))
 1442               	.LVL102:
 1443               	.L60:
1273:funsape/device/ssd1306.cpp ****                 uint8_t auxSourceRow = ((pg * 8) + b) / auxScale;
 1444               		.loc 1 1273 34 discriminator 2 view .LVU334
 1445 0196 2830      		cpi r18,lo8(8)
 1446 0198 00F4      		brsh .L80
 1447               	.LBB29:
1274:funsape/device/ssd1306.cpp ****                 if((auxSourceCol >> auxSourceRow) & 0x01) {
 1448               		.loc 1 1274 17 view .LVU335
1274:funsape/device/ssd1306.cpp ****                 if((auxSourceCol >> auxSourceRow) & 0x01) {
 1449               		.loc 1 1274 42 is_stmt 0 view .LVU336
 1450 019a 8B2D      		mov r24,r11
 1451 019c 90E0      		ldi r25,0
1274:funsape/device/ssd1306.cpp ****                 if((auxSourceCol >> auxSourceRow) & 0x01) {
 1452               		.loc 1 1274 45 view .LVU337
 1453 019e 880F      		lsl r24
 1454 01a0 991F      		rol r25
 1455 01a2 880F      		lsl r24
 1456 01a4 991F      		rol r25
 1457 01a6 880F      		lsl r24
 1458 01a8 991F      		rol r25
1274:funsape/device/ssd1306.cpp ****                 if((auxSourceCol >> auxSourceRow) & 0x01) {
 1459               		.loc 1 1274 50 view .LVU338
 1460 01aa 820F      		add r24,r18
 1461 01ac 911D      		adc r25,__zero_reg__
1274:funsape/device/ssd1306.cpp ****                 if((auxSourceCol >> auxSourceRow) & 0x01) {
 1462               		.loc 1 1274 55 view .LVU339
 1463 01ae B601      		movw r22,r12
GAS LISTING /tmp/cc7wpQ70.s 			page 51


 1464 01b0 0E94 0000 		call __divmodhi4
 1465               	.LVL103:
1275:funsape/device/ssd1306.cpp ****                     auxScaledByte |= (1 << b);
 1466               		.loc 1 1275 17 is_stmt 1 view .LVU340
1275:funsape/device/ssd1306.cpp ****                     auxScaledByte |= (1 << b);
 1467               		.loc 1 1275 21 is_stmt 0 view .LVU341
 1468 01b4 8E2F      		mov r24,r30
 1469 01b6 90E0      		ldi r25,0
1275:funsape/device/ssd1306.cpp ****                     auxScaledByte |= (1 << b);
 1470               		.loc 1 1275 34 view .LVU342
 1471 01b8 00C0      		rjmp 2f
 1472               		1:
 1473 01ba 9595      		asr r25
 1474 01bc 8795      		ror r24
 1475               		2:
 1476 01be 6A95      		dec r22
 1477 01c0 02F4      		brpl 1b
1275:funsape/device/ssd1306.cpp ****                     auxScaledByte |= (1 << b);
 1478               		.loc 1 1275 17 view .LVU343
 1479 01c2 80FF      		sbrs r24,0
 1480 01c4 00C0      		rjmp .L61
1276:funsape/device/ssd1306.cpp ****                 }
 1481               		.loc 1 1276 21 is_stmt 1 view .LVU344
1276:funsape/device/ssd1306.cpp ****                 }
 1482               		.loc 1 1276 41 is_stmt 0 view .LVU345
 1483 01c6 81E0      		ldi r24,lo8(1)
 1484 01c8 90E0      		ldi r25,0
 1485 01ca 022E      		mov r0,r18
 1486 01cc 00C0      		rjmp 2f
 1487               		1:
 1488 01ce 880F      		lsl r24
 1489 01d0 991F      		rol r25
 1490               		2:
 1491 01d2 0A94      		dec r0
 1492 01d4 02F4      		brpl 1b
1276:funsape/device/ssd1306.cpp ****                 }
 1493               		.loc 1 1276 35 view .LVU346
 1494 01d6 882A      		or r8,r24
 1495               	.LVL104:
1276:funsape/device/ssd1306.cpp ****                 }
 1496               		.loc 1 1276 35 view .LVU347
 1497 01d8 00C0      		rjmp .L61
 1498               	.LVL105:
 1499               	.L80:
1276:funsape/device/ssd1306.cpp ****                 }
 1500               		.loc 1 1276 35 view .LVU348
 1501               	.LBE29:
 1502               	.LBE28:
 1503               	.LBB30:
1280:funsape/device/ssd1306.cpp ****                 auxBuffer[auxBufferSize++] = auxScaledByte;
 1504               		.loc 1 1280 25 view .LVU349
 1505 01da 80E0      		ldi r24,0
 1506 01dc 00C0      		rjmp .L63
 1507               	.LVL106:
 1508               	.L64:
1281:funsape/device/ssd1306.cpp ****             }
 1509               		.loc 1 1281 17 is_stmt 1 view .LVU350
GAS LISTING /tmp/cc7wpQ70.s 			page 52


1281:funsape/device/ssd1306.cpp ****             }
 1510               		.loc 1 1281 44 is_stmt 0 view .LVU351
 1511 01de FE01      		movw r30,r28
 1512 01e0 3196      		adiw r30,1
 1513 01e2 E40F      		add r30,r20
 1514 01e4 F11D      		adc r31,__zero_reg__
 1515 01e6 8082      		st Z,r8
1280:funsape/device/ssd1306.cpp ****                 auxBuffer[auxBufferSize++] = auxScaledByte;
 1516               		.loc 1 1280 13 is_stmt 1 discriminator 1 view .LVU352
 1517 01e8 8F5F      		subi r24,lo8(-(1))
 1518               	.LVL107:
1281:funsape/device/ssd1306.cpp ****             }
 1519               		.loc 1 1281 40 is_stmt 0 view .LVU353
 1520 01ea 4F5F      		subi r20,lo8(-(1))
 1521               	.LVL108:
 1522               	.L63:
1280:funsape/device/ssd1306.cpp ****                 auxBuffer[auxBufferSize++] = auxScaledByte;
 1523               		.loc 1 1280 38 is_stmt 1 discriminator 2 view .LVU354
 1524 01ec 8E15      		cp r24,r14
 1525 01ee 00F0      		brlo .L64
1280:funsape/device/ssd1306.cpp ****                 auxBuffer[auxBufferSize++] = auxScaledByte;
 1526               		.loc 1 1280 38 is_stmt 0 discriminator 2 view .LVU355
 1527               	.LBE30:
 1528               	.LBE27:
1265:funsape/device/ssd1306.cpp ****             uint8_t auxSourceCol        = 0x00;
 1529               		.loc 1 1265 9 is_stmt 1 discriminator 1 view .LVU356
 1530 01f0 3F5F      		subi r19,lo8(-(1))
 1531               	.LVL109:
 1532               	.L58:
1265:funsape/device/ssd1306.cpp ****             uint8_t auxSourceCol        = 0x00;
 1533               		.loc 1 1265 34 discriminator 2 view .LVU357
 1534 01f2 3530      		cpi r19,lo8(5)
 1535 01f4 01F0      		breq .+2
 1536 01f6 00F4      		brsh .L81
 1537               	.LBB35:
1266:funsape/device/ssd1306.cpp ****             uint8_t auxScaledByte       = 0x00;
 1538               		.loc 1 1266 13 view .LVU358
 1539               	.LVL110:
1267:funsape/device/ssd1306.cpp **** 
 1540               		.loc 1 1267 13 view .LVU359
1269:funsape/device/ssd1306.cpp ****                 auxSourceCol = pgm_read_byte(&constSsd1306Font[auxIndex][col]);
 1541               		.loc 1 1269 13 view .LVU360
 1542               	.LBB31:
 1543 01f8 01F0      		breq .L72
1270:funsape/device/ssd1306.cpp ****             }
 1544               		.loc 1 1270 17 view .LVU361
 1545               	.LBB32:
1270:funsape/device/ssd1306.cpp ****             }
 1546               		.loc 1 1270 32 view .LVU362
 1547 01fa 892D      		mov r24,r9
 1548 01fc 90E0      		ldi r25,0
 1549 01fe FC01      		movw r30,r24
 1550 0200 EE0F      		lsl r30
 1551 0202 FF1F      		rol r31
 1552 0204 EE0F      		lsl r30
 1553 0206 FF1F      		rol r31
 1554 0208 E80F      		add r30,r24
GAS LISTING /tmp/cc7wpQ70.s 			page 53


 1555 020a F91F      		adc r31,r25
 1556 020c E30F      		add r30,r19
 1557 020e F11D      		adc r31,__zero_reg__
 1558 0210 E050      		subi r30,lo8(-(_ZL16constSsd1306Font))
 1559 0212 F040      		sbci r31,hi8(-(_ZL16constSsd1306Font))
 1560               	.LVL111:
1270:funsape/device/ssd1306.cpp ****             }
 1561               		.loc 1 1270 32 view .LVU363
1270:funsape/device/ssd1306.cpp ****             }
 1562               		.loc 1 1270 32 view .LVU364
 1563               	/* #APP */
 1564               	 ;  1270 "funsape/device/ssd1306.cpp" 1
 1565 0214 E491      		lpm r30,Z ; [[len=nl]]
 1566               	 ;  0 "" 2
 1567               	.LVL112:
1270:funsape/device/ssd1306.cpp ****             }
 1568               		.loc 1 1270 32 view .LVU365
 1569               	/* #NOAPP */
 1570               	.L59:
1270:funsape/device/ssd1306.cpp ****             }
 1571               		.loc 1 1270 32 is_stmt 0 view .LVU366
 1572               	.LBE32:
 1573               	.LBE31:
1273:funsape/device/ssd1306.cpp ****                 uint8_t auxSourceRow = ((pg * 8) + b) / auxScale;
 1574               		.loc 1 1273 13 is_stmt 1 view .LVU367
 1575               	.LBB33:
1273:funsape/device/ssd1306.cpp ****                 uint8_t auxSourceRow = ((pg * 8) + b) / auxScale;
 1576               		.loc 1 1273 25 is_stmt 0 view .LVU368
 1577 0216 20E0      		ldi r18,0
 1578               	.LBE33:
1267:funsape/device/ssd1306.cpp **** 
 1579               		.loc 1 1267 21 view .LVU369
 1580 0218 812C      		mov r8,__zero_reg__
 1581               	.LBB34:
1273:funsape/device/ssd1306.cpp ****                 uint8_t auxSourceRow = ((pg * 8) + b) / auxScale;
 1582               		.loc 1 1273 13 view .LVU370
 1583 021a 00C0      		rjmp .L60
 1584               	.LVL113:
 1585               	.L81:
1273:funsape/device/ssd1306.cpp ****                 uint8_t auxSourceRow = ((pg * 8) + b) / auxScale;
 1586               		.loc 1 1273 13 view .LVU371
 1587               	.LBE34:
 1588               	.LBE35:
 1589               	.LBE26:
1284:funsape/device/ssd1306.cpp ****             return false;
 1590               		.loc 1 1284 9 is_stmt 1 view .LVU372
1284:funsape/device/ssd1306.cpp ****             return false;
 1591               		.loc 1 1284 29 is_stmt 0 view .LVU373
 1592 021c BE01      		movw r22,r28
 1593 021e 6F5F      		subi r22,-1
 1594 0220 7F4F      		sbci r23,-1
 1595 0222 C801      		movw r24,r16
 1596 0224 0E94 0000 		call _ZN7Ssd130610_writeDataEPKhh
 1597               	.LVL114:
1284:funsape/device/ssd1306.cpp ****             return false;
 1598               		.loc 1 1284 29 view .LVU374
 1599 0228 882E      		mov r8,r24
GAS LISTING /tmp/cc7wpQ70.s 			page 54


1284:funsape/device/ssd1306.cpp ****             return false;
 1600               		.loc 1 1284 9 discriminator 1 view .LVU375
 1601 022a 8030      		cpi r24,lo8(0)
 1602 022c 01F4      		brne .+2
 1603 022e 00C0      		rjmp .L43
 1604               	.LBE25:
1259:funsape/device/ssd1306.cpp ****         uint8_t auxBufferSize           = 0;
 1605               		.loc 1 1259 5 is_stmt 1 discriminator 1 view .LVU376
 1606 0230 B394      		inc r11
 1607               	.LVL115:
 1608               	.L57:
1259:funsape/device/ssd1306.cpp ****         uint8_t auxBufferSize           = 0;
 1609               		.loc 1 1259 28 discriminator 2 view .LVU377
 1610 0232 BE14      		cp r11,r14
 1611 0234 00F4      		brsh .L82
 1612               	.LBB37:
1260:funsape/device/ssd1306.cpp **** 
 1613               		.loc 1 1260 9 view .LVU378
 1614               	.LVL116:
1262:funsape/device/ssd1306.cpp ****             return false;
 1615               		.loc 1 1262 9 view .LVU379
1262:funsape/device/ssd1306.cpp ****             return false;
 1616               		.loc 1 1262 30 is_stmt 0 view .LVU380
 1617 0236 F801      		movw r30,r16
 1618 0238 4385      		ldd r20,Z+11
 1619 023a 6B2D      		mov r22,r11
 1620 023c 6A0D      		add r22,r10
 1621 023e C801      		movw r24,r16
 1622 0240 0E94 0000 		call _ZN7Ssd130611_setAddressEhh
 1623               	.LVL117:
 1624 0244 882E      		mov r8,r24
1262:funsape/device/ssd1306.cpp ****             return false;
 1625               		.loc 1 1262 9 discriminator 1 view .LVU381
 1626 0246 8030      		cpi r24,lo8(0)
 1627 0248 01F4      		brne .+2
 1628 024a 00C0      		rjmp .L43
 1629               	.LBB36:
1265:funsape/device/ssd1306.cpp ****             uint8_t auxSourceCol        = 0x00;
 1630               		.loc 1 1265 21 view .LVU382
 1631 024c 30E0      		ldi r19,0
 1632               	.LBE36:
1260:funsape/device/ssd1306.cpp **** 
 1633               		.loc 1 1260 17 view .LVU383
 1634 024e 40E0      		ldi r20,0
 1635 0250 00C0      		rjmp .L58
 1636               	.LVL118:
 1637               	.L82:
1260:funsape/device/ssd1306.cpp **** 
 1638               		.loc 1 1260 17 view .LVU384
 1639               	.LBE37:
 1640               	.LBE39:
1290:funsape/device/ssd1306.cpp **** 
 1641               		.loc 1 1290 5 is_stmt 1 view .LVU385
1290:funsape/device/ssd1306.cpp **** 
 1642               		.loc 1 1290 11 is_stmt 0 view .LVU386
 1643 0252 F801      		movw r30,r16
 1644 0254 9385      		ldd r25,Z+11
GAS LISTING /tmp/cc7wpQ70.s 			page 55


1290:funsape/device/ssd1306.cpp **** 
 1645               		.loc 1 1290 41 view .LVU387
 1646 0256 8F2D      		mov r24,r15
 1647 0258 880F      		lsl r24
 1648 025a 8F0D      		add r24,r15
 1649 025c 880F      		lsl r24
 1650 025e 890F      		add r24,r25
 1651 0260 8387      		std Z+11,r24
1293:funsape/device/ssd1306.cpp ****     return true;
 1652               		.loc 1 1293 5 is_stmt 1 view .LVU388
1293:funsape/device/ssd1306.cpp ****     return true;
 1653               		.loc 1 1293 22 is_stmt 0 view .LVU389
 1654 0262 1782      		std Z+7,__zero_reg__
 1655 0264 1682      		std Z+6,__zero_reg__
1294:funsape/device/ssd1306.cpp **** }
 1656               		.loc 1 1294 5 is_stmt 1 view .LVU390
1294:funsape/device/ssd1306.cpp **** }
 1657               		.loc 1 1294 12 is_stmt 0 view .LVU391
 1658 0266 8824      		clr r8
 1659 0268 8394      		inc r8
 1660 026a 00C0      		rjmp .L43
 1661               		.cfi_endproc
 1662               	.LFE165:
 1664               		.section	.text._ZN7Ssd130614_isInitializedEv,"ax",@progbits
 1665               	.global	_ZN7Ssd130614_isInitializedEv
 1667               	_ZN7Ssd130614_isInitializedEv:
 1668               	.LVL119:
 1669               	.LFB166:
1296:funsape/device/ssd1306.cpp **** 
1297:funsape/device/ssd1306.cpp **** bool_t Ssd1306::_isInitialized(void)
1298:funsape/device/ssd1306.cpp **** {
 1670               		.loc 1 1298 1 is_stmt 1 view -0
 1671               		.cfi_startproc
 1672               	/* prologue: function */
 1673               	/* frame size = 0 */
 1674               	/* stack size = 0 */
 1675               	.L__stack_usage = 0
 1676               		.loc 1 1298 1 is_stmt 0 view .LVU393
 1677 0000 FC01      		movw r30,r24
1299:funsape/device/ssd1306.cpp ****     // Check for errors
1300:funsape/device/ssd1306.cpp ****     if(!this->_initialized) {
 1678               		.loc 1 1300 5 is_stmt 1 view .LVU394
 1679               		.loc 1 1300 15 is_stmt 0 view .LVU395
 1680 0002 9581      		ldd r25,Z+5
 1681 0004 92FB      		bst r25,2
 1682 0006 8827      		clr r24
 1683 0008 80F9      		bld r24,0
 1684               	.LVL120:
 1685               		.loc 1 1300 5 view .LVU396
 1686 000a 92FF      		sbrs r25,2
 1687 000c 00C0      		rjmp .L86
1301:funsape/device/ssd1306.cpp ****         // Returns error
1302:funsape/device/ssd1306.cpp ****         this->_lastError = Error::NOT_INITIALIZED;
1303:funsape/device/ssd1306.cpp ****         return false;
1304:funsape/device/ssd1306.cpp ****     }
1305:funsape/device/ssd1306.cpp **** 
1306:funsape/device/ssd1306.cpp ****     // Returns successfully
GAS LISTING /tmp/cc7wpQ70.s 			page 56


1307:funsape/device/ssd1306.cpp ****     this->_lastError = Error::NONE;
 1688               		.loc 1 1307 5 is_stmt 1 view .LVU397
 1689               		.loc 1 1307 22 is_stmt 0 view .LVU398
 1690 000e 1782      		std Z+7,__zero_reg__
 1691 0010 1682      		std Z+6,__zero_reg__
1308:funsape/device/ssd1306.cpp ****     return true;
 1692               		.loc 1 1308 5 is_stmt 1 view .LVU399
 1693               	/* epilogue start */
1309:funsape/device/ssd1306.cpp **** }
 1694               		.loc 1 1309 1 is_stmt 0 view .LVU400
 1695 0012 0895      		ret
 1696               	.L86:
1302:funsape/device/ssd1306.cpp ****         return false;
 1697               		.loc 1 1302 9 is_stmt 1 view .LVU401
1302:funsape/device/ssd1306.cpp ****         return false;
 1698               		.loc 1 1302 26 is_stmt 0 view .LVU402
 1699 0014 26E0      		ldi r18,lo8(6)
 1700 0016 30E0      		ldi r19,0
 1701 0018 3783      		std Z+7,r19
 1702 001a 2683      		std Z+6,r18
1303:funsape/device/ssd1306.cpp ****     }
 1703               		.loc 1 1303 9 is_stmt 1 view .LVU403
1303:funsape/device/ssd1306.cpp ****     }
 1704               		.loc 1 1303 16 is_stmt 0 view .LVU404
 1705 001c 0895      		ret
 1706               		.cfi_endproc
 1707               	.LFE166:
 1709               		.section	.text._ZN7Ssd130611clearScreenEv,"ax",@progbits
 1710               	.global	_ZN7Ssd130611clearScreenEv
 1712               	_ZN7Ssd130611clearScreenEv:
 1713               	.LVL121:
 1714               	.LFB142:
 347:funsape/device/ssd1306.cpp ****     // Mark passage for debugging purpose
 1715               		.loc 1 347 1 is_stmt 1 view -0
 1716               		.cfi_startproc
 347:funsape/device/ssd1306.cpp ****     // Mark passage for debugging purpose
 1717               		.loc 1 347 1 is_stmt 0 view .LVU406
 1718 0000 CF92      		push r12
 1719               	.LCFI43:
 1720               		.cfi_def_cfa_offset 3
 1721               		.cfi_offset 12, -2
 1722 0002 DF92      		push r13
 1723               	.LCFI44:
 1724               		.cfi_def_cfa_offset 4
 1725               		.cfi_offset 13, -3
 1726 0004 EF92      		push r14
 1727               	.LCFI45:
 1728               		.cfi_def_cfa_offset 5
 1729               		.cfi_offset 14, -4
 1730 0006 FF92      		push r15
 1731               	.LCFI46:
 1732               		.cfi_def_cfa_offset 6
 1733               		.cfi_offset 15, -5
 1734 0008 0F93      		push r16
 1735               	.LCFI47:
 1736               		.cfi_def_cfa_offset 7
 1737               		.cfi_offset 16, -6
GAS LISTING /tmp/cc7wpQ70.s 			page 57


 1738 000a 1F93      		push r17
 1739               	.LCFI48:
 1740               		.cfi_def_cfa_offset 8
 1741               		.cfi_offset 17, -7
 1742 000c CF93      		push r28
 1743               	.LCFI49:
 1744               		.cfi_def_cfa_offset 9
 1745               		.cfi_offset 28, -8
 1746 000e DF93      		push r29
 1747               	.LCFI50:
 1748               		.cfi_def_cfa_offset 10
 1749               		.cfi_offset 29, -9
 1750 0010 CDB7      		in r28,__SP_L__
 1751 0012 DEB7      		in r29,__SP_H__
 1752               	.LCFI51:
 1753               		.cfi_def_cfa_register 28
 1754 0014 6097      		sbiw r28,16
 1755               	.LCFI52:
 1756               		.cfi_def_cfa_offset 26
 1757 0016 0FB6      		in __tmp_reg__,__SREG__
 1758 0018 F894      		cli
 1759 001a DEBF      		out __SP_H__,r29
 1760 001c 0FBE      		out __SREG__,__tmp_reg__
 1761 001e CDBF      		out __SP_L__,r28
 1762               	/* prologue: function */
 1763               	/* frame size = 16 */
 1764               	/* stack size = 24 */
 1765               	.L__stack_usage = 24
 1766 0020 7C01      		movw r14,r24
 349:funsape/device/ssd1306.cpp **** 
 1767               		.loc 1 349 5 is_stmt 1 view .LVU407
 352:funsape/device/ssd1306.cpp ****         // Returns error
 1768               		.loc 1 352 5 view .LVU408
 352:funsape/device/ssd1306.cpp ****         // Returns error
 1769               		.loc 1 352 29 is_stmt 0 view .LVU409
 1770 0022 0E94 0000 		call _ZN7Ssd130614_isInitializedEv
 1771               	.LVL122:
 352:funsape/device/ssd1306.cpp ****         // Returns error
 1772               		.loc 1 352 29 view .LVU410
 1773 0026 C82E      		mov r12,r24
 352:funsape/device/ssd1306.cpp ****         // Returns error
 1774               		.loc 1 352 5 discriminator 1 view .LVU411
 1775 0028 8030      		cpi r24,lo8(0)
 1776 002a 01F4      		brne .+2
 1777 002c 00C0      		rjmp .L99
 360:funsape/device/ssd1306.cpp ****         uint16_t auxSize = (uint16_t)this->_pages * constSsd1306Width;
 1778               		.loc 1 360 5 is_stmt 1 view .LVU412
 1779               	.LBB40:
 360:funsape/device/ssd1306.cpp ****         uint16_t auxSize = (uint16_t)this->_pages * constSsd1306Width;
 1780               		.loc 1 360 14 is_stmt 0 view .LVU413
 1781 002e F701      		movw r30,r14
 1782 0030 9581      		ldd r25,Z+5
 1783 0032 91FB      		bst r25,1
 1784 0034 8827      		clr r24
 1785 0036 80F9      		bld r24,0
 360:funsape/device/ssd1306.cpp ****         uint16_t auxSize = (uint16_t)this->_pages * constSsd1306Width;
 1786               		.loc 1 360 5 view .LVU414
GAS LISTING /tmp/cc7wpQ70.s 			page 58


 1787 0038 91FD      		sbrc r25,1
 1788 003a 00C0      		rjmp .L103
 1789               	.LBE40:
 1790               	.LBB43:
 377:funsape/device/ssd1306.cpp ****         auxBuffer[i] = 0x00;
 1791               		.loc 1 377 17 view .LVU415
 1792 003c 80E0      		ldi r24,0
 1793 003e 00C0      		rjmp .L90
 1794               	.L103:
 1795               	.LBE43:
 1796               	.LBB44:
 1797               	.LBB41:
 361:funsape/device/ssd1306.cpp ****         for(uint16_t i = 0; i < auxSize; i++) {
 1798               		.loc 1 361 9 is_stmt 1 view .LVU416
 361:funsape/device/ssd1306.cpp ****         for(uint16_t i = 0; i < auxSize; i++) {
 1799               		.loc 1 361 44 is_stmt 0 view .LVU417
 1800 0040 4285      		ldd r20,Z+10
 361:funsape/device/ssd1306.cpp ****         for(uint16_t i = 0; i < auxSize; i++) {
 1801               		.loc 1 361 18 view .LVU418
 1802 0042 90E8      		ldi r25,lo8(-128)
 1803 0044 499F      		mul r20,r25
 1804 0046 A001      		movw r20,r0
 1805 0048 1124      		clr __zero_reg__
 1806               	.LVL123:
 362:funsape/device/ssd1306.cpp ****             this->_frameBuffer[i] = 0x00;
 1807               		.loc 1 362 9 is_stmt 1 view .LVU419
 1808               	.LBB42:
 362:funsape/device/ssd1306.cpp ****             this->_frameBuffer[i] = 0x00;
 1809               		.loc 1 362 22 is_stmt 0 view .LVU420
 1810 004a 20E0      		ldi r18,0
 1811 004c 30E0      		ldi r19,0
 362:funsape/device/ssd1306.cpp ****             this->_frameBuffer[i] = 0x00;
 1812               		.loc 1 362 9 view .LVU421
 1813 004e 00C0      		rjmp .L91
 1814               	.LVL124:
 1815               	.L92:
 363:funsape/device/ssd1306.cpp ****         }
 1816               		.loc 1 363 13 is_stmt 1 view .LVU422
 363:funsape/device/ssd1306.cpp ****         }
 1817               		.loc 1 363 19 is_stmt 0 view .LVU423
 1818 0050 F701      		movw r30,r14
 1819 0052 0280      		ldd __tmp_reg__,Z+2
 1820 0054 F381      		ldd r31,Z+3
 1821 0056 E02D      		mov r30,__tmp_reg__
 363:funsape/device/ssd1306.cpp ****         }
 1822               		.loc 1 363 33 view .LVU424
 1823 0058 E20F      		add r30,r18
 1824 005a F31F      		adc r31,r19
 363:funsape/device/ssd1306.cpp ****         }
 1825               		.loc 1 363 35 view .LVU425
 1826 005c 1082      		st Z,__zero_reg__
 362:funsape/device/ssd1306.cpp ****             this->_frameBuffer[i] = 0x00;
 1827               		.loc 1 362 9 is_stmt 1 discriminator 1 view .LVU426
 1828 005e 2F5F      		subi r18,-1
 1829 0060 3F4F      		sbci r19,-1
 1830               	.LVL125:
 1831               	.L91:
GAS LISTING /tmp/cc7wpQ70.s 			page 59


 362:funsape/device/ssd1306.cpp ****             this->_frameBuffer[i] = 0x00;
 1832               		.loc 1 362 31 discriminator 2 view .LVU427
 1833 0062 2417      		cp r18,r20
 1834 0064 3507      		cpc r19,r21
 1835 0066 00F0      		brlo .L92
 1836               	.LBE42:
 365:funsape/device/ssd1306.cpp ****         this->_cursorX                  = 0;
 1837               		.loc 1 365 9 view .LVU428
 365:funsape/device/ssd1306.cpp ****         this->_cursorX                  = 0;
 1838               		.loc 1 365 65 is_stmt 0 view .LVU429
 1839 0068 F701      		movw r30,r14
 1840 006a 9285      		ldd r25,Z+10
 365:funsape/device/ssd1306.cpp ****         this->_cursorX                  = 0;
 1841               		.loc 1 365 56 view .LVU430
 1842 006c 21E0      		ldi r18,lo8(1)
 1843 006e 30E0      		ldi r19,0
 1844               	.LVL126:
 365:funsape/device/ssd1306.cpp ****         this->_cursorX                  = 0;
 1845               		.loc 1 365 56 view .LVU431
 1846 0070 00C0      		rjmp 2f
 1847               		1:
 1848 0072 220F      		lsl r18
 1849 0074 331F      		rol r19
 1850               		2:
 1851 0076 9A95      		dec r25
 1852 0078 02F4      		brpl 1b
 365:funsape/device/ssd1306.cpp ****         this->_cursorX                  = 0;
 1853               		.loc 1 365 73 view .LVU432
 1854 007a 2150      		subi r18,lo8(-(-1))
 365:funsape/device/ssd1306.cpp ****         this->_cursorX                  = 0;
 1855               		.loc 1 365 41 view .LVU433
 1856 007c 2483      		std Z+4,r18
 366:funsape/device/ssd1306.cpp ****         this->_cursorY                  = 0;
 1857               		.loc 1 366 9 is_stmt 1 view .LVU434
 366:funsape/device/ssd1306.cpp ****         this->_cursorY                  = 0;
 1858               		.loc 1 366 41 is_stmt 0 view .LVU435
 1859 007e 1386      		std Z+11,__zero_reg__
 367:funsape/device/ssd1306.cpp ****         this->_lastError = Error::NONE;
 1860               		.loc 1 367 9 is_stmt 1 view .LVU436
 367:funsape/device/ssd1306.cpp ****         this->_lastError = Error::NONE;
 1861               		.loc 1 367 41 is_stmt 0 view .LVU437
 1862 0080 1486      		std Z+12,__zero_reg__
 368:funsape/device/ssd1306.cpp ****         debugMessage(Error::NONE, Debug::CodeIndex::SSD1306_MODULE);
 1863               		.loc 1 368 9 is_stmt 1 view .LVU438
 368:funsape/device/ssd1306.cpp ****         debugMessage(Error::NONE, Debug::CodeIndex::SSD1306_MODULE);
 1864               		.loc 1 368 26 is_stmt 0 view .LVU439
 1865 0082 1782      		std Z+7,__zero_reg__
 1866 0084 1682      		std Z+6,__zero_reg__
 369:funsape/device/ssd1306.cpp ****         return true;
 1867               		.loc 1 369 9 is_stmt 1 view .LVU440
 370:funsape/device/ssd1306.cpp ****     }
 1868               		.loc 1 370 9 view .LVU441
 370:funsape/device/ssd1306.cpp ****     }
 1869               		.loc 1 370 16 is_stmt 0 view .LVU442
 1870 0086 00C0      		rjmp .L87
 1871               	.LVL127:
 1872               	.L93:
GAS LISTING /tmp/cc7wpQ70.s 			page 60


 370:funsape/device/ssd1306.cpp ****     }
 1873               		.loc 1 370 16 view .LVU443
 1874               	.LBE41:
 1875               	.LBE44:
 1876               	.LBB45:
 378:funsape/device/ssd1306.cpp ****     }
 1877               		.loc 1 378 9 is_stmt 1 view .LVU444
 378:funsape/device/ssd1306.cpp ****     }
 1878               		.loc 1 378 22 is_stmt 0 view .LVU445
 1879 0088 FE01      		movw r30,r28
 1880 008a 3196      		adiw r30,1
 1881 008c E80F      		add r30,r24
 1882 008e F11D      		adc r31,__zero_reg__
 1883 0090 1082      		st Z,__zero_reg__
 377:funsape/device/ssd1306.cpp ****         auxBuffer[i] = 0x00;
 1884               		.loc 1 377 5 is_stmt 1 discriminator 1 view .LVU446
 1885 0092 8F5F      		subi r24,lo8(-(1))
 1886               	.LVL128:
 1887               	.L90:
 377:funsape/device/ssd1306.cpp ****         auxBuffer[i] = 0x00;
 1888               		.loc 1 377 26 discriminator 2 view .LVU447
 1889 0094 8031      		cpi r24,lo8(16)
 1890 0096 00F0      		brlo .L93
 1891               	.LBE45:
 1892               	.LBB46:
 382:funsape/device/ssd1306.cpp ****         if(!this->_setAddress(page, 0)) {
 1893               		.loc 1 382 17 is_stmt 0 view .LVU448
 1894 0098 D12C      		mov r13,__zero_reg__
 1895               	.LVL129:
 1896               	.L94:
 382:funsape/device/ssd1306.cpp ****         if(!this->_setAddress(page, 0)) {
 1897               		.loc 1 382 32 is_stmt 1 discriminator 2 view .LVU449
 382:funsape/device/ssd1306.cpp ****         if(!this->_setAddress(page, 0)) {
 1898               		.loc 1 382 40 is_stmt 0 discriminator 2 view .LVU450
 1899 009a F701      		movw r30,r14
 1900 009c 8285      		ldd r24,Z+10
 382:funsape/device/ssd1306.cpp ****         if(!this->_setAddress(page, 0)) {
 1901               		.loc 1 382 32 discriminator 2 view .LVU451
 1902 009e D816      		cp r13,r24
 1903 00a0 00F4      		brsh .L104
 1904               	.LBB47:
 383:funsape/device/ssd1306.cpp ****             // Returns error
 1905               		.loc 1 383 9 is_stmt 1 view .LVU452
 383:funsape/device/ssd1306.cpp ****             // Returns error
 1906               		.loc 1 383 30 is_stmt 0 view .LVU453
 1907 00a2 40E0      		ldi r20,0
 1908 00a4 6D2D      		mov r22,r13
 1909 00a6 C701      		movw r24,r14
 1910 00a8 0E94 0000 		call _ZN7Ssd130611_setAddressEhh
 1911               	.LVL130:
 383:funsape/device/ssd1306.cpp ****             // Returns error
 1912               		.loc 1 383 9 discriminator 1 view .LVU454
 1913 00ac 8030      		cpi r24,lo8(0)
 1914 00ae 01F0      		breq .L87
 388:funsape/device/ssd1306.cpp ****         while(remaining > 0) {
 1915               		.loc 1 388 17 view .LVU455
 1916 00b0 10E8      		ldi r17,lo8(-128)
GAS LISTING /tmp/cc7wpQ70.s 			page 61


 1917 00b2 00C0      		rjmp .L95
 1918               	.LVL131:
 1919               	.L102:
 1920               	.LBB48:
 390:funsape/device/ssd1306.cpp ****             if(!this->_writeData(auxBuffer, chunk)) {
 1921               		.loc 1 390 21 discriminator 1 view .LVU456
 1922 00b4 012F      		mov r16,r17
 1923               	.L96:
 1924               	.LVL132:
 391:funsape/device/ssd1306.cpp ****                 // Returns error
 1925               		.loc 1 391 13 is_stmt 1 view .LVU457
 391:funsape/device/ssd1306.cpp ****                 // Returns error
 1926               		.loc 1 391 33 is_stmt 0 view .LVU458
 1927 00b6 402F      		mov r20,r16
 1928 00b8 BE01      		movw r22,r28
 1929 00ba 6F5F      		subi r22,-1
 1930 00bc 7F4F      		sbci r23,-1
 1931 00be C701      		movw r24,r14
 1932 00c0 0E94 0000 		call _ZN7Ssd130610_writeDataEPKhh
 1933               	.LVL133:
 391:funsape/device/ssd1306.cpp ****                 // Returns error
 1934               		.loc 1 391 13 discriminator 1 view .LVU459
 1935 00c4 8030      		cpi r24,lo8(0)
 1936 00c6 01F0      		breq .L87
 396:funsape/device/ssd1306.cpp ****         }
 1937               		.loc 1 396 13 is_stmt 1 view .LVU460
 396:funsape/device/ssd1306.cpp ****         }
 1938               		.loc 1 396 23 is_stmt 0 view .LVU461
 1939 00c8 101B      		sub r17,r16
 1940               	.LVL134:
 1941               	.L95:
 396:funsape/device/ssd1306.cpp ****         }
 1942               		.loc 1 396 23 view .LVU462
 1943               	.LBE48:
 389:funsape/device/ssd1306.cpp ****             uint8_t chunk = (remaining > constSsd1306DataChunk) ? constSsd1306DataChunk : remaining
 1944               		.loc 1 389 25 is_stmt 1 discriminator 1 view .LVU463
 1945 00ca 1030      		cpi r17,lo8(0)
 1946 00cc 01F0      		breq .L105
 1947               	.LBB49:
 390:funsape/device/ssd1306.cpp ****             if(!this->_writeData(auxBuffer, chunk)) {
 1948               		.loc 1 390 13 view .LVU464
 390:funsape/device/ssd1306.cpp ****             if(!this->_writeData(auxBuffer, chunk)) {
 1949               		.loc 1 390 65 is_stmt 0 view .LVU465
 1950 00ce 1131      		cpi r17,lo8(17)
 1951 00d0 00F0      		brlo .L102
 390:funsape/device/ssd1306.cpp ****             if(!this->_writeData(auxBuffer, chunk)) {
 1952               		.loc 1 390 21 discriminator 2 view .LVU466
 1953 00d2 00E1      		ldi r16,lo8(16)
 1954 00d4 00C0      		rjmp .L96
 1955               	.L105:
 1956               	.LVL135:
 390:funsape/device/ssd1306.cpp ****             if(!this->_writeData(auxBuffer, chunk)) {
 1957               		.loc 1 390 21 discriminator 2 view .LVU467
 1958               	.LBE49:
 1959               	.LBE47:
 382:funsape/device/ssd1306.cpp ****         if(!this->_setAddress(page, 0)) {
 1960               		.loc 1 382 5 is_stmt 1 discriminator 1 view .LVU468
GAS LISTING /tmp/cc7wpQ70.s 			page 62


 1961 00d6 D394      		inc r13
 1962               	.LVL136:
 382:funsape/device/ssd1306.cpp ****         if(!this->_setAddress(page, 0)) {
 1963               		.loc 1 382 5 is_stmt 0 discriminator 1 view .LVU469
 1964 00d8 00C0      		rjmp .L94
 1965               	.LVL137:
 1966               	.L104:
 382:funsape/device/ssd1306.cpp ****         if(!this->_setAddress(page, 0)) {
 1967               		.loc 1 382 5 discriminator 1 view .LVU470
 1968               	.LBE46:
 401:funsape/device/ssd1306.cpp ****     this->_cursorY                      = 0;
 1969               		.loc 1 401 5 is_stmt 1 view .LVU471
 401:funsape/device/ssd1306.cpp ****     this->_cursorY                      = 0;
 1970               		.loc 1 401 41 is_stmt 0 view .LVU472
 1971 00da 1386      		std Z+11,__zero_reg__
 402:funsape/device/ssd1306.cpp **** 
 1972               		.loc 1 402 5 is_stmt 1 view .LVU473
 402:funsape/device/ssd1306.cpp **** 
 1973               		.loc 1 402 41 is_stmt 0 view .LVU474
 1974 00dc 1486      		std Z+12,__zero_reg__
 405:funsape/device/ssd1306.cpp ****     debugMessage(Error::NONE, Debug::CodeIndex::SSD1306_MODULE);
 1975               		.loc 1 405 5 is_stmt 1 view .LVU475
 405:funsape/device/ssd1306.cpp ****     debugMessage(Error::NONE, Debug::CodeIndex::SSD1306_MODULE);
 1976               		.loc 1 405 22 is_stmt 0 view .LVU476
 1977 00de 1782      		std Z+7,__zero_reg__
 1978 00e0 1682      		std Z+6,__zero_reg__
 406:funsape/device/ssd1306.cpp ****     return true;
 1979               		.loc 1 406 5 is_stmt 1 view .LVU477
 407:funsape/device/ssd1306.cpp **** }
 1980               		.loc 1 407 5 view .LVU478
 1981               	.LVL138:
 1982               	.L99:
 355:funsape/device/ssd1306.cpp ****     }
 1983               		.loc 1 355 16 is_stmt 0 view .LVU479
 1984 00e2 8C2D      		mov r24,r12
 1985               	.L87:
 1986               	/* epilogue start */
 408:funsape/device/ssd1306.cpp **** 
 1987               		.loc 1 408 1 view .LVU480
 1988 00e4 6096      		adiw r28,16
 1989 00e6 0FB6      		in __tmp_reg__,__SREG__
 1990 00e8 F894      		cli
 1991 00ea DEBF      		out __SP_H__,r29
 1992 00ec 0FBE      		out __SREG__,__tmp_reg__
 1993 00ee CDBF      		out __SP_L__,r28
 1994 00f0 DF91      		pop r29
 1995 00f2 CF91      		pop r28
 1996 00f4 1F91      		pop r17
 1997 00f6 0F91      		pop r16
 1998 00f8 FF90      		pop r15
 1999 00fa EF90      		pop r14
 2000               	.LVL139:
 408:funsape/device/ssd1306.cpp **** 
 2001               		.loc 1 408 1 view .LVU481
 2002 00fc DF90      		pop r13
 2003 00fe CF90      		pop r12
 2004 0100 0895      		ret
GAS LISTING /tmp/cc7wpQ70.s 			page 63


 2005               		.cfi_endproc
 2006               	.LFE142:
 2008               		.section	.text._ZN7Ssd13067displayEv,"ax",@progbits
 2009               	.global	_ZN7Ssd13067displayEv
 2011               	_ZN7Ssd13067displayEv:
 2012               	.LVL140:
 2013               	.LFB143:
 411:funsape/device/ssd1306.cpp ****     // Mark passage for debugging purpose
 2014               		.loc 1 411 1 is_stmt 1 view -0
 2015               		.cfi_startproc
 411:funsape/device/ssd1306.cpp ****     // Mark passage for debugging purpose
 2016               		.loc 1 411 1 is_stmt 0 view .LVU483
 2017 0000 0F93      		push r16
 2018               	.LCFI53:
 2019               		.cfi_def_cfa_offset 3
 2020               		.cfi_offset 16, -2
 2021 0002 1F93      		push r17
 2022               	.LCFI54:
 2023               		.cfi_def_cfa_offset 4
 2024               		.cfi_offset 17, -3
 2025 0004 CF93      		push r28
 2026               	.LCFI55:
 2027               		.cfi_def_cfa_offset 5
 2028               		.cfi_offset 28, -4
 2029 0006 DF93      		push r29
 2030               	.LCFI56:
 2031               		.cfi_def_cfa_offset 6
 2032               		.cfi_offset 29, -5
 2033               	/* prologue: function */
 2034               	/* frame size = 0 */
 2035               	/* stack size = 4 */
 2036               	.L__stack_usage = 4
 2037 0008 8C01      		movw r16,r24
 413:funsape/device/ssd1306.cpp **** 
 2038               		.loc 1 413 5 is_stmt 1 view .LVU484
 416:funsape/device/ssd1306.cpp ****         // Returns error
 2039               		.loc 1 416 5 view .LVU485
 416:funsape/device/ssd1306.cpp ****         // Returns error
 2040               		.loc 1 416 29 is_stmt 0 view .LVU486
 2041 000a 0E94 0000 		call _ZN7Ssd130614_isInitializedEv
 2042               	.LVL141:
 416:funsape/device/ssd1306.cpp ****         // Returns error
 2043               		.loc 1 416 5 discriminator 1 view .LVU487
 2044 000e 8030      		cpi r24,lo8(0)
 2045 0010 01F0      		breq .L106
 423:funsape/device/ssd1306.cpp ****         this->_lastError = Error::NONE;
 2046               		.loc 1 423 5 is_stmt 1 view .LVU488
 423:funsape/device/ssd1306.cpp ****         this->_lastError = Error::NONE;
 2047               		.loc 1 423 15 is_stmt 0 view .LVU489
 2048 0012 F801      		movw r30,r16
 2049 0014 9581      		ldd r25,Z+5
 2050 0016 91FB      		bst r25,1
 2051 0018 2227      		clr r18
 2052 001a 20F9      		bld r18,0
 2053 001c D22F      		mov r29,r18
 423:funsape/device/ssd1306.cpp ****         this->_lastError = Error::NONE;
 2054               		.loc 1 423 5 view .LVU490
GAS LISTING /tmp/cc7wpQ70.s 			page 64


 2055 001e 91FF      		sbrs r25,1
 2056 0020 00C0      		rjmp .L114
 2057               	.LBB50:
 430:funsape/device/ssd1306.cpp ****         if(this->_dirtyPageMask & (1 << page)) {
 2058               		.loc 1 430 17 view .LVU491
 2059 0022 C0E0      		ldi r28,0
 2060 0024 00C0      		rjmp .L109
 2061               	.L114:
 2062               	.LBE50:
 424:funsape/device/ssd1306.cpp ****         debugMessage(Error::NONE, Debug::CodeIndex::SSD1306_MODULE);
 2063               		.loc 1 424 9 is_stmt 1 view .LVU492
 424:funsape/device/ssd1306.cpp ****         debugMessage(Error::NONE, Debug::CodeIndex::SSD1306_MODULE);
 2064               		.loc 1 424 26 is_stmt 0 view .LVU493
 2065 0026 1782      		std Z+7,__zero_reg__
 2066 0028 1682      		std Z+6,__zero_reg__
 425:funsape/device/ssd1306.cpp ****         return true;
 2067               		.loc 1 425 9 is_stmt 1 view .LVU494
 426:funsape/device/ssd1306.cpp ****     }
 2068               		.loc 1 426 9 view .LVU495
 426:funsape/device/ssd1306.cpp ****     }
 2069               		.loc 1 426 16 is_stmt 0 view .LVU496
 2070 002a 00C0      		rjmp .L106
 2071               	.LVL142:
 2072               	.L111:
 2073               	.LBB51:
 430:funsape/device/ssd1306.cpp ****         if(this->_dirtyPageMask & (1 << page)) {
 2074               		.loc 1 430 5 is_stmt 1 discriminator 1 view .LVU497
 2075 002c CF5F      		subi r28,lo8(-(1))
 2076               	.LVL143:
 2077               	.L109:
 430:funsape/device/ssd1306.cpp ****         if(this->_dirtyPageMask & (1 << page)) {
 2078               		.loc 1 430 32 discriminator 2 view .LVU498
 430:funsape/device/ssd1306.cpp ****         if(this->_dirtyPageMask & (1 << page)) {
 2079               		.loc 1 430 40 is_stmt 0 discriminator 2 view .LVU499
 2080 002e F801      		movw r30,r16
 2081 0030 8285      		ldd r24,Z+10
 430:funsape/device/ssd1306.cpp ****         if(this->_dirtyPageMask & (1 << page)) {
 2082               		.loc 1 430 32 discriminator 2 view .LVU500
 2083 0032 C817      		cp r28,r24
 2084 0034 00F4      		brsh .L115
 431:funsape/device/ssd1306.cpp ****             if(!this->_setAddress(page, 0)) {
 2085               		.loc 1 431 9 is_stmt 1 view .LVU501
 431:funsape/device/ssd1306.cpp ****             if(!this->_setAddress(page, 0)) {
 2086               		.loc 1 431 18 is_stmt 0 view .LVU502
 2087 0036 F801      		movw r30,r16
 2088 0038 8481      		ldd r24,Z+4
 2089 003a 90E0      		ldi r25,0
 431:funsape/device/ssd1306.cpp ****             if(!this->_setAddress(page, 0)) {
 2090               		.loc 1 431 33 view .LVU503
 2091 003c 0C2E      		mov r0,r28
 2092 003e 00C0      		rjmp 2f
 2093               		1:
 2094 0040 9595      		asr r25
 2095 0042 8795      		ror r24
 2096               		2:
 2097 0044 0A94      		dec r0
 2098 0046 02F4      		brpl 1b
GAS LISTING /tmp/cc7wpQ70.s 			page 65


 431:funsape/device/ssd1306.cpp ****             if(!this->_setAddress(page, 0)) {
 2099               		.loc 1 431 9 view .LVU504
 2100 0048 80FF      		sbrs r24,0
 2101 004a 00C0      		rjmp .L111
 432:funsape/device/ssd1306.cpp ****                 // Returns error
 2102               		.loc 1 432 13 is_stmt 1 view .LVU505
 432:funsape/device/ssd1306.cpp ****                 // Returns error
 2103               		.loc 1 432 34 is_stmt 0 view .LVU506
 2104 004c 40E0      		ldi r20,0
 2105 004e 6C2F      		mov r22,r28
 2106 0050 C801      		movw r24,r16
 2107 0052 0E94 0000 		call _ZN7Ssd130611_setAddressEhh
 2108               	.LVL144:
 432:funsape/device/ssd1306.cpp ****                 // Returns error
 2109               		.loc 1 432 13 discriminator 1 view .LVU507
 2110 0056 8030      		cpi r24,lo8(0)
 2111 0058 01F0      		breq .L106
 437:funsape/device/ssd1306.cpp ****                 // Returns error
 2112               		.loc 1 437 13 is_stmt 1 view .LVU508
 437:funsape/device/ssd1306.cpp ****                 // Returns error
 2113               		.loc 1 437 41 is_stmt 0 view .LVU509
 2114 005a F801      		movw r30,r16
 2115 005c 6281      		ldd r22,Z+2
 2116 005e 7381      		ldd r23,Z+3
 437:funsape/device/ssd1306.cpp ****                 // Returns error
 2117               		.loc 1 437 69 view .LVU510
 2118 0060 20E8      		ldi r18,lo8(-128)
 2119 0062 C29F      		mul r28,r18
 2120 0064 C001      		movw r24,r0
 2121 0066 1124      		clr __zero_reg__
 437:funsape/device/ssd1306.cpp ****                 // Returns error
 2122               		.loc 1 437 34 view .LVU511
 2123 0068 680F      		add r22,r24
 2124 006a 791F      		adc r23,r25
 437:funsape/device/ssd1306.cpp ****                 // Returns error
 2125               		.loc 1 437 33 view .LVU512
 2126 006c 40E8      		ldi r20,lo8(-128)
 2127 006e C801      		movw r24,r16
 2128 0070 0E94 0000 		call _ZN7Ssd130610_writeDataEPKhh
 2129               	.LVL145:
 437:funsape/device/ssd1306.cpp ****                 // Returns error
 2130               		.loc 1 437 13 discriminator 1 view .LVU513
 2131 0074 8111      		cpse r24,__zero_reg__
 2132 0076 00C0      		rjmp .L111
 2133 0078 00C0      		rjmp .L106
 2134               	.L115:
 437:funsape/device/ssd1306.cpp ****                 // Returns error
 2135               		.loc 1 437 13 discriminator 1 view .LVU514
 2136               	.LBE51:
 444:funsape/device/ssd1306.cpp **** 
 2137               		.loc 1 444 5 is_stmt 1 view .LVU515
 444:funsape/device/ssd1306.cpp **** 
 2138               		.loc 1 444 41 is_stmt 0 view .LVU516
 2139 007a 1482      		std Z+4,__zero_reg__
 447:funsape/device/ssd1306.cpp ****     debugMessage(Error::NONE, Debug::CodeIndex::SSD1306_MODULE);
 2140               		.loc 1 447 5 is_stmt 1 view .LVU517
 447:funsape/device/ssd1306.cpp ****     debugMessage(Error::NONE, Debug::CodeIndex::SSD1306_MODULE);
GAS LISTING /tmp/cc7wpQ70.s 			page 66


 2141               		.loc 1 447 22 is_stmt 0 view .LVU518
 2142 007c 1782      		std Z+7,__zero_reg__
 2143 007e 1682      		std Z+6,__zero_reg__
 448:funsape/device/ssd1306.cpp ****     return true;
 2144               		.loc 1 448 5 is_stmt 1 view .LVU519
 449:funsape/device/ssd1306.cpp **** }
 2145               		.loc 1 449 5 view .LVU520
 449:funsape/device/ssd1306.cpp **** }
 2146               		.loc 1 449 12 is_stmt 0 view .LVU521
 2147 0080 8D2F      		mov r24,r29
 2148               	.LVL146:
 2149               	.L106:
 2150               	/* epilogue start */
 450:funsape/device/ssd1306.cpp **** 
 2151               		.loc 1 450 1 view .LVU522
 2152 0082 DF91      		pop r29
 2153 0084 CF91      		pop r28
 2154 0086 1F91      		pop r17
 2155 0088 0F91      		pop r16
 2156               	.LVL147:
 450:funsape/device/ssd1306.cpp **** 
 2157               		.loc 1 450 1 view .LVU523
 2158 008a 0895      		ret
 2159               		.cfi_endproc
 2160               	.LFE143:
 2162               		.section	.text._ZN7Ssd13064initEP3BusNS_4SizeEhPh,"ax",@progbits
 2163               	.global	_ZN7Ssd13064initEP3BusNS_4SizeEhPh
 2165               	_ZN7Ssd13064initEP3BusNS_4SizeEhPh:
 2166               	.LVL148:
 2167               	.LFB141:
 259:funsape/device/ssd1306.cpp ****     // Mark passage for debugging purpose
 2168               		.loc 1 259 1 is_stmt 1 view -0
 2169               		.cfi_startproc
 259:funsape/device/ssd1306.cpp ****     // Mark passage for debugging purpose
 2170               		.loc 1 259 1 is_stmt 0 view .LVU525
 2171 0000 CF92      		push r12
 2172               	.LCFI57:
 2173               		.cfi_def_cfa_offset 3
 2174               		.cfi_offset 12, -2
 2175 0002 DF92      		push r13
 2176               	.LCFI58:
 2177               		.cfi_def_cfa_offset 4
 2178               		.cfi_offset 13, -3
 2179 0004 EF92      		push r14
 2180               	.LCFI59:
 2181               		.cfi_def_cfa_offset 5
 2182               		.cfi_offset 14, -4
 2183 0006 FF92      		push r15
 2184               	.LCFI60:
 2185               		.cfi_def_cfa_offset 6
 2186               		.cfi_offset 15, -5
 2187 0008 0F93      		push r16
 2188               	.LCFI61:
 2189               		.cfi_def_cfa_offset 7
 2190               		.cfi_offset 16, -6
 2191 000a 1F93      		push r17
 2192               	.LCFI62:
GAS LISTING /tmp/cc7wpQ70.s 			page 67


 2193               		.cfi_def_cfa_offset 8
 2194               		.cfi_offset 17, -7
 2195 000c CF93      		push r28
 2196               	.LCFI63:
 2197               		.cfi_def_cfa_offset 9
 2198               		.cfi_offset 28, -8
 2199 000e DF93      		push r29
 2200               	.LCFI64:
 2201               		.cfi_def_cfa_offset 10
 2202               		.cfi_offset 29, -9
 2203               	/* prologue: function */
 2204               	/* frame size = 0 */
 2205               	/* stack size = 8 */
 2206               	.L__stack_usage = 8
 2207 0010 EC01      		movw r28,r24
 2208 0012 7B01      		movw r14,r22
 2209 0014 D42E      		mov r13,r20
 2210 0016 C22E      		mov r12,r18
 261:funsape/device/ssd1306.cpp **** 
 2211               		.loc 1 261 5 is_stmt 1 view .LVU526
 264:funsape/device/ssd1306.cpp ****     this->_initialized                  = false;
 2212               		.loc 1 264 5 view .LVU527
 264:funsape/device/ssd1306.cpp ****     this->_initialized                  = false;
 2213               		.loc 1 264 41 is_stmt 0 view .LVU528
 2214 0018 8D81      		ldd r24,Y+5
 2215               	.LVL149:
 264:funsape/device/ssd1306.cpp ****     this->_initialized                  = false;
 2216               		.loc 1 264 41 view .LVU529
 2217 001a 8E7F      		andi r24,lo8(~(1<<0))
 2218 001c 8D83      		std Y+5,r24
 265:funsape/device/ssd1306.cpp **** 
 2219               		.loc 1 265 5 is_stmt 1 view .LVU530
 265:funsape/device/ssd1306.cpp **** 
 2220               		.loc 1 265 41 is_stmt 0 view .LVU531
 2221 001e 8B7F      		andi r24,lo8(~(1<<2))
 2222 0020 8D83      		std Y+5,r24
 268:funsape/device/ssd1306.cpp ****         // Returns error
 2223               		.loc 1 268 5 is_stmt 1 view .LVU532
 2224 0022 6030      		cpi r22,0
 2225 0024 7607      		cpc r23,r22
 2226 0026 01F0      		breq .L131
 273:funsape/device/ssd1306.cpp ****         // Returns error
 2227               		.loc 1 273 12 view .LVU533
 273:funsape/device/ssd1306.cpp ****         // Returns error
 2228               		.loc 1 273 39 is_stmt 0 view .LVU534
 2229 0028 FB01      		movw r30,r22
 2230 002a 0190      		ld __tmp_reg__,Z+
 2231 002c F081      		ld r31,Z
 2232 002e E02D      		mov r30,__tmp_reg__
 2233 0030 0484      		ldd __tmp_reg__,Z+12
 2234 0032 F585      		ldd r31,Z+13
 2235 0034 E02D      		mov r30,__tmp_reg__
 2236 0036 CB01      		movw r24,r22
 2237 0038 0995      		icall
 2238               	.LVL150:
 273:funsape/device/ssd1306.cpp ****         // Returns error
 2239               		.loc 1 273 12 discriminator 1 view .LVU535
GAS LISTING /tmp/cc7wpQ70.s 			page 68


 2240 003a 0597      		sbiw r24,5
 2241 003c 01F0      		breq .L119
 275:funsape/device/ssd1306.cpp ****         debugMessage(Error::BUS_HANDLER_NOT_SUPPORTED, Debug::CodeIndex::SSD1306_MODULE);
 2242               		.loc 1 275 9 is_stmt 1 view .LVU536
 275:funsape/device/ssd1306.cpp ****         debugMessage(Error::BUS_HANDLER_NOT_SUPPORTED, Debug::CodeIndex::SSD1306_MODULE);
 2243               		.loc 1 275 26 is_stmt 0 view .LVU537
 2244 003e 81EA      		ldi r24,lo8(-95)
 2245 0040 90E0      		ldi r25,0
 2246 0042 9F83      		std Y+7,r25
 2247 0044 8E83      		std Y+6,r24
 276:funsape/device/ssd1306.cpp ****         return false;
 2248               		.loc 1 276 9 is_stmt 1 view .LVU538
 277:funsape/device/ssd1306.cpp ****     }
 2249               		.loc 1 277 9 view .LVU539
 2250               	.L120:
 272:funsape/device/ssd1306.cpp ****     } else if(busHandler_p->getBusType() != Bus::BusType::TWI) {
 2251               		.loc 1 272 16 is_stmt 0 view .LVU540
 2252 0046 10E0      		ldi r17,0
 2253               	.LVL151:
 2254               	.L116:
 344:funsape/device/ssd1306.cpp **** 
 2255               		.loc 1 344 1 view .LVU541
 2256 0048 812F      		mov r24,r17
 2257               	/* epilogue start */
 2258 004a DF91      		pop r29
 2259 004c CF91      		pop r28
 2260               	.LVL152:
 344:funsape/device/ssd1306.cpp **** 
 2261               		.loc 1 344 1 view .LVU542
 2262 004e 1F91      		pop r17
 2263 0050 0F91      		pop r16
 2264 0052 FF90      		pop r15
 2265 0054 EF90      		pop r14
 2266               	.LVL153:
 344:funsape/device/ssd1306.cpp **** 
 2267               		.loc 1 344 1 view .LVU543
 2268 0056 DF90      		pop r13
 2269               	.LVL154:
 344:funsape/device/ssd1306.cpp **** 
 2270               		.loc 1 344 1 view .LVU544
 2271 0058 CF90      		pop r12
 2272               	.LVL155:
 344:funsape/device/ssd1306.cpp **** 
 2273               		.loc 1 344 1 view .LVU545
 2274 005a 0895      		ret
 2275               	.LVL156:
 2276               	.L131:
 270:funsape/device/ssd1306.cpp ****         debugMessage(Error::BUS_HANDLER_POINTER_NULL, Debug::CodeIndex::SSD1306_MODULE);
 2277               		.loc 1 270 9 is_stmt 1 view .LVU546
 270:funsape/device/ssd1306.cpp ****         debugMessage(Error::BUS_HANDLER_POINTER_NULL, Debug::CodeIndex::SSD1306_MODULE);
 2278               		.loc 1 270 26 is_stmt 0 view .LVU547
 2279 005c 82EA      		ldi r24,lo8(-94)
 2280 005e 90E0      		ldi r25,0
 2281 0060 9F83      		std Y+7,r25
 2282 0062 8E83      		std Y+6,r24
 271:funsape/device/ssd1306.cpp ****         return false;
 2283               		.loc 1 271 9 is_stmt 1 view .LVU548
GAS LISTING /tmp/cc7wpQ70.s 			page 69


 272:funsape/device/ssd1306.cpp ****     } else if(busHandler_p->getBusType() != Bus::BusType::TWI) {
 2284               		.loc 1 272 9 view .LVU549
 272:funsape/device/ssd1306.cpp ****     } else if(busHandler_p->getBusType() != Bus::BusType::TWI) {
 2285               		.loc 1 272 16 is_stmt 0 view .LVU550
 2286 0064 00C0      		rjmp .L120
 2287               	.L119:
 281:funsape/device/ssd1306.cpp ****     this->_busHandlerSet                = true;
 2288               		.loc 1 281 5 is_stmt 1 view .LVU551
 281:funsape/device/ssd1306.cpp ****     this->_busHandlerSet                = true;
 2289               		.loc 1 281 41 is_stmt 0 view .LVU552
 2290 0066 F982      		std Y+1,r15
 2291 0068 E882      		st Y,r14
 282:funsape/device/ssd1306.cpp ****     this->_deviceAddress                = address_p;
 2292               		.loc 1 282 5 is_stmt 1 view .LVU553
 282:funsape/device/ssd1306.cpp ****     this->_deviceAddress                = address_p;
 2293               		.loc 1 282 41 is_stmt 0 view .LVU554
 2294 006a 8D81      		ldd r24,Y+5
 2295 006c 8160      		ori r24,lo8(1<<0)
 2296 006e 8D83      		std Y+5,r24
 283:funsape/device/ssd1306.cpp ****     this->_size                         = size_p;
 2297               		.loc 1 283 5 is_stmt 1 view .LVU555
 283:funsape/device/ssd1306.cpp ****     this->_size                         = size_p;
 2298               		.loc 1 283 43 is_stmt 0 view .LVU556
 2299 0070 9C2D      		mov r25,r12
 2300 0072 9F77      		andi r25,lo8(127)
 283:funsape/device/ssd1306.cpp ****     this->_size                         = size_p;
 2301               		.loc 1 283 41 view .LVU557
 2302 0074 8885      		ldd r24,Y+8
 2303 0076 8078      		andi r24,lo8(-128)
 2304 0078 892B      		or r24,r25
 2305 007a 8887      		std Y+8,r24
 284:funsape/device/ssd1306.cpp ****     this->_pages                        = (size_p == Size::SSD1306_128X64) ? 8 : 4;
 2306               		.loc 1 284 5 is_stmt 1 view .LVU558
 284:funsape/device/ssd1306.cpp ****     this->_pages                        = (size_p == Size::SSD1306_128X64) ? 8 : 4;
 2307               		.loc 1 284 41 is_stmt 0 view .LVU559
 2308 007c 8D2D      		mov r24,r13
 2309 007e D986      		std Y+9,r13
 285:funsape/device/ssd1306.cpp ****     this->_frameBuffer                  = frameBuffer_p;
 2310               		.loc 1 285 5 is_stmt 1 view .LVU560
 285:funsape/device/ssd1306.cpp ****     this->_frameBuffer                  = frameBuffer_p;
 2311               		.loc 1 285 41 is_stmt 0 view .LVU561
 2312 0080 8111      		cpse r24,__zero_reg__
 2313 0082 00C0      		rjmp .L127
 285:funsape/device/ssd1306.cpp ****     this->_frameBuffer                  = frameBuffer_p;
 2314               		.loc 1 285 41 discriminator 1 view .LVU562
 2315 0084 88E0      		ldi r24,lo8(8)
 2316               	.L121:
 285:funsape/device/ssd1306.cpp ****     this->_frameBuffer                  = frameBuffer_p;
 2317               		.loc 1 285 41 discriminator 3 view .LVU563
 2318 0086 8A87      		std Y+10,r24
 286:funsape/device/ssd1306.cpp ****     this->_buffered                     = isPointerValid(frameBuffer_p);
 2319               		.loc 1 286 5 is_stmt 1 view .LVU564
 286:funsape/device/ssd1306.cpp ****     this->_buffered                     = isPointerValid(frameBuffer_p);
 2320               		.loc 1 286 41 is_stmt 0 view .LVU565
 2321 0088 1B83      		std Y+3,r17
 2322 008a 0A83      		std Y+2,r16
 287:funsape/device/ssd1306.cpp ****     this->_dirtyPageMask                = 0;
GAS LISTING /tmp/cc7wpQ70.s 			page 70


 2323               		.loc 1 287 5 is_stmt 1 view .LVU566
 287:funsape/device/ssd1306.cpp ****     this->_dirtyPageMask                = 0;
 2324               		.loc 1 287 43 is_stmt 0 view .LVU567
 2325 008c 91E0      		ldi r25,lo8(1)
 2326 008e 012B      		or r16,r17
 2327 0090 01F4      		brne .+2
 2328 0092 00C0      		rjmp .L132
 2329               	.L122:
 287:funsape/device/ssd1306.cpp ****     this->_dirtyPageMask                = 0;
 2330               		.loc 1 287 41 view .LVU568
 2331 0094 8D81      		ldd r24,Y+5
 2332 0096 90FB      		bst r25,0
 2333 0098 81F9      		bld r24,1
 2334 009a 8D83      		std Y+5,r24
 288:funsape/device/ssd1306.cpp ****     this->_cursorX                      = 0;
 2335               		.loc 1 288 5 is_stmt 1 view .LVU569
 288:funsape/device/ssd1306.cpp ****     this->_cursorX                      = 0;
 2336               		.loc 1 288 41 is_stmt 0 view .LVU570
 2337 009c 1C82      		std Y+4,__zero_reg__
 289:funsape/device/ssd1306.cpp ****     this->_cursorY                      = 0;
 2338               		.loc 1 289 5 is_stmt 1 view .LVU571
 289:funsape/device/ssd1306.cpp ****     this->_cursorY                      = 0;
 2339               		.loc 1 289 41 is_stmt 0 view .LVU572
 2340 009e 1B86      		std Y+11,__zero_reg__
 290:funsape/device/ssd1306.cpp ****     this->_textSize                     = 1;
 2341               		.loc 1 290 5 is_stmt 1 view .LVU573
 290:funsape/device/ssd1306.cpp ****     this->_textSize                     = 1;
 2342               		.loc 1 290 41 is_stmt 0 view .LVU574
 2343 00a0 1C86      		std Y+12,__zero_reg__
 291:funsape/device/ssd1306.cpp **** 
 2344               		.loc 1 291 5 is_stmt 1 view .LVU575
 291:funsape/device/ssd1306.cpp **** 
 2345               		.loc 1 291 41 is_stmt 0 view .LVU576
 2346 00a2 8D85      		ldd r24,Y+13
 2347 00a4 887F      		andi r24,lo8(-8)
 2348 00a6 8160      		ori r24,lo8(1)
 2349 00a8 8D87      		std Y+13,r24
 294:funsape/device/ssd1306.cpp ****     uint8_t auxComPins                  = (size_p == Size::SSD1306_128X64) ? 0x12 : 0x02;
 2350               		.loc 1 294 5 is_stmt 1 view .LVU577
 294:funsape/device/ssd1306.cpp ****     uint8_t auxComPins                  = (size_p == Size::SSD1306_128X64) ? 0x12 : 0x02;
 2351               		.loc 1 294 13 is_stmt 0 view .LVU578
 2352 00aa 8D2D      		mov r24,r13
 2353 00ac 8111      		cpse r24,__zero_reg__
 2354 00ae 00C0      		rjmp .L128
 294:funsape/device/ssd1306.cpp ****     uint8_t auxComPins                  = (size_p == Size::SSD1306_128X64) ? 0x12 : 0x02;
 2355               		.loc 1 294 13 discriminator 1 view .LVU579
 2356 00b0 0FE3      		ldi r16,lo8(63)
 2357               	.LVL157:
 295:funsape/device/ssd1306.cpp **** 
 2358               		.loc 1 295 13 discriminator 1 view .LVU580
 2359 00b2 0F2E      		mov __tmp_reg__,r31
 2360 00b4 F2E1      		ldi r31,lo8(18)
 2361 00b6 FF2E      		mov r15,r31
 2362 00b8 F02D      		mov r31,__tmp_reg__
 2363               	.L123:
 2364               	.LVL158:
 298:funsape/device/ssd1306.cpp ****         // Returns error
GAS LISTING /tmp/cc7wpQ70.s 			page 71


 2365               		.loc 1 298 5 is_stmt 1 view .LVU581
 298:funsape/device/ssd1306.cpp ****         // Returns error
 2366               		.loc 1 298 32 is_stmt 0 view .LVU582
 2367 00ba 42E1      		ldi r20,lo8(18)
 2368 00bc 60E0      		ldi r22,lo8(_ZL24constSsd1306InitSequence)
 2369 00be 70E0      		ldi r23,hi8(_ZL24constSsd1306InitSequence)
 2370 00c0 CE01      		movw r24,r28
 2371 00c2 0E94 0000 		call _ZN7Ssd130617_writeCommandListEPKhh
 2372               	.LVL159:
 298:funsape/device/ssd1306.cpp ****         // Returns error
 2373               		.loc 1 298 32 view .LVU583
 2374 00c6 182F      		mov r17,r24
 298:funsape/device/ssd1306.cpp ****         // Returns error
 2375               		.loc 1 298 5 discriminator 1 view .LVU584
 2376 00c8 8030      		cpi r24,lo8(0)
 2377 00ca 01F4      		brne .+2
 2378 00cc 00C0      		rjmp .L116
 303:funsape/device/ssd1306.cpp ****         // Returns error
 2379               		.loc 1 303 5 is_stmt 1 view .LVU585
 303:funsape/device/ssd1306.cpp ****         // Returns error
 2380               		.loc 1 303 28 is_stmt 0 view .LVU586
 2381 00ce 68EA      		ldi r22,lo8(-88)
 2382 00d0 CE01      		movw r24,r28
 2383 00d2 0E94 0000 		call _ZN7Ssd130613_writeCommandEh
 2384               	.LVL160:
 2385 00d6 182F      		mov r17,r24
 303:funsape/device/ssd1306.cpp ****         // Returns error
 2386               		.loc 1 303 52 discriminator 1 view .LVU587
 2387 00d8 8030      		cpi r24,lo8(0)
 2388 00da 01F4      		brne .+2
 2389 00dc 00C0      		rjmp .L116
 303:funsape/device/ssd1306.cpp ****         // Returns error
 2390               		.loc 1 303 75 discriminator 2 view .LVU588
 2391 00de 602F      		mov r22,r16
 2392 00e0 CE01      		movw r24,r28
 2393 00e2 0E94 0000 		call _ZN7Ssd130613_writeCommandEh
 2394               	.LVL161:
 2395 00e6 182F      		mov r17,r24
 303:funsape/device/ssd1306.cpp ****         // Returns error
 2396               		.loc 1 303 52 discriminator 3 view .LVU589
 2397 00e8 8030      		cpi r24,lo8(0)
 2398 00ea 01F4      		brne .+2
 2399 00ec 00C0      		rjmp .L116
 308:funsape/device/ssd1306.cpp ****         // Returns error
 2400               		.loc 1 308 5 is_stmt 1 view .LVU590
 308:funsape/device/ssd1306.cpp ****         // Returns error
 2401               		.loc 1 308 28 is_stmt 0 view .LVU591
 2402 00ee 6AED      		ldi r22,lo8(-38)
 2403 00f0 CE01      		movw r24,r28
 2404 00f2 0E94 0000 		call _ZN7Ssd130613_writeCommandEh
 2405               	.LVL162:
 2406 00f6 182F      		mov r17,r24
 308:funsape/device/ssd1306.cpp ****         // Returns error
 2407               		.loc 1 308 51 discriminator 1 view .LVU592
 2408 00f8 8030      		cpi r24,lo8(0)
 2409 00fa 01F4      		brne .+2
 2410 00fc 00C0      		rjmp .L116
GAS LISTING /tmp/cc7wpQ70.s 			page 72


 308:funsape/device/ssd1306.cpp ****         // Returns error
 2411               		.loc 1 308 74 discriminator 2 view .LVU593
 2412 00fe 6F2D      		mov r22,r15
 2413 0100 CE01      		movw r24,r28
 2414 0102 0E94 0000 		call _ZN7Ssd130613_writeCommandEh
 2415               	.LVL163:
 2416 0106 182F      		mov r17,r24
 308:funsape/device/ssd1306.cpp ****         // Returns error
 2417               		.loc 1 308 51 discriminator 3 view .LVU594
 2418 0108 8030      		cpi r24,lo8(0)
 2419 010a 01F4      		brne .+2
 2420 010c 00C0      		rjmp .L116
 313:funsape/device/ssd1306.cpp ****         // Returns error
 2421               		.loc 1 313 5 is_stmt 1 view .LVU595
 313:funsape/device/ssd1306.cpp ****         // Returns error
 2422               		.loc 1 313 28 is_stmt 0 view .LVU596
 2423 010e 61E8      		ldi r22,lo8(-127)
 2424 0110 CE01      		movw r24,r28
 2425 0112 0E94 0000 		call _ZN7Ssd130613_writeCommandEh
 2426               	.LVL164:
 2427 0116 182F      		mov r17,r24
 313:funsape/device/ssd1306.cpp ****         // Returns error
 2428               		.loc 1 313 51 discriminator 1 view .LVU597
 2429 0118 8030      		cpi r24,lo8(0)
 2430 011a 01F4      		brne .+2
 2431 011c 00C0      		rjmp .L116
 313:funsape/device/ssd1306.cpp ****         // Returns error
 2432               		.loc 1 313 74 discriminator 2 view .LVU598
 2433 011e 6FEC      		ldi r22,lo8(-49)
 2434 0120 CE01      		movw r24,r28
 2435 0122 0E94 0000 		call _ZN7Ssd130613_writeCommandEh
 2436               	.LVL165:
 2437 0126 182F      		mov r17,r24
 313:funsape/device/ssd1306.cpp ****         // Returns error
 2438               		.loc 1 313 51 discriminator 3 view .LVU599
 2439 0128 8030      		cpi r24,lo8(0)
 2440 012a 01F4      		brne .+2
 2441 012c 00C0      		rjmp .L116
 318:funsape/device/ssd1306.cpp ****         // Returns error
 2442               		.loc 1 318 5 is_stmt 1 view .LVU600
 318:funsape/device/ssd1306.cpp ****         // Returns error
 2443               		.loc 1 318 28 is_stmt 0 view .LVU601
 2444 012e 6FEA      		ldi r22,lo8(-81)
 2445 0130 CE01      		movw r24,r28
 2446 0132 0E94 0000 		call _ZN7Ssd130613_writeCommandEh
 2447               	.LVL166:
 2448 0136 182F      		mov r17,r24
 318:funsape/device/ssd1306.cpp ****         // Returns error
 2449               		.loc 1 318 5 discriminator 1 view .LVU602
 2450 0138 8030      		cpi r24,lo8(0)
 2451 013a 01F4      		brne .+2
 2452 013c 00C0      		rjmp .L116
 325:funsape/device/ssd1306.cpp ****     if(!this->clearScreen()) {
 2453               		.loc 1 325 5 is_stmt 1 view .LVU603
 325:funsape/device/ssd1306.cpp ****     if(!this->clearScreen()) {
 2454               		.loc 1 325 41 is_stmt 0 view .LVU604
 2455 013e 8D81      		ldd r24,Y+5
GAS LISTING /tmp/cc7wpQ70.s 			page 73


 2456 0140 8460      		ori r24,lo8(1<<2)
 2457 0142 8D83      		std Y+5,r24
 326:funsape/device/ssd1306.cpp ****         // Returns error
 2458               		.loc 1 326 5 is_stmt 1 view .LVU605
 326:funsape/device/ssd1306.cpp ****         // Returns error
 2459               		.loc 1 326 26 is_stmt 0 view .LVU606
 2460 0144 CE01      		movw r24,r28
 2461 0146 0E94 0000 		call _ZN7Ssd130611clearScreenEv
 2462               	.LVL167:
 2463 014a 182F      		mov r17,r24
 326:funsape/device/ssd1306.cpp ****         // Returns error
 2464               		.loc 1 326 5 discriminator 1 view .LVU607
 2465 014c 8030      		cpi r24,lo8(0)
 2466 014e 01F4      		brne .+2
 2467 0150 00C0      		rjmp .L116
 331:funsape/device/ssd1306.cpp ****         // Blanks the panel once so it does not show framebuffer garbage
 2468               		.loc 1 331 5 is_stmt 1 view .LVU608
 331:funsape/device/ssd1306.cpp ****         // Blanks the panel once so it does not show framebuffer garbage
 2469               		.loc 1 331 14 is_stmt 0 view .LVU609
 2470 0152 8D81      		ldd r24,Y+5
 331:funsape/device/ssd1306.cpp ****         // Blanks the panel once so it does not show framebuffer garbage
 2471               		.loc 1 331 5 view .LVU610
 2472 0154 81FD      		sbrc r24,1
 2473 0156 00C0      		rjmp .L133
 2474               	.L125:
 341:funsape/device/ssd1306.cpp ****     debugMessage(Error::NONE, Debug::CodeIndex::SSD1306_MODULE);
 2475               		.loc 1 341 5 is_stmt 1 view .LVU611
 341:funsape/device/ssd1306.cpp ****     debugMessage(Error::NONE, Debug::CodeIndex::SSD1306_MODULE);
 2476               		.loc 1 341 22 is_stmt 0 view .LVU612
 2477 0158 1F82      		std Y+7,__zero_reg__
 2478 015a 1E82      		std Y+6,__zero_reg__
 342:funsape/device/ssd1306.cpp ****     return true;
 2479               		.loc 1 342 5 is_stmt 1 view .LVU613
 343:funsape/device/ssd1306.cpp **** }
 2480               		.loc 1 343 5 view .LVU614
 343:funsape/device/ssd1306.cpp **** }
 2481               		.loc 1 343 12 is_stmt 0 view .LVU615
 2482 015c 00C0      		rjmp .L116
 2483               	.LVL168:
 2484               	.L127:
 285:funsape/device/ssd1306.cpp ****     this->_frameBuffer                  = frameBuffer_p;
 2485               		.loc 1 285 41 discriminator 2 view .LVU616
 2486 015e 84E0      		ldi r24,lo8(4)
 2487 0160 00C0      		rjmp .L121
 2488               	.L132:
 287:funsape/device/ssd1306.cpp ****     this->_dirtyPageMask                = 0;
 2489               		.loc 1 287 43 view .LVU617
 2490 0162 90E0      		ldi r25,0
 2491 0164 00C0      		rjmp .L122
 2492               	.L128:
 294:funsape/device/ssd1306.cpp ****     uint8_t auxComPins                  = (size_p == Size::SSD1306_128X64) ? 0x12 : 0x02;
 2493               		.loc 1 294 13 discriminator 2 view .LVU618
 2494 0166 0FE1      		ldi r16,lo8(31)
 2495               	.LVL169:
 295:funsape/device/ssd1306.cpp **** 
 2496               		.loc 1 295 13 discriminator 2 view .LVU619
 2497 0168 6894      		set
GAS LISTING /tmp/cc7wpQ70.s 			page 74


 2498 016a FF24      		clr r15
 2499 016c F1F8      		bld r15,1
 2500 016e 00C0      		rjmp .L123
 2501               	.LVL170:
 2502               	.L133:
 333:funsape/device/ssd1306.cpp ****             // Returns error
 2503               		.loc 1 333 9 is_stmt 1 view .LVU620
 333:funsape/device/ssd1306.cpp ****             // Returns error
 2504               		.loc 1 333 26 is_stmt 0 view .LVU621
 2505 0170 CE01      		movw r24,r28
 2506 0172 0E94 0000 		call _ZN7Ssd13067displayEv
 2507               	.LVL171:
 333:funsape/device/ssd1306.cpp ****             // Returns error
 2508               		.loc 1 333 9 discriminator 1 view .LVU622
 2509 0176 8111      		cpse r24,__zero_reg__
 2510 0178 00C0      		rjmp .L125
 336:funsape/device/ssd1306.cpp ****         }
 2511               		.loc 1 336 20 view .LVU623
 2512 017a 182F      		mov r17,r24
 2513 017c 00C0      		rjmp .L116
 2514               		.cfi_endproc
 2515               	.LFE141:
 2517               		.section	.text._ZN7Ssd130615setDisplayStateE10Activation,"ax",@progbits
 2518               	.global	_ZN7Ssd130615setDisplayStateE10Activation
 2520               	_ZN7Ssd130615setDisplayStateE10Activation:
 2521               	.LVL172:
 2522               	.LFB144:
 453:funsape/device/ssd1306.cpp ****     // Mark passage for debugging purpose
 2523               		.loc 1 453 1 is_stmt 1 view -0
 2524               		.cfi_startproc
 453:funsape/device/ssd1306.cpp ****     // Mark passage for debugging purpose
 2525               		.loc 1 453 1 is_stmt 0 view .LVU625
 2526 0000 1F93      		push r17
 2527               	.LCFI65:
 2528               		.cfi_def_cfa_offset 3
 2529               		.cfi_offset 17, -2
 2530 0002 CF93      		push r28
 2531               	.LCFI66:
 2532               		.cfi_def_cfa_offset 4
 2533               		.cfi_offset 28, -3
 2534 0004 DF93      		push r29
 2535               	.LCFI67:
 2536               		.cfi_def_cfa_offset 5
 2537               		.cfi_offset 29, -4
 2538               	/* prologue: function */
 2539               	/* frame size = 0 */
 2540               	/* stack size = 3 */
 2541               	.L__stack_usage = 3
 2542 0006 EC01      		movw r28,r24
 2543 0008 162F      		mov r17,r22
 455:funsape/device/ssd1306.cpp **** 
 2544               		.loc 1 455 5 is_stmt 1 view .LVU626
 458:funsape/device/ssd1306.cpp ****         // Returns error
 2545               		.loc 1 458 5 view .LVU627
 458:funsape/device/ssd1306.cpp ****         // Returns error
 2546               		.loc 1 458 29 is_stmt 0 view .LVU628
 2547 000a 0E94 0000 		call _ZN7Ssd130614_isInitializedEv
GAS LISTING /tmp/cc7wpQ70.s 			page 75


 2548               	.LVL173:
 458:funsape/device/ssd1306.cpp ****         // Returns error
 2549               		.loc 1 458 5 discriminator 1 view .LVU629
 2550 000e 8030      		cpi r24,lo8(0)
 2551 0010 01F0      		breq .L134
 465:funsape/device/ssd1306.cpp ****         // Returns error
 2552               		.loc 1 465 5 is_stmt 1 view .LVU630
 465:funsape/device/ssd1306.cpp ****         // Returns error
 2553               		.loc 1 465 28 is_stmt 0 view .LVU631
 2554 0012 1130      		cpi r17,lo8(1)
 2555 0014 01F0      		breq .L140
 465:funsape/device/ssd1306.cpp ****         // Returns error
 2556               		.loc 1 465 28 discriminator 2 view .LVU632
 2557 0016 6EEA      		ldi r22,lo8(-82)
 2558               	.L136:
 465:funsape/device/ssd1306.cpp ****         // Returns error
 2559               		.loc 1 465 28 discriminator 3 view .LVU633
 2560 0018 CE01      		movw r24,r28
 2561 001a 0E94 0000 		call _ZN7Ssd130613_writeCommandEh
 2562               	.LVL174:
 465:funsape/device/ssd1306.cpp ****         // Returns error
 2563               		.loc 1 465 5 discriminator 4 view .LVU634
 2564 001e 8030      		cpi r24,lo8(0)
 2565 0020 01F0      		breq .L134
 472:funsape/device/ssd1306.cpp ****     debugMessage(Error::NONE, Debug::CodeIndex::SSD1306_MODULE);
 2566               		.loc 1 472 5 is_stmt 1 view .LVU635
 472:funsape/device/ssd1306.cpp ****     debugMessage(Error::NONE, Debug::CodeIndex::SSD1306_MODULE);
 2567               		.loc 1 472 22 is_stmt 0 view .LVU636
 2568 0022 1F82      		std Y+7,__zero_reg__
 2569 0024 1E82      		std Y+6,__zero_reg__
 473:funsape/device/ssd1306.cpp ****     return true;
 2570               		.loc 1 473 5 is_stmt 1 view .LVU637
 474:funsape/device/ssd1306.cpp **** }
 2571               		.loc 1 474 5 view .LVU638
 2572               	.L134:
 2573               	/* epilogue start */
 475:funsape/device/ssd1306.cpp **** 
 2574               		.loc 1 475 1 is_stmt 0 view .LVU639
 2575 0026 DF91      		pop r29
 2576 0028 CF91      		pop r28
 2577               	.LVL175:
 475:funsape/device/ssd1306.cpp **** 
 2578               		.loc 1 475 1 view .LVU640
 2579 002a 1F91      		pop r17
 2580               	.LVL176:
 475:funsape/device/ssd1306.cpp **** 
 2581               		.loc 1 475 1 view .LVU641
 2582 002c 0895      		ret
 2583               	.LVL177:
 2584               	.L140:
 465:funsape/device/ssd1306.cpp ****         // Returns error
 2585               		.loc 1 465 28 discriminator 1 view .LVU642
 2586 002e 6FEA      		ldi r22,lo8(-81)
 2587 0030 00C0      		rjmp .L136
 2588               		.cfi_endproc
 2589               	.LFE144:
 2591               		.section	.text._ZN7Ssd130611setContrastEh,"ax",@progbits
GAS LISTING /tmp/cc7wpQ70.s 			page 76


 2592               	.global	_ZN7Ssd130611setContrastEh
 2594               	_ZN7Ssd130611setContrastEh:
 2595               	.LVL178:
 2596               	.LFB145:
 478:funsape/device/ssd1306.cpp ****     // Mark passage for debugging purpose
 2597               		.loc 1 478 1 is_stmt 1 view -0
 2598               		.cfi_startproc
 478:funsape/device/ssd1306.cpp ****     // Mark passage for debugging purpose
 2599               		.loc 1 478 1 is_stmt 0 view .LVU644
 2600 0000 1F93      		push r17
 2601               	.LCFI68:
 2602               		.cfi_def_cfa_offset 3
 2603               		.cfi_offset 17, -2
 2604 0002 CF93      		push r28
 2605               	.LCFI69:
 2606               		.cfi_def_cfa_offset 4
 2607               		.cfi_offset 28, -3
 2608 0004 DF93      		push r29
 2609               	.LCFI70:
 2610               		.cfi_def_cfa_offset 5
 2611               		.cfi_offset 29, -4
 2612               	/* prologue: function */
 2613               	/* frame size = 0 */
 2614               	/* stack size = 3 */
 2615               	.L__stack_usage = 3
 2616 0006 EC01      		movw r28,r24
 2617 0008 162F      		mov r17,r22
 480:funsape/device/ssd1306.cpp **** 
 2618               		.loc 1 480 5 is_stmt 1 view .LVU645
 483:funsape/device/ssd1306.cpp ****         // Returns error
 2619               		.loc 1 483 5 view .LVU646
 483:funsape/device/ssd1306.cpp ****         // Returns error
 2620               		.loc 1 483 29 is_stmt 0 view .LVU647
 2621 000a 0E94 0000 		call _ZN7Ssd130614_isInitializedEv
 2622               	.LVL179:
 483:funsape/device/ssd1306.cpp ****         // Returns error
 2623               		.loc 1 483 5 discriminator 1 view .LVU648
 2624 000e 8111      		cpse r24,__zero_reg__
 2625 0010 00C0      		rjmp .L145
 2626               	.L141:
 2627               	/* epilogue start */
 500:funsape/device/ssd1306.cpp **** 
 2628               		.loc 1 500 1 view .LVU649
 2629 0012 DF91      		pop r29
 2630 0014 CF91      		pop r28
 2631               	.LVL180:
 500:funsape/device/ssd1306.cpp **** 
 2632               		.loc 1 500 1 view .LVU650
 2633 0016 1F91      		pop r17
 2634               	.LVL181:
 500:funsape/device/ssd1306.cpp **** 
 2635               		.loc 1 500 1 view .LVU651
 2636 0018 0895      		ret
 2637               	.LVL182:
 2638               	.L145:
 490:funsape/device/ssd1306.cpp ****         // Returns error
 2639               		.loc 1 490 5 is_stmt 1 view .LVU652
GAS LISTING /tmp/cc7wpQ70.s 			page 77


 490:funsape/device/ssd1306.cpp ****         // Returns error
 2640               		.loc 1 490 28 is_stmt 0 view .LVU653
 2641 001a 61E8      		ldi r22,lo8(-127)
 2642 001c CE01      		movw r24,r28
 2643 001e 0E94 0000 		call _ZN7Ssd130613_writeCommandEh
 2644               	.LVL183:
 490:funsape/device/ssd1306.cpp ****         // Returns error
 2645               		.loc 1 490 51 discriminator 1 view .LVU654
 2646 0022 8030      		cpi r24,lo8(0)
 2647 0024 01F0      		breq .L141
 490:funsape/device/ssd1306.cpp ****         // Returns error
 2648               		.loc 1 490 74 discriminator 2 view .LVU655
 2649 0026 612F      		mov r22,r17
 2650 0028 CE01      		movw r24,r28
 2651 002a 0E94 0000 		call _ZN7Ssd130613_writeCommandEh
 2652               	.LVL184:
 490:funsape/device/ssd1306.cpp ****         // Returns error
 2653               		.loc 1 490 51 discriminator 3 view .LVU656
 2654 002e 8030      		cpi r24,lo8(0)
 2655 0030 01F0      		breq .L141
 497:funsape/device/ssd1306.cpp ****     debugMessage(Error::NONE, Debug::CodeIndex::SSD1306_MODULE);
 2656               		.loc 1 497 5 is_stmt 1 view .LVU657
 497:funsape/device/ssd1306.cpp ****     debugMessage(Error::NONE, Debug::CodeIndex::SSD1306_MODULE);
 2657               		.loc 1 497 22 is_stmt 0 view .LVU658
 2658 0032 1F82      		std Y+7,__zero_reg__
 2659 0034 1E82      		std Y+6,__zero_reg__
 498:funsape/device/ssd1306.cpp ****     return true;
 2660               		.loc 1 498 5 is_stmt 1 view .LVU659
 499:funsape/device/ssd1306.cpp **** }
 2661               		.loc 1 499 5 view .LVU660
 499:funsape/device/ssd1306.cpp **** }
 2662               		.loc 1 499 12 is_stmt 0 view .LVU661
 2663 0036 00C0      		rjmp .L141
 2664               		.cfi_endproc
 2665               	.LFE145:
 2667               		.section	.text._ZN7Ssd130613setUpsideDownEb,"ax",@progbits
 2668               	.global	_ZN7Ssd130613setUpsideDownEb
 2670               	_ZN7Ssd130613setUpsideDownEb:
 2671               	.LVL185:
 2672               	.LFB146:
 503:funsape/device/ssd1306.cpp ****     // Mark passage for debugging purpose
 2673               		.loc 1 503 1 is_stmt 1 view -0
 2674               		.cfi_startproc
 503:funsape/device/ssd1306.cpp ****     // Mark passage for debugging purpose
 2675               		.loc 1 503 1 is_stmt 0 view .LVU663
 2676 0000 FF92      		push r15
 2677               	.LCFI71:
 2678               		.cfi_def_cfa_offset 3
 2679               		.cfi_offset 15, -2
 2680 0002 0F93      		push r16
 2681               	.LCFI72:
 2682               		.cfi_def_cfa_offset 4
 2683               		.cfi_offset 16, -3
 2684 0004 1F93      		push r17
 2685               	.LCFI73:
 2686               		.cfi_def_cfa_offset 5
 2687               		.cfi_offset 17, -4
GAS LISTING /tmp/cc7wpQ70.s 			page 78


 2688 0006 CF93      		push r28
 2689               	.LCFI74:
 2690               		.cfi_def_cfa_offset 6
 2691               		.cfi_offset 28, -5
 2692 0008 DF93      		push r29
 2693               	.LCFI75:
 2694               		.cfi_def_cfa_offset 7
 2695               		.cfi_offset 29, -6
 2696               	/* prologue: function */
 2697               	/* frame size = 0 */
 2698               	/* stack size = 5 */
 2699               	.L__stack_usage = 5
 2700 000a 8C01      		movw r16,r24
 2701 000c C62F      		mov r28,r22
 505:funsape/device/ssd1306.cpp **** 
 2702               		.loc 1 505 5 is_stmt 1 view .LVU664
 508:funsape/device/ssd1306.cpp ****         // Returns error
 2703               		.loc 1 508 5 view .LVU665
 508:funsape/device/ssd1306.cpp ****         // Returns error
 2704               		.loc 1 508 29 is_stmt 0 view .LVU666
 2705 000e 0E94 0000 		call _ZN7Ssd130614_isInitializedEv
 2706               	.LVL186:
 508:funsape/device/ssd1306.cpp ****         // Returns error
 2707               		.loc 1 508 5 discriminator 1 view .LVU667
 2708 0012 8030      		cpi r24,lo8(0)
 2709 0014 01F0      		breq .L146
 515:funsape/device/ssd1306.cpp ****     uint8_t auxComScan                  = (enable_p) ? SSD1306_COM_SCAN_INC : SSD1306_COM_SCAN_DEC;
 2710               		.loc 1 515 5 is_stmt 1 view .LVU668
 515:funsape/device/ssd1306.cpp ****     uint8_t auxComScan                  = (enable_p) ? SSD1306_COM_SCAN_INC : SSD1306_COM_SCAN_DEC;
 2711               		.loc 1 515 13 is_stmt 0 view .LVU669
 2712 0016 C030      		cpi r28,lo8(0)
 2713 0018 01F0      		breq .L150
 515:funsape/device/ssd1306.cpp ****     uint8_t auxComScan                  = (enable_p) ? SSD1306_COM_SCAN_INC : SSD1306_COM_SCAN_DEC;
 2714               		.loc 1 515 13 discriminator 1 view .LVU670
 2715 001a 60EA      		ldi r22,lo8(-96)
 516:funsape/device/ssd1306.cpp **** 
 2716               		.loc 1 516 13 discriminator 1 view .LVU671
 2717 001c 80EC      		ldi r24,lo8(-64)
 2718 001e F82E      		mov r15,r24
 2719               	.L148:
 2720               	.LVL187:
 519:funsape/device/ssd1306.cpp ****         // Returns error
 2721               		.loc 1 519 5 is_stmt 1 view .LVU672
 519:funsape/device/ssd1306.cpp ****         // Returns error
 2722               		.loc 1 519 28 is_stmt 0 view .LVU673
 2723 0020 E801      		movw r28,r16
 2724               	.LVL188:
 519:funsape/device/ssd1306.cpp ****         // Returns error
 2725               		.loc 1 519 28 view .LVU674
 2726 0022 C801      		movw r24,r16
 2727 0024 0E94 0000 		call _ZN7Ssd130613_writeCommandEh
 2728               	.LVL189:
 519:funsape/device/ssd1306.cpp ****         // Returns error
 2729               		.loc 1 519 42 discriminator 1 view .LVU675
 2730 0028 8111      		cpse r24,__zero_reg__
 2731 002a 00C0      		rjmp .L151
 2732               	.LVL190:
GAS LISTING /tmp/cc7wpQ70.s 			page 79


 2733               	.L146:
 2734               	/* epilogue start */
 529:funsape/device/ssd1306.cpp **** 
 2735               		.loc 1 529 1 view .LVU676
 2736 002c DF91      		pop r29
 2737 002e CF91      		pop r28
 2738 0030 1F91      		pop r17
 2739 0032 0F91      		pop r16
 2740               	.LVL191:
 529:funsape/device/ssd1306.cpp **** 
 2741               		.loc 1 529 1 view .LVU677
 2742 0034 FF90      		pop r15
 2743 0036 0895      		ret
 2744               	.LVL192:
 2745               	.L150:
 515:funsape/device/ssd1306.cpp ****     uint8_t auxComScan                  = (enable_p) ? SSD1306_COM_SCAN_INC : SSD1306_COM_SCAN_DEC;
 2746               		.loc 1 515 13 discriminator 2 view .LVU678
 2747 0038 61EA      		ldi r22,lo8(-95)
 516:funsape/device/ssd1306.cpp **** 
 2748               		.loc 1 516 13 discriminator 2 view .LVU679
 2749 003a 88EC      		ldi r24,lo8(-56)
 2750 003c F82E      		mov r15,r24
 2751 003e 00C0      		rjmp .L148
 2752               	.LVL193:
 2753               	.L151:
 519:funsape/device/ssd1306.cpp ****         // Returns error
 2754               		.loc 1 519 65 discriminator 2 view .LVU680
 2755 0040 6F2D      		mov r22,r15
 2756 0042 C801      		movw r24,r16
 2757 0044 0E94 0000 		call _ZN7Ssd130613_writeCommandEh
 2758               	.LVL194:
 519:funsape/device/ssd1306.cpp ****         // Returns error
 2759               		.loc 1 519 42 discriminator 3 view .LVU681
 2760 0048 8030      		cpi r24,lo8(0)
 2761 004a 01F0      		breq .L146
 526:funsape/device/ssd1306.cpp ****     debugMessage(Error::NONE, Debug::CodeIndex::SSD1306_MODULE);
 2762               		.loc 1 526 5 is_stmt 1 view .LVU682
 526:funsape/device/ssd1306.cpp ****     debugMessage(Error::NONE, Debug::CodeIndex::SSD1306_MODULE);
 2763               		.loc 1 526 22 is_stmt 0 view .LVU683
 2764 004c 1F82      		std Y+7,__zero_reg__
 2765 004e 1E82      		std Y+6,__zero_reg__
 527:funsape/device/ssd1306.cpp ****     return true;
 2766               		.loc 1 527 5 is_stmt 1 view .LVU684
 528:funsape/device/ssd1306.cpp **** }
 2767               		.loc 1 528 5 view .LVU685
 528:funsape/device/ssd1306.cpp **** }
 2768               		.loc 1 528 12 is_stmt 0 view .LVU686
 2769 0050 00C0      		rjmp .L146
 2770               		.cfi_endproc
 2771               	.LFE146:
 2773               		.section	.text._ZN7Ssd13069setCursorEhh,"ax",@progbits
 2774               	.global	_ZN7Ssd13069setCursorEhh
 2776               	_ZN7Ssd13069setCursorEhh:
 2777               	.LVL195:
 2778               	.LFB149:
 562:funsape/device/ssd1306.cpp ****     // Mark passage for debugging purpose
 2779               		.loc 1 562 1 is_stmt 1 view -0
GAS LISTING /tmp/cc7wpQ70.s 			page 80


 2780               		.cfi_startproc
 562:funsape/device/ssd1306.cpp ****     // Mark passage for debugging purpose
 2781               		.loc 1 562 1 is_stmt 0 view .LVU688
 2782 0000 0F93      		push r16
 2783               	.LCFI76:
 2784               		.cfi_def_cfa_offset 3
 2785               		.cfi_offset 16, -2
 2786 0002 1F93      		push r17
 2787               	.LCFI77:
 2788               		.cfi_def_cfa_offset 4
 2789               		.cfi_offset 17, -3
 2790 0004 CF93      		push r28
 2791               	.LCFI78:
 2792               		.cfi_def_cfa_offset 5
 2793               		.cfi_offset 28, -4
 2794 0006 DF93      		push r29
 2795               	.LCFI79:
 2796               		.cfi_def_cfa_offset 6
 2797               		.cfi_offset 29, -5
 2798               	/* prologue: function */
 2799               	/* frame size = 0 */
 2800               	/* stack size = 4 */
 2801               	.L__stack_usage = 4
 2802 0008 EC01      		movw r28,r24
 2803 000a 162F      		mov r17,r22
 2804 000c 042F      		mov r16,r20
 564:funsape/device/ssd1306.cpp **** 
 2805               		.loc 1 564 5 is_stmt 1 view .LVU689
 567:funsape/device/ssd1306.cpp ****         // Returns error
 2806               		.loc 1 567 5 view .LVU690
 567:funsape/device/ssd1306.cpp ****         // Returns error
 2807               		.loc 1 567 29 is_stmt 0 view .LVU691
 2808 000e 0E94 0000 		call _ZN7Ssd130614_isInitializedEv
 2809               	.LVL196:
 567:funsape/device/ssd1306.cpp ****         // Returns error
 2810               		.loc 1 567 5 discriminator 1 view .LVU692
 2811 0012 8030      		cpi r24,lo8(0)
 2812 0014 01F0      		breq .L152
 572:funsape/device/ssd1306.cpp ****         // Returns error
 2813               		.loc 1 572 5 is_stmt 1 view .LVU693
 2814 0016 1030      		cpi r17,lo8(0)
 2815 0018 04F0      		brlt .L155
 572:funsape/device/ssd1306.cpp ****         // Returns error
 2816               		.loc 1 572 55 is_stmt 0 discriminator 1 view .LVU694
 2817 001a 9A85      		ldd r25,Y+10
 572:funsape/device/ssd1306.cpp ****         // Returns error
 2818               		.loc 1 572 35 discriminator 1 view .LVU695
 2819 001c 0917      		cp r16,r25
 2820 001e 00F4      		brsh .L155
 580:funsape/device/ssd1306.cpp ****     this->_cursorY                      = (uint8_t)(page_p * 8);
 2821               		.loc 1 580 5 is_stmt 1 view .LVU696
 580:funsape/device/ssd1306.cpp ****     this->_cursorY                      = (uint8_t)(page_p * 8);
 2822               		.loc 1 580 41 is_stmt 0 view .LVU697
 2823 0020 1B87      		std Y+11,r17
 581:funsape/device/ssd1306.cpp **** 
 2824               		.loc 1 581 5 is_stmt 1 view .LVU698
 581:funsape/device/ssd1306.cpp **** 
GAS LISTING /tmp/cc7wpQ70.s 			page 81


 2825               		.loc 1 581 41 is_stmt 0 view .LVU699
 2826 0022 902F      		mov r25,r16
 2827 0024 990F      		lsl r25
 2828 0026 990F      		lsl r25
 2829 0028 990F      		lsl r25
 2830 002a 9C87      		std Y+12,r25
 584:funsape/device/ssd1306.cpp ****     debugMessage(Error::NONE, Debug::CodeIndex::SSD1306_MODULE);
 2831               		.loc 1 584 5 is_stmt 1 view .LVU700
 584:funsape/device/ssd1306.cpp ****     debugMessage(Error::NONE, Debug::CodeIndex::SSD1306_MODULE);
 2832               		.loc 1 584 22 is_stmt 0 view .LVU701
 2833 002c 1F82      		std Y+7,__zero_reg__
 2834 002e 1E82      		std Y+6,__zero_reg__
 585:funsape/device/ssd1306.cpp ****     return true;
 2835               		.loc 1 585 5 is_stmt 1 view .LVU702
 586:funsape/device/ssd1306.cpp **** }
 2836               		.loc 1 586 5 view .LVU703
 586:funsape/device/ssd1306.cpp **** }
 2837               		.loc 1 586 12 is_stmt 0 view .LVU704
 2838 0030 00C0      		rjmp .L152
 2839               	.L155:
 574:funsape/device/ssd1306.cpp ****         debugMessage(Error::ARGUMENT_VALUE_INVALID, Debug::CodeIndex::SSD1306_MODULE);
 2840               		.loc 1 574 9 is_stmt 1 view .LVU705
 574:funsape/device/ssd1306.cpp ****         debugMessage(Error::ARGUMENT_VALUE_INVALID, Debug::CodeIndex::SSD1306_MODULE);
 2841               		.loc 1 574 26 is_stmt 0 view .LVU706
 2842 0032 82E5      		ldi r24,lo8(82)
 2843 0034 90E0      		ldi r25,0
 2844 0036 9F83      		std Y+7,r25
 2845 0038 8E83      		std Y+6,r24
 575:funsape/device/ssd1306.cpp ****         return false;
 2846               		.loc 1 575 9 is_stmt 1 view .LVU707
 576:funsape/device/ssd1306.cpp ****     }
 2847               		.loc 1 576 9 view .LVU708
 576:funsape/device/ssd1306.cpp ****     }
 2848               		.loc 1 576 16 is_stmt 0 view .LVU709
 2849 003a 80E0      		ldi r24,0
 2850               	.L152:
 2851               	/* epilogue start */
 587:funsape/device/ssd1306.cpp **** 
 2852               		.loc 1 587 1 view .LVU710
 2853 003c DF91      		pop r29
 2854 003e CF91      		pop r28
 2855               	.LVL197:
 587:funsape/device/ssd1306.cpp **** 
 2856               		.loc 1 587 1 view .LVU711
 2857 0040 1F91      		pop r17
 2858               	.LVL198:
 587:funsape/device/ssd1306.cpp **** 
 2859               		.loc 1 587 1 view .LVU712
 2860 0042 0F91      		pop r16
 2861               	.LVL199:
 587:funsape/device/ssd1306.cpp **** 
 2862               		.loc 1 587 1 view .LVU713
 2863 0044 0895      		ret
 2864               		.cfi_endproc
 2865               	.LFE149:
 2867               		.section	.text._ZN7Ssd130614setCursorPixelEhh,"ax",@progbits
 2868               	.global	_ZN7Ssd130614setCursorPixelEhh
GAS LISTING /tmp/cc7wpQ70.s 			page 82


 2870               	_ZN7Ssd130614setCursorPixelEhh:
 2871               	.LVL200:
 2872               	.LFB150:
 590:funsape/device/ssd1306.cpp ****     // Mark passage for debugging purpose
 2873               		.loc 1 590 1 is_stmt 1 view -0
 2874               		.cfi_startproc
 590:funsape/device/ssd1306.cpp ****     // Mark passage for debugging purpose
 2875               		.loc 1 590 1 is_stmt 0 view .LVU715
 2876 0000 0F93      		push r16
 2877               	.LCFI80:
 2878               		.cfi_def_cfa_offset 3
 2879               		.cfi_offset 16, -2
 2880 0002 1F93      		push r17
 2881               	.LCFI81:
 2882               		.cfi_def_cfa_offset 4
 2883               		.cfi_offset 17, -3
 2884 0004 CF93      		push r28
 2885               	.LCFI82:
 2886               		.cfi_def_cfa_offset 5
 2887               		.cfi_offset 28, -4
 2888 0006 DF93      		push r29
 2889               	.LCFI83:
 2890               		.cfi_def_cfa_offset 6
 2891               		.cfi_offset 29, -5
 2892               	/* prologue: function */
 2893               	/* frame size = 0 */
 2894               	/* stack size = 4 */
 2895               	.L__stack_usage = 4
 2896 0008 EC01      		movw r28,r24
 2897 000a 162F      		mov r17,r22
 2898 000c 042F      		mov r16,r20
 592:funsape/device/ssd1306.cpp **** 
 2899               		.loc 1 592 5 is_stmt 1 view .LVU716
 595:funsape/device/ssd1306.cpp ****         // Returns error
 2900               		.loc 1 595 5 view .LVU717
 595:funsape/device/ssd1306.cpp ****         // Returns error
 2901               		.loc 1 595 29 is_stmt 0 view .LVU718
 2902 000e 0E94 0000 		call _ZN7Ssd130614_isInitializedEv
 2903               	.LVL201:
 595:funsape/device/ssd1306.cpp ****         // Returns error
 2904               		.loc 1 595 5 discriminator 1 view .LVU719
 2905 0012 8030      		cpi r24,lo8(0)
 2906 0014 01F0      		breq .L158
 600:funsape/device/ssd1306.cpp ****         // Returns error (arbitrary-Y text needs the framebuffer)
 2907               		.loc 1 600 5 is_stmt 1 view .LVU720
 600:funsape/device/ssd1306.cpp ****         // Returns error (arbitrary-Y text needs the framebuffer)
 2908               		.loc 1 600 15 is_stmt 0 view .LVU721
 2909 0016 9D81      		ldd r25,Y+5
 2910 0018 91FB      		bst r25,1
 2911 001a 8827      		clr r24
 2912 001c 80F9      		bld r24,0
 600:funsape/device/ssd1306.cpp ****         // Returns error (arbitrary-Y text needs the framebuffer)
 2913               		.loc 1 600 5 view .LVU722
 2914 001e 91FF      		sbrs r25,1
 2915 0020 00C0      		rjmp .L164
 606:funsape/device/ssd1306.cpp ****         // Returns error
 2916               		.loc 1 606 5 is_stmt 1 view .LVU723
GAS LISTING /tmp/cc7wpQ70.s 			page 83


 2917 0022 1030      		cpi r17,lo8(0)
 2918 0024 04F0      		brlt .L161
 606:funsape/device/ssd1306.cpp ****         // Returns error
 2919               		.loc 1 606 62 is_stmt 0 discriminator 1 view .LVU724
 2920 0026 9A85      		ldd r25,Y+10
 606:funsape/device/ssd1306.cpp ****         // Returns error
 2921               		.loc 1 606 43 discriminator 1 view .LVU725
 2922 0028 990F      		lsl r25
 2923 002a 990F      		lsl r25
 2924 002c 990F      		lsl r25
 606:funsape/device/ssd1306.cpp ****         // Returns error
 2925               		.loc 1 606 35 discriminator 1 view .LVU726
 2926 002e 0917      		cp r16,r25
 2927 0030 00F4      		brsh .L161
 614:funsape/device/ssd1306.cpp ****     this->_cursorY                      = y_p;
 2928               		.loc 1 614 5 is_stmt 1 view .LVU727
 614:funsape/device/ssd1306.cpp ****     this->_cursorY                      = y_p;
 2929               		.loc 1 614 41 is_stmt 0 view .LVU728
 2930 0032 1B87      		std Y+11,r17
 615:funsape/device/ssd1306.cpp **** 
 2931               		.loc 1 615 5 is_stmt 1 view .LVU729
 615:funsape/device/ssd1306.cpp **** 
 2932               		.loc 1 615 41 is_stmt 0 view .LVU730
 2933 0034 0C87      		std Y+12,r16
 618:funsape/device/ssd1306.cpp ****     debugMessage(Error::NONE, Debug::CodeIndex::SSD1306_MODULE);
 2934               		.loc 1 618 5 is_stmt 1 view .LVU731
 618:funsape/device/ssd1306.cpp ****     debugMessage(Error::NONE, Debug::CodeIndex::SSD1306_MODULE);
 2935               		.loc 1 618 22 is_stmt 0 view .LVU732
 2936 0036 1F82      		std Y+7,__zero_reg__
 2937 0038 1E82      		std Y+6,__zero_reg__
 619:funsape/device/ssd1306.cpp ****     return true;
 2938               		.loc 1 619 5 is_stmt 1 view .LVU733
 620:funsape/device/ssd1306.cpp **** }
 2939               		.loc 1 620 5 view .LVU734
 620:funsape/device/ssd1306.cpp **** }
 2940               		.loc 1 620 12 is_stmt 0 view .LVU735
 2941 003a 00C0      		rjmp .L158
 2942               	.L164:
 602:funsape/device/ssd1306.cpp ****         debugMessage(Error::FEATURE_NOT_SUPPORTED, Debug::CodeIndex::SSD1306_MODULE);
 2943               		.loc 1 602 9 is_stmt 1 view .LVU736
 602:funsape/device/ssd1306.cpp ****         debugMessage(Error::FEATURE_NOT_SUPPORTED, Debug::CodeIndex::SSD1306_MODULE);
 2944               		.loc 1 602 26 is_stmt 0 view .LVU737
 2945 003c 22E4      		ldi r18,lo8(66)
 2946 003e 30E0      		ldi r19,0
 2947 0040 3F83      		std Y+7,r19
 2948 0042 2E83      		std Y+6,r18
 603:funsape/device/ssd1306.cpp ****         return false;
 2949               		.loc 1 603 9 is_stmt 1 view .LVU738
 604:funsape/device/ssd1306.cpp ****     }
 2950               		.loc 1 604 9 view .LVU739
 2951               	.L158:
 2952               	/* epilogue start */
 621:funsape/device/ssd1306.cpp **** 
 2953               		.loc 1 621 1 is_stmt 0 view .LVU740
 2954 0044 DF91      		pop r29
 2955 0046 CF91      		pop r28
 2956               	.LVL202:
GAS LISTING /tmp/cc7wpQ70.s 			page 84


 621:funsape/device/ssd1306.cpp **** 
 2957               		.loc 1 621 1 view .LVU741
 2958 0048 1F91      		pop r17
 2959               	.LVL203:
 621:funsape/device/ssd1306.cpp **** 
 2960               		.loc 1 621 1 view .LVU742
 2961 004a 0F91      		pop r16
 2962               	.LVL204:
 621:funsape/device/ssd1306.cpp **** 
 2963               		.loc 1 621 1 view .LVU743
 2964 004c 0895      		ret
 2965               	.LVL205:
 2966               	.L161:
 608:funsape/device/ssd1306.cpp ****         debugMessage(Error::ARGUMENT_VALUE_INVALID, Debug::CodeIndex::SSD1306_MODULE);
 2967               		.loc 1 608 9 is_stmt 1 view .LVU744
 608:funsape/device/ssd1306.cpp ****         debugMessage(Error::ARGUMENT_VALUE_INVALID, Debug::CodeIndex::SSD1306_MODULE);
 2968               		.loc 1 608 26 is_stmt 0 view .LVU745
 2969 004e 82E5      		ldi r24,lo8(82)
 2970 0050 90E0      		ldi r25,0
 2971 0052 9F83      		std Y+7,r25
 2972 0054 8E83      		std Y+6,r24
 609:funsape/device/ssd1306.cpp ****         return false;
 2973               		.loc 1 609 9 is_stmt 1 view .LVU746
 610:funsape/device/ssd1306.cpp ****     }
 2974               		.loc 1 610 9 view .LVU747
 610:funsape/device/ssd1306.cpp ****     }
 2975               		.loc 1 610 16 is_stmt 0 view .LVU748
 2976 0056 80E0      		ldi r24,0
 2977 0058 00C0      		rjmp .L158
 2978               		.cfi_endproc
 2979               	.LFE150:
 2981               		.section	.text._ZN7Ssd13065printEc,"ax",@progbits
 2982               	.global	_ZN7Ssd13065printEc
 2984               	_ZN7Ssd13065printEc:
 2985               	.LVL206:
 2986               	.LFB152:
 638:funsape/device/ssd1306.cpp ****     // Mark passage for debugging purpose
 2987               		.loc 1 638 1 is_stmt 1 view -0
 2988               		.cfi_startproc
 638:funsape/device/ssd1306.cpp ****     // Mark passage for debugging purpose
 2989               		.loc 1 638 1 is_stmt 0 view .LVU750
 2990 0000 0F93      		push r16
 2991               	.LCFI84:
 2992               		.cfi_def_cfa_offset 3
 2993               		.cfi_offset 16, -2
 2994 0002 1F93      		push r17
 2995               	.LCFI85:
 2996               		.cfi_def_cfa_offset 4
 2997               		.cfi_offset 17, -3
 2998 0004 CF93      		push r28
 2999               	.LCFI86:
 3000               		.cfi_def_cfa_offset 5
 3001               		.cfi_offset 28, -4
 3002 0006 DF93      		push r29
 3003               	.LCFI87:
 3004               		.cfi_def_cfa_offset 6
 3005               		.cfi_offset 29, -5
GAS LISTING /tmp/cc7wpQ70.s 			page 85


 3006               	/* prologue: function */
 3007               	/* frame size = 0 */
 3008               	/* stack size = 4 */
 3009               	.L__stack_usage = 4
 3010 0008 EC01      		movw r28,r24
 3011 000a 162F      		mov r17,r22
 640:funsape/device/ssd1306.cpp **** 
 3012               		.loc 1 640 5 is_stmt 1 view .LVU751
 643:funsape/device/ssd1306.cpp ****         // Returns error
 3013               		.loc 1 643 5 view .LVU752
 643:funsape/device/ssd1306.cpp ****         // Returns error
 3014               		.loc 1 643 29 is_stmt 0 view .LVU753
 3015 000c 0E94 0000 		call _ZN7Ssd130614_isInitializedEv
 3016               	.LVL207:
 643:funsape/device/ssd1306.cpp ****         // Returns error
 3017               		.loc 1 643 29 view .LVU754
 3018 0010 082F      		mov r16,r24
 643:funsape/device/ssd1306.cpp ****         // Returns error
 3019               		.loc 1 643 5 discriminator 1 view .LVU755
 3020 0012 8030      		cpi r24,lo8(0)
 3021 0014 01F0      		breq .L165
 649:funsape/device/ssd1306.cpp ****         this->_cursorX                  = 0;
 3022               		.loc 1 649 5 is_stmt 1 view .LVU756
 3023 0016 1A30      		cpi r17,lo8(10)
 3024 0018 01F4      		brne .L168
 650:funsape/device/ssd1306.cpp ****         this->_cursorY                  += (uint8_t)(this->_textSize * 8);
 3025               		.loc 1 650 9 view .LVU757
 650:funsape/device/ssd1306.cpp ****         this->_cursorY                  += (uint8_t)(this->_textSize * 8);
 3026               		.loc 1 650 41 is_stmt 0 view .LVU758
 3027 001a 1B86      		std Y+11,__zero_reg__
 651:funsape/device/ssd1306.cpp ****         if((this->_cursorY + (this->_textSize * 8)) > (this->_pages * 8)) {
 3028               		.loc 1 651 9 is_stmt 1 view .LVU759
 651:funsape/device/ssd1306.cpp ****         if((this->_cursorY + (this->_textSize * 8)) > (this->_pages * 8)) {
 3029               		.loc 1 651 15 is_stmt 0 view .LVU760
 3030 001c 9C85      		ldd r25,Y+12
 651:funsape/device/ssd1306.cpp ****         if((this->_cursorY + (this->_textSize * 8)) > (this->_pages * 8)) {
 3031               		.loc 1 651 60 view .LVU761
 3032 001e 8D85      		ldd r24,Y+13
 3033 0020 8770      		andi r24,lo8(7)
 651:funsape/device/ssd1306.cpp ****         if((this->_cursorY + (this->_textSize * 8)) > (this->_pages * 8)) {
 3034               		.loc 1 651 41 view .LVU762
 3035 0022 282F      		mov r18,r24
 3036 0024 220F      		lsl r18
 3037 0026 220F      		lsl r18
 3038 0028 220F      		lsl r18
 3039 002a 290F      		add r18,r25
 3040 002c 2C87      		std Y+12,r18
 652:funsape/device/ssd1306.cpp ****             this->_cursorY              = 0;
 3041               		.loc 1 652 9 is_stmt 1 view .LVU763
 652:funsape/device/ssd1306.cpp ****             this->_cursorY              = 0;
 3042               		.loc 1 652 37 is_stmt 0 view .LVU764
 3043 002e 90E0      		ldi r25,0
 652:funsape/device/ssd1306.cpp ****             this->_cursorY              = 0;
 3044               		.loc 1 652 47 view .LVU765
 3045 0030 880F      		lsl r24
 3046 0032 991F      		rol r25
 3047 0034 880F      		lsl r24
GAS LISTING /tmp/cc7wpQ70.s 			page 86


 3048 0036 991F      		rol r25
 3049 0038 880F      		lsl r24
 3050 003a 991F      		rol r25
 652:funsape/device/ssd1306.cpp ****             this->_cursorY              = 0;
 3051               		.loc 1 652 28 view .LVU766
 3052 003c 820F      		add r24,r18
 3053 003e 911D      		adc r25,__zero_reg__
 652:funsape/device/ssd1306.cpp ****             this->_cursorY              = 0;
 3054               		.loc 1 652 62 view .LVU767
 3055 0040 2A85      		ldd r18,Y+10
 3056 0042 30E0      		ldi r19,0
 652:funsape/device/ssd1306.cpp ****             this->_cursorY              = 0;
 3057               		.loc 1 652 69 view .LVU768
 3058 0044 220F      		lsl r18
 3059 0046 331F      		rol r19
 3060 0048 220F      		lsl r18
 3061 004a 331F      		rol r19
 3062 004c 220F      		lsl r18
 3063 004e 331F      		rol r19
 652:funsape/device/ssd1306.cpp ****             this->_cursorY              = 0;
 3064               		.loc 1 652 9 view .LVU769
 3065 0050 2817      		cp r18,r24
 3066 0052 3907      		cpc r19,r25
 3067 0054 04F4      		brge .L169
 653:funsape/device/ssd1306.cpp ****         }
 3068               		.loc 1 653 13 is_stmt 1 view .LVU770
 653:funsape/device/ssd1306.cpp ****         }
 3069               		.loc 1 653 41 is_stmt 0 view .LVU771
 3070 0056 1C86      		std Y+12,__zero_reg__
 3071 0058 00C0      		rjmp .L169
 3072               	.L168:
 656:funsape/device/ssd1306.cpp ****             // Returns error
 3073               		.loc 1 656 9 is_stmt 1 view .LVU772
 656:funsape/device/ssd1306.cpp ****             // Returns error
 3074               		.loc 1 656 29 is_stmt 0 view .LVU773
 3075 005a 612F      		mov r22,r17
 3076 005c CE01      		movw r24,r28
 3077 005e 0E94 0000 		call _ZN7Ssd130610_writeCharEc
 3078               	.LVL208:
 656:funsape/device/ssd1306.cpp ****             // Returns error
 3079               		.loc 1 656 9 discriminator 1 view .LVU774
 3080 0062 8030      		cpi r24,lo8(0)
 3081 0064 01F0      		breq .L171
 3082               	.L169:
 664:funsape/device/ssd1306.cpp ****     debugMessage(Error::NONE, Debug::CodeIndex::SSD1306_MODULE);
 3083               		.loc 1 664 5 is_stmt 1 view .LVU775
 664:funsape/device/ssd1306.cpp ****     debugMessage(Error::NONE, Debug::CodeIndex::SSD1306_MODULE);
 3084               		.loc 1 664 22 is_stmt 0 view .LVU776
 3085 0066 1F82      		std Y+7,__zero_reg__
 3086 0068 1E82      		std Y+6,__zero_reg__
 665:funsape/device/ssd1306.cpp ****     return true;
 3087               		.loc 1 665 5 is_stmt 1 view .LVU777
 666:funsape/device/ssd1306.cpp **** }
 3088               		.loc 1 666 5 view .LVU778
 3089               	.L165:
 667:funsape/device/ssd1306.cpp **** 
 3090               		.loc 1 667 1 is_stmt 0 view .LVU779
GAS LISTING /tmp/cc7wpQ70.s 			page 87


 3091 006a 802F      		mov r24,r16
 3092               	/* epilogue start */
 3093 006c DF91      		pop r29
 3094 006e CF91      		pop r28
 3095               	.LVL209:
 667:funsape/device/ssd1306.cpp **** 
 3096               		.loc 1 667 1 view .LVU780
 3097 0070 1F91      		pop r17
 3098               	.LVL210:
 667:funsape/device/ssd1306.cpp **** 
 3099               		.loc 1 667 1 view .LVU781
 3100 0072 0F91      		pop r16
 3101 0074 0895      		ret
 3102               	.LVL211:
 3103               	.L171:
 659:funsape/device/ssd1306.cpp ****         }
 3104               		.loc 1 659 20 view .LVU782
 3105 0076 082F      		mov r16,r24
 3106 0078 00C0      		rjmp .L165
 3107               		.cfi_endproc
 3108               	.LFE152:
 3110               		.section	.text._ZL15ssd1306WriteStdcP6__file,"ax",@progbits
 3112               	_ZL15ssd1306WriteStdcP6__file:
 3113               	.LVL212:
 3114               	.LFB167:
1310:funsape/device/ssd1306.cpp **** 
1311:funsape/device/ssd1306.cpp **** // =============================================================================
1312:funsape/device/ssd1306.cpp **** // Class protected methods
1313:funsape/device/ssd1306.cpp **** // =============================================================================
1314:funsape/device/ssd1306.cpp **** 
1315:funsape/device/ssd1306.cpp **** // NONE
1316:funsape/device/ssd1306.cpp **** 
1317:funsape/device/ssd1306.cpp **** // =============================================================================
1318:funsape/device/ssd1306.cpp **** // Static functions definitions
1319:funsape/device/ssd1306.cpp **** // =============================================================================
1320:funsape/device/ssd1306.cpp **** 
1321:funsape/device/ssd1306.cpp **** static int ssd1306WriteStd(char character_p, FILE *stream_p)
1322:funsape/device/ssd1306.cpp **** {
 3115               		.loc 1 1322 1 is_stmt 1 view -0
 3116               		.cfi_startproc
 3117               	/* prologue: function */
 3118               	/* frame size = 0 */
 3119               	/* stack size = 0 */
 3120               	.L__stack_usage = 0
1323:funsape/device/ssd1306.cpp ****     (void)stream_p;
 3121               		.loc 1 1323 5 view .LVU784
1324:funsape/device/ssd1306.cpp **** 
1325:funsape/device/ssd1306.cpp ****     defaultSsd1306Display->print(character_p);
 3122               		.loc 1 1325 5 view .LVU785
 3123               		.loc 1 1325 33 is_stmt 0 view .LVU786
 3124 0000 682F      		mov r22,r24
 3125               	.LVL213:
 3126               		.loc 1 1325 33 view .LVU787
 3127 0002 8091 0000 		lds r24,defaultSsd1306Display
 3128 0006 9091 0000 		lds r25,defaultSsd1306Display+1
 3129               	.LVL214:
 3130               		.loc 1 1325 33 view .LVU788
GAS LISTING /tmp/cc7wpQ70.s 			page 88


 3131 000a 0E94 0000 		call _ZN7Ssd13065printEc
 3132               	.LVL215:
1326:funsape/device/ssd1306.cpp **** 
1327:funsape/device/ssd1306.cpp ****     return 0;
 3133               		.loc 1 1327 5 is_stmt 1 view .LVU789
1328:funsape/device/ssd1306.cpp **** }
 3134               		.loc 1 1328 1 is_stmt 0 view .LVU790
 3135 000e 80E0      		ldi r24,0
 3136 0010 90E0      		ldi r25,0
 3137               	/* epilogue start */
 3138 0012 0895      		ret
 3139               		.cfi_endproc
 3140               	.LFE167:
 3142               		.section	.text._ZN7Ssd13065printEPKc,"ax",@progbits
 3143               	.global	_ZN7Ssd13065printEPKc
 3145               	_ZN7Ssd13065printEPKc:
 3146               	.LVL216:
 3147               	.LFB153:
 670:funsape/device/ssd1306.cpp ****     // Mark passage for debugging purpose
 3148               		.loc 1 670 1 is_stmt 1 view -0
 3149               		.cfi_startproc
 670:funsape/device/ssd1306.cpp ****     // Mark passage for debugging purpose
 3150               		.loc 1 670 1 is_stmt 0 view .LVU792
 3151 0000 DF92      		push r13
 3152               	.LCFI88:
 3153               		.cfi_def_cfa_offset 3
 3154               		.cfi_offset 13, -2
 3155 0002 EF92      		push r14
 3156               	.LCFI89:
 3157               		.cfi_def_cfa_offset 4
 3158               		.cfi_offset 14, -3
 3159 0004 FF92      		push r15
 3160               	.LCFI90:
 3161               		.cfi_def_cfa_offset 5
 3162               		.cfi_offset 15, -4
 3163 0006 0F93      		push r16
 3164               	.LCFI91:
 3165               		.cfi_def_cfa_offset 6
 3166               		.cfi_offset 16, -5
 3167 0008 1F93      		push r17
 3168               	.LCFI92:
 3169               		.cfi_def_cfa_offset 7
 3170               		.cfi_offset 17, -6
 3171 000a CF93      		push r28
 3172               	.LCFI93:
 3173               		.cfi_def_cfa_offset 8
 3174               		.cfi_offset 28, -7
 3175 000c DF93      		push r29
 3176               	.LCFI94:
 3177               		.cfi_def_cfa_offset 9
 3178               		.cfi_offset 29, -8
 3179               	/* prologue: function */
 3180               	/* frame size = 0 */
 3181               	/* stack size = 7 */
 3182               	.L__stack_usage = 7
 3183 000e 8C01      		movw r16,r24
 3184 0010 7B01      		movw r14,r22
GAS LISTING /tmp/cc7wpQ70.s 			page 89


 672:funsape/device/ssd1306.cpp **** 
 3185               		.loc 1 672 5 is_stmt 1 view .LVU793
 675:funsape/device/ssd1306.cpp **** 
 3186               		.loc 1 675 5 view .LVU794
 3187               	.LVL217:
 678:funsape/device/ssd1306.cpp ****         // Returns error
 3188               		.loc 1 678 5 view .LVU795
 678:funsape/device/ssd1306.cpp ****         // Returns error
 3189               		.loc 1 678 29 is_stmt 0 view .LVU796
 3190 0012 0E94 0000 		call _ZN7Ssd130614_isInitializedEv
 3191               	.LVL218:
 678:funsape/device/ssd1306.cpp ****         // Returns error
 3192               		.loc 1 678 29 view .LVU797
 3193 0016 D82E      		mov r13,r24
 678:funsape/device/ssd1306.cpp ****         // Returns error
 3194               		.loc 1 678 5 discriminator 1 view .LVU798
 3195 0018 8030      		cpi r24,lo8(0)
 3196 001a 01F0      		breq .L174
 683:funsape/device/ssd1306.cpp ****         // Returns error
 3197               		.loc 1 683 5 is_stmt 1 view .LVU799
 3198 001c E114      		cp r14,__zero_reg__
 3199 001e FE04      		cpc r15,r14
 3200 0020 01F0      		breq .L182
 675:funsape/device/ssd1306.cpp **** 
 3201               		.loc 1 675 14 is_stmt 0 view .LVU800
 3202 0022 C0E0      		ldi r28,0
 3203 0024 D0E0      		ldi r29,0
 3204 0026 00C0      		rjmp .L177
 3205               	.L182:
 685:funsape/device/ssd1306.cpp ****         debugMessage(Error::ARGUMENT_POINTER_NULL, Debug::CodeIndex::SSD1306_MODULE);
 3206               		.loc 1 685 9 is_stmt 1 view .LVU801
 685:funsape/device/ssd1306.cpp ****         debugMessage(Error::ARGUMENT_POINTER_NULL, Debug::CodeIndex::SSD1306_MODULE);
 3207               		.loc 1 685 26 is_stmt 0 view .LVU802
 3208 0028 81E5      		ldi r24,lo8(81)
 3209 002a 90E0      		ldi r25,0
 3210 002c F801      		movw r30,r16
 3211 002e 9783      		std Z+7,r25
 3212 0030 8683      		std Z+6,r24
 686:funsape/device/ssd1306.cpp ****         return false;
 3213               		.loc 1 686 9 is_stmt 1 view .LVU803
 687:funsape/device/ssd1306.cpp ****     }
 3214               		.loc 1 687 9 view .LVU804
 687:funsape/device/ssd1306.cpp ****     }
 3215               		.loc 1 687 16 is_stmt 0 view .LVU805
 3216 0032 D12C      		mov r13,__zero_reg__
 3217 0034 00C0      		rjmp .L174
 3218               	.LVL219:
 3219               	.L184:
 696:funsape/device/ssd1306.cpp ****     }
 3220               		.loc 1 696 9 is_stmt 1 view .LVU806
 696:funsape/device/ssd1306.cpp ****     }
 3221               		.loc 1 696 10 is_stmt 0 view .LVU807
 3222 0036 2196      		adiw r28,1
 3223               	.LVL220:
 3224               	.L177:
 690:funsape/device/ssd1306.cpp ****         if(!this->print(string_p[i])) {
 3225               		.loc 1 690 21 is_stmt 1 discriminator 1 view .LVU808
GAS LISTING /tmp/cc7wpQ70.s 			page 90


 3226 0038 F701      		movw r30,r14
 3227 003a EC0F      		add r30,r28
 3228 003c FD1F      		adc r31,r29
 3229 003e 6081      		ld r22,Z
 3230 0040 6030      		cpi r22,lo8(0)
 3231 0042 01F0      		breq .L183
 691:funsape/device/ssd1306.cpp ****             // Returns error
 3232               		.loc 1 691 9 view .LVU809
 691:funsape/device/ssd1306.cpp ****             // Returns error
 3233               		.loc 1 691 24 is_stmt 0 view .LVU810
 3234 0044 C801      		movw r24,r16
 3235 0046 0E94 0000 		call _ZN7Ssd13065printEc
 3236               	.LVL221:
 691:funsape/device/ssd1306.cpp ****             // Returns error
 3237               		.loc 1 691 9 discriminator 1 view .LVU811
 3238 004a 8111      		cpse r24,__zero_reg__
 3239 004c 00C0      		rjmp .L184
 694:funsape/device/ssd1306.cpp ****         }
 3240               		.loc 1 694 20 view .LVU812
 3241 004e D82E      		mov r13,r24
 3242 0050 00C0      		rjmp .L174
 3243               	.L183:
 700:funsape/device/ssd1306.cpp ****     debugMessage(Error::NONE, Debug::CodeIndex::SSD1306_MODULE);
 3244               		.loc 1 700 5 is_stmt 1 view .LVU813
 700:funsape/device/ssd1306.cpp ****     debugMessage(Error::NONE, Debug::CodeIndex::SSD1306_MODULE);
 3245               		.loc 1 700 22 is_stmt 0 view .LVU814
 3246 0052 F801      		movw r30,r16
 3247 0054 1782      		std Z+7,__zero_reg__
 3248 0056 1682      		std Z+6,__zero_reg__
 701:funsape/device/ssd1306.cpp ****     return true;
 3249               		.loc 1 701 5 is_stmt 1 view .LVU815
 702:funsape/device/ssd1306.cpp **** }
 3250               		.loc 1 702 5 view .LVU816
 3251               	.LVL222:
 3252               	.L174:
 703:funsape/device/ssd1306.cpp **** 
 3253               		.loc 1 703 1 is_stmt 0 view .LVU817
 3254 0058 8D2D      		mov r24,r13
 3255               	/* epilogue start */
 3256 005a DF91      		pop r29
 3257 005c CF91      		pop r28
 3258 005e 1F91      		pop r17
 3259 0060 0F91      		pop r16
 3260               	.LVL223:
 703:funsape/device/ssd1306.cpp **** 
 3261               		.loc 1 703 1 view .LVU818
 3262 0062 FF90      		pop r15
 3263 0064 EF90      		pop r14
 3264               	.LVL224:
 703:funsape/device/ssd1306.cpp **** 
 3265               		.loc 1 703 1 view .LVU819
 3266 0066 DF90      		pop r13
 3267 0068 0895      		ret
 3268               		.cfi_endproc
 3269               	.LFE153:
 3271               		.section	.text._ZN7Ssd13069drawPixelEhhb,"ax",@progbits
 3272               	.global	_ZN7Ssd13069drawPixelEhhb
GAS LISTING /tmp/cc7wpQ70.s 			page 91


 3274               	_ZN7Ssd13069drawPixelEhhb:
 3275               	.LVL225:
 3276               	.LFB154:
 708:funsape/device/ssd1306.cpp ****     // Mark passage for debugging purpose
 3277               		.loc 1 708 1 is_stmt 1 view -0
 3278               		.cfi_startproc
 708:funsape/device/ssd1306.cpp ****     // Mark passage for debugging purpose
 3279               		.loc 1 708 1 is_stmt 0 view .LVU821
 3280 0000 EF92      		push r14
 3281               	.LCFI95:
 3282               		.cfi_def_cfa_offset 3
 3283               		.cfi_offset 14, -2
 3284 0002 FF92      		push r15
 3285               	.LCFI96:
 3286               		.cfi_def_cfa_offset 4
 3287               		.cfi_offset 15, -3
 3288 0004 0F93      		push r16
 3289               	.LCFI97:
 3290               		.cfi_def_cfa_offset 5
 3291               		.cfi_offset 16, -4
 3292 0006 1F93      		push r17
 3293               	.LCFI98:
 3294               		.cfi_def_cfa_offset 6
 3295               		.cfi_offset 17, -5
 3296 0008 CF93      		push r28
 3297               	.LCFI99:
 3298               		.cfi_def_cfa_offset 7
 3299               		.cfi_offset 28, -6
 3300 000a DF93      		push r29
 3301               	.LCFI100:
 3302               		.cfi_def_cfa_offset 8
 3303               		.cfi_offset 29, -7
 3304               	/* prologue: function */
 3305               	/* frame size = 0 */
 3306               	/* stack size = 6 */
 3307               	.L__stack_usage = 6
 3308 000c 8C01      		movw r16,r24
 3309 000e D62F      		mov r29,r22
 3310 0010 F42E      		mov r15,r20
 3311 0012 E22E      		mov r14,r18
 710:funsape/device/ssd1306.cpp **** 
 3312               		.loc 1 710 5 is_stmt 1 view .LVU822
 713:funsape/device/ssd1306.cpp ****         // Returns error
 3313               		.loc 1 713 5 view .LVU823
 713:funsape/device/ssd1306.cpp ****         // Returns error
 3314               		.loc 1 713 29 is_stmt 0 view .LVU824
 3315 0014 0E94 0000 		call _ZN7Ssd130614_isInitializedEv
 3316               	.LVL226:
 713:funsape/device/ssd1306.cpp ****         // Returns error
 3317               		.loc 1 713 29 view .LVU825
 3318 0018 C82F      		mov r28,r24
 713:funsape/device/ssd1306.cpp ****         // Returns error
 3319               		.loc 1 713 5 discriminator 1 view .LVU826
 3320 001a 8030      		cpi r24,lo8(0)
 3321 001c 01F0      		breq .L185
 718:funsape/device/ssd1306.cpp ****         // Returns error (arbitrary pixel plotting needs the framebuffer)
 3322               		.loc 1 718 5 is_stmt 1 view .LVU827
GAS LISTING /tmp/cc7wpQ70.s 			page 92


 718:funsape/device/ssd1306.cpp ****         // Returns error (arbitrary pixel plotting needs the framebuffer)
 3323               		.loc 1 718 15 is_stmt 0 view .LVU828
 3324 001e F801      		movw r30,r16
 3325 0020 8581      		ldd r24,Z+5
 3326 0022 81FB      		bst r24,1
 3327 0024 CC27      		clr r28
 3328 0026 C0F9      		bld r28,0
 718:funsape/device/ssd1306.cpp ****         // Returns error (arbitrary pixel plotting needs the framebuffer)
 3329               		.loc 1 718 5 view .LVU829
 3330 0028 81FF      		sbrs r24,1
 3331 002a 00C0      		rjmp .L191
 724:funsape/device/ssd1306.cpp ****         // Returns error
 3332               		.loc 1 724 5 is_stmt 1 view .LVU830
 3333 002c D030      		cpi r29,lo8(0)
 3334 002e 04F0      		brlt .L188
 724:funsape/device/ssd1306.cpp ****         // Returns error
 3335               		.loc 1 724 62 is_stmt 0 discriminator 1 view .LVU831
 3336 0030 8285      		ldd r24,Z+10
 724:funsape/device/ssd1306.cpp ****         // Returns error
 3337               		.loc 1 724 43 discriminator 1 view .LVU832
 3338 0032 880F      		lsl r24
 3339 0034 880F      		lsl r24
 3340 0036 880F      		lsl r24
 724:funsape/device/ssd1306.cpp ****         // Returns error
 3341               		.loc 1 724 35 discriminator 1 view .LVU833
 3342 0038 F816      		cp r15,r24
 3343 003a 00F0      		brlo .L189
 3344               	.L188:
 726:funsape/device/ssd1306.cpp ****         debugMessage(Error::ARGUMENT_VALUE_INVALID, Debug::CodeIndex::SSD1306_MODULE);
 3345               		.loc 1 726 9 is_stmt 1 view .LVU834
 726:funsape/device/ssd1306.cpp ****         debugMessage(Error::ARGUMENT_VALUE_INVALID, Debug::CodeIndex::SSD1306_MODULE);
 3346               		.loc 1 726 26 is_stmt 0 view .LVU835
 3347 003c 82E5      		ldi r24,lo8(82)
 3348 003e 90E0      		ldi r25,0
 3349 0040 F801      		movw r30,r16
 3350 0042 9783      		std Z+7,r25
 3351 0044 8683      		std Z+6,r24
 727:funsape/device/ssd1306.cpp ****         return false;
 3352               		.loc 1 727 9 is_stmt 1 view .LVU836
 728:funsape/device/ssd1306.cpp ****     }
 3353               		.loc 1 728 9 view .LVU837
 728:funsape/device/ssd1306.cpp ****     }
 3354               		.loc 1 728 16 is_stmt 0 view .LVU838
 3355 0046 C0E0      		ldi r28,0
 3356               	.L185:
 738:funsape/device/ssd1306.cpp **** 
 3357               		.loc 1 738 1 view .LVU839
 3358 0048 8C2F      		mov r24,r28
 3359               	/* epilogue start */
 3360 004a DF91      		pop r29
 3361               	.LVL227:
 738:funsape/device/ssd1306.cpp **** 
 3362               		.loc 1 738 1 view .LVU840
 3363 004c CF91      		pop r28
 3364 004e 1F91      		pop r17
 3365 0050 0F91      		pop r16
 3366               	.LVL228:
GAS LISTING /tmp/cc7wpQ70.s 			page 93


 738:funsape/device/ssd1306.cpp **** 
 3367               		.loc 1 738 1 view .LVU841
 3368 0052 FF90      		pop r15
 3369               	.LVL229:
 738:funsape/device/ssd1306.cpp **** 
 3370               		.loc 1 738 1 view .LVU842
 3371 0054 EF90      		pop r14
 3372               	.LVL230:
 738:funsape/device/ssd1306.cpp **** 
 3373               		.loc 1 738 1 view .LVU843
 3374 0056 0895      		ret
 3375               	.LVL231:
 3376               	.L191:
 720:funsape/device/ssd1306.cpp ****         debugMessage(Error::FEATURE_NOT_SUPPORTED, Debug::CodeIndex::SSD1306_MODULE);
 3377               		.loc 1 720 9 is_stmt 1 view .LVU844
 720:funsape/device/ssd1306.cpp ****         debugMessage(Error::FEATURE_NOT_SUPPORTED, Debug::CodeIndex::SSD1306_MODULE);
 3378               		.loc 1 720 26 is_stmt 0 view .LVU845
 3379 0058 82E4      		ldi r24,lo8(66)
 3380 005a 90E0      		ldi r25,0
 3381 005c 9783      		std Z+7,r25
 3382 005e 8683      		std Z+6,r24
 721:funsape/device/ssd1306.cpp ****         return false;
 3383               		.loc 1 721 9 is_stmt 1 view .LVU846
 722:funsape/device/ssd1306.cpp ****     }
 3384               		.loc 1 722 9 view .LVU847
 722:funsape/device/ssd1306.cpp ****     }
 3385               		.loc 1 722 16 is_stmt 0 view .LVU848
 3386 0060 00C0      		rjmp .L185
 3387               	.L189:
 732:funsape/device/ssd1306.cpp **** 
 3388               		.loc 1 732 5 is_stmt 1 view .LVU849
 732:funsape/device/ssd1306.cpp **** 
 3389               		.loc 1 732 20 is_stmt 0 view .LVU850
 3390 0062 2E2D      		mov r18,r14
 3391 0064 4F2D      		mov r20,r15
 3392 0066 6D2F      		mov r22,r29
 3393 0068 C801      		movw r24,r16
 3394 006a 0E94 0000 		call _ZN7Ssd13069_setPixelEhhb
 3395               	.LVL232:
 735:funsape/device/ssd1306.cpp ****     debugMessage(Error::NONE, Debug::CodeIndex::SSD1306_MODULE);
 3396               		.loc 1 735 5 is_stmt 1 view .LVU851
 735:funsape/device/ssd1306.cpp ****     debugMessage(Error::NONE, Debug::CodeIndex::SSD1306_MODULE);
 3397               		.loc 1 735 22 is_stmt 0 view .LVU852
 3398 006e F801      		movw r30,r16
 3399 0070 1782      		std Z+7,__zero_reg__
 3400 0072 1682      		std Z+6,__zero_reg__
 736:funsape/device/ssd1306.cpp ****     return true;
 3401               		.loc 1 736 5 is_stmt 1 view .LVU853
 737:funsape/device/ssd1306.cpp **** }
 3402               		.loc 1 737 5 view .LVU854
 737:funsape/device/ssd1306.cpp **** }
 3403               		.loc 1 737 12 is_stmt 0 view .LVU855
 3404 0074 00C0      		rjmp .L185
 3405               		.cfi_endproc
 3406               	.LFE154:
 3408               		.section	.text._ZN7Ssd13068drawLineEhhhhb,"ax",@progbits
 3409               	.global	_ZN7Ssd13068drawLineEhhhhb
GAS LISTING /tmp/cc7wpQ70.s 			page 94


 3411               	_ZN7Ssd13068drawLineEhhhhb:
 3412               	.LVL233:
 3413               	.LFB155:
 741:funsape/device/ssd1306.cpp ****     // Mark passage for debugging purpose
 3414               		.loc 1 741 1 is_stmt 1 view -0
 3415               		.cfi_startproc
 741:funsape/device/ssd1306.cpp ****     // Mark passage for debugging purpose
 3416               		.loc 1 741 1 is_stmt 0 view .LVU857
 3417 0000 2F92      		push r2
 3418               	.LCFI101:
 3419               		.cfi_def_cfa_offset 3
 3420               		.cfi_offset 2, -2
 3421 0002 3F92      		push r3
 3422               	.LCFI102:
 3423               		.cfi_def_cfa_offset 4
 3424               		.cfi_offset 3, -3
 3425 0004 4F92      		push r4
 3426               	.LCFI103:
 3427               		.cfi_def_cfa_offset 5
 3428               		.cfi_offset 4, -4
 3429 0006 5F92      		push r5
 3430               	.LCFI104:
 3431               		.cfi_def_cfa_offset 6
 3432               		.cfi_offset 5, -5
 3433 0008 6F92      		push r6
 3434               	.LCFI105:
 3435               		.cfi_def_cfa_offset 7
 3436               		.cfi_offset 6, -6
 3437 000a 7F92      		push r7
 3438               	.LCFI106:
 3439               		.cfi_def_cfa_offset 8
 3440               		.cfi_offset 7, -7
 3441 000c 8F92      		push r8
 3442               	.LCFI107:
 3443               		.cfi_def_cfa_offset 9
 3444               		.cfi_offset 8, -8
 3445 000e 9F92      		push r9
 3446               	.LCFI108:
 3447               		.cfi_def_cfa_offset 10
 3448               		.cfi_offset 9, -9
 3449 0010 AF92      		push r10
 3450               	.LCFI109:
 3451               		.cfi_def_cfa_offset 11
 3452               		.cfi_offset 10, -10
 3453 0012 BF92      		push r11
 3454               	.LCFI110:
 3455               		.cfi_def_cfa_offset 12
 3456               		.cfi_offset 11, -11
 3457 0014 CF92      		push r12
 3458               	.LCFI111:
 3459               		.cfi_def_cfa_offset 13
 3460               		.cfi_offset 12, -12
 3461 0016 DF92      		push r13
 3462               	.LCFI112:
 3463               		.cfi_def_cfa_offset 14
 3464               		.cfi_offset 13, -13
 3465 0018 EF92      		push r14
GAS LISTING /tmp/cc7wpQ70.s 			page 95


 3466               	.LCFI113:
 3467               		.cfi_def_cfa_offset 15
 3468               		.cfi_offset 14, -14
 3469 001a FF92      		push r15
 3470               	.LCFI114:
 3471               		.cfi_def_cfa_offset 16
 3472               		.cfi_offset 15, -15
 3473 001c 0F93      		push r16
 3474               	.LCFI115:
 3475               		.cfi_def_cfa_offset 17
 3476               		.cfi_offset 16, -16
 3477 001e 1F93      		push r17
 3478               	.LCFI116:
 3479               		.cfi_def_cfa_offset 18
 3480               		.cfi_offset 17, -17
 3481 0020 CF93      		push r28
 3482               	.LCFI117:
 3483               		.cfi_def_cfa_offset 19
 3484               		.cfi_offset 28, -18
 3485 0022 DF93      		push r29
 3486               	.LCFI118:
 3487               		.cfi_def_cfa_offset 20
 3488               		.cfi_offset 29, -19
 3489 0024 00D0      		rcall .
 3490 0026 00D0      		rcall .
 3491               	.LCFI119:
 3492               		.cfi_def_cfa_offset 24
 3493 0028 CDB7      		in r28,__SP_L__
 3494 002a DEB7      		in r29,__SP_H__
 3495               	.LCFI120:
 3496               		.cfi_def_cfa_register 28
 3497               	/* prologue: function */
 3498               	/* frame size = 4 */
 3499               	/* stack size = 22 */
 3500               	.L__stack_usage = 22
 3501 002c 5C01      		movw r10,r24
 3502 002e 762E      		mov r7,r22
 3503 0030 F42E      		mov r15,r20
 3504 0032 322E      		mov r3,r18
 3505 0034 202E      		mov r2,r16
 3506 0036 E982      		std Y+1,r14
 743:funsape/device/ssd1306.cpp ****             Debug::CodeIndex::SSD1306_MODULE);
 3507               		.loc 1 743 5 is_stmt 1 view .LVU858
 747:funsape/device/ssd1306.cpp ****         // Returns error
 3508               		.loc 1 747 5 view .LVU859
 747:funsape/device/ssd1306.cpp ****         // Returns error
 3509               		.loc 1 747 29 is_stmt 0 view .LVU860
 3510 0038 0E94 0000 		call _ZN7Ssd130614_isInitializedEv
 3511               	.LVL234:
 747:funsape/device/ssd1306.cpp ****         // Returns error
 3512               		.loc 1 747 29 view .LVU861
 3513 003c 8A83      		std Y+2,r24
 747:funsape/device/ssd1306.cpp ****         // Returns error
 3514               		.loc 1 747 5 discriminator 1 view .LVU862
 3515 003e 8030      		cpi r24,lo8(0)
 3516 0040 01F4      		brne .+2
 3517 0042 00C0      		rjmp .L192
GAS LISTING /tmp/cc7wpQ70.s 			page 96


 752:funsape/device/ssd1306.cpp ****         // Returns error (line drawing needs the framebuffer)
 3518               		.loc 1 752 5 is_stmt 1 view .LVU863
 752:funsape/device/ssd1306.cpp ****         // Returns error (line drawing needs the framebuffer)
 3519               		.loc 1 752 15 is_stmt 0 view .LVU864
 3520 0044 F501      		movw r30,r10
 3521 0046 8581      		ldd r24,Z+5
 3522 0048 81FB      		bst r24,1
 3523 004a 9927      		clr r25
 3524 004c 90F9      		bld r25,0
 3525 004e 9A83      		std Y+2,r25
 752:funsape/device/ssd1306.cpp ****         // Returns error (line drawing needs the framebuffer)
 3526               		.loc 1 752 5 view .LVU865
 3527 0050 81FF      		sbrs r24,1
 3528 0052 00C0      		rjmp .L211
 760:funsape/device/ssd1306.cpp ****     int16_t auxY0                       = y0_p;
 3529               		.loc 1 760 5 is_stmt 1 view .LVU866
 760:funsape/device/ssd1306.cpp ****     int16_t auxY0                       = y0_p;
 3530               		.loc 1 760 13 is_stmt 0 view .LVU867
 3531 0054 072D      		mov r16,r7
 3532               	.LVL235:
 760:funsape/device/ssd1306.cpp ****     int16_t auxY0                       = y0_p;
 3533               		.loc 1 760 13 view .LVU868
 3534 0056 10E0      		ldi r17,0
 3535               	.LVL236:
 761:funsape/device/ssd1306.cpp ****     int16_t auxDx                       = (x1_p >= x0_p) ? (x1_p - x0_p) : (x0_p - x1_p);
 3536               		.loc 1 761 5 is_stmt 1 view .LVU869
 761:funsape/device/ssd1306.cpp ****     int16_t auxDx                       = (x1_p >= x0_p) ? (x1_p - x0_p) : (x0_p - x1_p);
 3537               		.loc 1 761 13 is_stmt 0 view .LVU870
 3538 0058 8F2D      		mov r24,r15
 3539 005a 90E0      		ldi r25,0
 3540 005c 9C83      		std Y+4,r25
 3541 005e 8B83      		std Y+3,r24
 3542               	.LVL237:
 762:funsape/device/ssd1306.cpp ****     int16_t auxDy                       = (y1_p >= y0_p) ? -(y1_p - y0_p) : -(y0_p - y1_p);
 3543               		.loc 1 762 5 is_stmt 1 view .LVU871
 762:funsape/device/ssd1306.cpp ****     int16_t auxDy                       = (y1_p >= y0_p) ? -(y1_p - y0_p) : -(y0_p - y1_p);
 3544               		.loc 1 762 58 is_stmt 0 view .LVU872
 3545 0060 3714      		cp r3,r7
 3546 0062 00F0      		brlo .L195
 762:funsape/device/ssd1306.cpp ****     int16_t auxDy                       = (y1_p >= y0_p) ? -(y1_p - y0_p) : -(y0_p - y1_p);
 3547               		.loc 1 762 61 discriminator 1 view .LVU873
 3548 0064 832C      		mov r8,r3
 3549 0066 912C      		mov r9,__zero_reg__
 762:funsape/device/ssd1306.cpp ****     int16_t auxDy                       = (y1_p >= y0_p) ? -(y1_p - y0_p) : -(y0_p - y1_p);
 3550               		.loc 1 762 13 discriminator 1 view .LVU874
 3551 0068 801A      		sub r8,r16
 3552 006a 910A      		sbc r9,r17
 3553               	.LVL238:
 3554               	.L196:
 763:funsape/device/ssd1306.cpp ****     int16_t auxSx                       = (x0_p < x1_p) ? 1 : -1;
 3555               		.loc 1 763 5 is_stmt 1 view .LVU875
 763:funsape/device/ssd1306.cpp ****     int16_t auxSx                       = (x0_p < x1_p) ? 1 : -1;
 3556               		.loc 1 763 58 is_stmt 0 view .LVU876
 3557 006c 2F14      		cp r2,r15
 3558 006e 00F0      		brlo .L197
 763:funsape/device/ssd1306.cpp ****     int16_t auxSx                       = (x0_p < x1_p) ? 1 : -1;
 3559               		.loc 1 763 13 discriminator 1 view .LVU877
GAS LISTING /tmp/cc7wpQ70.s 			page 97


 3560 0070 CB80      		ldd r12,Y+3
 3561 0072 DC80      		ldd r13,Y+4
 3562 0074 C218      		sub r12,r2
 3563 0076 D108      		sbc r13,__zero_reg__
 3564               	.LVL239:
 3565               	.L198:
 764:funsape/device/ssd1306.cpp ****     int16_t auxSy                       = (y0_p < y1_p) ? 1 : -1;
 3566               		.loc 1 764 5 is_stmt 1 view .LVU878
 764:funsape/device/ssd1306.cpp ****     int16_t auxSy                       = (y0_p < y1_p) ? 1 : -1;
 3567               		.loc 1 764 57 is_stmt 0 view .LVU879
 3568 0078 7314      		cp r7,r3
 3569 007a 00F4      		brsh .L207
 764:funsape/device/ssd1306.cpp ****     int16_t auxSy                       = (y0_p < y1_p) ? 1 : -1;
 3570               		.loc 1 764 13 discriminator 1 view .LVU880
 3571 007c 4424      		clr r4
 3572 007e 4394      		inc r4
 3573 0080 512C      		mov r5,__zero_reg__
 3574               	.L199:
 3575               	.LVL240:
 765:funsape/device/ssd1306.cpp ****     int16_t auxErr                      = auxDx + auxDy;
 3576               		.loc 1 765 5 is_stmt 1 view .LVU881
 765:funsape/device/ssd1306.cpp ****     int16_t auxErr                      = auxDx + auxDy;
 3577               		.loc 1 765 57 is_stmt 0 view .LVU882
 3578 0082 F214      		cp r15,r2
 3579 0084 00F4      		brsh .L208
 765:funsape/device/ssd1306.cpp ****     int16_t auxErr                      = auxDx + auxDy;
 3580               		.loc 1 765 13 discriminator 1 view .LVU883
 3581 0086 6624      		clr r6
 3582 0088 6394      		inc r6
 3583 008a 712C      		mov r7,__zero_reg__
 3584               	.L200:
 3585               	.LVL241:
 766:funsape/device/ssd1306.cpp **** 
 3586               		.loc 1 766 5 is_stmt 1 view .LVU884
 766:funsape/device/ssd1306.cpp **** 
 3587               		.loc 1 766 13 is_stmt 0 view .LVU885
 3588 008c 7401      		movw r14,r8
 3589               	.LVL242:
 766:funsape/device/ssd1306.cpp **** 
 3590               		.loc 1 766 13 view .LVU886
 3591 008e EC0C      		add r14,r12
 3592 0090 FD1C      		adc r15,r13
 3593               	.LVL243:
 3594               	.L201:
 769:funsape/device/ssd1306.cpp ****         this->_setPixel((uint8_t)auxX0, (uint8_t)auxY0, on_p);
 3595               		.loc 1 769 5 is_stmt 1 view .LVU887
 3596               	.LBB52:
 770:funsape/device/ssd1306.cpp ****         if((auxX0 == (int16_t)x1_p) && (auxY0 == (int16_t)y1_p)) {
 3597               		.loc 1 770 9 view .LVU888
 770:funsape/device/ssd1306.cpp ****         if((auxX0 == (int16_t)x1_p) && (auxY0 == (int16_t)y1_p)) {
 3598               		.loc 1 770 24 is_stmt 0 view .LVU889
 3599 0092 2981      		ldd r18,Y+1
 3600 0094 4B81      		ldd r20,Y+3
 3601 0096 602F      		mov r22,r16
 3602 0098 C501      		movw r24,r10
 3603 009a 0E94 0000 		call _ZN7Ssd13069_setPixelEhhb
 3604               	.LVL244:
GAS LISTING /tmp/cc7wpQ70.s 			page 98


 771:funsape/device/ssd1306.cpp ****             break;
 3605               		.loc 1 771 9 is_stmt 1 view .LVU890
 3606 009e 3016      		cp r3,r16
 3607 00a0 1106      		cpc __zero_reg__,r17
 3608 00a2 01F0      		breq .L212
 3609               	.L202:
 774:funsape/device/ssd1306.cpp ****         if(auxErr2 >= auxDy) {
 3610               		.loc 1 774 9 view .LVU891
 774:funsape/device/ssd1306.cpp ****         if(auxErr2 >= auxDy) {
 3611               		.loc 1 774 17 is_stmt 0 view .LVU892
 3612 00a4 C701      		movw r24,r14
 3613 00a6 880F      		lsl r24
 3614 00a8 991F      		rol r25
 3615               	.LVL245:
 775:funsape/device/ssd1306.cpp ****             auxErr                      += auxDy;
 3616               		.loc 1 775 9 is_stmt 1 view .LVU893
 3617 00aa 8C15      		cp r24,r12
 3618 00ac 9D05      		cpc r25,r13
 3619 00ae 04F0      		brlt .L204
 776:funsape/device/ssd1306.cpp ****             auxX0                       += auxSx;
 3620               		.loc 1 776 13 view .LVU894
 776:funsape/device/ssd1306.cpp ****             auxX0                       += auxSx;
 3621               		.loc 1 776 41 is_stmt 0 view .LVU895
 3622 00b0 EC0C      		add r14,r12
 3623 00b2 FD1C      		adc r15,r13
 3624               	.LVL246:
 777:funsape/device/ssd1306.cpp ****         }
 3625               		.loc 1 777 13 is_stmt 1 view .LVU896
 777:funsape/device/ssd1306.cpp ****         }
 3626               		.loc 1 777 41 is_stmt 0 view .LVU897
 3627 00b4 040D      		add r16,r4
 3628 00b6 151D      		adc r17,r5
 3629               	.LVL247:
 3630               	.L204:
 779:funsape/device/ssd1306.cpp ****             auxErr                      += auxDx;
 3631               		.loc 1 779 9 is_stmt 1 view .LVU898
 3632 00b8 8816      		cp r8,r24
 3633 00ba 9906      		cpc r9,r25
 3634 00bc 04F0      		brlt .L201
 780:funsape/device/ssd1306.cpp ****             auxY0                       += auxSy;
 3635               		.loc 1 780 13 view .LVU899
 780:funsape/device/ssd1306.cpp ****             auxY0                       += auxSy;
 3636               		.loc 1 780 41 is_stmt 0 view .LVU900
 3637 00be E80C      		add r14,r8
 3638 00c0 F91C      		adc r15,r9
 3639               	.LVL248:
 781:funsape/device/ssd1306.cpp ****         }
 3640               		.loc 1 781 13 is_stmt 1 view .LVU901
 781:funsape/device/ssd1306.cpp ****         }
 3641               		.loc 1 781 41 is_stmt 0 view .LVU902
 3642 00c2 8B81      		ldd r24,Y+3
 3643 00c4 9C81      		ldd r25,Y+4
 3644               	.LVL249:
 781:funsape/device/ssd1306.cpp ****         }
 3645               		.loc 1 781 41 view .LVU903
 3646 00c6 860D      		add r24,r6
 3647 00c8 971D      		adc r25,r7
GAS LISTING /tmp/cc7wpQ70.s 			page 99


 3648 00ca 9C83      		std Y+4,r25
 3649 00cc 8B83      		std Y+3,r24
 3650               	.LVL250:
 781:funsape/device/ssd1306.cpp ****         }
 3651               		.loc 1 781 41 view .LVU904
 3652 00ce 00C0      		rjmp .L201
 3653               	.LVL251:
 3654               	.L211:
 781:funsape/device/ssd1306.cpp ****         }
 3655               		.loc 1 781 41 view .LVU905
 3656               	.LBE52:
 754:funsape/device/ssd1306.cpp ****         debugMessage(Error::FEATURE_NOT_SUPPORTED, Debug::CodeIndex::SSD1306_MODULE);
 3657               		.loc 1 754 9 is_stmt 1 view .LVU906
 754:funsape/device/ssd1306.cpp ****         debugMessage(Error::FEATURE_NOT_SUPPORTED, Debug::CodeIndex::SSD1306_MODULE);
 3658               		.loc 1 754 26 is_stmt 0 view .LVU907
 3659 00d0 82E4      		ldi r24,lo8(66)
 3660 00d2 90E0      		ldi r25,0
 3661 00d4 9783      		std Z+7,r25
 3662 00d6 8683      		std Z+6,r24
 755:funsape/device/ssd1306.cpp ****         return false;
 3663               		.loc 1 755 9 is_stmt 1 view .LVU908
 756:funsape/device/ssd1306.cpp ****     }
 3664               		.loc 1 756 9 view .LVU909
 756:funsape/device/ssd1306.cpp ****     }
 3665               		.loc 1 756 16 is_stmt 0 view .LVU910
 3666 00d8 00C0      		rjmp .L192
 3667               	.LVL252:
 3668               	.L195:
 762:funsape/device/ssd1306.cpp ****     int16_t auxDy                       = (y1_p >= y0_p) ? -(y1_p - y0_p) : -(y0_p - y1_p);
 3669               		.loc 1 762 13 discriminator 2 view .LVU911
 3670 00da 4801      		movw r8,r16
 3671 00dc 8318      		sub r8,r3
 3672 00de 9108      		sbc r9,__zero_reg__
 3673 00e0 00C0      		rjmp .L196
 3674               	.LVL253:
 3675               	.L197:
 763:funsape/device/ssd1306.cpp ****     int16_t auxSx                       = (x0_p < x1_p) ? 1 : -1;
 3676               		.loc 1 763 86 discriminator 2 view .LVU912
 3677 00e2 C22C      		mov r12,r2
 3678 00e4 D12C      		mov r13,__zero_reg__
 763:funsape/device/ssd1306.cpp ****     int16_t auxSx                       = (x0_p < x1_p) ? 1 : -1;
 3679               		.loc 1 763 13 discriminator 2 view .LVU913
 3680 00e6 8B81      		ldd r24,Y+3
 3681 00e8 9C81      		ldd r25,Y+4
 3682               	.LVL254:
 763:funsape/device/ssd1306.cpp ****     int16_t auxSx                       = (x0_p < x1_p) ? 1 : -1;
 3683               		.loc 1 763 13 discriminator 2 view .LVU914
 3684 00ea C81A      		sub r12,r24
 3685 00ec D90A      		sbc r13,r25
 3686 00ee 00C0      		rjmp .L198
 3687               	.LVL255:
 3688               	.L207:
 764:funsape/device/ssd1306.cpp ****     int16_t auxSy                       = (y0_p < y1_p) ? 1 : -1;
 3689               		.loc 1 764 13 discriminator 2 view .LVU915
 3690 00f0 4424      		clr r4
 3691 00f2 4A94      		dec r4
 3692 00f4 542C      		mov r5,r4
GAS LISTING /tmp/cc7wpQ70.s 			page 100


 3693 00f6 00C0      		rjmp .L199
 3694               	.LVL256:
 3695               	.L208:
 765:funsape/device/ssd1306.cpp ****     int16_t auxErr                      = auxDx + auxDy;
 3696               		.loc 1 765 13 discriminator 2 view .LVU916
 3697 00f8 6624      		clr r6
 3698 00fa 6A94      		dec r6
 3699 00fc 762C      		mov r7,r6
 3700 00fe 00C0      		rjmp .L200
 3701               	.LVL257:
 3702               	.L212:
 3703               	.LBB53:
 771:funsape/device/ssd1306.cpp ****             break;
 3704               		.loc 1 771 37 discriminator 1 view .LVU917
 3705 0100 8B81      		ldd r24,Y+3
 3706 0102 9C81      		ldd r25,Y+4
 3707 0104 2816      		cp r2,r24
 3708 0106 1906      		cpc __zero_reg__,r25
 3709 0108 01F4      		brne .L202
 3710               	.LBE53:
 786:funsape/device/ssd1306.cpp ****     debugMessage(Error::NONE, Debug::CodeIndex::SSD1306_MODULE);
 3711               		.loc 1 786 5 is_stmt 1 view .LVU918
 786:funsape/device/ssd1306.cpp ****     debugMessage(Error::NONE, Debug::CodeIndex::SSD1306_MODULE);
 3712               		.loc 1 786 22 is_stmt 0 view .LVU919
 3713 010a F501      		movw r30,r10
 3714 010c 1782      		std Z+7,__zero_reg__
 3715 010e 1682      		std Z+6,__zero_reg__
 787:funsape/device/ssd1306.cpp ****     return true;
 3716               		.loc 1 787 5 is_stmt 1 view .LVU920
 788:funsape/device/ssd1306.cpp **** }
 3717               		.loc 1 788 5 view .LVU921
 3718               	.LVL258:
 3719               	.L192:
 789:funsape/device/ssd1306.cpp **** 
 3720               		.loc 1 789 1 is_stmt 0 view .LVU922
 3721 0110 8A81      		ldd r24,Y+2
 3722               	/* epilogue start */
 3723 0112 0F90      		pop __tmp_reg__
 3724 0114 0F90      		pop __tmp_reg__
 3725 0116 0F90      		pop __tmp_reg__
 3726 0118 0F90      		pop __tmp_reg__
 3727 011a DF91      		pop r29
 3728 011c CF91      		pop r28
 3729 011e 1F91      		pop r17
 3730 0120 0F91      		pop r16
 3731 0122 FF90      		pop r15
 3732               	.LVL259:
 789:funsape/device/ssd1306.cpp **** 
 3733               		.loc 1 789 1 view .LVU923
 3734 0124 EF90      		pop r14
 3735 0126 DF90      		pop r13
 3736 0128 CF90      		pop r12
 3737 012a BF90      		pop r11
 3738 012c AF90      		pop r10
 3739               	.LVL260:
 789:funsape/device/ssd1306.cpp **** 
 3740               		.loc 1 789 1 view .LVU924
GAS LISTING /tmp/cc7wpQ70.s 			page 101


 3741 012e 9F90      		pop r9
 3742 0130 8F90      		pop r8
 3743 0132 7F90      		pop r7
 3744               	.LVL261:
 789:funsape/device/ssd1306.cpp **** 
 3745               		.loc 1 789 1 view .LVU925
 3746 0134 6F90      		pop r6
 3747 0136 5F90      		pop r5
 3748 0138 4F90      		pop r4
 3749 013a 3F90      		pop r3
 3750               	.LVL262:
 789:funsape/device/ssd1306.cpp **** 
 3751               		.loc 1 789 1 view .LVU926
 3752 013c 2F90      		pop r2
 3753               	.LVL263:
 789:funsape/device/ssd1306.cpp **** 
 3754               		.loc 1 789 1 view .LVU927
 3755 013e 0895      		ret
 3756               		.cfi_endproc
 3757               	.LFE155:
 3759               		.section	.text._ZN7Ssd13068fillRectEhhhhb,"ax",@progbits
 3760               	.global	_ZN7Ssd13068fillRectEhhhhb
 3762               	_ZN7Ssd13068fillRectEhhhhb:
 3763               	.LVL264:
 3764               	.LFB156:
 792:funsape/device/ssd1306.cpp ****     // Mark passage for debugging purpose
 3765               		.loc 1 792 1 is_stmt 1 view -0
 3766               		.cfi_startproc
 792:funsape/device/ssd1306.cpp ****     // Mark passage for debugging purpose
 3767               		.loc 1 792 1 is_stmt 0 view .LVU929
 3768 0000 5F92      		push r5
 3769               	.LCFI121:
 3770               		.cfi_def_cfa_offset 3
 3771               		.cfi_offset 5, -2
 3772 0002 6F92      		push r6
 3773               	.LCFI122:
 3774               		.cfi_def_cfa_offset 4
 3775               		.cfi_offset 6, -3
 3776 0004 7F92      		push r7
 3777               	.LCFI123:
 3778               		.cfi_def_cfa_offset 5
 3779               		.cfi_offset 7, -4
 3780 0006 8F92      		push r8
 3781               	.LCFI124:
 3782               		.cfi_def_cfa_offset 6
 3783               		.cfi_offset 8, -5
 3784 0008 9F92      		push r9
 3785               	.LCFI125:
 3786               		.cfi_def_cfa_offset 7
 3787               		.cfi_offset 9, -6
 3788 000a AF92      		push r10
 3789               	.LCFI126:
 3790               		.cfi_def_cfa_offset 8
 3791               		.cfi_offset 10, -7
 3792 000c BF92      		push r11
 3793               	.LCFI127:
 3794               		.cfi_def_cfa_offset 9
GAS LISTING /tmp/cc7wpQ70.s 			page 102


 3795               		.cfi_offset 11, -8
 3796 000e CF92      		push r12
 3797               	.LCFI128:
 3798               		.cfi_def_cfa_offset 10
 3799               		.cfi_offset 12, -9
 3800 0010 DF92      		push r13
 3801               	.LCFI129:
 3802               		.cfi_def_cfa_offset 11
 3803               		.cfi_offset 13, -10
 3804 0012 EF92      		push r14
 3805               	.LCFI130:
 3806               		.cfi_def_cfa_offset 12
 3807               		.cfi_offset 14, -11
 3808 0014 FF92      		push r15
 3809               	.LCFI131:
 3810               		.cfi_def_cfa_offset 13
 3811               		.cfi_offset 15, -12
 3812 0016 0F93      		push r16
 3813               	.LCFI132:
 3814               		.cfi_def_cfa_offset 14
 3815               		.cfi_offset 16, -13
 3816 0018 1F93      		push r17
 3817               	.LCFI133:
 3818               		.cfi_def_cfa_offset 15
 3819               		.cfi_offset 17, -14
 3820 001a CF93      		push r28
 3821               	.LCFI134:
 3822               		.cfi_def_cfa_offset 16
 3823               		.cfi_offset 28, -15
 3824 001c DF93      		push r29
 3825               	.LCFI135:
 3826               		.cfi_def_cfa_offset 17
 3827               		.cfi_offset 29, -16
 3828 001e CDB7      		in r28,__SP_L__
 3829 0020 DEB7      		in r29,__SP_H__
 3830               	.LCFI136:
 3831               		.cfi_def_cfa_register 28
 3832 0022 6097      		sbiw r28,16
 3833               	.LCFI137:
 3834               		.cfi_def_cfa_offset 33
 3835 0024 0FB6      		in __tmp_reg__,__SREG__
 3836 0026 F894      		cli
 3837 0028 DEBF      		out __SP_H__,r29
 3838 002a 0FBE      		out __SREG__,__tmp_reg__
 3839 002c CDBF      		out __SP_L__,r28
 3840               	/* prologue: function */
 3841               	/* frame size = 16 */
 3842               	/* stack size = 31 */
 3843               	.L__stack_usage = 31
 3844 002e 6C01      		movw r12,r24
 3845 0030 F62E      		mov r15,r22
 3846 0032 142F      		mov r17,r20
 3847 0034 842E      		mov r8,r20
 3848 0036 922E      		mov r9,r18
 794:funsape/device/ssd1306.cpp ****             Debug::CodeIndex::SSD1306_MODULE);
 3849               		.loc 1 794 5 is_stmt 1 view .LVU930
 798:funsape/device/ssd1306.cpp ****         // Returns error
GAS LISTING /tmp/cc7wpQ70.s 			page 103


 3850               		.loc 1 798 5 view .LVU931
 798:funsape/device/ssd1306.cpp ****         // Returns error
 3851               		.loc 1 798 29 is_stmt 0 view .LVU932
 3852 0038 0E94 0000 		call _ZN7Ssd130614_isInitializedEv
 3853               	.LVL265:
 798:funsape/device/ssd1306.cpp ****         // Returns error
 3854               		.loc 1 798 29 view .LVU933
 3855 003c B82E      		mov r11,r24
 798:funsape/device/ssd1306.cpp ****         // Returns error
 3856               		.loc 1 798 5 discriminator 1 view .LVU934
 3857 003e 8030      		cpi r24,lo8(0)
 3858 0040 01F0      		breq .L213
 803:funsape/device/ssd1306.cpp ****         // Returns error
 3859               		.loc 1 803 5 is_stmt 1 view .LVU935
 3860 0042 F114      		cp r15,__zero_reg__
 3861 0044 04F0      		brlt .L216
 803:funsape/device/ssd1306.cpp ****         // Returns error
 3862               		.loc 1 803 55 is_stmt 0 discriminator 1 view .LVU936
 3863 0046 F601      		movw r30,r12
 3864 0048 A284      		ldd r10,Z+10
 803:funsape/device/ssd1306.cpp ****         // Returns error
 3865               		.loc 1 803 35 discriminator 1 view .LVU937
 3866 004a 1A15      		cp r17,r10
 3867 004c 00F4      		brsh .L216
 803:funsape/device/ssd1306.cpp ****         // Returns error
 3868               		.loc 1 803 63 discriminator 2 view .LVU938
 3869 004e 9114      		cp r9,__zero_reg__
 3870 0050 01F0      		breq .L216
 803:funsape/device/ssd1306.cpp ****         // Returns error
 3871               		.loc 1 803 81 discriminator 3 view .LVU939
 3872 0052 0030      		cpi r16,lo8(0)
 3873 0054 01F0      		breq .L216
 811:funsape/device/ssd1306.cpp ****         uint16_t auxBottom = (uint16_t)(page_p + heightPages_p) * 8;         // exclusive
 3874               		.loc 1 811 5 is_stmt 1 view .LVU940
 3875               	.LBB54:
 811:funsape/device/ssd1306.cpp ****         uint16_t auxBottom = (uint16_t)(page_p + heightPages_p) * 8;         // exclusive
 3876               		.loc 1 811 14 is_stmt 0 view .LVU941
 3877 0056 8581      		ldd r24,Z+5
 3878 0058 81FB      		bst r24,1
 3879 005a 9927      		clr r25
 3880 005c 90F9      		bld r25,0
 3881 005e 592E      		mov r5,r25
 811:funsape/device/ssd1306.cpp ****         uint16_t auxBottom = (uint16_t)(page_p + heightPages_p) * 8;         // exclusive
 3882               		.loc 1 811 5 view .LVU942
 3883 0060 81FD      		sbrc r24,1
 3884 0062 00C0      		rjmp .L239
 3885               	.LBE54:
 824:funsape/device/ssd1306.cpp ****     uint8_t auxValue                    = (on_p) ? 0xFF : 0x00;
 3886               		.loc 1 824 5 is_stmt 1 view .LVU943
 825:funsape/device/ssd1306.cpp ****     uint8_t auxWidth                    = width_p;
 3887               		.loc 1 825 5 view .LVU944
 825:funsape/device/ssd1306.cpp ****     uint8_t auxWidth                    = width_p;
 3888               		.loc 1 825 13 is_stmt 0 view .LVU945
 3889 0064 E114      		cp r14,__zero_reg__
 3890 0066 01F4      		brne .+2
 3891 0068 00C0      		rjmp .L234
 825:funsape/device/ssd1306.cpp ****     uint8_t auxWidth                    = width_p;
GAS LISTING /tmp/cc7wpQ70.s 			page 104


 3892               		.loc 1 825 13 discriminator 1 view .LVU946
 3893 006a 9FEF      		ldi r25,lo8(-1)
 3894               	.L223:
 3895               	.LVL266:
 826:funsape/device/ssd1306.cpp ****     uint8_t auxLastPage                 = page_p + heightPages_p;
 3896               		.loc 1 826 5 is_stmt 1 view .LVU947
 827:funsape/device/ssd1306.cpp **** 
 3897               		.loc 1 827 5 view .LVU948
 827:funsape/device/ssd1306.cpp **** 
 3898               		.loc 1 827 13 is_stmt 0 view .LVU949
 3899 006c 080D      		add r16,r8
 3900               	.LVL267:
 829:funsape/device/ssd1306.cpp ****         auxWidth = constSsd1306Width - x_p;
 3901               		.loc 1 829 5 is_stmt 1 view .LVU950
 829:funsape/device/ssd1306.cpp ****         auxWidth = constSsd1306Width - x_p;
 3902               		.loc 1 829 13 is_stmt 0 view .LVU951
 3903 006e 2F2D      		mov r18,r15
 3904 0070 290D      		add r18,r9
 3905 0072 3327      		clr r19
 3906 0074 331F      		rol r19
 829:funsape/device/ssd1306.cpp ****         auxWidth = constSsd1306Width - x_p;
 3907               		.loc 1 829 5 view .LVU952
 3908 0076 2138      		cpi r18,-127
 3909 0078 3040      		sbci r19,0
 3910 007a 04F0      		brlt .L224
 830:funsape/device/ssd1306.cpp ****     }
 3911               		.loc 1 830 9 is_stmt 1 view .LVU953
 830:funsape/device/ssd1306.cpp ****     }
 3912               		.loc 1 830 18 is_stmt 0 view .LVU954
 3913 007c 80E8      		ldi r24,lo8(-128)
 3914 007e 8F19      		sub r24,r15
 3915 0080 982E      		mov r9,r24
 3916               	.LVL268:
 3917               	.L224:
 832:funsape/device/ssd1306.cpp ****         auxLastPage = this->_pages;
 3918               		.loc 1 832 5 is_stmt 1 view .LVU955
 3919 0082 A016      		cp r10,r16
 3920 0084 00F0      		brlo .L225
 827:funsape/device/ssd1306.cpp **** 
 3921               		.loc 1 827 13 is_stmt 0 view .LVU956
 3922 0086 A02E      		mov r10,r16
 3923               	.L225:
 3924               	.LVL269:
 835:funsape/device/ssd1306.cpp ****         auxBuffer[i] = auxValue;
 3925               		.loc 1 835 5 is_stmt 1 view .LVU957
 3926               	.LBB59:
 835:funsape/device/ssd1306.cpp ****         auxBuffer[i] = auxValue;
 3927               		.loc 1 835 17 is_stmt 0 view .LVU958
 3928 0088 80E0      		ldi r24,0
 835:funsape/device/ssd1306.cpp ****         auxBuffer[i] = auxValue;
 3929               		.loc 1 835 5 view .LVU959
 3930 008a 00C0      		rjmp .L226
 3931               	.LVL270:
 3932               	.L216:
 835:funsape/device/ssd1306.cpp ****         auxBuffer[i] = auxValue;
 3933               		.loc 1 835 5 view .LVU960
 3934               	.LBE59:
GAS LISTING /tmp/cc7wpQ70.s 			page 105


 805:funsape/device/ssd1306.cpp ****         debugMessage(Error::ARGUMENT_VALUE_INVALID, Debug::CodeIndex::SSD1306_MODULE);
 3935               		.loc 1 805 9 is_stmt 1 view .LVU961
 805:funsape/device/ssd1306.cpp ****         debugMessage(Error::ARGUMENT_VALUE_INVALID, Debug::CodeIndex::SSD1306_MODULE);
 3936               		.loc 1 805 26 is_stmt 0 view .LVU962
 3937 008c 82E5      		ldi r24,lo8(82)
 3938 008e 90E0      		ldi r25,0
 3939 0090 F601      		movw r30,r12
 3940 0092 9783      		std Z+7,r25
 3941 0094 8683      		std Z+6,r24
 806:funsape/device/ssd1306.cpp ****         return false;
 3942               		.loc 1 806 9 is_stmt 1 view .LVU963
 807:funsape/device/ssd1306.cpp ****     }
 3943               		.loc 1 807 9 view .LVU964
 807:funsape/device/ssd1306.cpp ****     }
 3944               		.loc 1 807 16 is_stmt 0 view .LVU965
 3945 0096 B12C      		mov r11,__zero_reg__
 3946               	.LVL271:
 3947               	.L213:
 862:funsape/device/ssd1306.cpp **** 
 3948               		.loc 1 862 1 view .LVU966
 3949 0098 8B2D      		mov r24,r11
 3950               	/* epilogue start */
 3951 009a 6096      		adiw r28,16
 3952 009c 0FB6      		in __tmp_reg__,__SREG__
 3953 009e F894      		cli
 3954 00a0 DEBF      		out __SP_H__,r29
 3955 00a2 0FBE      		out __SREG__,__tmp_reg__
 3956 00a4 CDBF      		out __SP_L__,r28
 3957 00a6 DF91      		pop r29
 3958 00a8 CF91      		pop r28
 3959 00aa 1F91      		pop r17
 3960 00ac 0F91      		pop r16
 3961 00ae FF90      		pop r15
 3962               	.LVL272:
 862:funsape/device/ssd1306.cpp **** 
 3963               		.loc 1 862 1 view .LVU967
 3964 00b0 EF90      		pop r14
 3965               	.LVL273:
 862:funsape/device/ssd1306.cpp **** 
 3966               		.loc 1 862 1 view .LVU968
 3967 00b2 DF90      		pop r13
 3968 00b4 CF90      		pop r12
 3969               	.LVL274:
 862:funsape/device/ssd1306.cpp **** 
 3970               		.loc 1 862 1 view .LVU969
 3971 00b6 BF90      		pop r11
 3972 00b8 AF90      		pop r10
 3973 00ba 9F90      		pop r9
 3974 00bc 8F90      		pop r8
 3975 00be 7F90      		pop r7
 3976 00c0 6F90      		pop r6
 3977 00c2 5F90      		pop r5
 3978 00c4 0895      		ret
 3979               	.LVL275:
 3980               	.L239:
 3981               	.LBB60:
 3982               	.LBB55:
GAS LISTING /tmp/cc7wpQ70.s 			page 106


 812:funsape/device/ssd1306.cpp ****         for(uint16_t y = (uint16_t)(page_p * 8); y < auxBottom; y++) {
 3983               		.loc 1 812 9 is_stmt 1 view .LVU970
 812:funsape/device/ssd1306.cpp ****         for(uint16_t y = (uint16_t)(page_p * 8); y < auxBottom; y++) {
 3984               		.loc 1 812 41 is_stmt 0 view .LVU971
 3985 00c6 A12E      		mov r10,r17
 3986 00c8 B12C      		mov r11,__zero_reg__
 812:funsape/device/ssd1306.cpp ****         for(uint16_t y = (uint16_t)(page_p * 8); y < auxBottom; y++) {
 3987               		.loc 1 812 48 view .LVU972
 3988 00ca 010F      		add r16,r17
 3989 00cc 1127      		clr r17
 3990 00ce 111F      		rol r17
 3991               	.LVL276:
 812:funsape/device/ssd1306.cpp ****         for(uint16_t y = (uint16_t)(page_p * 8); y < auxBottom; y++) {
 3992               		.loc 1 812 18 view .LVU973
 3993 00d0 000F      		lsl r16
 3994 00d2 111F      		rol r17
 3995 00d4 000F      		lsl r16
 3996 00d6 111F      		rol r17
 3997 00d8 000F      		lsl r16
 3998 00da 111F      		rol r17
 3999 00dc 3801      		movw r6,r16
 4000               	.LVL277:
 813:funsape/device/ssd1306.cpp ****             for(uint16_t x = x_p; x < (uint16_t)(x_p + width_p); x++) {
 4001               		.loc 1 813 9 is_stmt 1 view .LVU974
 4002               	.LBB56:
 813:funsape/device/ssd1306.cpp ****             for(uint16_t x = x_p; x < (uint16_t)(x_p + width_p); x++) {
 4003               		.loc 1 813 44 is_stmt 0 view .LVU975
 4004 00de AA0C      		lsl r10
 4005 00e0 BB1C      		rol r11
 4006 00e2 AA0C      		lsl r10
 4007 00e4 BB1C      		rol r11
 4008 00e6 AA0C      		lsl r10
 4009 00e8 BB1C      		rol r11
 4010               	.LVL278:
 813:funsape/device/ssd1306.cpp ****             for(uint16_t x = x_p; x < (uint16_t)(x_p + width_p); x++) {
 4011               		.loc 1 813 9 view .LVU976
 4012 00ea 00C0      		rjmp .L219
 4013               	.LVL279:
 4014               	.L221:
 4015               	.LBB57:
 815:funsape/device/ssd1306.cpp ****             }
 4016               		.loc 1 815 17 is_stmt 1 view .LVU977
 815:funsape/device/ssd1306.cpp ****             }
 4017               		.loc 1 815 32 is_stmt 0 view .LVU978
 4018 00ec 2E2D      		mov r18,r14
 4019 00ee 4A2D      		mov r20,r10
 4020 00f0 602F      		mov r22,r16
 4021 00f2 C601      		movw r24,r12
 4022 00f4 0E94 0000 		call _ZN7Ssd13069_setPixelEhhb
 4023               	.LVL280:
 814:funsape/device/ssd1306.cpp ****                 this->_setPixel((uint8_t)x, (uint8_t)y, on_p);
 4024               		.loc 1 814 13 is_stmt 1 discriminator 1 view .LVU979
 4025 00f8 0F5F      		subi r16,-1
 4026 00fa 1F4F      		sbci r17,-1
 4027               	.LVL281:
 4028               	.L220:
 814:funsape/device/ssd1306.cpp ****                 this->_setPixel((uint8_t)x, (uint8_t)y, on_p);
GAS LISTING /tmp/cc7wpQ70.s 			page 107


 4029               		.loc 1 814 37 discriminator 2 view .LVU980
 814:funsape/device/ssd1306.cpp ****                 this->_setPixel((uint8_t)x, (uint8_t)y, on_p);
 4030               		.loc 1 814 54 is_stmt 0 discriminator 2 view .LVU981
 4031 00fc 8F2D      		mov r24,r15
 4032 00fe 890D      		add r24,r9
 4033 0100 9927      		clr r25
 4034 0102 991F      		rol r25
 814:funsape/device/ssd1306.cpp ****                 this->_setPixel((uint8_t)x, (uint8_t)y, on_p);
 4035               		.loc 1 814 37 discriminator 2 view .LVU982
 4036 0104 0817      		cp r16,r24
 4037 0106 1907      		cpc r17,r25
 4038 0108 00F0      		brlo .L221
 4039               	.LBE57:
 813:funsape/device/ssd1306.cpp ****             for(uint16_t x = x_p; x < (uint16_t)(x_p + width_p); x++) {
 4040               		.loc 1 813 9 is_stmt 1 discriminator 1 view .LVU983
 4041 010a 8FEF      		ldi r24,-1
 4042 010c A81A      		sub r10,r24
 4043 010e B80A      		sbc r11,r24
 4044               	.LVL282:
 4045               	.L219:
 813:funsape/device/ssd1306.cpp ****             for(uint16_t x = x_p; x < (uint16_t)(x_p + width_p); x++) {
 4046               		.loc 1 813 52 discriminator 2 view .LVU984
 4047 0110 A614      		cp r10,r6
 4048 0112 B704      		cpc r11,r7
 4049 0114 00F4      		brsh .L240
 814:funsape/device/ssd1306.cpp ****                 this->_setPixel((uint8_t)x, (uint8_t)y, on_p);
 4050               		.loc 1 814 13 view .LVU985
 4051               	.LBB58:
 814:funsape/device/ssd1306.cpp ****                 this->_setPixel((uint8_t)x, (uint8_t)y, on_p);
 4052               		.loc 1 814 26 is_stmt 0 view .LVU986
 4053 0116 0F2D      		mov r16,r15
 4054 0118 10E0      		ldi r17,0
 4055               	.LVL283:
 814:funsape/device/ssd1306.cpp ****                 this->_setPixel((uint8_t)x, (uint8_t)y, on_p);
 4056               		.loc 1 814 13 view .LVU987
 4057 011a 00C0      		rjmp .L220
 4058               	.LVL284:
 4059               	.L240:
 814:funsape/device/ssd1306.cpp ****                 this->_setPixel((uint8_t)x, (uint8_t)y, on_p);
 4060               		.loc 1 814 13 view .LVU988
 4061               	.LBE58:
 4062               	.LBE56:
 818:funsape/device/ssd1306.cpp ****         debugMessage(Error::NONE, Debug::CodeIndex::SSD1306_MODULE);
 4063               		.loc 1 818 9 is_stmt 1 view .LVU989
 818:funsape/device/ssd1306.cpp ****         debugMessage(Error::NONE, Debug::CodeIndex::SSD1306_MODULE);
 4064               		.loc 1 818 26 is_stmt 0 view .LVU990
 4065 011c F601      		movw r30,r12
 4066 011e 1782      		std Z+7,__zero_reg__
 4067 0120 1682      		std Z+6,__zero_reg__
 819:funsape/device/ssd1306.cpp ****         return true;
 4068               		.loc 1 819 9 is_stmt 1 view .LVU991
 820:funsape/device/ssd1306.cpp ****     }
 4069               		.loc 1 820 9 view .LVU992
 820:funsape/device/ssd1306.cpp ****     }
 4070               		.loc 1 820 16 is_stmt 0 view .LVU993
 4071 0122 B52C      		mov r11,r5
 4072 0124 00C0      		rjmp .L213
GAS LISTING /tmp/cc7wpQ70.s 			page 108


 4073               	.LVL285:
 4074               	.L234:
 820:funsape/device/ssd1306.cpp ****     }
 4075               		.loc 1 820 16 view .LVU994
 4076               	.LBE55:
 4077               	.LBE60:
 825:funsape/device/ssd1306.cpp ****     uint8_t auxWidth                    = width_p;
 4078               		.loc 1 825 13 discriminator 2 view .LVU995
 4079 0126 90E0      		ldi r25,0
 4080 0128 00C0      		rjmp .L223
 4081               	.LVL286:
 4082               	.L227:
 4083               	.LBB61:
 836:funsape/device/ssd1306.cpp ****     }
 4084               		.loc 1 836 9 is_stmt 1 view .LVU996
 836:funsape/device/ssd1306.cpp ****     }
 4085               		.loc 1 836 22 is_stmt 0 view .LVU997
 4086 012a FE01      		movw r30,r28
 4087 012c 3196      		adiw r30,1
 4088 012e E80F      		add r30,r24
 4089 0130 F11D      		adc r31,__zero_reg__
 4090 0132 9083      		st Z,r25
 835:funsape/device/ssd1306.cpp ****         auxBuffer[i] = auxValue;
 4091               		.loc 1 835 5 is_stmt 1 discriminator 1 view .LVU998
 4092 0134 8F5F      		subi r24,lo8(-(1))
 4093               	.LVL287:
 4094               	.L226:
 835:funsape/device/ssd1306.cpp ****         auxBuffer[i] = auxValue;
 4095               		.loc 1 835 26 discriminator 2 view .LVU999
 4096 0136 8031      		cpi r24,lo8(16)
 4097 0138 00F0      		brlo .L227
 4098               	.LVL288:
 4099               	.L228:
 835:funsape/device/ssd1306.cpp ****         auxBuffer[i] = auxValue;
 4100               		.loc 1 835 26 is_stmt 0 discriminator 2 view .LVU1000
 4101               	.LBE61:
 4102               	.LBB62:
 840:funsape/device/ssd1306.cpp ****         if(!this->_setAddress(page, x_p)) {
 4103               		.loc 1 840 37 is_stmt 1 discriminator 2 view .LVU1001
 4104 013a 8A14      		cp r8,r10
 4105 013c 00F4      		brsh .L241
 4106               	.LBB63:
 841:funsape/device/ssd1306.cpp ****             // Returns error
 4107               		.loc 1 841 9 view .LVU1002
 841:funsape/device/ssd1306.cpp ****             // Returns error
 4108               		.loc 1 841 30 is_stmt 0 view .LVU1003
 4109 013e 4F2D      		mov r20,r15
 4110 0140 682D      		mov r22,r8
 4111 0142 C601      		movw r24,r12
 4112 0144 0E94 0000 		call _ZN7Ssd130611_setAddressEhh
 4113               	.LVL289:
 841:funsape/device/ssd1306.cpp ****             // Returns error
 4114               		.loc 1 841 9 discriminator 1 view .LVU1004
 4115 0148 8030      		cpi r24,lo8(0)
 4116 014a 01F0      		breq .L242
 846:funsape/device/ssd1306.cpp ****         while(remaining > 0) {
 4117               		.loc 1 846 17 view .LVU1005
GAS LISTING /tmp/cc7wpQ70.s 			page 109


 4118 014c 192D      		mov r17,r9
 4119 014e 00C0      		rjmp .L229
 4120               	.L242:
 841:funsape/device/ssd1306.cpp ****             // Returns error
 4121               		.loc 1 841 9 discriminator 1 view .LVU1006
 4122 0150 B82E      		mov r11,r24
 4123 0152 00C0      		rjmp .L213
 4124               	.LVL290:
 4125               	.L236:
 4126               	.LBB64:
 848:funsape/device/ssd1306.cpp ****             if(!this->_writeData(auxBuffer, chunk)) {
 4127               		.loc 1 848 21 discriminator 1 view .LVU1007
 4128 0154 012F      		mov r16,r17
 4129               	.L230:
 4130               	.LVL291:
 849:funsape/device/ssd1306.cpp ****                 // Returns error
 4131               		.loc 1 849 13 is_stmt 1 view .LVU1008
 849:funsape/device/ssd1306.cpp ****                 // Returns error
 4132               		.loc 1 849 33 is_stmt 0 view .LVU1009
 4133 0156 402F      		mov r20,r16
 4134 0158 BE01      		movw r22,r28
 4135 015a 6F5F      		subi r22,-1
 4136 015c 7F4F      		sbci r23,-1
 4137 015e C601      		movw r24,r12
 4138 0160 0E94 0000 		call _ZN7Ssd130610_writeDataEPKhh
 4139               	.LVL292:
 849:funsape/device/ssd1306.cpp ****                 // Returns error
 4140               		.loc 1 849 13 discriminator 1 view .LVU1010
 4141 0164 8030      		cpi r24,lo8(0)
 4142 0166 01F0      		breq .L237
 854:funsape/device/ssd1306.cpp ****         }
 4143               		.loc 1 854 13 is_stmt 1 view .LVU1011
 854:funsape/device/ssd1306.cpp ****         }
 4144               		.loc 1 854 23 is_stmt 0 view .LVU1012
 4145 0168 101B      		sub r17,r16
 4146               	.LVL293:
 4147               	.L229:
 854:funsape/device/ssd1306.cpp ****         }
 4148               		.loc 1 854 23 view .LVU1013
 4149               	.LBE64:
 847:funsape/device/ssd1306.cpp ****             uint8_t chunk = (remaining > constSsd1306DataChunk) ? constSsd1306DataChunk : remaining
 4150               		.loc 1 847 25 is_stmt 1 discriminator 1 view .LVU1014
 4151 016a 1030      		cpi r17,lo8(0)
 4152 016c 01F0      		breq .L243
 4153               	.LBB65:
 848:funsape/device/ssd1306.cpp ****             if(!this->_writeData(auxBuffer, chunk)) {
 4154               		.loc 1 848 13 view .LVU1015
 848:funsape/device/ssd1306.cpp ****             if(!this->_writeData(auxBuffer, chunk)) {
 4155               		.loc 1 848 65 is_stmt 0 view .LVU1016
 4156 016e 1131      		cpi r17,lo8(17)
 4157 0170 00F0      		brlo .L236
 848:funsape/device/ssd1306.cpp ****             if(!this->_writeData(auxBuffer, chunk)) {
 4158               		.loc 1 848 21 discriminator 2 view .LVU1017
 4159 0172 00E1      		ldi r16,lo8(16)
 4160 0174 00C0      		rjmp .L230
 4161               	.L243:
 4162               	.LVL294:
GAS LISTING /tmp/cc7wpQ70.s 			page 110


 848:funsape/device/ssd1306.cpp ****             if(!this->_writeData(auxBuffer, chunk)) {
 4163               		.loc 1 848 21 discriminator 2 view .LVU1018
 4164               	.LBE65:
 4165               	.LBE63:
 840:funsape/device/ssd1306.cpp ****         if(!this->_setAddress(page, x_p)) {
 4166               		.loc 1 840 5 is_stmt 1 discriminator 1 view .LVU1019
 4167 0176 882D      		mov r24,r8
 4168 0178 8F5F      		subi r24,lo8(-(1))
 4169 017a 882E      		mov r8,r24
 4170               	.LVL295:
 840:funsape/device/ssd1306.cpp ****         if(!this->_setAddress(page, x_p)) {
 4171               		.loc 1 840 5 is_stmt 0 discriminator 1 view .LVU1020
 4172 017c 00C0      		rjmp .L228
 4173               	.LVL296:
 4174               	.L241:
 840:funsape/device/ssd1306.cpp ****         if(!this->_setAddress(page, x_p)) {
 4175               		.loc 1 840 5 discriminator 1 view .LVU1021
 4176               	.LBE62:
 859:funsape/device/ssd1306.cpp ****     debugMessage(Error::NONE, Debug::CodeIndex::SSD1306_MODULE);
 4177               		.loc 1 859 5 is_stmt 1 view .LVU1022
 859:funsape/device/ssd1306.cpp ****     debugMessage(Error::NONE, Debug::CodeIndex::SSD1306_MODULE);
 4178               		.loc 1 859 22 is_stmt 0 view .LVU1023
 4179 017e F601      		movw r30,r12
 4180 0180 1782      		std Z+7,__zero_reg__
 4181 0182 1682      		std Z+6,__zero_reg__
 860:funsape/device/ssd1306.cpp ****     return true;
 4182               		.loc 1 860 5 is_stmt 1 view .LVU1024
 861:funsape/device/ssd1306.cpp **** }
 4183               		.loc 1 861 5 view .LVU1025
 861:funsape/device/ssd1306.cpp **** }
 4184               		.loc 1 861 12 is_stmt 0 view .LVU1026
 4185 0184 00C0      		rjmp .L213
 4186               	.LVL297:
 4187               	.L237:
 4188               	.LBB68:
 4189               	.LBB67:
 4190               	.LBB66:
 849:funsape/device/ssd1306.cpp ****                 // Returns error
 4191               		.loc 1 849 13 discriminator 1 view .LVU1027
 4192 0186 B82E      		mov r11,r24
 4193               	.LVL298:
 849:funsape/device/ssd1306.cpp ****                 // Returns error
 4194               		.loc 1 849 13 discriminator 1 view .LVU1028
 4195 0188 00C0      		rjmp .L213
 4196               	.LBE66:
 4197               	.LBE67:
 4198               	.LBE68:
 4199               		.cfi_endproc
 4200               	.LFE156:
 4202               		.section	.text._ZN7Ssd13068drawRectEhhhh,"ax",@progbits
 4203               	.global	_ZN7Ssd13068drawRectEhhhh
 4205               	_ZN7Ssd13068drawRectEhhhh:
 4206               	.LVL299:
 4207               	.LFB157:
 865:funsape/device/ssd1306.cpp ****     // Mark passage for debugging purpose
 4208               		.loc 1 865 1 is_stmt 1 view -0
 4209               		.cfi_startproc
GAS LISTING /tmp/cc7wpQ70.s 			page 111


 865:funsape/device/ssd1306.cpp ****     // Mark passage for debugging purpose
 4210               		.loc 1 865 1 is_stmt 0 view .LVU1030
 4211 0000 7F92      		push r7
 4212               	.LCFI138:
 4213               		.cfi_def_cfa_offset 3
 4214               		.cfi_offset 7, -2
 4215 0002 8F92      		push r8
 4216               	.LCFI139:
 4217               		.cfi_def_cfa_offset 4
 4218               		.cfi_offset 8, -3
 4219 0004 9F92      		push r9
 4220               	.LCFI140:
 4221               		.cfi_def_cfa_offset 5
 4222               		.cfi_offset 9, -4
 4223 0006 AF92      		push r10
 4224               	.LCFI141:
 4225               		.cfi_def_cfa_offset 6
 4226               		.cfi_offset 10, -5
 4227 0008 BF92      		push r11
 4228               	.LCFI142:
 4229               		.cfi_def_cfa_offset 7
 4230               		.cfi_offset 11, -6
 4231 000a CF92      		push r12
 4232               	.LCFI143:
 4233               		.cfi_def_cfa_offset 8
 4234               		.cfi_offset 12, -7
 4235 000c DF92      		push r13
 4236               	.LCFI144:
 4237               		.cfi_def_cfa_offset 9
 4238               		.cfi_offset 13, -8
 4239 000e EF92      		push r14
 4240               	.LCFI145:
 4241               		.cfi_def_cfa_offset 10
 4242               		.cfi_offset 14, -9
 4243 0010 FF92      		push r15
 4244               	.LCFI146:
 4245               		.cfi_def_cfa_offset 11
 4246               		.cfi_offset 15, -10
 4247 0012 0F93      		push r16
 4248               	.LCFI147:
 4249               		.cfi_def_cfa_offset 12
 4250               		.cfi_offset 16, -11
 4251 0014 1F93      		push r17
 4252               	.LCFI148:
 4253               		.cfi_def_cfa_offset 13
 4254               		.cfi_offset 17, -12
 4255 0016 CF93      		push r28
 4256               	.LCFI149:
 4257               		.cfi_def_cfa_offset 14
 4258               		.cfi_offset 28, -13
 4259 0018 DF93      		push r29
 4260               	.LCFI150:
 4261               		.cfi_def_cfa_offset 15
 4262               		.cfi_offset 29, -14
 4263 001a CDB7      		in r28,__SP_L__
 4264 001c DEB7      		in r29,__SP_H__
 4265               	.LCFI151:
GAS LISTING /tmp/cc7wpQ70.s 			page 112


 4266               		.cfi_def_cfa_register 28
 4267 001e 6097      		sbiw r28,16
 4268               	.LCFI152:
 4269               		.cfi_def_cfa_offset 31
 4270 0020 0FB6      		in __tmp_reg__,__SREG__
 4271 0022 F894      		cli
 4272 0024 DEBF      		out __SP_H__,r29
 4273 0026 0FBE      		out __SREG__,__tmp_reg__
 4274 0028 CDBF      		out __SP_L__,r28
 4275               	/* prologue: function */
 4276               	/* frame size = 16 */
 4277               	/* stack size = 29 */
 4278               	.L__stack_usage = 29
 4279 002a 7C01      		movw r14,r24
 4280 002c D62E      		mov r13,r22
 4281 002e 862E      		mov r8,r22
 4282 0030 C42E      		mov r12,r20
 4283 0032 122F      		mov r17,r18
 867:funsape/device/ssd1306.cpp ****             Debug::CodeIndex::SSD1306_MODULE);
 4284               		.loc 1 867 5 is_stmt 1 view .LVU1031
 871:funsape/device/ssd1306.cpp ****         // Returns error
 4285               		.loc 1 871 5 view .LVU1032
 871:funsape/device/ssd1306.cpp ****         // Returns error
 4286               		.loc 1 871 29 is_stmt 0 view .LVU1033
 4287 0034 0E94 0000 		call _ZN7Ssd130614_isInitializedEv
 4288               	.LVL300:
 871:funsape/device/ssd1306.cpp ****         // Returns error
 4289               		.loc 1 871 29 view .LVU1034
 4290 0038 B82E      		mov r11,r24
 871:funsape/device/ssd1306.cpp ****         // Returns error
 4291               		.loc 1 871 5 discriminator 1 view .LVU1035
 4292 003a 8030      		cpi r24,lo8(0)
 4293 003c 01F0      		breq .L244
 876:funsape/device/ssd1306.cpp ****         // Returns error
 4294               		.loc 1 876 5 is_stmt 1 view .LVU1036
 4295 003e D114      		cp r13,__zero_reg__
 4296 0040 04F0      		brlt .L247
 876:funsape/device/ssd1306.cpp ****         // Returns error
 4297               		.loc 1 876 55 is_stmt 0 discriminator 1 view .LVU1037
 4298 0042 F701      		movw r30,r14
 4299 0044 9284      		ldd r9,Z+10
 876:funsape/device/ssd1306.cpp ****         // Returns error
 4300               		.loc 1 876 35 discriminator 1 view .LVU1038
 4301 0046 C914      		cp r12,r9
 4302 0048 00F4      		brsh .L247
 876:funsape/device/ssd1306.cpp ****         // Returns error
 4303               		.loc 1 876 63 discriminator 2 view .LVU1039
 4304 004a 1230      		cpi r17,lo8(2)
 4305 004c 00F0      		brlo .L247
 876:funsape/device/ssd1306.cpp ****         // Returns error
 4306               		.loc 1 876 80 discriminator 3 view .LVU1040
 4307 004e 0030      		cpi r16,lo8(0)
 4308 0050 01F0      		breq .L247
 884:funsape/device/ssd1306.cpp ****         uint16_t auxBottom16 = (uint16_t)(page_p + heightPages_p) * 8;
 4309               		.loc 1 884 5 is_stmt 1 view .LVU1041
 4310               	.LBB69:
 884:funsape/device/ssd1306.cpp ****         uint16_t auxBottom16 = (uint16_t)(page_p + heightPages_p) * 8;
GAS LISTING /tmp/cc7wpQ70.s 			page 113


 4311               		.loc 1 884 14 is_stmt 0 view .LVU1042
 4312 0052 8581      		ldd r24,Z+5
 4313 0054 81FB      		bst r24,1
 4314 0056 DD24      		clr r13
 4315 0058 D0F8      		bld r13,0
 884:funsape/device/ssd1306.cpp ****         uint16_t auxBottom16 = (uint16_t)(page_p + heightPages_p) * 8;
 4316               		.loc 1 884 5 view .LVU1043
 4317 005a 81FD      		sbrc r24,1
 4318 005c 00C0      		rjmp .L277
 4319               	.LBE69:
 911:funsape/device/ssd1306.cpp ****     uint8_t auxWidth                    = width_p;
 4320               		.loc 1 911 5 is_stmt 1 view .LVU1044
 912:funsape/device/ssd1306.cpp ****     uint8_t auxLastPage                 = page_p + heightPages_p;
 4321               		.loc 1 912 5 view .LVU1045
 4322               	.LVL301:
 913:funsape/device/ssd1306.cpp **** 
 4323               		.loc 1 913 5 view .LVU1046
 913:funsape/device/ssd1306.cpp **** 
 4324               		.loc 1 913 13 is_stmt 0 view .LVU1047
 4325 005e 802F      		mov r24,r16
 4326 0060 8C0D      		add r24,r12
 4327               	.LVL302:
 915:funsape/device/ssd1306.cpp ****         auxWidth = constSsd1306Width - x_p;
 4328               		.loc 1 915 5 is_stmt 1 view .LVU1048
 915:funsape/device/ssd1306.cpp ****         auxWidth = constSsd1306Width - x_p;
 4329               		.loc 1 915 13 is_stmt 0 view .LVU1049
 4330 0062 282D      		mov r18,r8
 4331 0064 210F      		add r18,r17
 4332 0066 3327      		clr r19
 4333 0068 331F      		rol r19
 915:funsape/device/ssd1306.cpp ****         auxWidth = constSsd1306Width - x_p;
 4334               		.loc 1 915 5 view .LVU1050
 4335 006a 2138      		cpi r18,-127
 4336 006c 3040      		sbci r19,0
 4337 006e 04F0      		brlt .L256
 916:funsape/device/ssd1306.cpp ****     }
 4338               		.loc 1 916 9 is_stmt 1 view .LVU1051
 916:funsape/device/ssd1306.cpp ****     }
 4339               		.loc 1 916 18 is_stmt 0 view .LVU1052
 4340 0070 10E8      		ldi r17,lo8(-128)
 4341               	.LVL303:
 916:funsape/device/ssd1306.cpp ****     }
 4342               		.loc 1 916 18 view .LVU1053
 4343 0072 1819      		sub r17,r8
 4344               	.L256:
 4345               	.LVL304:
 918:funsape/device/ssd1306.cpp ****         auxLastPage = this->_pages;
 4346               		.loc 1 918 5 is_stmt 1 view .LVU1054
 4347 0074 9816      		cp r9,r24
 4348 0076 00F0      		brlo .L257
 913:funsape/device/ssd1306.cpp **** 
 4349               		.loc 1 913 13 is_stmt 0 view .LVU1055
 4350 0078 982E      		mov r9,r24
 4351               	.L257:
 4352               	.LVL305:
 923:funsape/device/ssd1306.cpp ****         bool_t auxIsTopPage             = (page == page_p);
 4353               		.loc 1 923 5 is_stmt 1 view .LVU1056
GAS LISTING /tmp/cc7wpQ70.s 			page 114


 4354               	.LBB73:
 923:funsape/device/ssd1306.cpp ****         bool_t auxIsTopPage             = (page == page_p);
 4355               		.loc 1 923 17 is_stmt 0 view .LVU1057
 4356 007a DC2C      		mov r13,r12
 923:funsape/device/ssd1306.cpp ****         bool_t auxIsTopPage             = (page == page_p);
 4357               		.loc 1 923 5 view .LVU1058
 4358 007c 00C0      		rjmp .L258
 4359               	.LVL306:
 4360               	.L247:
 923:funsape/device/ssd1306.cpp ****         bool_t auxIsTopPage             = (page == page_p);
 4361               		.loc 1 923 5 view .LVU1059
 4362               	.LBE73:
 878:funsape/device/ssd1306.cpp ****         debugMessage(Error::ARGUMENT_VALUE_INVALID, Debug::CodeIndex::SSD1306_MODULE);
 4363               		.loc 1 878 9 is_stmt 1 view .LVU1060
 878:funsape/device/ssd1306.cpp ****         debugMessage(Error::ARGUMENT_VALUE_INVALID, Debug::CodeIndex::SSD1306_MODULE);
 4364               		.loc 1 878 26 is_stmt 0 view .LVU1061
 4365 007e 82E5      		ldi r24,lo8(82)
 4366 0080 90E0      		ldi r25,0
 4367 0082 F701      		movw r30,r14
 4368 0084 9783      		std Z+7,r25
 4369 0086 8683      		std Z+6,r24
 879:funsape/device/ssd1306.cpp ****         return false;
 4370               		.loc 1 879 9 is_stmt 1 view .LVU1062
 880:funsape/device/ssd1306.cpp ****     }
 4371               		.loc 1 880 9 view .LVU1063
 880:funsape/device/ssd1306.cpp ****     }
 4372               		.loc 1 880 16 is_stmt 0 view .LVU1064
 4373 0088 B12C      		mov r11,__zero_reg__
 4374               	.LVL307:
 4375               	.L244:
 968:funsape/device/ssd1306.cpp **** 
 4376               		.loc 1 968 1 view .LVU1065
 4377 008a 8B2D      		mov r24,r11
 4378               	/* epilogue start */
 4379 008c 6096      		adiw r28,16
 4380 008e 0FB6      		in __tmp_reg__,__SREG__
 4381 0090 F894      		cli
 4382 0092 DEBF      		out __SP_H__,r29
 4383 0094 0FBE      		out __SREG__,__tmp_reg__
 4384 0096 CDBF      		out __SP_L__,r28
 4385 0098 DF91      		pop r29
 4386 009a CF91      		pop r28
 4387 009c 1F91      		pop r17
 4388 009e 0F91      		pop r16
 4389 00a0 FF90      		pop r15
 4390 00a2 EF90      		pop r14
 4391               	.LVL308:
 968:funsape/device/ssd1306.cpp **** 
 4392               		.loc 1 968 1 view .LVU1066
 4393 00a4 DF90      		pop r13
 4394 00a6 CF90      		pop r12
 4395 00a8 BF90      		pop r11
 4396 00aa AF90      		pop r10
 4397 00ac 9F90      		pop r9
 4398 00ae 8F90      		pop r8
 4399               	.LVL309:
 968:funsape/device/ssd1306.cpp **** 
GAS LISTING /tmp/cc7wpQ70.s 			page 115


 4400               		.loc 1 968 1 view .LVU1067
 4401 00b0 7F90      		pop r7
 4402 00b2 0895      		ret
 4403               	.LVL310:
 4404               	.L277:
 4405               	.LBB83:
 4406               	.LBB70:
 885:funsape/device/ssd1306.cpp ****         uint16_t auxRight16  = (uint16_t)x_p + width_p;
 4407               		.loc 1 885 9 is_stmt 1 view .LVU1068
 885:funsape/device/ssd1306.cpp ****         uint16_t auxRight16  = (uint16_t)x_p + width_p;
 4408               		.loc 1 885 50 is_stmt 0 view .LVU1069
 4409 00b4 802F      		mov r24,r16
 4410 00b6 8C0D      		add r24,r12
 4411 00b8 9927      		clr r25
 4412 00ba 991F      		rol r25
 885:funsape/device/ssd1306.cpp ****         uint16_t auxRight16  = (uint16_t)x_p + width_p;
 4413               		.loc 1 885 18 view .LVU1070
 4414 00bc 880F      		lsl r24
 4415 00be 991F      		rol r25
 4416 00c0 880F      		lsl r24
 4417 00c2 991F      		rol r25
 4418 00c4 880F      		lsl r24
 4419 00c6 991F      		rol r25
 4420               	.LVL311:
 886:funsape/device/ssd1306.cpp ****         if(auxBottom16 > (uint16_t)(this->_pages * 8)) {
 4421               		.loc 1 886 9 is_stmt 1 view .LVU1071
 886:funsape/device/ssd1306.cpp ****         if(auxBottom16 > (uint16_t)(this->_pages * 8)) {
 4422               		.loc 1 886 32 is_stmt 0 view .LVU1072
 4423 00c8 A82C      		mov r10,r8
 4424 00ca B12C      		mov r11,__zero_reg__
 886:funsape/device/ssd1306.cpp ****         if(auxBottom16 > (uint16_t)(this->_pages * 8)) {
 4425               		.loc 1 886 18 view .LVU1073
 4426 00cc 682D      		mov r22,r8
 4427 00ce 610F      		add r22,r17
 4428 00d0 7727      		clr r23
 4429 00d2 771F      		rol r23
 4430               	.LVL312:
 887:funsape/device/ssd1306.cpp ****             auxBottom16 = (uint16_t)(this->_pages * 8);
 4431               		.loc 1 887 9 is_stmt 1 view .LVU1074
 887:funsape/device/ssd1306.cpp ****             auxBottom16 = (uint16_t)(this->_pages * 8);
 4432               		.loc 1 887 43 is_stmt 0 view .LVU1075
 4433 00d4 492D      		mov r20,r9
 4434 00d6 50E0      		ldi r21,0
 887:funsape/device/ssd1306.cpp ****             auxBottom16 = (uint16_t)(this->_pages * 8);
 4435               		.loc 1 887 50 view .LVU1076
 4436 00d8 440F      		lsl r20
 4437 00da 551F      		rol r21
 4438 00dc 440F      		lsl r20
 4439 00de 551F      		rol r21
 4440 00e0 440F      		lsl r20
 4441 00e2 551F      		rol r21
 887:funsape/device/ssd1306.cpp ****             auxBottom16 = (uint16_t)(this->_pages * 8);
 4442               		.loc 1 887 9 view .LVU1077
 4443 00e4 4817      		cp r20,r24
 4444 00e6 5907      		cpc r21,r25
 4445 00e8 00F0      		brlo .L250
 885:funsape/device/ssd1306.cpp ****         uint16_t auxRight16  = (uint16_t)x_p + width_p;
GAS LISTING /tmp/cc7wpQ70.s 			page 116


 4446               		.loc 1 885 18 view .LVU1078
 4447 00ea AC01      		movw r20,r24
 4448               	.L250:
 4449               	.LVL313:
 890:funsape/device/ssd1306.cpp ****             auxRight16 = constSsd1306Width;
 4450               		.loc 1 890 9 is_stmt 1 view .LVU1079
 4451 00ec 6138      		cpi r22,-127
 4452 00ee 7105      		cpc r23,__zero_reg__
 4453 00f0 00F0      		brlo .L251
 891:funsape/device/ssd1306.cpp ****         }
 4454               		.loc 1 891 24 is_stmt 0 view .LVU1080
 4455 00f2 60E8      		ldi r22,lo8(-128)
 4456 00f4 70E0      		ldi r23,0
 4457               	.LVL314:
 4458               	.L251:
 893:funsape/device/ssd1306.cpp ****         uint8_t auxBottom   = (uint8_t)(auxBottom16 - 1);
 4459               		.loc 1 893 9 is_stmt 1 view .LVU1081
 893:funsape/device/ssd1306.cpp ****         uint8_t auxBottom   = (uint8_t)(auxBottom16 - 1);
 4460               		.loc 1 893 17 is_stmt 0 view .LVU1082
 4461 00f6 CC0C      		lsl r12
 4462 00f8 CC0C      		lsl r12
 4463 00fa CC0C      		lsl r12
 4464               	.LVL315:
 894:funsape/device/ssd1306.cpp ****         uint8_t auxRight    = (uint8_t)(auxRight16 - 1);
 4465               		.loc 1 894 9 is_stmt 1 view .LVU1083
 894:funsape/device/ssd1306.cpp ****         uint8_t auxRight    = (uint8_t)(auxRight16 - 1);
 4466               		.loc 1 894 17 is_stmt 0 view .LVU1084
 4467 00fc 842F      		mov r24,r20
 4468 00fe 8150      		subi r24,lo8(-(-1))
 4469 0100 982E      		mov r9,r24
 4470               	.LVL316:
 895:funsape/device/ssd1306.cpp **** 
 4471               		.loc 1 895 9 is_stmt 1 view .LVU1085
 895:funsape/device/ssd1306.cpp **** 
 4472               		.loc 1 895 17 is_stmt 0 view .LVU1086
 4473 0102 862F      		mov r24,r22
 4474 0104 8150      		subi r24,lo8(-(-1))
 4475 0106 782E      		mov r7,r24
 4476               	.LVL317:
 897:funsape/device/ssd1306.cpp ****             this->_setPixel((uint8_t)x, auxTop, true);
 4477               		.loc 1 897 9 is_stmt 1 view .LVU1087
 4478               	.L252:
 4479               	.LBB71:
 897:funsape/device/ssd1306.cpp ****             this->_setPixel((uint8_t)x, auxTop, true);
 4480               		.loc 1 897 33 discriminator 2 view .LVU1088
 4481 0108 7A14      		cp r7,r10
 4482 010a 1B04      		cpc __zero_reg__,r11
 4483 010c 00F0      		brlo .L278
 898:funsape/device/ssd1306.cpp ****             this->_setPixel((uint8_t)x, auxBottom, true);
 4484               		.loc 1 898 13 view .LVU1089
 898:funsape/device/ssd1306.cpp ****             this->_setPixel((uint8_t)x, auxBottom, true);
 4485               		.loc 1 898 28 is_stmt 0 view .LVU1090
 4486 010e 21E0      		ldi r18,lo8(1)
 4487 0110 4C2D      		mov r20,r12
 4488 0112 6A2D      		mov r22,r10
 4489 0114 C701      		movw r24,r14
 4490 0116 0E94 0000 		call _ZN7Ssd13069_setPixelEhhb
GAS LISTING /tmp/cc7wpQ70.s 			page 117


 4491               	.LVL318:
 899:funsape/device/ssd1306.cpp ****         }
 4492               		.loc 1 899 13 is_stmt 1 view .LVU1091
 899:funsape/device/ssd1306.cpp ****         }
 4493               		.loc 1 899 28 is_stmt 0 view .LVU1092
 4494 011a 21E0      		ldi r18,lo8(1)
 4495 011c 492D      		mov r20,r9
 4496 011e 6A2D      		mov r22,r10
 4497 0120 C701      		movw r24,r14
 4498 0122 0E94 0000 		call _ZN7Ssd13069_setPixelEhhb
 4499               	.LVL319:
 897:funsape/device/ssd1306.cpp ****             this->_setPixel((uint8_t)x, auxTop, true);
 4500               		.loc 1 897 9 is_stmt 1 discriminator 1 view .LVU1093
 4501 0126 8FEF      		ldi r24,-1
 4502 0128 A81A      		sub r10,r24
 4503 012a B80A      		sbc r11,r24
 4504               	.LVL320:
 897:funsape/device/ssd1306.cpp ****             this->_setPixel((uint8_t)x, auxTop, true);
 4505               		.loc 1 897 9 is_stmt 0 discriminator 1 view .LVU1094
 4506 012c 00C0      		rjmp .L252
 4507               	.LVL321:
 4508               	.L278:
 897:funsape/device/ssd1306.cpp ****             this->_setPixel((uint8_t)x, auxTop, true);
 4509               		.loc 1 897 9 discriminator 1 view .LVU1095
 4510               	.LBE71:
 901:funsape/device/ssd1306.cpp ****             this->_setPixel(x_p, (uint8_t)y, true);
 4511               		.loc 1 901 9 is_stmt 1 view .LVU1096
 4512               	.LBB72:
 901:funsape/device/ssd1306.cpp ****             this->_setPixel(x_p, (uint8_t)y, true);
 4513               		.loc 1 901 22 is_stmt 0 view .LVU1097
 4514 012e 0C2D      		mov r16,r12
 4515               	.LVL322:
 901:funsape/device/ssd1306.cpp ****             this->_setPixel(x_p, (uint8_t)y, true);
 4516               		.loc 1 901 22 view .LVU1098
 4517 0130 10E0      		ldi r17,0
 4518               	.LVL323:
 4519               	.L254:
 901:funsape/device/ssd1306.cpp ****             this->_setPixel(x_p, (uint8_t)y, true);
 4520               		.loc 1 901 36 is_stmt 1 discriminator 2 view .LVU1099
 4521 0132 9016      		cp r9,r16
 4522 0134 1106      		cpc __zero_reg__,r17
 4523 0136 00F0      		brlo .L279
 902:funsape/device/ssd1306.cpp ****             this->_setPixel(auxRight, (uint8_t)y, true);
 4524               		.loc 1 902 13 view .LVU1100
 902:funsape/device/ssd1306.cpp ****             this->_setPixel(auxRight, (uint8_t)y, true);
 4525               		.loc 1 902 28 is_stmt 0 view .LVU1101
 4526 0138 21E0      		ldi r18,lo8(1)
 4527 013a 402F      		mov r20,r16
 4528 013c 682D      		mov r22,r8
 4529 013e C701      		movw r24,r14
 4530 0140 0E94 0000 		call _ZN7Ssd13069_setPixelEhhb
 4531               	.LVL324:
 903:funsape/device/ssd1306.cpp ****         }
 4532               		.loc 1 903 13 is_stmt 1 view .LVU1102
 903:funsape/device/ssd1306.cpp ****         }
 4533               		.loc 1 903 28 is_stmt 0 view .LVU1103
 4534 0144 21E0      		ldi r18,lo8(1)
GAS LISTING /tmp/cc7wpQ70.s 			page 118


 4535 0146 402F      		mov r20,r16
 4536 0148 672D      		mov r22,r7
 4537 014a C701      		movw r24,r14
 4538 014c 0E94 0000 		call _ZN7Ssd13069_setPixelEhhb
 4539               	.LVL325:
 901:funsape/device/ssd1306.cpp ****             this->_setPixel(x_p, (uint8_t)y, true);
 4540               		.loc 1 901 9 is_stmt 1 discriminator 1 view .LVU1104
 4541 0150 0F5F      		subi r16,-1
 4542 0152 1F4F      		sbci r17,-1
 4543               	.LVL326:
 901:funsape/device/ssd1306.cpp ****             this->_setPixel(x_p, (uint8_t)y, true);
 4544               		.loc 1 901 9 is_stmt 0 discriminator 1 view .LVU1105
 4545 0154 00C0      		rjmp .L254
 4546               	.LVL327:
 4547               	.L279:
 901:funsape/device/ssd1306.cpp ****             this->_setPixel(x_p, (uint8_t)y, true);
 4548               		.loc 1 901 9 discriminator 1 view .LVU1106
 4549               	.LBE72:
 905:funsape/device/ssd1306.cpp ****         debugMessage(Error::NONE, Debug::CodeIndex::SSD1306_MODULE);
 4550               		.loc 1 905 9 is_stmt 1 view .LVU1107
 905:funsape/device/ssd1306.cpp ****         debugMessage(Error::NONE, Debug::CodeIndex::SSD1306_MODULE);
 4551               		.loc 1 905 26 is_stmt 0 view .LVU1108
 4552 0156 F701      		movw r30,r14
 4553 0158 1782      		std Z+7,__zero_reg__
 4554 015a 1682      		std Z+6,__zero_reg__
 906:funsape/device/ssd1306.cpp ****         return true;
 4555               		.loc 1 906 9 is_stmt 1 view .LVU1109
 907:funsape/device/ssd1306.cpp ****     }
 4556               		.loc 1 907 9 view .LVU1110
 907:funsape/device/ssd1306.cpp ****     }
 4557               		.loc 1 907 16 is_stmt 0 view .LVU1111
 4558 015c BD2C      		mov r11,r13
 4559 015e 00C0      		rjmp .L244
 4560               	.LVL328:
 4561               	.L284:
 907:funsape/device/ssd1306.cpp ****     }
 4562               		.loc 1 907 16 view .LVU1112
 4563               	.LBE70:
 4564               	.LBE83:
 4565               	.LBB84:
 4566               	.LBB74:
 931:funsape/device/ssd1306.cpp ****         }
 4567               		.loc 1 931 20 view .LVU1113
 4568 0160 B82E      		mov r11,r24
 4569 0162 00C0      		rjmp .L244
 4570               	.LVL329:
 4571               	.L260:
 4572               	.LBB75:
 4573               	.LBB76:
 936:funsape/device/ssd1306.cpp ****             } else {
 4574               		.loc 1 936 41 view .LVU1114
 4575 0164 9FEF      		ldi r25,lo8(-1)
 4576               	.LVL330:
 4577               	.L262:
 945:funsape/device/ssd1306.cpp ****             if(auxIndex == constSsd1306DataChunk) {
 4578               		.loc 1 945 13 is_stmt 1 view .LVU1115
 945:funsape/device/ssd1306.cpp ****             if(auxIndex == constSsd1306DataChunk) {
GAS LISTING /tmp/cc7wpQ70.s 			page 119


 4579               		.loc 1 945 31 is_stmt 0 view .LVU1116
 4580 0166 482F      		mov r20,r24
 4581 0168 4F5F      		subi r20,lo8(-(1))
 4582               	.LVL331:
 945:funsape/device/ssd1306.cpp ****             if(auxIndex == constSsd1306DataChunk) {
 4583               		.loc 1 945 41 view .LVU1117
 4584 016a FE01      		movw r30,r28
 4585 016c 3196      		adiw r30,1
 4586 016e E80F      		add r30,r24
 4587 0170 F11D      		adc r31,__zero_reg__
 4588 0172 9083      		st Z,r25
 946:funsape/device/ssd1306.cpp ****                 if(!this->_writeData(auxBuffer, auxIndex)) {
 4589               		.loc 1 946 13 is_stmt 1 view .LVU1118
 4590 0174 8F30      		cpi r24,lo8(15)
 4591 0176 01F0      		breq .L280
 4592               	.LVL332:
 4593               	.L264:
 946:funsape/device/ssd1306.cpp ****                 if(!this->_writeData(auxBuffer, auxIndex)) {
 4594               		.loc 1 946 13 is_stmt 0 view .LVU1119
 4595               	.LBE76:
 933:funsape/device/ssd1306.cpp ****             uint8_t auxByte             = 0x00;
 4596               		.loc 1 933 9 is_stmt 1 discriminator 1 view .LVU1120
 4597 0178 0F5F      		subi r16,lo8(-(1))
 4598               	.LVL333:
 933:funsape/device/ssd1306.cpp ****             uint8_t auxByte             = 0x00;
 4599               		.loc 1 933 9 is_stmt 0 discriminator 1 view .LVU1121
 4600 017a 842F      		mov r24,r20
 4601               	.LVL334:
 4602               	.L259:
 933:funsape/device/ssd1306.cpp ****             uint8_t auxByte             = 0x00;
 4603               		.loc 1 933 30 is_stmt 1 discriminator 2 view .LVU1122
 4604 017c 0117      		cp r16,r17
 4605 017e 00F4      		brsh .L281
 4606               	.LBB77:
 934:funsape/device/ssd1306.cpp ****             if((i == 0) || (i == (uint8_t)(auxWidth - 1))) {
 4607               		.loc 1 934 13 view .LVU1123
 4608               	.LVL335:
 935:funsape/device/ssd1306.cpp ****                 auxByte                 = 0xFF;                 // left / right side
 4609               		.loc 1 935 13 view .LVU1124
 4610 0180 0030      		cpi r16,lo8(0)
 4611 0182 01F0      		breq .L260
 935:funsape/device/ssd1306.cpp ****                 auxByte                 = 0xFF;                 // left / right side
 4612               		.loc 1 935 53 is_stmt 0 discriminator 1 view .LVU1125
 4613 0184 912F      		mov r25,r17
 4614 0186 9150      		subi r25,lo8(-(-1))
 935:funsape/device/ssd1306.cpp ****                 auxByte                 = 0xFF;                 // left / right side
 4615               		.loc 1 935 25 discriminator 1 view .LVU1126
 4616 0188 9017      		cp r25,r16
 4617 018a 01F0      		breq .L260
 938:funsape/device/ssd1306.cpp ****                     auxByte             |= 0x01;                // top edge
 4618               		.loc 1 938 17 is_stmt 1 view .LVU1127
 4619 018c DC14      		cp r13,r12
 4620 018e 01F0      		breq .L271
 934:funsape/device/ssd1306.cpp ****             if((i == 0) || (i == (uint8_t)(auxWidth - 1))) {
 4621               		.loc 1 934 21 is_stmt 0 view .LVU1128
 4622 0190 90E0      		ldi r25,0
 4623               	.L263:
GAS LISTING /tmp/cc7wpQ70.s 			page 120


 4624               	.LVL336:
 941:funsape/device/ssd1306.cpp ****                     auxByte             |= 0x80;                // bottom edge
 4625               		.loc 1 941 17 is_stmt 1 view .LVU1129
 4626 0192 AD10      		cpse r10,r13
 4627 0194 00C0      		rjmp .L262
 942:funsape/device/ssd1306.cpp ****                 }
 4628               		.loc 1 942 21 view .LVU1130
 942:funsape/device/ssd1306.cpp ****                 }
 4629               		.loc 1 942 41 is_stmt 0 view .LVU1131
 4630 0196 9068      		ori r25,lo8(-128)
 4631               	.LVL337:
 942:funsape/device/ssd1306.cpp ****                 }
 4632               		.loc 1 942 41 view .LVU1132
 4633 0198 00C0      		rjmp .L262
 4634               	.LVL338:
 4635               	.L271:
 939:funsape/device/ssd1306.cpp ****                 }
 4636               		.loc 1 939 41 view .LVU1133
 4637 019a 91E0      		ldi r25,lo8(1)
 4638 019c 00C0      		rjmp .L263
 4639               	.LVL339:
 4640               	.L280:
 947:funsape/device/ssd1306.cpp ****                     // Returns error
 4641               		.loc 1 947 17 is_stmt 1 view .LVU1134
 947:funsape/device/ssd1306.cpp ****                     // Returns error
 4642               		.loc 1 947 37 is_stmt 0 view .LVU1135
 4643 019e BE01      		movw r22,r28
 4644 01a0 6F5F      		subi r22,-1
 4645 01a2 7F4F      		sbci r23,-1
 4646 01a4 C701      		movw r24,r14
 4647 01a6 0E94 0000 		call _ZN7Ssd130610_writeDataEPKhh
 4648               	.LVL340:
 947:funsape/device/ssd1306.cpp ****                     // Returns error
 4649               		.loc 1 947 17 discriminator 1 view .LVU1136
 4650 01aa 8030      		cpi r24,lo8(0)
 4651 01ac 01F0      		breq .L272
 952:funsape/device/ssd1306.cpp ****             }
 4652               		.loc 1 952 41 view .LVU1137
 4653 01ae 40E0      		ldi r20,0
 4654 01b0 00C0      		rjmp .L264
 4655               	.LVL341:
 4656               	.L281:
 952:funsape/device/ssd1306.cpp ****             }
 4657               		.loc 1 952 41 view .LVU1138
 4658               	.LBE77:
 4659               	.LBE75:
 955:funsape/device/ssd1306.cpp ****             if(!this->_writeData(auxBuffer, auxIndex)) {
 4660               		.loc 1 955 9 is_stmt 1 view .LVU1139
 4661 01b2 8111      		cpse r24,__zero_reg__
 4662 01b4 00C0      		rjmp .L282
 4663               	.LVL342:
 4664               	.L266:
 955:funsape/device/ssd1306.cpp ****             if(!this->_writeData(auxBuffer, auxIndex)) {
 4665               		.loc 1 955 9 is_stmt 0 view .LVU1140
 4666               	.LBE74:
 923:funsape/device/ssd1306.cpp ****         bool_t auxIsTopPage             = (page == page_p);
 4667               		.loc 1 923 5 is_stmt 1 discriminator 1 view .LVU1141
GAS LISTING /tmp/cc7wpQ70.s 			page 121


 4668 01b6 D394      		inc r13
 4669               	.LVL343:
 4670               	.L258:
 923:funsape/device/ssd1306.cpp ****         bool_t auxIsTopPage             = (page == page_p);
 4671               		.loc 1 923 37 discriminator 2 view .LVU1142
 4672 01b8 D914      		cp r13,r9
 4673 01ba 00F4      		brsh .L283
 4674               	.LBB81:
 924:funsape/device/ssd1306.cpp ****         bool_t auxIsBottomPage          = (page == (uint8_t)(auxLastPage - 1));
 4675               		.loc 1 924 9 view .LVU1143
 4676               	.LVL344:
 925:funsape/device/ssd1306.cpp ****         uint8_t auxIndex                = 0;
 4677               		.loc 1 925 9 view .LVU1144
 925:funsape/device/ssd1306.cpp ****         uint8_t auxIndex                = 0;
 4678               		.loc 1 925 74 is_stmt 0 view .LVU1145
 4679 01bc A92C      		mov r10,r9
 4680 01be AA94      		dec r10
 4681               	.LVL345:
 926:funsape/device/ssd1306.cpp **** 
 4682               		.loc 1 926 9 is_stmt 1 view .LVU1146
 928:funsape/device/ssd1306.cpp ****             // Returns error
 4683               		.loc 1 928 9 view .LVU1147
 928:funsape/device/ssd1306.cpp ****             // Returns error
 4684               		.loc 1 928 30 is_stmt 0 view .LVU1148
 4685 01c0 482D      		mov r20,r8
 4686 01c2 6D2D      		mov r22,r13
 4687 01c4 C701      		movw r24,r14
 4688 01c6 0E94 0000 		call _ZN7Ssd130611_setAddressEhh
 4689               	.LVL346:
 928:funsape/device/ssd1306.cpp ****             // Returns error
 4690               		.loc 1 928 9 discriminator 1 view .LVU1149
 4691 01ca 8030      		cpi r24,lo8(0)
 4692 01cc 01F0      		breq .L284
 4693               	.LBB79:
 933:funsape/device/ssd1306.cpp ****             uint8_t auxByte             = 0x00;
 4694               		.loc 1 933 21 view .LVU1150
 4695 01ce 00E0      		ldi r16,0
 4696               	.LBE79:
 926:funsape/device/ssd1306.cpp **** 
 4697               		.loc 1 926 17 view .LVU1151
 4698 01d0 80E0      		ldi r24,0
 4699 01d2 00C0      		rjmp .L259
 4700               	.LVL347:
 4701               	.L282:
 956:funsape/device/ssd1306.cpp ****                 // Returns error
 4702               		.loc 1 956 13 is_stmt 1 view .LVU1152
 956:funsape/device/ssd1306.cpp ****                 // Returns error
 4703               		.loc 1 956 33 is_stmt 0 view .LVU1153
 4704 01d4 482F      		mov r20,r24
 4705 01d6 BE01      		movw r22,r28
 4706 01d8 6F5F      		subi r22,-1
 4707 01da 7F4F      		sbci r23,-1
 4708 01dc C701      		movw r24,r14
 4709               	.LVL348:
 956:funsape/device/ssd1306.cpp ****                 // Returns error
 4710               		.loc 1 956 33 view .LVU1154
 4711 01de 0E94 0000 		call _ZN7Ssd130610_writeDataEPKhh
GAS LISTING /tmp/cc7wpQ70.s 			page 122


 4712               	.LVL349:
 956:funsape/device/ssd1306.cpp ****                 // Returns error
 4713               		.loc 1 956 13 discriminator 1 view .LVU1155
 4714 01e2 8111      		cpse r24,__zero_reg__
 4715 01e4 00C0      		rjmp .L266
 959:funsape/device/ssd1306.cpp ****             }
 4716               		.loc 1 959 24 view .LVU1156
 4717 01e6 B82E      		mov r11,r24
 4718 01e8 00C0      		rjmp .L244
 4719               	.LVL350:
 4720               	.L283:
 959:funsape/device/ssd1306.cpp ****             }
 4721               		.loc 1 959 24 view .LVU1157
 4722               	.LBE81:
 4723               	.LBE84:
 965:funsape/device/ssd1306.cpp ****     debugMessage(Error::NONE, Debug::CodeIndex::SSD1306_MODULE);
 4724               		.loc 1 965 5 is_stmt 1 view .LVU1158
 965:funsape/device/ssd1306.cpp ****     debugMessage(Error::NONE, Debug::CodeIndex::SSD1306_MODULE);
 4725               		.loc 1 965 22 is_stmt 0 view .LVU1159
 4726 01ea F701      		movw r30,r14
 4727 01ec 1782      		std Z+7,__zero_reg__
 4728 01ee 1682      		std Z+6,__zero_reg__
 966:funsape/device/ssd1306.cpp ****     return true;
 4729               		.loc 1 966 5 is_stmt 1 view .LVU1160
 967:funsape/device/ssd1306.cpp **** }
 4730               		.loc 1 967 5 view .LVU1161
 967:funsape/device/ssd1306.cpp **** }
 4731               		.loc 1 967 12 is_stmt 0 view .LVU1162
 4732 01f0 00C0      		rjmp .L244
 4733               	.LVL351:
 4734               	.L272:
 4735               	.LBB85:
 4736               	.LBB82:
 4737               	.LBB80:
 4738               	.LBB78:
 950:funsape/device/ssd1306.cpp ****                 }
 4739               		.loc 1 950 28 view .LVU1163
 4740 01f2 B82E      		mov r11,r24
 4741 01f4 00C0      		rjmp .L244
 4742               	.LBE78:
 4743               	.LBE80:
 4744               	.LBE82:
 4745               	.LBE85:
 4746               		.cfi_endproc
 4747               	.LFE157:
 4749               		.section	.text._ZN7Ssd13069drawHLineEhhh,"ax",@progbits
 4750               	.global	_ZN7Ssd13069drawHLineEhhh
 4752               	_ZN7Ssd13069drawHLineEhhh:
 4753               	.LVL352:
 4754               	.LFB158:
 971:funsape/device/ssd1306.cpp ****     // Mark passage for debugging purpose
 4755               		.loc 1 971 1 is_stmt 1 view -0
 4756               		.cfi_startproc
 971:funsape/device/ssd1306.cpp ****     // Mark passage for debugging purpose
 4757               		.loc 1 971 1 is_stmt 0 view .LVU1165
 4758 0000 AF92      		push r10
 4759               	.LCFI153:
GAS LISTING /tmp/cc7wpQ70.s 			page 123


 4760               		.cfi_def_cfa_offset 3
 4761               		.cfi_offset 10, -2
 4762 0002 BF92      		push r11
 4763               	.LCFI154:
 4764               		.cfi_def_cfa_offset 4
 4765               		.cfi_offset 11, -3
 4766 0004 CF92      		push r12
 4767               	.LCFI155:
 4768               		.cfi_def_cfa_offset 5
 4769               		.cfi_offset 12, -4
 4770 0006 DF92      		push r13
 4771               	.LCFI156:
 4772               		.cfi_def_cfa_offset 6
 4773               		.cfi_offset 13, -5
 4774 0008 EF92      		push r14
 4775               	.LCFI157:
 4776               		.cfi_def_cfa_offset 7
 4777               		.cfi_offset 14, -6
 4778 000a FF92      		push r15
 4779               	.LCFI158:
 4780               		.cfi_def_cfa_offset 8
 4781               		.cfi_offset 15, -7
 4782 000c 0F93      		push r16
 4783               	.LCFI159:
 4784               		.cfi_def_cfa_offset 9
 4785               		.cfi_offset 16, -8
 4786 000e 1F93      		push r17
 4787               	.LCFI160:
 4788               		.cfi_def_cfa_offset 10
 4789               		.cfi_offset 17, -9
 4790 0010 CF93      		push r28
 4791               	.LCFI161:
 4792               		.cfi_def_cfa_offset 11
 4793               		.cfi_offset 28, -10
 4794 0012 DF93      		push r29
 4795               	.LCFI162:
 4796               		.cfi_def_cfa_offset 12
 4797               		.cfi_offset 29, -11
 4798 0014 CDB7      		in r28,__SP_L__
 4799 0016 DEB7      		in r29,__SP_H__
 4800               	.LCFI163:
 4801               		.cfi_def_cfa_register 28
 4802 0018 6097      		sbiw r28,16
 4803               	.LCFI164:
 4804               		.cfi_def_cfa_offset 28
 4805 001a 0FB6      		in __tmp_reg__,__SREG__
 4806 001c F894      		cli
 4807 001e DEBF      		out __SP_H__,r29
 4808 0020 0FBE      		out __SREG__,__tmp_reg__
 4809 0022 CDBF      		out __SP_L__,r28
 4810               	/* prologue: function */
 4811               	/* frame size = 16 */
 4812               	/* stack size = 26 */
 4813               	.L__stack_usage = 26
 4814 0024 7C01      		movw r14,r24
 4815 0026 D62E      		mov r13,r22
 4816 0028 B42E      		mov r11,r20
GAS LISTING /tmp/cc7wpQ70.s 			page 124


 4817 002a C42E      		mov r12,r20
 4818 002c 122F      		mov r17,r18
 973:funsape/device/ssd1306.cpp **** 
 4819               		.loc 1 973 5 is_stmt 1 view .LVU1166
 976:funsape/device/ssd1306.cpp ****         // Returns error
 4820               		.loc 1 976 5 view .LVU1167
 976:funsape/device/ssd1306.cpp ****         // Returns error
 4821               		.loc 1 976 29 is_stmt 0 view .LVU1168
 4822 002e 0E94 0000 		call _ZN7Ssd130614_isInitializedEv
 4823               	.LVL353:
 976:funsape/device/ssd1306.cpp ****         // Returns error
 4824               		.loc 1 976 29 view .LVU1169
 4825 0032 082F      		mov r16,r24
 976:funsape/device/ssd1306.cpp ****         // Returns error
 4826               		.loc 1 976 5 discriminator 1 view .LVU1170
 4827 0034 8030      		cpi r24,lo8(0)
 4828 0036 01F0      		breq .L285
 981:funsape/device/ssd1306.cpp ****         // Returns error
 4829               		.loc 1 981 5 is_stmt 1 view .LVU1171
 4830 0038 D114      		cp r13,__zero_reg__
 4831 003a 04F0      		brlt .L287
 981:funsape/device/ssd1306.cpp ****         // Returns error
 4832               		.loc 1 981 62 is_stmt 0 discriminator 1 view .LVU1172
 4833 003c F701      		movw r30,r14
 4834 003e 8285      		ldd r24,Z+10
 981:funsape/device/ssd1306.cpp ****         // Returns error
 4835               		.loc 1 981 43 discriminator 1 view .LVU1173
 4836 0040 880F      		lsl r24
 4837 0042 880F      		lsl r24
 4838 0044 880F      		lsl r24
 981:funsape/device/ssd1306.cpp ****         // Returns error
 4839               		.loc 1 981 35 discriminator 1 view .LVU1174
 4840 0046 B816      		cp r11,r24
 4841 0048 00F4      		brsh .L287
 981:funsape/device/ssd1306.cpp ****         // Returns error
 4842               		.loc 1 981 75 discriminator 2 view .LVU1175
 4843 004a 1030      		cpi r17,lo8(0)
 4844 004c 01F0      		breq .L287
 989:funsape/device/ssd1306.cpp ****         for(uint16_t x = x_p; x < (uint16_t)(x_p + width_p); x++) {
 4845               		.loc 1 989 5 is_stmt 1 view .LVU1176
 4846               	.LBB86:
 989:funsape/device/ssd1306.cpp ****         for(uint16_t x = x_p; x < (uint16_t)(x_p + width_p); x++) {
 4847               		.loc 1 989 14 is_stmt 0 view .LVU1177
 4848 004e 8581      		ldd r24,Z+5
 4849 0050 81FB      		bst r24,1
 4850 0052 0027      		clr r16
 4851 0054 00F9      		bld r16,0
 989:funsape/device/ssd1306.cpp ****         for(uint16_t x = x_p; x < (uint16_t)(x_p + width_p); x++) {
 4852               		.loc 1 989 5 view .LVU1178
 4853 0056 81FD      		sbrc r24,1
 4854 0058 00C0      		rjmp .L302
 4855               	.LBE86:
 999:funsape/device/ssd1306.cpp ****     uint8_t auxMask                     = (1 << (y_p % 8));
 4856               		.loc 1 999 5 is_stmt 1 view .LVU1179
1000:funsape/device/ssd1306.cpp ****     uint8_t auxWidth                    = width_p;
 4857               		.loc 1 1000 5 view .LVU1180
1000:funsape/device/ssd1306.cpp ****     uint8_t auxWidth                    = width_p;
GAS LISTING /tmp/cc7wpQ70.s 			page 125


 4858               		.loc 1 1000 13 is_stmt 0 view .LVU1181
 4859 005a 91E0      		ldi r25,lo8(1)
 4860 005c 8B2D      		mov r24,r11
 4861 005e 8770      		andi r24,lo8(7)
 4862 0060 00C0      		rjmp 2f
 4863               		1:
 4864 0062 990F      		lsl r25
 4865               		2:
 4866 0064 8A95      		dec r24
 4867 0066 02F4      		brpl 1b
 4868               	.LVL354:
1001:funsape/device/ssd1306.cpp **** 
 4869               		.loc 1 1001 5 is_stmt 1 view .LVU1182
1003:funsape/device/ssd1306.cpp ****         auxWidth = constSsd1306Width - x_p;
 4870               		.loc 1 1003 5 view .LVU1183
1003:funsape/device/ssd1306.cpp ****         auxWidth = constSsd1306Width - x_p;
 4871               		.loc 1 1003 13 is_stmt 0 view .LVU1184
 4872 0068 2D2D      		mov r18,r13
 4873 006a 210F      		add r18,r17
 4874 006c 3327      		clr r19
 4875 006e 331F      		rol r19
1003:funsape/device/ssd1306.cpp ****         auxWidth = constSsd1306Width - x_p;
 4876               		.loc 1 1003 5 view .LVU1185
 4877 0070 2138      		cpi r18,-127
 4878 0072 3040      		sbci r19,0
 4879 0074 04F0      		brlt .L292
1004:funsape/device/ssd1306.cpp ****     }
 4880               		.loc 1 1004 9 is_stmt 1 view .LVU1186
1004:funsape/device/ssd1306.cpp ****     }
 4881               		.loc 1 1004 18 is_stmt 0 view .LVU1187
 4882 0076 10E8      		ldi r17,lo8(-128)
 4883               	.LVL355:
1004:funsape/device/ssd1306.cpp ****     }
 4884               		.loc 1 1004 18 view .LVU1188
 4885 0078 1D19      		sub r17,r13
 4886               	.L292:
 4887               	.LVL356:
1006:funsape/device/ssd1306.cpp ****         auxBuffer[i] = auxMask;
 4888               		.loc 1 1006 5 is_stmt 1 view .LVU1189
 4889               	.LBB89:
1006:funsape/device/ssd1306.cpp ****         auxBuffer[i] = auxMask;
 4890               		.loc 1 1006 17 is_stmt 0 view .LVU1190
 4891 007a 80E0      		ldi r24,0
1006:funsape/device/ssd1306.cpp ****         auxBuffer[i] = auxMask;
 4892               		.loc 1 1006 5 view .LVU1191
 4893 007c 00C0      		rjmp .L293
 4894               	.LVL357:
 4895               	.L287:
1006:funsape/device/ssd1306.cpp ****         auxBuffer[i] = auxMask;
 4896               		.loc 1 1006 5 view .LVU1192
 4897               	.LBE89:
 983:funsape/device/ssd1306.cpp ****         debugMessage(Error::ARGUMENT_VALUE_INVALID, Debug::CodeIndex::SSD1306_MODULE);
 4898               		.loc 1 983 9 is_stmt 1 view .LVU1193
 983:funsape/device/ssd1306.cpp ****         debugMessage(Error::ARGUMENT_VALUE_INVALID, Debug::CodeIndex::SSD1306_MODULE);
 4899               		.loc 1 983 26 is_stmt 0 view .LVU1194
 4900 007e 82E5      		ldi r24,lo8(82)
 4901 0080 90E0      		ldi r25,0
GAS LISTING /tmp/cc7wpQ70.s 			page 126


 4902 0082 F701      		movw r30,r14
 4903 0084 9783      		std Z+7,r25
 4904 0086 8683      		std Z+6,r24
 984:funsape/device/ssd1306.cpp ****         return false;
 4905               		.loc 1 984 9 is_stmt 1 view .LVU1195
 985:funsape/device/ssd1306.cpp ****     }
 4906               		.loc 1 985 9 view .LVU1196
 985:funsape/device/ssd1306.cpp ****     }
 4907               		.loc 1 985 16 is_stmt 0 view .LVU1197
 4908 0088 00E0      		ldi r16,0
 4909               	.LVL358:
 4910               	.L285:
1031:funsape/device/ssd1306.cpp **** 
 4911               		.loc 1 1031 1 view .LVU1198
 4912 008a 802F      		mov r24,r16
 4913               	/* epilogue start */
 4914 008c 6096      		adiw r28,16
 4915 008e 0FB6      		in __tmp_reg__,__SREG__
 4916 0090 F894      		cli
 4917 0092 DEBF      		out __SP_H__,r29
 4918 0094 0FBE      		out __SREG__,__tmp_reg__
 4919 0096 CDBF      		out __SP_L__,r28
 4920 0098 DF91      		pop r29
 4921 009a CF91      		pop r28
 4922 009c 1F91      		pop r17
 4923 009e 0F91      		pop r16
 4924 00a0 FF90      		pop r15
 4925 00a2 EF90      		pop r14
 4926               	.LVL359:
1031:funsape/device/ssd1306.cpp **** 
 4927               		.loc 1 1031 1 view .LVU1199
 4928 00a4 DF90      		pop r13
 4929 00a6 CF90      		pop r12
 4930               	.LVL360:
1031:funsape/device/ssd1306.cpp **** 
 4931               		.loc 1 1031 1 view .LVU1200
 4932 00a8 BF90      		pop r11
 4933 00aa AF90      		pop r10
 4934 00ac 0895      		ret
 4935               	.LVL361:
 4936               	.L302:
 4937               	.LBB90:
 4938               	.LBB87:
 990:funsape/device/ssd1306.cpp ****             this->_setPixel((uint8_t)x, y_p, true);
 4939               		.loc 1 990 9 is_stmt 1 view .LVU1201
 4940               	.LBB88:
 990:funsape/device/ssd1306.cpp ****             this->_setPixel((uint8_t)x, y_p, true);
 4941               		.loc 1 990 22 is_stmt 0 view .LVU1202
 4942 00ae AD2C      		mov r10,r13
 4943 00b0 B12C      		mov r11,__zero_reg__
 4944               	.LVL362:
 990:funsape/device/ssd1306.cpp ****             this->_setPixel((uint8_t)x, y_p, true);
 4945               		.loc 1 990 9 view .LVU1203
 4946 00b2 00C0      		rjmp .L290
 4947               	.L291:
 991:funsape/device/ssd1306.cpp ****         }
 4948               		.loc 1 991 13 is_stmt 1 view .LVU1204
GAS LISTING /tmp/cc7wpQ70.s 			page 127


 991:funsape/device/ssd1306.cpp ****         }
 4949               		.loc 1 991 28 is_stmt 0 view .LVU1205
 4950 00b4 21E0      		ldi r18,lo8(1)
 4951 00b6 4C2D      		mov r20,r12
 4952 00b8 6A2D      		mov r22,r10
 4953 00ba C701      		movw r24,r14
 4954 00bc 0E94 0000 		call _ZN7Ssd13069_setPixelEhhb
 4955               	.LVL363:
 990:funsape/device/ssd1306.cpp ****             this->_setPixel((uint8_t)x, y_p, true);
 4956               		.loc 1 990 9 is_stmt 1 discriminator 1 view .LVU1206
 4957 00c0 8FEF      		ldi r24,-1
 4958 00c2 A81A      		sub r10,r24
 4959 00c4 B80A      		sbc r11,r24
 4960               	.LVL364:
 4961               	.L290:
 990:funsape/device/ssd1306.cpp ****             this->_setPixel((uint8_t)x, y_p, true);
 4962               		.loc 1 990 33 discriminator 2 view .LVU1207
 990:funsape/device/ssd1306.cpp ****             this->_setPixel((uint8_t)x, y_p, true);
 4963               		.loc 1 990 50 is_stmt 0 discriminator 2 view .LVU1208
 4964 00c6 8D2D      		mov r24,r13
 4965 00c8 810F      		add r24,r17
 4966 00ca 9927      		clr r25
 4967 00cc 991F      		rol r25
 990:funsape/device/ssd1306.cpp ****             this->_setPixel((uint8_t)x, y_p, true);
 4968               		.loc 1 990 33 discriminator 2 view .LVU1209
 4969 00ce A816      		cp r10,r24
 4970 00d0 B906      		cpc r11,r25
 4971 00d2 00F0      		brlo .L291
 4972               	.LBE88:
 993:funsape/device/ssd1306.cpp ****         debugMessage(Error::NONE, Debug::CodeIndex::SSD1306_MODULE);
 4973               		.loc 1 993 9 is_stmt 1 view .LVU1210
 993:funsape/device/ssd1306.cpp ****         debugMessage(Error::NONE, Debug::CodeIndex::SSD1306_MODULE);
 4974               		.loc 1 993 26 is_stmt 0 view .LVU1211
 4975 00d4 F701      		movw r30,r14
 4976 00d6 1782      		std Z+7,__zero_reg__
 4977 00d8 1682      		std Z+6,__zero_reg__
 994:funsape/device/ssd1306.cpp ****         return true;
 4978               		.loc 1 994 9 is_stmt 1 view .LVU1212
 995:funsape/device/ssd1306.cpp ****     }
 4979               		.loc 1 995 9 view .LVU1213
 995:funsape/device/ssd1306.cpp ****     }
 4980               		.loc 1 995 16 is_stmt 0 view .LVU1214
 4981 00da 00C0      		rjmp .L285
 4982               	.LVL365:
 4983               	.L294:
 995:funsape/device/ssd1306.cpp ****     }
 4984               		.loc 1 995 16 view .LVU1215
 4985               	.LBE87:
 4986               	.LBE90:
 4987               	.LBB91:
1007:funsape/device/ssd1306.cpp ****     }
 4988               		.loc 1 1007 9 is_stmt 1 view .LVU1216
1007:funsape/device/ssd1306.cpp ****     }
 4989               		.loc 1 1007 22 is_stmt 0 view .LVU1217
 4990 00dc FE01      		movw r30,r28
 4991 00de 3196      		adiw r30,1
 4992 00e0 E80F      		add r30,r24
GAS LISTING /tmp/cc7wpQ70.s 			page 128


 4993 00e2 F11D      		adc r31,__zero_reg__
 4994 00e4 9083      		st Z,r25
1006:funsape/device/ssd1306.cpp ****         auxBuffer[i] = auxMask;
 4995               		.loc 1 1006 5 is_stmt 1 discriminator 1 view .LVU1218
 4996 00e6 8F5F      		subi r24,lo8(-(1))
 4997               	.LVL366:
 4998               	.L293:
1006:funsape/device/ssd1306.cpp ****         auxBuffer[i] = auxMask;
 4999               		.loc 1 1006 26 discriminator 2 view .LVU1219
 5000 00e8 8031      		cpi r24,lo8(16)
 5001 00ea 00F0      		brlo .L294
 5002               	.LBE91:
1011:funsape/device/ssd1306.cpp ****         // Returns error
 5003               		.loc 1 1011 5 view .LVU1220
1011:funsape/device/ssd1306.cpp ****         // Returns error
 5004               		.loc 1 1011 26 is_stmt 0 view .LVU1221
 5005 00ec 6C2D      		mov r22,r12
 5006 00ee 6695      		lsr r22
 5007 00f0 6695      		lsr r22
 5008 00f2 6695      		lsr r22
 5009 00f4 4D2D      		mov r20,r13
 5010 00f6 C701      		movw r24,r14
 5011               	.LVL367:
1011:funsape/device/ssd1306.cpp ****         // Returns error
 5012               		.loc 1 1011 26 view .LVU1222
 5013 00f8 0E94 0000 		call _ZN7Ssd130611_setAddressEhh
 5014               	.LVL368:
 5015 00fc 082F      		mov r16,r24
1011:funsape/device/ssd1306.cpp ****         // Returns error
 5016               		.loc 1 1011 5 discriminator 1 view .LVU1223
 5017 00fe 8111      		cpse r24,__zero_reg__
 5018 0100 00C0      		rjmp .L295
 5019 0102 00C0      		rjmp .L285
 5020               	.LVL369:
 5021               	.L299:
 5022               	.LBB92:
1018:funsape/device/ssd1306.cpp ****         if(!this->_writeData(auxBuffer, chunk)) {
 5023               		.loc 1 1018 17 discriminator 1 view .LVU1224
 5024 0104 D12E      		mov r13,r17
 5025               	.L296:
 5026               	.LVL370:
1019:funsape/device/ssd1306.cpp ****             // Returns error
 5027               		.loc 1 1019 9 is_stmt 1 view .LVU1225
1019:funsape/device/ssd1306.cpp ****             // Returns error
 5028               		.loc 1 1019 29 is_stmt 0 view .LVU1226
 5029 0106 4D2D      		mov r20,r13
 5030 0108 BE01      		movw r22,r28
 5031 010a 6F5F      		subi r22,-1
 5032 010c 7F4F      		sbci r23,-1
 5033 010e C701      		movw r24,r14
 5034 0110 0E94 0000 		call _ZN7Ssd130610_writeDataEPKhh
 5035               	.LVL371:
1019:funsape/device/ssd1306.cpp ****             // Returns error
 5036               		.loc 1 1019 9 discriminator 1 view .LVU1227
 5037 0114 8030      		cpi r24,lo8(0)
 5038 0116 01F0      		breq .L300
1024:funsape/device/ssd1306.cpp ****     }
GAS LISTING /tmp/cc7wpQ70.s 			page 129


 5039               		.loc 1 1024 9 is_stmt 1 view .LVU1228
1024:funsape/device/ssd1306.cpp ****     }
 5040               		.loc 1 1024 19 is_stmt 0 view .LVU1229
 5041 0118 1D19      		sub r17,r13
 5042               	.LVL372:
 5043               	.L295:
1024:funsape/device/ssd1306.cpp ****     }
 5044               		.loc 1 1024 19 view .LVU1230
 5045               	.LBE92:
1017:funsape/device/ssd1306.cpp ****         uint8_t chunk = (remaining > constSsd1306DataChunk) ? constSsd1306DataChunk : remaining;
 5046               		.loc 1 1017 21 is_stmt 1 discriminator 1 view .LVU1231
 5047 011a 1030      		cpi r17,lo8(0)
 5048 011c 01F0      		breq .L303
 5049               	.LBB93:
1018:funsape/device/ssd1306.cpp ****         if(!this->_writeData(auxBuffer, chunk)) {
 5050               		.loc 1 1018 9 view .LVU1232
1018:funsape/device/ssd1306.cpp ****         if(!this->_writeData(auxBuffer, chunk)) {
 5051               		.loc 1 1018 61 is_stmt 0 view .LVU1233
 5052 011e 1131      		cpi r17,lo8(17)
 5053 0120 00F0      		brlo .L299
1018:funsape/device/ssd1306.cpp ****         if(!this->_writeData(auxBuffer, chunk)) {
 5054               		.loc 1 1018 17 discriminator 2 view .LVU1234
 5055 0122 6894      		set
 5056 0124 DD24      		clr r13
 5057 0126 D4F8      		bld r13,4
 5058 0128 00C0      		rjmp .L296
 5059               	.L303:
 5060               	.LBE93:
1028:funsape/device/ssd1306.cpp ****     debugMessage(Error::NONE, Debug::CodeIndex::SSD1306_MODULE);
 5061               		.loc 1 1028 5 is_stmt 1 view .LVU1235
1028:funsape/device/ssd1306.cpp ****     debugMessage(Error::NONE, Debug::CodeIndex::SSD1306_MODULE);
 5062               		.loc 1 1028 22 is_stmt 0 view .LVU1236
 5063 012a F701      		movw r30,r14
 5064 012c 1782      		std Z+7,__zero_reg__
 5065 012e 1682      		std Z+6,__zero_reg__
1029:funsape/device/ssd1306.cpp ****     return true;
 5066               		.loc 1 1029 5 is_stmt 1 view .LVU1237
1030:funsape/device/ssd1306.cpp **** }
 5067               		.loc 1 1030 5 view .LVU1238
1030:funsape/device/ssd1306.cpp **** }
 5068               		.loc 1 1030 12 is_stmt 0 view .LVU1239
 5069 0130 00C0      		rjmp .L285
 5070               	.LVL373:
 5071               	.L300:
 5072               	.LBB94:
1022:funsape/device/ssd1306.cpp ****         }
 5073               		.loc 1 1022 20 view .LVU1240
 5074 0132 082F      		mov r16,r24
 5075               	.LVL374:
1022:funsape/device/ssd1306.cpp ****         }
 5076               		.loc 1 1022 20 view .LVU1241
 5077 0134 00C0      		rjmp .L285
 5078               	.LBE94:
 5079               		.cfi_endproc
 5080               	.LFE158:
 5082               		.section	.text._ZN7Ssd13069drawVLineEhhh,"ax",@progbits
 5083               	.global	_ZN7Ssd13069drawVLineEhhh
GAS LISTING /tmp/cc7wpQ70.s 			page 130


 5085               	_ZN7Ssd13069drawVLineEhhh:
 5086               	.LVL375:
 5087               	.LFB159:
1034:funsape/device/ssd1306.cpp ****     // Mark passage for debugging purpose
 5088               		.loc 1 1034 1 is_stmt 1 view -0
 5089               		.cfi_startproc
1034:funsape/device/ssd1306.cpp ****     // Mark passage for debugging purpose
 5090               		.loc 1 1034 1 is_stmt 0 view .LVU1243
 5091 0000 9F92      		push r9
 5092               	.LCFI165:
 5093               		.cfi_def_cfa_offset 3
 5094               		.cfi_offset 9, -2
 5095 0002 AF92      		push r10
 5096               	.LCFI166:
 5097               		.cfi_def_cfa_offset 4
 5098               		.cfi_offset 10, -3
 5099 0004 BF92      		push r11
 5100               	.LCFI167:
 5101               		.cfi_def_cfa_offset 5
 5102               		.cfi_offset 11, -4
 5103 0006 CF92      		push r12
 5104               	.LCFI168:
 5105               		.cfi_def_cfa_offset 6
 5106               		.cfi_offset 12, -5
 5107 0008 DF92      		push r13
 5108               	.LCFI169:
 5109               		.cfi_def_cfa_offset 7
 5110               		.cfi_offset 13, -6
 5111 000a EF92      		push r14
 5112               	.LCFI170:
 5113               		.cfi_def_cfa_offset 8
 5114               		.cfi_offset 14, -7
 5115 000c FF92      		push r15
 5116               	.LCFI171:
 5117               		.cfi_def_cfa_offset 9
 5118               		.cfi_offset 15, -8
 5119 000e 0F93      		push r16
 5120               	.LCFI172:
 5121               		.cfi_def_cfa_offset 10
 5122               		.cfi_offset 16, -9
 5123 0010 1F93      		push r17
 5124               	.LCFI173:
 5125               		.cfi_def_cfa_offset 11
 5126               		.cfi_offset 17, -10
 5127 0012 CF93      		push r28
 5128               	.LCFI174:
 5129               		.cfi_def_cfa_offset 12
 5130               		.cfi_offset 28, -11
 5131 0014 DF93      		push r29
 5132               	.LCFI175:
 5133               		.cfi_def_cfa_offset 13
 5134               		.cfi_offset 29, -12
 5135 0016 0F92      		push __tmp_reg__
 5136               	.LCFI176:
 5137               		.cfi_def_cfa_offset 14
 5138 0018 CDB7      		in r28,__SP_L__
 5139 001a DEB7      		in r29,__SP_H__
GAS LISTING /tmp/cc7wpQ70.s 			page 131


 5140               	.LCFI177:
 5141               		.cfi_def_cfa_register 28
 5142               	/* prologue: function */
 5143               	/* frame size = 1 */
 5144               	/* stack size = 12 */
 5145               	.L__stack_usage = 12
 5146 001c 8C01      		movw r16,r24
 5147 001e F62E      		mov r15,r22
 5148 0020 B62E      		mov r11,r22
 5149 0022 D42E      		mov r13,r20
 5150 0024 C22E      		mov r12,r18
1036:funsape/device/ssd1306.cpp **** 
 5151               		.loc 1 1036 5 is_stmt 1 view .LVU1244
1039:funsape/device/ssd1306.cpp ****         // Returns error
 5152               		.loc 1 1039 5 view .LVU1245
1039:funsape/device/ssd1306.cpp ****         // Returns error
 5153               		.loc 1 1039 29 is_stmt 0 view .LVU1246
 5154 0026 0E94 0000 		call _ZN7Ssd130614_isInitializedEv
 5155               	.LVL376:
1039:funsape/device/ssd1306.cpp ****         // Returns error
 5156               		.loc 1 1039 29 view .LVU1247
 5157 002a A82E      		mov r10,r24
1039:funsape/device/ssd1306.cpp ****         // Returns error
 5158               		.loc 1 1039 5 discriminator 1 view .LVU1248
 5159 002c 8030      		cpi r24,lo8(0)
 5160 002e 01F0      		breq .L304
1044:funsape/device/ssd1306.cpp ****         // Returns error
 5161               		.loc 1 1044 5 is_stmt 1 view .LVU1249
 5162 0030 F114      		cp r15,__zero_reg__
 5163 0032 04F0      		brlt .L307
1044:funsape/device/ssd1306.cpp ****         // Returns error
 5164               		.loc 1 1044 62 is_stmt 0 discriminator 1 view .LVU1250
 5165 0034 F801      		movw r30,r16
 5166 0036 8285      		ldd r24,Z+10
1044:funsape/device/ssd1306.cpp ****         // Returns error
 5167               		.loc 1 1044 43 discriminator 1 view .LVU1251
 5168 0038 880F      		lsl r24
 5169 003a 880F      		lsl r24
 5170 003c 880F      		lsl r24
1044:funsape/device/ssd1306.cpp ****         // Returns error
 5171               		.loc 1 1044 35 discriminator 1 view .LVU1252
 5172 003e D816      		cp r13,r24
 5173 0040 00F4      		brsh .L307
1044:funsape/device/ssd1306.cpp ****         // Returns error
 5174               		.loc 1 1044 75 discriminator 2 view .LVU1253
 5175 0042 C114      		cp r12,__zero_reg__
 5176 0044 01F0      		breq .L307
1052:funsape/device/ssd1306.cpp ****         for(uint16_t y = y_p; y < (uint16_t)(y_p + height_p); y++) {
 5177               		.loc 1 1052 5 is_stmt 1 view .LVU1254
 5178               	.LBB95:
1052:funsape/device/ssd1306.cpp ****         for(uint16_t y = y_p; y < (uint16_t)(y_p + height_p); y++) {
 5179               		.loc 1 1052 14 is_stmt 0 view .LVU1255
 5180 0046 9581      		ldd r25,Z+5
 5181 0048 91FB      		bst r25,1
 5182 004a 2227      		clr r18
 5183 004c 20F9      		bld r18,0
 5184 004e 922E      		mov r9,r18
GAS LISTING /tmp/cc7wpQ70.s 			page 132


1052:funsape/device/ssd1306.cpp ****         for(uint16_t y = y_p; y < (uint16_t)(y_p + height_p); y++) {
 5185               		.loc 1 1052 5 view .LVU1256
 5186 0050 91FD      		sbrc r25,1
 5187 0052 00C0      		rjmp .L324
 5188               	.LBE95:
1062:funsape/device/ssd1306.cpp ****     if(auxEndY >= (uint8_t)(this->_pages * 8)) {
 5189               		.loc 1 1062 5 is_stmt 1 view .LVU1257
1062:funsape/device/ssd1306.cpp ****     if(auxEndY >= (uint8_t)(this->_pages * 8)) {
 5190               		.loc 1 1062 47 is_stmt 0 view .LVU1258
 5191 0054 EC2C      		mov r14,r12
 5192 0056 ED0C      		add r14,r13
1062:funsape/device/ssd1306.cpp ****     if(auxEndY >= (uint8_t)(this->_pages * 8)) {
 5193               		.loc 1 1062 13 view .LVU1259
 5194 0058 EA94      		dec r14
 5195               	.LVL377:
1063:funsape/device/ssd1306.cpp ****         auxEndY = (this->_pages * 8) - 1;
 5196               		.loc 1 1063 5 is_stmt 1 view .LVU1260
 5197 005a E816      		cp r14,r24
 5198 005c 00F0      		brlo .L312
1064:funsape/device/ssd1306.cpp ****     }
 5199               		.loc 1 1064 9 view .LVU1261
1064:funsape/device/ssd1306.cpp ****     }
 5200               		.loc 1 1064 17 is_stmt 0 view .LVU1262
 5201 005e 8150      		subi r24,lo8(-(-1))
 5202 0060 E82E      		mov r14,r24
 5203               	.LVL378:
 5204               	.L312:
1068:funsape/device/ssd1306.cpp ****         uint8_t auxPageTop              = page * 8;
 5205               		.loc 1 1068 5 is_stmt 1 view .LVU1263
 5206               	.LBB98:
1068:funsape/device/ssd1306.cpp ****         uint8_t auxPageTop              = page * 8;
 5207               		.loc 1 1068 17 is_stmt 0 view .LVU1264
 5208 0062 FD2C      		mov r15,r13
 5209 0064 F694      		lsr r15
 5210 0066 F694      		lsr r15
 5211 0068 F694      		lsr r15
 5212               	.LVL379:
1068:funsape/device/ssd1306.cpp ****         uint8_t auxPageTop              = page * 8;
 5213               		.loc 1 1068 5 view .LVU1265
 5214 006a 00C0      		rjmp .L313
 5215               	.LVL380:
 5216               	.L307:
1068:funsape/device/ssd1306.cpp ****         uint8_t auxPageTop              = page * 8;
 5217               		.loc 1 1068 5 view .LVU1266
 5218               	.LBE98:
1046:funsape/device/ssd1306.cpp ****         debugMessage(Error::ARGUMENT_VALUE_INVALID, Debug::CodeIndex::SSD1306_MODULE);
 5219               		.loc 1 1046 9 is_stmt 1 view .LVU1267
1046:funsape/device/ssd1306.cpp ****         debugMessage(Error::ARGUMENT_VALUE_INVALID, Debug::CodeIndex::SSD1306_MODULE);
 5220               		.loc 1 1046 26 is_stmt 0 view .LVU1268
 5221 006c 82E5      		ldi r24,lo8(82)
 5222 006e 90E0      		ldi r25,0
 5223 0070 F801      		movw r30,r16
 5224 0072 9783      		std Z+7,r25
 5225 0074 8683      		std Z+6,r24
1047:funsape/device/ssd1306.cpp ****         return false;
 5226               		.loc 1 1047 9 is_stmt 1 view .LVU1269
1048:funsape/device/ssd1306.cpp ****     }
GAS LISTING /tmp/cc7wpQ70.s 			page 133


 5227               		.loc 1 1048 9 view .LVU1270
1048:funsape/device/ssd1306.cpp ****     }
 5228               		.loc 1 1048 16 is_stmt 0 view .LVU1271
 5229 0076 A12C      		mov r10,__zero_reg__
 5230               	.L304:
1093:funsape/device/ssd1306.cpp **** 
 5231               		.loc 1 1093 1 view .LVU1272
 5232 0078 8A2D      		mov r24,r10
 5233               	/* epilogue start */
 5234 007a 0F90      		pop __tmp_reg__
 5235 007c DF91      		pop r29
 5236 007e CF91      		pop r28
 5237 0080 1F91      		pop r17
 5238 0082 0F91      		pop r16
 5239               	.LVL381:
1093:funsape/device/ssd1306.cpp **** 
 5240               		.loc 1 1093 1 view .LVU1273
 5241 0084 FF90      		pop r15
 5242 0086 EF90      		pop r14
 5243 0088 DF90      		pop r13
 5244               	.LVL382:
1093:funsape/device/ssd1306.cpp **** 
 5245               		.loc 1 1093 1 view .LVU1274
 5246 008a CF90      		pop r12
 5247               	.LVL383:
1093:funsape/device/ssd1306.cpp **** 
 5248               		.loc 1 1093 1 view .LVU1275
 5249 008c BF90      		pop r11
 5250               	.LVL384:
1093:funsape/device/ssd1306.cpp **** 
 5251               		.loc 1 1093 1 view .LVU1276
 5252 008e AF90      		pop r10
 5253 0090 9F90      		pop r9
 5254 0092 0895      		ret
 5255               	.LVL385:
 5256               	.L324:
 5257               	.LBB103:
 5258               	.LBB96:
1053:funsape/device/ssd1306.cpp ****             this->_setPixel(x_p, (uint8_t)y, true);
 5259               		.loc 1 1053 9 is_stmt 1 view .LVU1277
 5260               	.LBB97:
1053:funsape/device/ssd1306.cpp ****             this->_setPixel(x_p, (uint8_t)y, true);
 5261               		.loc 1 1053 22 is_stmt 0 view .LVU1278
 5262 0094 ED2C      		mov r14,r13
 5263 0096 F12C      		mov r15,__zero_reg__
 5264               	.LVL386:
1053:funsape/device/ssd1306.cpp ****             this->_setPixel(x_p, (uint8_t)y, true);
 5265               		.loc 1 1053 9 view .LVU1279
 5266 0098 00C0      		rjmp .L310
 5267               	.L311:
1054:funsape/device/ssd1306.cpp ****         }
 5268               		.loc 1 1054 13 is_stmt 1 view .LVU1280
1054:funsape/device/ssd1306.cpp ****         }
 5269               		.loc 1 1054 28 is_stmt 0 view .LVU1281
 5270 009a 21E0      		ldi r18,lo8(1)
 5271 009c 4E2D      		mov r20,r14
 5272 009e 6B2D      		mov r22,r11
GAS LISTING /tmp/cc7wpQ70.s 			page 134


 5273 00a0 C801      		movw r24,r16
 5274 00a2 0E94 0000 		call _ZN7Ssd13069_setPixelEhhb
 5275               	.LVL387:
1053:funsape/device/ssd1306.cpp ****             this->_setPixel(x_p, (uint8_t)y, true);
 5276               		.loc 1 1053 9 is_stmt 1 discriminator 1 view .LVU1282
 5277 00a6 8FEF      		ldi r24,-1
 5278 00a8 E81A      		sub r14,r24
 5279 00aa F80A      		sbc r15,r24
 5280               	.LVL388:
 5281               	.L310:
1053:funsape/device/ssd1306.cpp ****             this->_setPixel(x_p, (uint8_t)y, true);
 5282               		.loc 1 1053 33 discriminator 2 view .LVU1283
1053:funsape/device/ssd1306.cpp ****             this->_setPixel(x_p, (uint8_t)y, true);
 5283               		.loc 1 1053 50 is_stmt 0 discriminator 2 view .LVU1284
 5284 00ac 8D2D      		mov r24,r13
 5285 00ae 8C0D      		add r24,r12
 5286 00b0 9927      		clr r25
 5287 00b2 991F      		rol r25
1053:funsape/device/ssd1306.cpp ****             this->_setPixel(x_p, (uint8_t)y, true);
 5288               		.loc 1 1053 33 discriminator 2 view .LVU1285
 5289 00b4 E816      		cp r14,r24
 5290 00b6 F906      		cpc r15,r25
 5291 00b8 00F0      		brlo .L311
 5292               	.LBE97:
1056:funsape/device/ssd1306.cpp ****         debugMessage(Error::NONE, Debug::CodeIndex::SSD1306_MODULE);
 5293               		.loc 1 1056 9 is_stmt 1 view .LVU1286
1056:funsape/device/ssd1306.cpp ****         debugMessage(Error::NONE, Debug::CodeIndex::SSD1306_MODULE);
 5294               		.loc 1 1056 26 is_stmt 0 view .LVU1287
 5295 00ba F801      		movw r30,r16
 5296 00bc 1782      		std Z+7,__zero_reg__
 5297 00be 1682      		std Z+6,__zero_reg__
1057:funsape/device/ssd1306.cpp ****         return true;
 5298               		.loc 1 1057 9 is_stmt 1 view .LVU1288
1058:funsape/device/ssd1306.cpp ****     }
 5299               		.loc 1 1058 9 view .LVU1289
 5300               	.LVL389:
 5301               	.L319:
1058:funsape/device/ssd1306.cpp ****     }
 5302               		.loc 1 1058 16 is_stmt 0 view .LVU1290
 5303 00c0 A92C      		mov r10,r9
 5304 00c2 00C0      		rjmp .L304
 5305               	.LVL390:
 5306               	.L322:
1058:funsape/device/ssd1306.cpp ****     }
 5307               		.loc 1 1058 16 view .LVU1291
 5308               	.LBE96:
 5309               	.LBE103:
 5310               	.LBB104:
 5311               	.LBB99:
1070:funsape/device/ssd1306.cpp ****         uint8_t auxHigh                 = (auxEndY < (uint8_t)(auxPageTop + 7)) ? (auxEndY - auxPag
 5312               		.loc 1 1070 17 discriminator 2 view .LVU1292
 5313 00c4 80E0      		ldi r24,0
 5314 00c6 00C0      		rjmp .L314
 5315               	.LVL391:
 5316               	.L323:
1071:funsape/device/ssd1306.cpp ****         uint8_t auxMask                 = 0x00;
 5317               		.loc 1 1071 17 discriminator 2 view .LVU1293
GAS LISTING /tmp/cc7wpQ70.s 			page 135


 5318 00c8 37E0      		ldi r19,lo8(7)
 5319 00ca 00C0      		rjmp .L315
 5320               	.LVL392:
 5321               	.L317:
 5322               	.LBB100:
1075:funsape/device/ssd1306.cpp ****         }
 5323               		.loc 1 1075 13 is_stmt 1 view .LVU1294
1075:funsape/device/ssd1306.cpp ****         }
 5324               		.loc 1 1075 27 is_stmt 0 view .LVU1295
 5325 00cc 41E0      		ldi r20,lo8(1)
 5326 00ce 50E0      		ldi r21,0
 5327 00d0 082E      		mov r0,r24
 5328 00d2 00C0      		rjmp 2f
 5329               		1:
 5330 00d4 440F      		lsl r20
 5331 00d6 551F      		rol r21
 5332               		2:
 5333 00d8 0A94      		dec r0
 5334 00da 02F4      		brpl 1b
1075:funsape/device/ssd1306.cpp ****         }
 5335               		.loc 1 1075 21 view .LVU1296
 5336 00dc 9981      		ldd r25,Y+1
 5337 00de 942B      		or r25,r20
 5338 00e0 9983      		std Y+1,r25
1074:funsape/device/ssd1306.cpp ****             auxMask |= (1 << b);
 5339               		.loc 1 1074 9 is_stmt 1 discriminator 1 view .LVU1297
 5340 00e2 8F5F      		subi r24,lo8(-(1))
 5341               	.LVL393:
 5342               	.L316:
1074:funsape/device/ssd1306.cpp ****             auxMask |= (1 << b);
 5343               		.loc 1 1074 35 discriminator 2 view .LVU1298
 5344 00e4 3817      		cp r19,r24
 5345 00e6 00F4      		brsh .L317
1074:funsape/device/ssd1306.cpp ****             auxMask |= (1 << b);
 5346               		.loc 1 1074 35 is_stmt 0 discriminator 2 view .LVU1299
 5347               	.LBE100:
1077:funsape/device/ssd1306.cpp ****             // Returns error
 5348               		.loc 1 1077 9 is_stmt 1 view .LVU1300
1077:funsape/device/ssd1306.cpp ****             // Returns error
 5349               		.loc 1 1077 30 is_stmt 0 view .LVU1301
 5350 00e8 4B2D      		mov r20,r11
 5351 00ea 6F2D      		mov r22,r15
 5352 00ec C801      		movw r24,r16
 5353               	.LVL394:
1077:funsape/device/ssd1306.cpp ****             // Returns error
 5354               		.loc 1 1077 30 view .LVU1302
 5355 00ee 0E94 0000 		call _ZN7Ssd130611_setAddressEhh
 5356               	.LVL395:
1077:funsape/device/ssd1306.cpp ****             // Returns error
 5357               		.loc 1 1077 9 discriminator 1 view .LVU1303
 5358 00f2 8030      		cpi r24,lo8(0)
 5359 00f4 01F0      		breq .L319
1082:funsape/device/ssd1306.cpp ****             // Returns error
 5360               		.loc 1 1082 9 is_stmt 1 view .LVU1304
1082:funsape/device/ssd1306.cpp ****             // Returns error
 5361               		.loc 1 1082 29 is_stmt 0 view .LVU1305
 5362 00f6 41E0      		ldi r20,lo8(1)
GAS LISTING /tmp/cc7wpQ70.s 			page 136


 5363 00f8 BE01      		movw r22,r28
 5364 00fa 6F5F      		subi r22,-1
 5365 00fc 7F4F      		sbci r23,-1
 5366 00fe C801      		movw r24,r16
 5367 0100 0E94 0000 		call _ZN7Ssd130610_writeDataEPKhh
 5368               	.LVL396:
1082:funsape/device/ssd1306.cpp ****             // Returns error
 5369               		.loc 1 1082 9 discriminator 1 view .LVU1306
 5370 0104 8030      		cpi r24,lo8(0)
 5371 0106 01F0      		breq .L319
 5372               	.LBE99:
1068:funsape/device/ssd1306.cpp ****         uint8_t auxPageTop              = page * 8;
 5373               		.loc 1 1068 5 is_stmt 1 discriminator 1 view .LVU1307
 5374 0108 F394      		inc r15
 5375               	.LVL397:
 5376               	.L313:
1068:funsape/device/ssd1306.cpp ****         uint8_t auxPageTop              = page * 8;
 5377               		.loc 1 1068 40 discriminator 2 view .LVU1308
1068:funsape/device/ssd1306.cpp ****         uint8_t auxPageTop              = page * 8;
 5378               		.loc 1 1068 52 is_stmt 0 discriminator 2 view .LVU1309
 5379 010a 8E2D      		mov r24,r14
 5380 010c 8695      		lsr r24
 5381 010e 8695      		lsr r24
 5382 0110 8695      		lsr r24
1068:funsape/device/ssd1306.cpp ****         uint8_t auxPageTop              = page * 8;
 5383               		.loc 1 1068 40 discriminator 2 view .LVU1310
 5384 0112 8F15      		cp r24,r15
 5385 0114 00F0      		brlo .L325
 5386               	.LBB102:
1069:funsape/device/ssd1306.cpp ****         uint8_t auxLow                  = (y_p > auxPageTop) ? (y_p - auxPageTop) : 0;
 5387               		.loc 1 1069 9 is_stmt 1 view .LVU1311
1069:funsape/device/ssd1306.cpp ****         uint8_t auxLow                  = (y_p > auxPageTop) ? (y_p - auxPageTop) : 0;
 5388               		.loc 1 1069 17 is_stmt 0 view .LVU1312
 5389 0116 9F2D      		mov r25,r15
 5390 0118 990F      		lsl r25
 5391 011a 990F      		lsl r25
 5392 011c 990F      		lsl r25
 5393               	.LVL398:
1070:funsape/device/ssd1306.cpp ****         uint8_t auxHigh                 = (auxEndY < (uint8_t)(auxPageTop + 7)) ? (auxEndY - auxPag
 5394               		.loc 1 1070 9 is_stmt 1 view .LVU1313
1070:funsape/device/ssd1306.cpp ****         uint8_t auxHigh                 = (auxEndY < (uint8_t)(auxPageTop + 7)) ? (auxEndY - auxPag
 5395               		.loc 1 1070 17 is_stmt 0 view .LVU1314
 5396 011e 9D15      		cp r25,r13
 5397 0120 00F4      		brsh .L322
1070:funsape/device/ssd1306.cpp ****         uint8_t auxHigh                 = (auxEndY < (uint8_t)(auxPageTop + 7)) ? (auxEndY - auxPag
 5398               		.loc 1 1070 17 discriminator 1 view .LVU1315
 5399 0122 8D2D      		mov r24,r13
 5400 0124 891B      		sub r24,r25
 5401               	.LVL399:
 5402               	.L314:
1071:funsape/device/ssd1306.cpp ****         uint8_t auxMask                 = 0x00;
 5403               		.loc 1 1071 9 is_stmt 1 view .LVU1316
1071:funsape/device/ssd1306.cpp ****         uint8_t auxMask                 = 0x00;
 5404               		.loc 1 1071 75 is_stmt 0 view .LVU1317
 5405 0126 292F      		mov r18,r25
 5406 0128 295F      		subi r18,lo8(-(7))
1071:funsape/device/ssd1306.cpp ****         uint8_t auxMask                 = 0x00;
GAS LISTING /tmp/cc7wpQ70.s 			page 137


 5407               		.loc 1 1071 17 view .LVU1318
 5408 012a E216      		cp r14,r18
 5409 012c 00F4      		brsh .L323
1071:funsape/device/ssd1306.cpp ****         uint8_t auxMask                 = 0x00;
 5410               		.loc 1 1071 17 discriminator 1 view .LVU1319
 5411 012e 3E2D      		mov r19,r14
 5412 0130 391B      		sub r19,r25
 5413               	.LVL400:
 5414               	.L315:
1072:funsape/device/ssd1306.cpp **** 
 5415               		.loc 1 1072 9 is_stmt 1 view .LVU1320
1072:funsape/device/ssd1306.cpp **** 
 5416               		.loc 1 1072 17 is_stmt 0 view .LVU1321
 5417 0132 1982      		std Y+1,__zero_reg__
1074:funsape/device/ssd1306.cpp ****             auxMask |= (1 << b);
 5418               		.loc 1 1074 9 is_stmt 1 view .LVU1322
 5419               	.LVL401:
 5420               	.LBB101:
1074:funsape/device/ssd1306.cpp ****             auxMask |= (1 << b);
 5421               		.loc 1 1074 9 is_stmt 0 view .LVU1323
 5422 0134 00C0      		rjmp .L316
 5423               	.LVL402:
 5424               	.L325:
1074:funsape/device/ssd1306.cpp ****             auxMask |= (1 << b);
 5425               		.loc 1 1074 9 view .LVU1324
 5426               	.LBE101:
 5427               	.LBE102:
 5428               	.LBE104:
1090:funsape/device/ssd1306.cpp ****     debugMessage(Error::NONE, Debug::CodeIndex::SSD1306_MODULE);
 5429               		.loc 1 1090 5 is_stmt 1 view .LVU1325
1090:funsape/device/ssd1306.cpp ****     debugMessage(Error::NONE, Debug::CodeIndex::SSD1306_MODULE);
 5430               		.loc 1 1090 22 is_stmt 0 view .LVU1326
 5431 0136 F801      		movw r30,r16
 5432 0138 1782      		std Z+7,__zero_reg__
 5433 013a 1682      		std Z+6,__zero_reg__
1091:funsape/device/ssd1306.cpp ****     return true;
 5434               		.loc 1 1091 5 is_stmt 1 view .LVU1327
1092:funsape/device/ssd1306.cpp **** }
 5435               		.loc 1 1092 5 view .LVU1328
1092:funsape/device/ssd1306.cpp **** }
 5436               		.loc 1 1092 12 is_stmt 0 view .LVU1329
 5437 013c 00C0      		rjmp .L304
 5438               		.cfi_endproc
 5439               	.LFE159:
 5441               	.global	defaultSsd1306Display
 5442               		.section	.bss.defaultSsd1306Display,"aw",@nobits
 5445               	defaultSsd1306Display:
 5446 0000 0000      		.zero	2
 5447               	.global	ssd1306Stream
 5448               		.section	.bss.ssd1306Stream,"aw",@nobits
 5451               	ssd1306Stream:
 5452 0000 0000 0000 		.zero	14
 5452      0000 0000 
 5452      0000 0000 
 5452      0000 
 5453               		.section	.progmem.data._ZL16constSsd1306Font,"a",@progbits
 5456               	_ZL16constSsd1306Font:
GAS LISTING /tmp/cc7wpQ70.s 			page 138


 5457 0000 0000 0000 		.base64	"AAAAAAA="
 5457      00
 5458 0005 0000 5F00 		.base64	"AABfAAA="
 5458      00
 5459 000a 0007 0007 		.base64	"AAcABwA="
 5459      00
 5460 000f 147F 147F 		.base64	"FH8UfxQ="
 5460      14
 5461 0014 242A 7F2A 		.base64	"JCp/KhI="
 5461      12
 5462 0019 2313 0864 		.base64	"IxMIZGI="
 5462      62
 5463 001e 3649 5522 		.ascii	"6IU\"P"
 5463      50
 5464 0023 0005 0300 		.base64	"AAUDAAA="
 5464      00
 5465 0028 001C 2241 		.base64	"ABwiQQA="
 5465      00
 5466 002d 0041 221C 		.base64	"AEEiHAA="
 5466      00
 5467 0032 1408 3E08 		.base64	"FAg+CBQ="
 5467      14
 5468 0037 0808 3E08 		.base64	"CAg+CAg="
 5468      08
 5469 003c 0050 3000 		.base64	"AFAwAAA="
 5469      00
 5470 0041 0808 0808 		.base64	"CAgICAg="
 5470      08
 5471 0046 0060 6000 		.base64	"AGBgAAA="
 5471      00
 5472 004b 2010 0804 		.base64	"IBAIBAI="
 5472      02
 5473 0050 3E51 4945 		.ascii	">QIE>"
 5473      3E
 5474 0055 0042 7F40 		.base64	"AEJ/QAA="
 5474      00
 5475 005a 4261 5149 		.ascii	"BaQIF"
 5475      46
 5476 005f 2141 454B 		.ascii	"!AEK1"
 5476      31
 5477 0064 1814 127F 		.base64	"GBQSfxA="
 5477      10
 5478 0069 2745 4545 		.ascii	"'EEE9"
 5478      39
 5479 006e 3C4A 4949 		.ascii	"<JII0"
 5479      30
 5480 0073 0171 0905 		.base64	"AXEJBQM="
 5480      03
 5481 0078 3649 4949 		.ascii	"6III6"
 5481      36
 5482 007d 0649 4929 		.base64	"BklJKR4="
 5482      1E
 5483 0082 0036 3600 		.base64	"ADY2AAA="
 5483      00
 5484 0087 0056 3600 		.base64	"AFY2AAA="
 5484      00
 5485 008c 0814 2241 		.base64	"CBQiQQA="
GAS LISTING /tmp/cc7wpQ70.s 			page 139


 5485      00
 5486 0091 1414 1414 		.base64	"FBQUFBQ="
 5486      14
 5487 0096 0041 2214 		.base64	"AEEiFAg="
 5487      08
 5488 009b 0201 5109 		.base64	"AgFRCQY="
 5488      06
 5489 00a0 3249 7941 		.ascii	"2IyA>"
 5489      3E
 5490 00a5 7E11 1111 		.base64	"fhEREX4="
 5490      7E
 5491 00aa 7F49 4949 		.ascii	"\177III6"
 5491      36
 5492 00af 3E41 4141 		.ascii	">AAA\""
 5492      22
 5493 00b4 7F41 4122 		.base64	"f0FBIhw="
 5493      1C
 5494 00b9 7F49 4949 		.ascii	"\177IIIA"
 5494      41
 5495 00be 7F09 0909 		.base64	"fwkJCQE="
 5495      01
 5496 00c3 3E41 4949 		.ascii	">AIIz"
 5496      7A
 5497 00c8 7F08 0808 		.base64	"fwgICH8="
 5497      7F
 5498 00cd 0041 7F41 		.base64	"AEF/QQA="
 5498      00
 5499 00d2 2040 413F 		.ascii	" @A?\001"
 5499      01
 5500 00d7 7F08 1422 		.base64	"fwgUIkE="
 5500      41
 5501 00dc 7F40 4040 		.ascii	"\177@@@@"
 5501      40
 5502 00e1 7F02 0C02 		.base64	"fwIMAn8="
 5502      7F
 5503 00e6 7F04 0810 		.base64	"fwQIEH8="
 5503      7F
 5504 00eb 3E41 4141 		.ascii	">AAA>"
 5504      3E
 5505 00f0 7F09 0909 		.base64	"fwkJCQY="
 5505      06
 5506 00f5 3E41 5121 		.ascii	">AQ!^"
 5506      5E
 5507 00fa 7F09 1929 		.base64	"fwkZKUY="
 5507      46
 5508 00ff 4649 4949 		.ascii	"FIII1"
 5508      31
 5509 0104 0101 7F01 		.base64	"AQF/AQE="
 5509      01
 5510 0109 3F40 4040 		.ascii	"?@@@?"
 5510      3F
 5511 010e 1F20 4020 		.base64	"HyBAIB8="
 5511      1F
 5512 0113 3F40 3840 		.ascii	"?@8@?"
 5512      3F
 5513 0118 6314 0814 		.base64	"YxQIFGM="
 5513      63
GAS LISTING /tmp/cc7wpQ70.s 			page 140


 5514 011d 0708 7008 		.base64	"BwhwCAc="
 5514      07
 5515 0122 6151 4945 		.ascii	"aQIEC"
 5515      43
 5516 0127 007F 4141 		.base64	"AH9BQQA="
 5516      00
 5517 012c 0204 0810 		.base64	"AgQIECA="
 5517      20
 5518 0131 0041 417F 		.base64	"AEFBfwA="
 5518      00
 5519 0136 0402 0102 		.base64	"BAIBAgQ="
 5519      04
 5520 013b 4040 4040 		.ascii	"@@@@@"
 5520      40
 5521 0140 0001 0204 		.base64	"AAECBAA="
 5521      00
 5522 0145 2054 5454 		.ascii	" TTTx"
 5522      78
 5523 014a 7F48 4444 		.ascii	"\177HDD8"
 5523      38
 5524 014f 3844 4444 		.ascii	"8DDD "
 5524      20
 5525 0154 3844 4448 		.ascii	"8DDH\177"
 5525      7F
 5526 0159 3854 5454 		.ascii	"8TTT\030"
 5526      18
 5527 015e 087E 0901 		.base64	"CH4JAQI="
 5527      02
 5528 0163 0C52 5252 		.ascii	"\fRRR>"
 5528      3E
 5529 0168 7F08 0404 		.base64	"fwgEBHg="
 5529      78
 5530 016d 0044 7D40 		.base64	"AER9QAA="
 5530      00
 5531 0172 2040 443D 		.string	" @D="
 5531      00
 5532 0177 7F10 2844 		.base64	"fxAoRAA="
 5532      00
 5533 017c 0041 7F40 		.base64	"AEF/QAA="
 5533      00
 5534 0181 7C04 1804 		.base64	"fAQYBHg="
 5534      78
 5535 0186 7C08 0404 		.base64	"fAgEBHg="
 5535      78
 5536 018b 3844 4444 		.ascii	"8DDD8"
 5536      38
 5537 0190 7C14 1414 		.base64	"fBQUFAg="
 5537      08
 5538 0195 0814 1418 		.base64	"CBQUGHw="
 5538      7C
 5539 019a 7C08 0404 		.base64	"fAgEBAg="
 5539      08
 5540 019f 4854 5454 		.ascii	"HTTT "
 5540      20
 5541 01a4 043F 4440 		.ascii	"\004?D@ "
 5541      20
 5542 01a9 3C40 4020 		.ascii	"<@@ |"
GAS LISTING /tmp/cc7wpQ70.s 			page 141


 5542      7C
 5543 01ae 1C20 4020 		.base64	"HCBAIBw="
 5543      1C
 5544 01b3 3C40 3040 		.ascii	"<@0@<"
 5544      3C
 5545 01b8 4428 1028 		.ascii	"D(\020(D"
 5545      44
 5546 01bd 0C50 5050 		.ascii	"\fPPP<"
 5546      3C
 5547 01c2 4464 544C 		.ascii	"DdTLD"
 5547      44
 5548 01c7 0008 3641 		.base64	"AAg2QQA="
 5548      00
 5549 01cc 0000 7F00 		.base64	"AAB/AAA="
 5549      00
 5550 01d1 0041 3608 		.base64	"AEE2CAA="
 5550      00
 5551 01d6 0804 0810 		.base64	"CAQIEAg="
 5551      08
 5552               		.section	.progmem.data._ZL24constSsd1306InitSequence,"a",@progbits
 5555               	_ZL24constSsd1306InitSequence:
 5556 0000 AED5 80D3 		.base64	"rtWA0wBAjRQgAqHI2fHbQKSm"
 5556      0040 8D14 
 5556      2002 A1C8 
 5556      D9F1 DB40 
 5556      A4A6 
 5557               		.text
 5558               	.Letext0:
 5559               		.file 2 "/usr/avr/include/stdint.h"
 5560               		.file 3 "funsape/device/../config/atmega328p.hpp"
 5561               		.file 4 "/usr/avr/include/stdio.h"
 5562               		.file 5 "funsape/device/../globalDefines.hpp"
 5563               		.file 6 "funsape/device/ssd1306.hpp"
 5564               		.file 7 "funsape/device/../util/bus.hpp"
GAS LISTING /tmp/cc7wpQ70.s 			page 142


DEFINED SYMBOLS
                            *ABS*:00000000 ssd1306.cpp
     /tmp/cc7wpQ70.s:2      *ABS*:0000003e __SP_H__
     /tmp/cc7wpQ70.s:3      *ABS*:0000003d __SP_L__
     /tmp/cc7wpQ70.s:4      *ABS*:0000003f __SREG__
     /tmp/cc7wpQ70.s:5      *ABS*:00000000 __tmp_reg__
     /tmp/cc7wpQ70.s:6      *ABS*:00000001 __zero_reg__
     /tmp/cc7wpQ70.s:14     .text._ZN7Ssd1306C2Ev:00000000 _ZN7Ssd1306C2Ev
     /tmp/cc7wpQ70.s:17     .text._ZN7Ssd1306C2Ev:00000000 .Loc.0
     /tmp/cc7wpQ70.s:18     .text._ZN7Ssd1306C2Ev:00000000 L0
     /tmp/cc7wpQ70.s:23     .text._ZN7Ssd1306C2Ev:00000000 .Loc.1
     /tmp/cc7wpQ70.s:26     .text._ZN7Ssd1306C2Ev:00000002 .Loc.2
     /tmp/cc7wpQ70.s:27     .text._ZN7Ssd1306C2Ev:00000002 .Loc.3
     /tmp/cc7wpQ70.s:28     .text._ZN7Ssd1306C2Ev:00000002 .Loc.4
     /tmp/cc7wpQ70.s:5451   .bss.ssd1306Stream:00000000 ssd1306Stream
     /tmp/cc7wpQ70.s:3112   .text._ZL15ssd1306WriteStdcP6__file:00000000 _ZL15ssd1306WriteStdcP6__file
     /tmp/cc7wpQ70.s:34     .text._ZN7Ssd1306C2Ev:0000000a .Loc.5
     /tmp/cc7wpQ70.s:37     .text._ZN7Ssd1306C2Ev:0000000e .Loc.6
     /tmp/cc7wpQ70.s:40     .text._ZN7Ssd1306C2Ev:00000012 .Loc.7
     /tmp/cc7wpQ70.s:44     .text._ZN7Ssd1306C2Ev:00000018 .Loc.8
     /tmp/cc7wpQ70.s:48     .text._ZN7Ssd1306C2Ev:0000001e .Loc.9
     /tmp/cc7wpQ70.s:49     .text._ZN7Ssd1306C2Ev:0000001e .Loc.10
     /tmp/cc7wpQ70.s:50     .text._ZN7Ssd1306C2Ev:0000001e .Loc.11
     /tmp/cc7wpQ70.s:53     .text._ZN7Ssd1306C2Ev:00000022 .Loc.12
     /tmp/cc7wpQ70.s:54     .text._ZN7Ssd1306C2Ev:00000022 .Loc.13
     /tmp/cc7wpQ70.s:57     .text._ZN7Ssd1306C2Ev:00000026 .Loc.14
     /tmp/cc7wpQ70.s:58     .text._ZN7Ssd1306C2Ev:00000026 .Loc.15
     /tmp/cc7wpQ70.s:60     .text._ZN7Ssd1306C2Ev:00000028 .Loc.16
     /tmp/cc7wpQ70.s:61     .text._ZN7Ssd1306C2Ev:00000028 .Loc.17
     /tmp/cc7wpQ70.s:65     .text._ZN7Ssd1306C2Ev:0000002e .Loc.18
     /tmp/cc7wpQ70.s:66     .text._ZN7Ssd1306C2Ev:0000002e .Loc.19
     /tmp/cc7wpQ70.s:69     .text._ZN7Ssd1306C2Ev:00000032 .Loc.20
     /tmp/cc7wpQ70.s:70     .text._ZN7Ssd1306C2Ev:00000032 .Loc.21
     /tmp/cc7wpQ70.s:73     .text._ZN7Ssd1306C2Ev:00000036 .Loc.22
     /tmp/cc7wpQ70.s:74     .text._ZN7Ssd1306C2Ev:00000036 .Loc.23
     /tmp/cc7wpQ70.s:79     .text._ZN7Ssd1306C2Ev:0000003e .Loc.24
     /tmp/cc7wpQ70.s:80     .text._ZN7Ssd1306C2Ev:0000003e .Loc.25
     /tmp/cc7wpQ70.s:82     .text._ZN7Ssd1306C2Ev:00000040 .Loc.26
     /tmp/cc7wpQ70.s:83     .text._ZN7Ssd1306C2Ev:00000040 .Loc.27
     /tmp/cc7wpQ70.s:86     .text._ZN7Ssd1306C2Ev:00000044 .Loc.28
     /tmp/cc7wpQ70.s:87     .text._ZN7Ssd1306C2Ev:00000044 .Loc.29
     /tmp/cc7wpQ70.s:89     .text._ZN7Ssd1306C2Ev:00000046 .Loc.30
     /tmp/cc7wpQ70.s:90     .text._ZN7Ssd1306C2Ev:00000046 .Loc.31
     /tmp/cc7wpQ70.s:92     .text._ZN7Ssd1306C2Ev:00000048 .Loc.32
     /tmp/cc7wpQ70.s:93     .text._ZN7Ssd1306C2Ev:00000048 .Loc.33
     /tmp/cc7wpQ70.s:98     .text._ZN7Ssd1306C2Ev:00000050 .Loc.34
     /tmp/cc7wpQ70.s:99     .text._ZN7Ssd1306C2Ev:00000050 .Loc.35
     /tmp/cc7wpQ70.s:102    .text._ZN7Ssd1306C2Ev:00000054 .Loc.36
     /tmp/cc7wpQ70.s:103    .text._ZN7Ssd1306C2Ev:00000054 .Loc.37
     /tmp/cc7wpQ70.s:106    .text._ZN7Ssd1306C2Ev:00000054 .Loc.38
     /tmp/cc7wpQ70.s:108    .text._ZN7Ssd1306C2Ev:00000056 L0
     /tmp/cc7wpQ70.s:14     .text._ZN7Ssd1306C2Ev:00000000 _ZN7Ssd1306C1Ev
     /tmp/cc7wpQ70.s:116    .text._ZN7Ssd1306D2Ev:00000000 _ZN7Ssd1306D2Ev
     /tmp/cc7wpQ70.s:119    .text._ZN7Ssd1306D2Ev:00000000 .Loc.39
     /tmp/cc7wpQ70.s:120    .text._ZN7Ssd1306D2Ev:00000000 L0
     /tmp/cc7wpQ70.s:126    .text._ZN7Ssd1306D2Ev:00000000 .Loc.40
     /tmp/cc7wpQ70.s:127    .text._ZN7Ssd1306D2Ev:00000000 .Loc.41
GAS LISTING /tmp/cc7wpQ70.s 			page 143


     /tmp/cc7wpQ70.s:130    .text._ZN7Ssd1306D2Ev:00000000 .Loc.42
     /tmp/cc7wpQ70.s:132    .text._ZN7Ssd1306D2Ev:00000002 L0
     /tmp/cc7wpQ70.s:116    .text._ZN7Ssd1306D2Ev:00000000 _ZN7Ssd1306D1Ev
     /tmp/cc7wpQ70.s:140    .text._ZN7Ssd130612getLastErrorEv:00000000 _ZN7Ssd130612getLastErrorEv
     /tmp/cc7wpQ70.s:143    .text._ZN7Ssd130612getLastErrorEv:00000000 .Loc.43
     /tmp/cc7wpQ70.s:144    .text._ZN7Ssd130612getLastErrorEv:00000000 L0
     /tmp/cc7wpQ70.s:149    .text._ZN7Ssd130612getLastErrorEv:00000000 .Loc.44
     /tmp/cc7wpQ70.s:150    .text._ZN7Ssd130612getLastErrorEv:00000000 .Loc.45
     /tmp/cc7wpQ70.s:156    .text._ZN7Ssd130612getLastErrorEv:00000006 .Loc.46
     /tmp/cc7wpQ70.s:158    .text._ZN7Ssd130612getLastErrorEv:00000008 L0
     /tmp/cc7wpQ70.s:164    .text._ZN7Ssd130611setTextSizeEh:00000000 _ZN7Ssd130611setTextSizeEh
     /tmp/cc7wpQ70.s:167    .text._ZN7Ssd130611setTextSizeEh:00000000 .Loc.47
     /tmp/cc7wpQ70.s:168    .text._ZN7Ssd130611setTextSizeEh:00000000 L0
     /tmp/cc7wpQ70.s:173    .text._ZN7Ssd130611setTextSizeEh:00000000 .Loc.48
     /tmp/cc7wpQ70.s:175    .text._ZN7Ssd130611setTextSizeEh:00000002 .Loc.49
     /tmp/cc7wpQ70.s:176    .text._ZN7Ssd130611setTextSizeEh:00000002 .Loc.50
     /tmp/cc7wpQ70.s:177    .text._ZN7Ssd130611setTextSizeEh:00000002 .Loc.51
     /tmp/cc7wpQ70.s:180    .text._ZN7Ssd130611setTextSizeEh:00000004 .Loc.52
     /tmp/cc7wpQ70.s:182    .text._ZN7Ssd130611setTextSizeEh:00000006 .Loc.53
     /tmp/cc7wpQ70.s:185    .text._ZN7Ssd130611setTextSizeEh:0000000a .Loc.54
     /tmp/cc7wpQ70.s:186    .text._ZN7Ssd130611setTextSizeEh:0000000a .Loc.55
     /tmp/cc7wpQ70.s:189    .text._ZN7Ssd130611setTextSizeEh:0000000c .Loc.56
     /tmp/cc7wpQ70.s:194    .text._ZN7Ssd130611setTextSizeEh:00000014 .Loc.57
     /tmp/cc7wpQ70.s:195    .text._ZN7Ssd130611setTextSizeEh:00000014 .Loc.58
     /tmp/cc7wpQ70.s:198    .text._ZN7Ssd130611setTextSizeEh:00000018 .Loc.59
     /tmp/cc7wpQ70.s:199    .text._ZN7Ssd130611setTextSizeEh:00000018 .Loc.60
     /tmp/cc7wpQ70.s:200    .text._ZN7Ssd130611setTextSizeEh:00000018 .Loc.61
     /tmp/cc7wpQ70.s:204    .text._ZN7Ssd130611setTextSizeEh:0000001a .Loc.62
     /tmp/cc7wpQ70.s:208    .text._ZN7Ssd130611setTextSizeEh:0000001c .Loc.63
     /tmp/cc7wpQ70.s:209    .text._ZN7Ssd130611setTextSizeEh:0000001c .Loc.64
     /tmp/cc7wpQ70.s:214    .text._ZN7Ssd130611setTextSizeEh:00000024 .Loc.65
     /tmp/cc7wpQ70.s:215    .text._ZN7Ssd130611setTextSizeEh:00000024 .Loc.66
     /tmp/cc7wpQ70.s:216    .text._ZN7Ssd130611setTextSizeEh:00000024 .Loc.67
     /tmp/cc7wpQ70.s:219    .text._ZN7Ssd130611setTextSizeEh:00000028 L0
     /tmp/cc7wpQ70.s:225    .text._ZN7Ssd13065stdioEv:00000000 _ZN7Ssd13065stdioEv
     /tmp/cc7wpQ70.s:228    .text._ZN7Ssd13065stdioEv:00000000 .Loc.68
     /tmp/cc7wpQ70.s:229    .text._ZN7Ssd13065stdioEv:00000000 L0
     /tmp/cc7wpQ70.s:234    .text._ZN7Ssd13065stdioEv:00000000 .Loc.69
     /tmp/cc7wpQ70.s:235    .text._ZN7Ssd13065stdioEv:00000000 .Loc.70
     /tmp/cc7wpQ70.s:236    .text._ZN7Ssd13065stdioEv:00000000 .Loc.71
     /tmp/cc7wpQ70.s:243    .text._ZN7Ssd13065stdioEv:0000000c .Loc.72
     /tmp/cc7wpQ70.s:246    .text._ZN7Ssd13065stdioEv:00000010 .Loc.73
     /tmp/cc7wpQ70.s:249    .text._ZN7Ssd13065stdioEv:00000014 .Loc.74
     /tmp/cc7wpQ70.s:250    .text._ZN7Ssd13065stdioEv:00000014 .Loc.75
     /tmp/cc7wpQ70.s:5445   .bss.defaultSsd1306Display:00000000 defaultSsd1306Display
     /tmp/cc7wpQ70.s:253    .text._ZN7Ssd13065stdioEv:0000001c .Loc.76
     /tmp/cc7wpQ70.s:254    .text._ZN7Ssd13065stdioEv:0000001c .Loc.77
     /tmp/cc7wpQ70.s:258    .text._ZN7Ssd13065stdioEv:00000022 .Loc.78
     /tmp/cc7wpQ70.s:259    .text._ZN7Ssd13065stdioEv:00000022 .Loc.79
     /tmp/cc7wpQ70.s:260    .text._ZN7Ssd13065stdioEv:00000022 .Loc.80
     /tmp/cc7wpQ70.s:264    .text._ZN7Ssd13065stdioEv:00000024 .Loc.81
     /tmp/cc7wpQ70.s:266    .text._ZN7Ssd13065stdioEv:00000026 L0
     /tmp/cc7wpQ70.s:272    .text._ZN7Ssd130613_writeCommandEh:00000000 _ZN7Ssd130613_writeCommandEh
     /tmp/cc7wpQ70.s:275    .text._ZN7Ssd130613_writeCommandEh:00000000 .Loc.82
     /tmp/cc7wpQ70.s:276    .text._ZN7Ssd130613_writeCommandEh:00000000 L0
     /tmp/cc7wpQ70.s:277    .text._ZN7Ssd130613_writeCommandEh:00000000 .Loc.83
     /tmp/cc7wpQ70.s:310    .text._ZN7Ssd130613_writeCommandEh:00000012 .Loc.84
GAS LISTING /tmp/cc7wpQ70.s 			page 144


     /tmp/cc7wpQ70.s:311    .text._ZN7Ssd130613_writeCommandEh:00000012 .Loc.85
     /tmp/cc7wpQ70.s:313    .text._ZN7Ssd130613_writeCommandEh:00000014 .Loc.86
     /tmp/cc7wpQ70.s:314    .text._ZN7Ssd130613_writeCommandEh:00000014 .Loc.87
     /tmp/cc7wpQ70.s:319    .text._ZN7Ssd130613_writeCommandEh:0000001a .Loc.88
     /tmp/cc7wpQ70.s:322    .text._ZN7Ssd130613_writeCommandEh:0000001c .Loc.89
     /tmp/cc7wpQ70.s:324    .text._ZN7Ssd130613_writeCommandEh:0000001e .Loc.90
     /tmp/cc7wpQ70.s:336    .text._ZN7Ssd130613_writeCommandEh:00000032 .Loc.91
     /tmp/cc7wpQ70.s:338    .text._ZN7Ssd130613_writeCommandEh:00000034 .Loc.92
     /tmp/cc7wpQ70.s:341    .text._ZN7Ssd130613_writeCommandEh:00000038 .Loc.93
     /tmp/cc7wpQ70.s:342    .text._ZN7Ssd130613_writeCommandEh:00000038 .Loc.94
     /tmp/cc7wpQ70.s:346    .text._ZN7Ssd130613_writeCommandEh:0000003e .Loc.95
     /tmp/cc7wpQ70.s:363    .text._ZN7Ssd130613_writeCommandEh:0000005c .Loc.96
     /tmp/cc7wpQ70.s:366    .text._ZN7Ssd130613_writeCommandEh:00000060 .Loc.97
     /tmp/cc7wpQ70.s:367    .text._ZN7Ssd130613_writeCommandEh:00000060 .Loc.98
     /tmp/cc7wpQ70.s:371    .text._ZN7Ssd130613_writeCommandEh:00000066 .Loc.99
     /tmp/cc7wpQ70.s:373    .text._ZN7Ssd130613_writeCommandEh:00000066 .Loc.100
     /tmp/cc7wpQ70.s:382    .text._ZN7Ssd130613_writeCommandEh:00000072 .Loc.101
     /tmp/cc7wpQ70.s:387    .text._ZN7Ssd130613_writeCommandEh:00000076 .Loc.102
     /tmp/cc7wpQ70.s:388    .text._ZN7Ssd130613_writeCommandEh:00000076 .Loc.103
     /tmp/cc7wpQ70.s:392    .text._ZN7Ssd130613_writeCommandEh:0000007c .Loc.104
     /tmp/cc7wpQ70.s:402    .text._ZN7Ssd130613_writeCommandEh:0000008c .Loc.105
     /tmp/cc7wpQ70.s:406    .text._ZN7Ssd130613_writeCommandEh:00000092 .Loc.106
     /tmp/cc7wpQ70.s:407    .text._ZN7Ssd130613_writeCommandEh:00000092 .Loc.107
     /tmp/cc7wpQ70.s:410    .text._ZN7Ssd130613_writeCommandEh:00000094 .Loc.108
     /tmp/cc7wpQ70.s:411    .text._ZN7Ssd130613_writeCommandEh:00000094 .Loc.109
     /tmp/cc7wpQ70.s:415    .text._ZN7Ssd130613_writeCommandEh:0000009a .Loc.110
     /tmp/cc7wpQ70.s:425    .text._ZN7Ssd130613_writeCommandEh:000000aa .Loc.111
     /tmp/cc7wpQ70.s:429    .text._ZN7Ssd130613_writeCommandEh:000000b0 .Loc.112
     /tmp/cc7wpQ70.s:430    .text._ZN7Ssd130613_writeCommandEh:000000b0 .Loc.113
     /tmp/cc7wpQ70.s:432    .text._ZN7Ssd130613_writeCommandEh:000000b2 L0
     /tmp/cc7wpQ70.s:438    .text._ZN7Ssd130617_writeCommandListEPKhh:00000000 _ZN7Ssd130617_writeCommandListEPKhh
     /tmp/cc7wpQ70.s:441    .text._ZN7Ssd130617_writeCommandListEPKhh:00000000 .Loc.114
     /tmp/cc7wpQ70.s:442    .text._ZN7Ssd130617_writeCommandListEPKhh:00000000 L0
     /tmp/cc7wpQ70.s:443    .text._ZN7Ssd130617_writeCommandListEPKhh:00000000 .Loc.115
     /tmp/cc7wpQ70.s:475    .text._ZN7Ssd130617_writeCommandListEPKhh:00000012 .Loc.116
     /tmp/cc7wpQ70.s:478    .text._ZN7Ssd130617_writeCommandListEPKhh:00000012 .Loc.117
     /tmp/cc7wpQ70.s:480    .text._ZN7Ssd130617_writeCommandListEPKhh:00000014 .Loc.118
     /tmp/cc7wpQ70.s:484    .text._ZN7Ssd130617_writeCommandListEPKhh:00000016 .Loc.119
     /tmp/cc7wpQ70.s:488    .text._ZN7Ssd130617_writeCommandListEPKhh:00000018 .Loc.120
     /tmp/cc7wpQ70.s:491    .text._ZN7Ssd130617_writeCommandListEPKhh:0000001c .Loc.121
     /tmp/cc7wpQ70.s:494    .text._ZN7Ssd130617_writeCommandListEPKhh:0000001c .Loc.122
     /tmp/cc7wpQ70.s:499    .text._ZN7Ssd130617_writeCommandListEPKhh:00000022 .Loc.123
     /tmp/cc7wpQ70.s:500    .text._ZN7Ssd130617_writeCommandListEPKhh:00000022 .Loc.124
     /tmp/cc7wpQ70.s:506    .text._ZN7Ssd130617_writeCommandListEPKhh:00000024 .Loc.125
     /tmp/cc7wpQ70.s:509    .text._ZN7Ssd130617_writeCommandListEPKhh:00000024 .Loc.126
     /tmp/cc7wpQ70.s:513    .text._ZN7Ssd130617_writeCommandListEPKhh:0000002a .Loc.127
     /tmp/cc7wpQ70.s:519    .text._ZN7Ssd130617_writeCommandListEPKhh:00000030 .Loc.128
     /tmp/cc7wpQ70.s:522    .text._ZN7Ssd130617_writeCommandListEPKhh:00000030 .Loc.129
     /tmp/cc7wpQ70.s:523    .text._ZN7Ssd130617_writeCommandListEPKhh:00000030 .Loc.130
     /tmp/cc7wpQ70.s:527    .text._ZN7Ssd130617_writeCommandListEPKhh:00000036 .Loc.131
     /tmp/cc7wpQ70.s:528    .text._ZN7Ssd130617_writeCommandListEPKhh:00000036 .Loc.132
     /tmp/cc7wpQ70.s:532    .text._ZN7Ssd130617_writeCommandListEPKhh:00000038 .Loc.133
     /tmp/cc7wpQ70.s:535    .text._ZN7Ssd130617_writeCommandListEPKhh:0000003a .Loc.134
     /tmp/cc7wpQ70.s:538    .text._ZN7Ssd130617_writeCommandListEPKhh:0000003c .Loc.135
     /tmp/cc7wpQ70.s:542    .text._ZN7Ssd130617_writeCommandListEPKhh:00000040 .Loc.136
     /tmp/cc7wpQ70.s:546    .text._ZN7Ssd130617_writeCommandListEPKhh:00000044 .Loc.137
     /tmp/cc7wpQ70.s:548    .text._ZN7Ssd130617_writeCommandListEPKhh:00000046 L0
GAS LISTING /tmp/cc7wpQ70.s 			page 145


     /tmp/cc7wpQ70.s:554    .text._ZN7Ssd130610_writeDataEPKhh:00000000 _ZN7Ssd130610_writeDataEPKhh
     /tmp/cc7wpQ70.s:557    .text._ZN7Ssd130610_writeDataEPKhh:00000000 .Loc.138
     /tmp/cc7wpQ70.s:558    .text._ZN7Ssd130610_writeDataEPKhh:00000000 L0
     /tmp/cc7wpQ70.s:559    .text._ZN7Ssd130610_writeDataEPKhh:00000000 .Loc.139
     /tmp/cc7wpQ70.s:603    .text._ZN7Ssd130610_writeDataEPKhh:00000018 .Loc.140
     /tmp/cc7wpQ70.s:605    .text._ZN7Ssd130610_writeDataEPKhh:00000018 .Loc.141
     /tmp/cc7wpQ70.s:606    .text._ZN7Ssd130610_writeDataEPKhh:00000018 .Loc.142
     /tmp/cc7wpQ70.s:611    .text._ZN7Ssd130610_writeDataEPKhh:0000001e .Loc.143
     /tmp/cc7wpQ70.s:614    .text._ZN7Ssd130610_writeDataEPKhh:00000020 .Loc.144
     /tmp/cc7wpQ70.s:616    .text._ZN7Ssd130610_writeDataEPKhh:00000022 .Loc.145
     /tmp/cc7wpQ70.s:627    .text._ZN7Ssd130610_writeDataEPKhh:00000034 .Loc.146
     /tmp/cc7wpQ70.s:631    .text._ZN7Ssd130610_writeDataEPKhh:00000038 .Loc.147
     /tmp/cc7wpQ70.s:634    .text._ZN7Ssd130610_writeDataEPKhh:0000003c .Loc.148
     /tmp/cc7wpQ70.s:638    .text._ZN7Ssd130610_writeDataEPKhh:00000040 .Loc.149
     /tmp/cc7wpQ70.s:639    .text._ZN7Ssd130610_writeDataEPKhh:00000040 .Loc.150
     /tmp/cc7wpQ70.s:643    .text._ZN7Ssd130610_writeDataEPKhh:00000046 .Loc.151
     /tmp/cc7wpQ70.s:653    .text._ZN7Ssd130610_writeDataEPKhh:00000056 .Loc.152
     /tmp/cc7wpQ70.s:657    .text._ZN7Ssd130610_writeDataEPKhh:0000005c .Loc.153
     /tmp/cc7wpQ70.s:660    .text._ZN7Ssd130610_writeDataEPKhh:0000005c .Loc.154
     /tmp/cc7wpQ70.s:668    .text._ZN7Ssd130610_writeDataEPKhh:00000066 .Loc.155
     /tmp/cc7wpQ70.s:672    .text._ZN7Ssd130610_writeDataEPKhh:0000006a .Loc.156
     /tmp/cc7wpQ70.s:675    .text._ZN7Ssd130610_writeDataEPKhh:0000006c .Loc.157
     /tmp/cc7wpQ70.s:682    .text._ZN7Ssd130610_writeDataEPKhh:00000072 .Loc.158
     /tmp/cc7wpQ70.s:683    .text._ZN7Ssd130610_writeDataEPKhh:00000072 .Loc.159
     /tmp/cc7wpQ70.s:687    .text._ZN7Ssd130610_writeDataEPKhh:00000078 .Loc.160
     /tmp/cc7wpQ70.s:704    .text._ZN7Ssd130610_writeDataEPKhh:00000096 .Loc.161
     /tmp/cc7wpQ70.s:707    .text._ZN7Ssd130610_writeDataEPKhh:0000009a .Loc.162
     /tmp/cc7wpQ70.s:708    .text._ZN7Ssd130610_writeDataEPKhh:0000009a .Loc.163
     /tmp/cc7wpQ70.s:712    .text._ZN7Ssd130610_writeDataEPKhh:0000009c .Loc.164
     /tmp/cc7wpQ70.s:714    .text._ZN7Ssd130610_writeDataEPKhh:0000009c .Loc.165
     /tmp/cc7wpQ70.s:718    .text._ZN7Ssd130610_writeDataEPKhh:000000a0 .Loc.166
     /tmp/cc7wpQ70.s:719    .text._ZN7Ssd130610_writeDataEPKhh:000000a0 .Loc.167
     /tmp/cc7wpQ70.s:723    .text._ZN7Ssd130610_writeDataEPKhh:000000a4 .Loc.168
     /tmp/cc7wpQ70.s:726    .text._ZN7Ssd130610_writeDataEPKhh:000000a8 .Loc.169
     /tmp/cc7wpQ70.s:729    .text._ZN7Ssd130610_writeDataEPKhh:000000aa .Loc.170
     /tmp/cc7wpQ70.s:733    .text._ZN7Ssd130610_writeDataEPKhh:000000ac .Loc.171
     /tmp/cc7wpQ70.s:734    .text._ZN7Ssd130610_writeDataEPKhh:000000ac .Loc.172
     /tmp/cc7wpQ70.s:738    .text._ZN7Ssd130610_writeDataEPKhh:000000b2 .Loc.173
     /tmp/cc7wpQ70.s:748    .text._ZN7Ssd130610_writeDataEPKhh:000000c2 .Loc.174
     /tmp/cc7wpQ70.s:752    .text._ZN7Ssd130610_writeDataEPKhh:000000c8 .Loc.175
     /tmp/cc7wpQ70.s:753    .text._ZN7Ssd130610_writeDataEPKhh:000000c8 .Loc.176
     /tmp/cc7wpQ70.s:758    .text._ZN7Ssd130610_writeDataEPKhh:000000cc .Loc.177
     /tmp/cc7wpQ70.s:760    .text._ZN7Ssd130610_writeDataEPKhh:000000cc .Loc.178
     /tmp/cc7wpQ70.s:761    .text._ZN7Ssd130610_writeDataEPKhh:000000cc .Loc.179
     /tmp/cc7wpQ70.s:765    .text._ZN7Ssd130610_writeDataEPKhh:000000d2 .Loc.180
     /tmp/cc7wpQ70.s:766    .text._ZN7Ssd130610_writeDataEPKhh:000000d2 .Loc.181
     /tmp/cc7wpQ70.s:768    .text._ZN7Ssd130610_writeDataEPKhh:000000d4 L0
     /tmp/cc7wpQ70.s:774    .text._ZN7Ssd130611_setAddressEhh:00000000 _ZN7Ssd130611_setAddressEhh
     /tmp/cc7wpQ70.s:777    .text._ZN7Ssd130611_setAddressEhh:00000000 .Loc.182
     /tmp/cc7wpQ70.s:778    .text._ZN7Ssd130611_setAddressEhh:00000000 L0
     /tmp/cc7wpQ70.s:779    .text._ZN7Ssd130611_setAddressEhh:00000000 .Loc.183
     /tmp/cc7wpQ70.s:798    .text._ZN7Ssd130611_setAddressEhh:0000000a .Loc.184
     /tmp/cc7wpQ70.s:799    .text._ZN7Ssd130611_setAddressEhh:0000000a .Loc.185
     /tmp/cc7wpQ70.s:802    .text._ZN7Ssd130611_setAddressEhh:0000000c .Loc.186
     /tmp/cc7wpQ70.s:806    .text._ZN7Ssd130611_setAddressEhh:00000012 .Loc.187
     /tmp/cc7wpQ70.s:811    .text._ZN7Ssd130611_setAddressEhh:00000016 .Loc.188
     /tmp/cc7wpQ70.s:814    .text._ZN7Ssd130611_setAddressEhh:00000018 .Loc.189
GAS LISTING /tmp/cc7wpQ70.s 			page 146


     /tmp/cc7wpQ70.s:818    .text._ZN7Ssd130611_setAddressEhh:0000001c .Loc.190
     /tmp/cc7wpQ70.s:822    .text._ZN7Ssd130611_setAddressEhh:0000001e .Loc.191
     /tmp/cc7wpQ70.s:823    .text._ZN7Ssd130611_setAddressEhh:0000001e .Loc.192
     /tmp/cc7wpQ70.s:829    .text._ZN7Ssd130611_setAddressEhh:00000028 .Loc.193
     /tmp/cc7wpQ70.s:832    .text._ZN7Ssd130611_setAddressEhh:0000002c .Loc.194
     /tmp/cc7wpQ70.s:833    .text._ZN7Ssd130611_setAddressEhh:0000002c .Loc.195
     /tmp/cc7wpQ70.s:837    .text._ZN7Ssd130611_setAddressEhh:00000032 .Loc.196
     /tmp/cc7wpQ70.s:842    .text._ZN7Ssd130611_setAddressEhh:0000003a .Loc.197
     /tmp/cc7wpQ70.s:845    .text._ZN7Ssd130611_setAddressEhh:0000003e .Loc.198
     /tmp/cc7wpQ70.s:846    .text._ZN7Ssd130611_setAddressEhh:0000003e .Loc.199
     /tmp/cc7wpQ70.s:850    .text._ZN7Ssd130611_setAddressEhh:00000044 .Loc.200
     /tmp/cc7wpQ70.s:851    .text._ZN7Ssd130611_setAddressEhh:00000044 .Loc.201
     /tmp/cc7wpQ70.s:853    .text._ZN7Ssd130611_setAddressEhh:00000046 L0
     /tmp/cc7wpQ70.s:859    .text._ZN7Ssd13069_setPixelEhhb:00000000 _ZN7Ssd13069_setPixelEhhb
     /tmp/cc7wpQ70.s:862    .text._ZN7Ssd13069_setPixelEhhb:00000000 .Loc.202
     /tmp/cc7wpQ70.s:863    .text._ZN7Ssd13069_setPixelEhhb:00000000 L0
     /tmp/cc7wpQ70.s:864    .text._ZN7Ssd13069_setPixelEhhb:00000000 .Loc.203
     /tmp/cc7wpQ70.s:878    .text._ZN7Ssd13069_setPixelEhhb:00000006 .Loc.204
     /tmp/cc7wpQ70.s:881    .text._ZN7Ssd13069_setPixelEhhb:0000000a .Loc.205
     /tmp/cc7wpQ70.s:884    .text._ZN7Ssd13069_setPixelEhhb:0000000c .Loc.206
     /tmp/cc7wpQ70.s:888    .text._ZN7Ssd13069_setPixelEhhb:00000012 .Loc.207
     /tmp/cc7wpQ70.s:891    .text._ZN7Ssd13069_setPixelEhhb:00000016 .Loc.208
     /tmp/cc7wpQ70.s:892    .text._ZN7Ssd13069_setPixelEhhb:00000016 .Loc.209
     /tmp/cc7wpQ70.s:897    .text._ZN7Ssd13069_setPixelEhhb:0000001e .Loc.210
     /tmp/cc7wpQ70.s:902    .text._ZN7Ssd13069_setPixelEhhb:00000026 .Loc.211
     /tmp/cc7wpQ70.s:907    .text._ZN7Ssd13069_setPixelEhhb:0000002c .Loc.212
     /tmp/cc7wpQ70.s:908    .text._ZN7Ssd13069_setPixelEhhb:0000002c .Loc.213
     /tmp/cc7wpQ70.s:911    .text._ZN7Ssd13069_setPixelEhhb:0000002e .Loc.214
     /tmp/cc7wpQ70.s:923    .text._ZN7Ssd13069_setPixelEhhb:0000003e .Loc.215
     /tmp/cc7wpQ70.s:926    .text._ZN7Ssd13069_setPixelEhhb:00000042 .Loc.216
     /tmp/cc7wpQ70.s:927    .text._ZN7Ssd13069_setPixelEhhb:00000042 .Loc.217
     /tmp/cc7wpQ70.s:930    .text._ZN7Ssd13069_setPixelEhhb:00000046 .Loc.218
     /tmp/cc7wpQ70.s:934    .text._ZN7Ssd13069_setPixelEhhb:0000004c .Loc.219
     /tmp/cc7wpQ70.s:937    .text._ZN7Ssd13069_setPixelEhhb:0000004e .Loc.220
     /tmp/cc7wpQ70.s:941    .text._ZN7Ssd13069_setPixelEhhb:00000052 .Loc.221
     /tmp/cc7wpQ70.s:942    .text._ZN7Ssd13069_setPixelEhhb:00000052 .Loc.222
     /tmp/cc7wpQ70.s:944    .text._ZN7Ssd13069_setPixelEhhb:00000054 .Loc.223
     /tmp/cc7wpQ70.s:948    .text._ZN7Ssd13069_setPixelEhhb:00000058 .Loc.224
     /tmp/cc7wpQ70.s:956    .text._ZN7Ssd13069_setPixelEhhb:00000062 .Loc.225
     /tmp/cc7wpQ70.s:959    .text._ZN7Ssd13069_setPixelEhhb:00000066 .Loc.226
     /tmp/cc7wpQ70.s:963    .text._ZN7Ssd13069_setPixelEhhb:00000066 .Loc.227
     /tmp/cc7wpQ70.s:969    .text._ZN7Ssd13069_setPixelEhhb:0000006c .Loc.228
     /tmp/cc7wpQ70.s:970    .text._ZN7Ssd13069_setPixelEhhb:0000006c .Loc.229
     /tmp/cc7wpQ70.s:973    .text._ZN7Ssd13069_setPixelEhhb:00000070 .Loc.230
     /tmp/cc7wpQ70.s:977    .text._ZN7Ssd13069_setPixelEhhb:00000076 .Loc.231
     /tmp/cc7wpQ70.s:980    .text._ZN7Ssd13069_setPixelEhhb:00000078 .Loc.232
     /tmp/cc7wpQ70.s:985    .text._ZN7Ssd13069_setPixelEhhb:00000080 L0
     /tmp/cc7wpQ70.s:991    .text._ZN7Ssd130610_writeCharEc:00000000 _ZN7Ssd130610_writeCharEc
     /tmp/cc7wpQ70.s:994    .text._ZN7Ssd130610_writeCharEc:00000000 .Loc.233
     /tmp/cc7wpQ70.s:995    .text._ZN7Ssd130610_writeCharEc:00000000 L0
     /tmp/cc7wpQ70.s:996    .text._ZN7Ssd130610_writeCharEc:00000000 .Loc.234
     /tmp/cc7wpQ70.s:1070   .text._ZN7Ssd130610_writeCharEc:0000002e .Loc.235
     /tmp/cc7wpQ70.s:1071   .text._ZN7Ssd130610_writeCharEc:0000002e .Loc.236
     /tmp/cc7wpQ70.s:1075   .text._ZN7Ssd130610_writeCharEc:00000032 .Loc.237
     /tmp/cc7wpQ70.s:1078   .text._ZN7Ssd130610_writeCharEc:00000036 .Loc.238
     /tmp/cc7wpQ70.s:1081   .text._ZN7Ssd130610_writeCharEc:00000038 .Loc.239
     /tmp/cc7wpQ70.s:1082   .text._ZN7Ssd130610_writeCharEc:00000038 .Loc.240
GAS LISTING /tmp/cc7wpQ70.s 			page 147


     /tmp/cc7wpQ70.s:1085   .text._ZN7Ssd130610_writeCharEc:0000003a .Loc.241
     /tmp/cc7wpQ70.s:1086   .text._ZN7Ssd130610_writeCharEc:0000003a .Loc.242
     /tmp/cc7wpQ70.s:1087   .text._ZN7Ssd130610_writeCharEc:0000003a .Loc.243
     /tmp/cc7wpQ70.s:1090   .text._ZN7Ssd130610_writeCharEc:0000003c .Loc.244
     /tmp/cc7wpQ70.s:1093   .text._ZN7Ssd130610_writeCharEc:00000040 .Loc.245
     /tmp/cc7wpQ70.s:1097   .text._ZN7Ssd130610_writeCharEc:00000042 .Loc.246
     /tmp/cc7wpQ70.s:1098   .text._ZN7Ssd130610_writeCharEc:00000042 .Loc.247
     /tmp/cc7wpQ70.s:1105   .text._ZN7Ssd130610_writeCharEc:0000004c .Loc.248
     /tmp/cc7wpQ70.s:1106   .text._ZN7Ssd130610_writeCharEc:0000004c .Loc.249
     /tmp/cc7wpQ70.s:1109   .text._ZN7Ssd130610_writeCharEc:00000050 .Loc.250
     /tmp/cc7wpQ70.s:1112   .text._ZN7Ssd130610_writeCharEc:00000054 .Loc.251
     /tmp/cc7wpQ70.s:1115   .text._ZN7Ssd130610_writeCharEc:00000056 .Loc.252
     /tmp/cc7wpQ70.s:1122   .text._ZN7Ssd130610_writeCharEc:00000062 .Loc.253
     /tmp/cc7wpQ70.s:1125   .text._ZN7Ssd130610_writeCharEc:00000066 .Loc.254
     /tmp/cc7wpQ70.s:1130   .text._ZN7Ssd130610_writeCharEc:0000006c .Loc.255
     /tmp/cc7wpQ70.s:1131   .text._ZN7Ssd130610_writeCharEc:0000006c .Loc.256
     /tmp/cc7wpQ70.s:1133   .text._ZN7Ssd130610_writeCharEc:0000006e .Loc.257
     /tmp/cc7wpQ70.s:1134   .text._ZN7Ssd130610_writeCharEc:0000006e .Loc.258
     /tmp/cc7wpQ70.s:1136   .text._ZN7Ssd130610_writeCharEc:00000070 .Loc.259
     /tmp/cc7wpQ70.s:1144   .text._ZN7Ssd130610_writeCharEc:0000007c .Loc.260
     /tmp/cc7wpQ70.s:1145   .text._ZN7Ssd130610_writeCharEc:0000007c .Loc.261
     /tmp/cc7wpQ70.s:1148   .text._ZN7Ssd130610_writeCharEc:00000080 .Loc.262
     /tmp/cc7wpQ70.s:1156   .text._ZN7Ssd130610_writeCharEc:0000008e .Loc.263
     /tmp/cc7wpQ70.s:1159   .text._ZN7Ssd130610_writeCharEc:00000092 .Loc.264
     /tmp/cc7wpQ70.s:1162   .text._ZN7Ssd130610_writeCharEc:00000096 .Loc.265
     /tmp/cc7wpQ70.s:1169   .text._ZN7Ssd130610_writeCharEc:000000a2 .Loc.266
     /tmp/cc7wpQ70.s:1173   .text._ZN7Ssd130610_writeCharEc:000000a8 .Loc.267
     /tmp/cc7wpQ70.s:1174   .text._ZN7Ssd130610_writeCharEc:000000a8 .Loc.268
     /tmp/cc7wpQ70.s:1177   .text._ZN7Ssd130610_writeCharEc:000000aa .Loc.269
     /tmp/cc7wpQ70.s:1179   .text._ZN7Ssd130610_writeCharEc:000000aa .Loc.270
     /tmp/cc7wpQ70.s:1185   .text._ZN7Ssd130610_writeCharEc:000000b4 .Loc.271
     /tmp/cc7wpQ70.s:1188   .text._ZN7Ssd130610_writeCharEc:000000b8 .Loc.272
     /tmp/cc7wpQ70.s:1190   .text._ZN7Ssd130610_writeCharEc:000000b8 .Loc.273
     /tmp/cc7wpQ70.s:1191   .text._ZN7Ssd130610_writeCharEc:000000b8 .Loc.274
     /tmp/cc7wpQ70.s:1192   .text._ZN7Ssd130610_writeCharEc:000000b8 .Loc.275
     /tmp/cc7wpQ70.s:1194   .text._ZN7Ssd130610_writeCharEc:000000ba .Loc.276
     /tmp/cc7wpQ70.s:1199   .text._ZN7Ssd130610_writeCharEc:000000c0 .Loc.277
     /tmp/cc7wpQ70.s:1201   .text._ZN7Ssd130610_writeCharEc:000000c0 .Loc.278
     /tmp/cc7wpQ70.s:1203   .text._ZN7Ssd130610_writeCharEc:000000c2 .Loc.279
     /tmp/cc7wpQ70.s:1207   .text._ZN7Ssd130610_writeCharEc:000000c4 .Loc.280
     /tmp/cc7wpQ70.s:1213   .text._ZN7Ssd130610_writeCharEc:000000c4 .Loc.281
     /tmp/cc7wpQ70.s:1222   .text._ZN7Ssd130610_writeCharEc:000000c8 .Loc.282
     /tmp/cc7wpQ70.s:1223   .text._ZN7Ssd130610_writeCharEc:000000c8 .Loc.283
     /tmp/cc7wpQ70.s:1226   .text._ZN7Ssd130610_writeCharEc:000000cc .Loc.284
     /tmp/cc7wpQ70.s:1230   .text._ZN7Ssd130610_writeCharEc:000000d2 .Loc.285
     /tmp/cc7wpQ70.s:1232   .text._ZN7Ssd130610_writeCharEc:000000d4 .Loc.286
     /tmp/cc7wpQ70.s:1236   .text._ZN7Ssd130610_writeCharEc:000000da .Loc.287
     /tmp/cc7wpQ70.s:1243   .text._ZN7Ssd130610_writeCharEc:000000e4 .Loc.288
     /tmp/cc7wpQ70.s:1246   .text._ZN7Ssd130610_writeCharEc:000000e8 .Loc.289
     /tmp/cc7wpQ70.s:1251   .text._ZN7Ssd130610_writeCharEc:000000ec .Loc.290
     /tmp/cc7wpQ70.s:1255   .text._ZN7Ssd130610_writeCharEc:000000f0 .Loc.291
     /tmp/cc7wpQ70.s:1259   .text._ZN7Ssd130610_writeCharEc:000000f2 .Loc.292
     /tmp/cc7wpQ70.s:1263   .text._ZN7Ssd130610_writeCharEc:000000f6 .Loc.293
     /tmp/cc7wpQ70.s:1270   .text._ZN7Ssd130610_writeCharEc:000000fa .Loc.294
     /tmp/cc7wpQ70.s:1274   .text._ZN7Ssd130610_writeCharEc:000000fc .Loc.295
     /tmp/cc7wpQ70.s:1279   .text._ZN7Ssd130610_writeCharEc:00000102 .Loc.296
     /tmp/cc7wpQ70.s:1280   .text._ZN7Ssd130610_writeCharEc:00000102 .Loc.297
GAS LISTING /tmp/cc7wpQ70.s 			page 148


     /tmp/cc7wpQ70.s:1283   .text._ZN7Ssd130610_writeCharEc:00000106 .Loc.298
     /tmp/cc7wpQ70.s:1292   .text._ZN7Ssd130610_writeCharEc:00000112 .Loc.299
     /tmp/cc7wpQ70.s:1297   .text._ZN7Ssd130610_writeCharEc:00000118 .Loc.300
     /tmp/cc7wpQ70.s:1299   .text._ZN7Ssd130610_writeCharEc:00000118 .Loc.301
     /tmp/cc7wpQ70.s:1301   .text._ZN7Ssd130610_writeCharEc:0000011a .Loc.302
     /tmp/cc7wpQ70.s:1305   .text._ZN7Ssd130610_writeCharEc:0000011c .Loc.303
     /tmp/cc7wpQ70.s:1310   .text._ZN7Ssd130610_writeCharEc:0000011c .Loc.304
     /tmp/cc7wpQ70.s:1314   .text._ZN7Ssd130610_writeCharEc:0000011e .Loc.305
     /tmp/cc7wpQ70.s:1319   .text._ZN7Ssd130610_writeCharEc:00000124 .Loc.306
     /tmp/cc7wpQ70.s:1321   .text._ZN7Ssd130610_writeCharEc:00000124 .Loc.307
     /tmp/cc7wpQ70.s:1326   .text._ZN7Ssd130610_writeCharEc:0000012a .Loc.308
     /tmp/cc7wpQ70.s:1328   .text._ZN7Ssd130610_writeCharEc:0000012a .Loc.309
     /tmp/cc7wpQ70.s:5456   .progmem.data._ZL16constSsd1306Font:00000000 _ZL16constSsd1306Font
     /tmp/cc7wpQ70.s:1343   .text._ZN7Ssd130610_writeCharEc:00000144 .Loc.310
     /tmp/cc7wpQ70.s:1344   .text._ZN7Ssd130610_writeCharEc:00000144 .Loc.311
     /tmp/cc7wpQ70.s:1350   .text._ZN7Ssd130610_writeCharEc:00000146 .Loc.312
     /tmp/cc7wpQ70.s:1354   .text._ZN7Ssd130610_writeCharEc:00000148 .Loc.313
     /tmp/cc7wpQ70.s:1356   .text._ZN7Ssd130610_writeCharEc:00000148 .Loc.314
     /tmp/cc7wpQ70.s:1359   .text._ZN7Ssd130610_writeCharEc:00000148 .Loc.315
     /tmp/cc7wpQ70.s:1361   .text._ZN7Ssd130610_writeCharEc:00000148 .Loc.316
     /tmp/cc7wpQ70.s:1363   .text._ZN7Ssd130610_writeCharEc:0000014a .Loc.317
     /tmp/cc7wpQ70.s:1367   .text._ZN7Ssd130610_writeCharEc:0000014c .Loc.318
     /tmp/cc7wpQ70.s:1370   .text._ZN7Ssd130610_writeCharEc:0000014c .Loc.319
     /tmp/cc7wpQ70.s:1375   .text._ZN7Ssd130610_writeCharEc:00000150 .Loc.320
     /tmp/cc7wpQ70.s:1377   .text._ZN7Ssd130610_writeCharEc:00000150 .Loc.321
     /tmp/cc7wpQ70.s:1378   .text._ZN7Ssd130610_writeCharEc:00000150 .Loc.322
     /tmp/cc7wpQ70.s:1381   .text._ZN7Ssd130610_writeCharEc:00000154 .Loc.323
     /tmp/cc7wpQ70.s:1388   .text._ZN7Ssd130610_writeCharEc:00000160 .Loc.324
     /tmp/cc7wpQ70.s:1389   .text._ZN7Ssd130610_writeCharEc:00000160 .Loc.325
     /tmp/cc7wpQ70.s:1392   .text._ZN7Ssd130610_writeCharEc:00000164 .Loc.326
     /tmp/cc7wpQ70.s:1395   .text._ZN7Ssd130610_writeCharEc:00000164 .Loc.327
     /tmp/cc7wpQ70.s:1398   .text._ZN7Ssd130610_writeCharEc:00000164 .Loc.328
     /tmp/cc7wpQ70.s:1412   .text._ZN7Ssd130610_writeCharEc:0000017a .Loc.329
     /tmp/cc7wpQ70.s:1416   .text._ZN7Ssd130610_writeCharEc:0000017e .Loc.330
     /tmp/cc7wpQ70.s:1423   .text._ZN7Ssd130610_writeCharEc:00000188 .Loc.331
     /tmp/cc7wpQ70.s:1434   .text._ZN7Ssd130610_writeCharEc:00000190 .Loc.332
     /tmp/cc7wpQ70.s:1440   .text._ZN7Ssd130610_writeCharEc:00000194 .Loc.333
     /tmp/cc7wpQ70.s:1444   .text._ZN7Ssd130610_writeCharEc:00000196 .Loc.334
     /tmp/cc7wpQ70.s:1448   .text._ZN7Ssd130610_writeCharEc:0000019a .Loc.335
     /tmp/cc7wpQ70.s:1449   .text._ZN7Ssd130610_writeCharEc:0000019a .Loc.336
     /tmp/cc7wpQ70.s:1452   .text._ZN7Ssd130610_writeCharEc:0000019e .Loc.337
     /tmp/cc7wpQ70.s:1459   .text._ZN7Ssd130610_writeCharEc:000001aa .Loc.338
     /tmp/cc7wpQ70.s:1462   .text._ZN7Ssd130610_writeCharEc:000001ae .Loc.339
     /tmp/cc7wpQ70.s:1466   .text._ZN7Ssd130610_writeCharEc:000001b4 .Loc.340
     /tmp/cc7wpQ70.s:1467   .text._ZN7Ssd130610_writeCharEc:000001b4 .Loc.341
     /tmp/cc7wpQ70.s:1470   .text._ZN7Ssd130610_writeCharEc:000001b8 .Loc.342
     /tmp/cc7wpQ70.s:1478   .text._ZN7Ssd130610_writeCharEc:000001c2 .Loc.343
     /tmp/cc7wpQ70.s:1481   .text._ZN7Ssd130610_writeCharEc:000001c6 .Loc.344
     /tmp/cc7wpQ70.s:1482   .text._ZN7Ssd130610_writeCharEc:000001c6 .Loc.345
     /tmp/cc7wpQ70.s:1493   .text._ZN7Ssd130610_writeCharEc:000001d6 .Loc.346
     /tmp/cc7wpQ70.s:1496   .text._ZN7Ssd130610_writeCharEc:000001d8 .Loc.347
     /tmp/cc7wpQ70.s:1500   .text._ZN7Ssd130610_writeCharEc:000001da .Loc.348
     /tmp/cc7wpQ70.s:1504   .text._ZN7Ssd130610_writeCharEc:000001da .Loc.349
     /tmp/cc7wpQ70.s:1509   .text._ZN7Ssd130610_writeCharEc:000001de .Loc.350
     /tmp/cc7wpQ70.s:1510   .text._ZN7Ssd130610_writeCharEc:000001de .Loc.351
     /tmp/cc7wpQ70.s:1516   .text._ZN7Ssd130610_writeCharEc:000001e8 .Loc.352
     /tmp/cc7wpQ70.s:1519   .text._ZN7Ssd130610_writeCharEc:000001ea .Loc.353
GAS LISTING /tmp/cc7wpQ70.s 			page 149


     /tmp/cc7wpQ70.s:1523   .text._ZN7Ssd130610_writeCharEc:000001ec .Loc.354
     /tmp/cc7wpQ70.s:1526   .text._ZN7Ssd130610_writeCharEc:000001f0 .Loc.355
     /tmp/cc7wpQ70.s:1529   .text._ZN7Ssd130610_writeCharEc:000001f0 .Loc.356
     /tmp/cc7wpQ70.s:1533   .text._ZN7Ssd130610_writeCharEc:000001f2 .Loc.357
     /tmp/cc7wpQ70.s:1535   .text._ZN7Ssd130610_writeCharEc:000001f6 L0
     /tmp/cc7wpQ70.s:1538   .text._ZN7Ssd130610_writeCharEc:000001f8 .Loc.358
     /tmp/cc7wpQ70.s:1540   .text._ZN7Ssd130610_writeCharEc:000001f8 .Loc.359
     /tmp/cc7wpQ70.s:1541   .text._ZN7Ssd130610_writeCharEc:000001f8 .Loc.360
     /tmp/cc7wpQ70.s:1544   .text._ZN7Ssd130610_writeCharEc:000001fa .Loc.361
     /tmp/cc7wpQ70.s:1546   .text._ZN7Ssd130610_writeCharEc:000001fa .Loc.362
     /tmp/cc7wpQ70.s:1561   .text._ZN7Ssd130610_writeCharEc:00000214 .Loc.363
     /tmp/cc7wpQ70.s:1562   .text._ZN7Ssd130610_writeCharEc:00000214 .Loc.364
     /tmp/cc7wpQ70.s:1568   .text._ZN7Ssd130610_writeCharEc:00000216 .Loc.365
     /tmp/cc7wpQ70.s:1571   .text._ZN7Ssd130610_writeCharEc:00000216 .Loc.366
     /tmp/cc7wpQ70.s:1574   .text._ZN7Ssd130610_writeCharEc:00000216 .Loc.367
     /tmp/cc7wpQ70.s:1576   .text._ZN7Ssd130610_writeCharEc:00000216 .Loc.368
     /tmp/cc7wpQ70.s:1579   .text._ZN7Ssd130610_writeCharEc:00000218 .Loc.369
     /tmp/cc7wpQ70.s:1582   .text._ZN7Ssd130610_writeCharEc:0000021a .Loc.370
     /tmp/cc7wpQ70.s:1586   .text._ZN7Ssd130610_writeCharEc:0000021c .Loc.371
     /tmp/cc7wpQ70.s:1590   .text._ZN7Ssd130610_writeCharEc:0000021c .Loc.372
     /tmp/cc7wpQ70.s:1591   .text._ZN7Ssd130610_writeCharEc:0000021c .Loc.373
     /tmp/cc7wpQ70.s:1598   .text._ZN7Ssd130610_writeCharEc:00000228 .Loc.374
     /tmp/cc7wpQ70.s:1600   .text._ZN7Ssd130610_writeCharEc:0000022a .Loc.375
     /tmp/cc7wpQ70.s:1602   .text._ZN7Ssd130610_writeCharEc:0000022e L0
     /tmp/cc7wpQ70.s:1605   .text._ZN7Ssd130610_writeCharEc:00000230 .Loc.376
     /tmp/cc7wpQ70.s:1609   .text._ZN7Ssd130610_writeCharEc:00000232 .Loc.377
     /tmp/cc7wpQ70.s:1613   .text._ZN7Ssd130610_writeCharEc:00000236 .Loc.378
     /tmp/cc7wpQ70.s:1615   .text._ZN7Ssd130610_writeCharEc:00000236 .Loc.379
     /tmp/cc7wpQ70.s:1616   .text._ZN7Ssd130610_writeCharEc:00000236 .Loc.380
     /tmp/cc7wpQ70.s:1625   .text._ZN7Ssd130610_writeCharEc:00000246 .Loc.381
     /tmp/cc7wpQ70.s:1627   .text._ZN7Ssd130610_writeCharEc:0000024a L0
     /tmp/cc7wpQ70.s:1630   .text._ZN7Ssd130610_writeCharEc:0000024c .Loc.382
     /tmp/cc7wpQ70.s:1633   .text._ZN7Ssd130610_writeCharEc:0000024e .Loc.383
     /tmp/cc7wpQ70.s:1638   .text._ZN7Ssd130610_writeCharEc:00000252 .Loc.384
     /tmp/cc7wpQ70.s:1641   .text._ZN7Ssd130610_writeCharEc:00000252 .Loc.385
     /tmp/cc7wpQ70.s:1642   .text._ZN7Ssd130610_writeCharEc:00000252 .Loc.386
     /tmp/cc7wpQ70.s:1645   .text._ZN7Ssd130610_writeCharEc:00000256 .Loc.387
     /tmp/cc7wpQ70.s:1652   .text._ZN7Ssd130610_writeCharEc:00000262 .Loc.388
     /tmp/cc7wpQ70.s:1653   .text._ZN7Ssd130610_writeCharEc:00000262 .Loc.389
     /tmp/cc7wpQ70.s:1656   .text._ZN7Ssd130610_writeCharEc:00000266 .Loc.390
     /tmp/cc7wpQ70.s:1657   .text._ZN7Ssd130610_writeCharEc:00000266 .Loc.391
     /tmp/cc7wpQ70.s:1661   .text._ZN7Ssd130610_writeCharEc:0000026c L0
     /tmp/cc7wpQ70.s:1667   .text._ZN7Ssd130614_isInitializedEv:00000000 _ZN7Ssd130614_isInitializedEv
     /tmp/cc7wpQ70.s:1670   .text._ZN7Ssd130614_isInitializedEv:00000000 .Loc.392
     /tmp/cc7wpQ70.s:1671   .text._ZN7Ssd130614_isInitializedEv:00000000 L0
     /tmp/cc7wpQ70.s:1676   .text._ZN7Ssd130614_isInitializedEv:00000000 .Loc.393
     /tmp/cc7wpQ70.s:1678   .text._ZN7Ssd130614_isInitializedEv:00000002 .Loc.394
     /tmp/cc7wpQ70.s:1679   .text._ZN7Ssd130614_isInitializedEv:00000002 .Loc.395
     /tmp/cc7wpQ70.s:1685   .text._ZN7Ssd130614_isInitializedEv:0000000a .Loc.396
     /tmp/cc7wpQ70.s:1688   .text._ZN7Ssd130614_isInitializedEv:0000000e .Loc.397
     /tmp/cc7wpQ70.s:1689   .text._ZN7Ssd130614_isInitializedEv:0000000e .Loc.398
     /tmp/cc7wpQ70.s:1692   .text._ZN7Ssd130614_isInitializedEv:00000012 .Loc.399
     /tmp/cc7wpQ70.s:1694   .text._ZN7Ssd130614_isInitializedEv:00000012 .Loc.400
     /tmp/cc7wpQ70.s:1697   .text._ZN7Ssd130614_isInitializedEv:00000014 .Loc.401
     /tmp/cc7wpQ70.s:1698   .text._ZN7Ssd130614_isInitializedEv:00000014 .Loc.402
     /tmp/cc7wpQ70.s:1703   .text._ZN7Ssd130614_isInitializedEv:0000001c .Loc.403
     /tmp/cc7wpQ70.s:1704   .text._ZN7Ssd130614_isInitializedEv:0000001c .Loc.404
GAS LISTING /tmp/cc7wpQ70.s 			page 150


     /tmp/cc7wpQ70.s:1706   .text._ZN7Ssd130614_isInitializedEv:0000001e L0
     /tmp/cc7wpQ70.s:1712   .text._ZN7Ssd130611clearScreenEv:00000000 _ZN7Ssd130611clearScreenEv
     /tmp/cc7wpQ70.s:1715   .text._ZN7Ssd130611clearScreenEv:00000000 .Loc.405
     /tmp/cc7wpQ70.s:1716   .text._ZN7Ssd130611clearScreenEv:00000000 L0
     /tmp/cc7wpQ70.s:1717   .text._ZN7Ssd130611clearScreenEv:00000000 .Loc.406
     /tmp/cc7wpQ70.s:1767   .text._ZN7Ssd130611clearScreenEv:00000022 .Loc.407
     /tmp/cc7wpQ70.s:1768   .text._ZN7Ssd130611clearScreenEv:00000022 .Loc.408
     /tmp/cc7wpQ70.s:1769   .text._ZN7Ssd130611clearScreenEv:00000022 .Loc.409
     /tmp/cc7wpQ70.s:1772   .text._ZN7Ssd130611clearScreenEv:00000026 .Loc.410
     /tmp/cc7wpQ70.s:1774   .text._ZN7Ssd130611clearScreenEv:00000028 .Loc.411
     /tmp/cc7wpQ70.s:1776   .text._ZN7Ssd130611clearScreenEv:0000002c L0
     /tmp/cc7wpQ70.s:1778   .text._ZN7Ssd130611clearScreenEv:0000002e .Loc.412
     /tmp/cc7wpQ70.s:1780   .text._ZN7Ssd130611clearScreenEv:0000002e .Loc.413
     /tmp/cc7wpQ70.s:1786   .text._ZN7Ssd130611clearScreenEv:00000038 .Loc.414
     /tmp/cc7wpQ70.s:1791   .text._ZN7Ssd130611clearScreenEv:0000003c .Loc.415
     /tmp/cc7wpQ70.s:1798   .text._ZN7Ssd130611clearScreenEv:00000040 .Loc.416
     /tmp/cc7wpQ70.s:1799   .text._ZN7Ssd130611clearScreenEv:00000040 .Loc.417
     /tmp/cc7wpQ70.s:1801   .text._ZN7Ssd130611clearScreenEv:00000042 .Loc.418
     /tmp/cc7wpQ70.s:1807   .text._ZN7Ssd130611clearScreenEv:0000004a .Loc.419
     /tmp/cc7wpQ70.s:1809   .text._ZN7Ssd130611clearScreenEv:0000004a .Loc.420
     /tmp/cc7wpQ70.s:1812   .text._ZN7Ssd130611clearScreenEv:0000004e .Loc.421
     /tmp/cc7wpQ70.s:1816   .text._ZN7Ssd130611clearScreenEv:00000050 .Loc.422
     /tmp/cc7wpQ70.s:1817   .text._ZN7Ssd130611clearScreenEv:00000050 .Loc.423
     /tmp/cc7wpQ70.s:1822   .text._ZN7Ssd130611clearScreenEv:00000058 .Loc.424
     /tmp/cc7wpQ70.s:1825   .text._ZN7Ssd130611clearScreenEv:0000005c .Loc.425
     /tmp/cc7wpQ70.s:1827   .text._ZN7Ssd130611clearScreenEv:0000005e .Loc.426
     /tmp/cc7wpQ70.s:1832   .text._ZN7Ssd130611clearScreenEv:00000062 .Loc.427
     /tmp/cc7wpQ70.s:1837   .text._ZN7Ssd130611clearScreenEv:00000068 .Loc.428
     /tmp/cc7wpQ70.s:1838   .text._ZN7Ssd130611clearScreenEv:00000068 .Loc.429
     /tmp/cc7wpQ70.s:1841   .text._ZN7Ssd130611clearScreenEv:0000006c .Loc.430
     /tmp/cc7wpQ70.s:1845   .text._ZN7Ssd130611clearScreenEv:00000070 .Loc.431
     /tmp/cc7wpQ70.s:1853   .text._ZN7Ssd130611clearScreenEv:0000007a .Loc.432
     /tmp/cc7wpQ70.s:1855   .text._ZN7Ssd130611clearScreenEv:0000007c .Loc.433
     /tmp/cc7wpQ70.s:1857   .text._ZN7Ssd130611clearScreenEv:0000007e .Loc.434
     /tmp/cc7wpQ70.s:1858   .text._ZN7Ssd130611clearScreenEv:0000007e .Loc.435
     /tmp/cc7wpQ70.s:1860   .text._ZN7Ssd130611clearScreenEv:00000080 .Loc.436
     /tmp/cc7wpQ70.s:1861   .text._ZN7Ssd130611clearScreenEv:00000080 .Loc.437
     /tmp/cc7wpQ70.s:1863   .text._ZN7Ssd130611clearScreenEv:00000082 .Loc.438
     /tmp/cc7wpQ70.s:1864   .text._ZN7Ssd130611clearScreenEv:00000082 .Loc.439
     /tmp/cc7wpQ70.s:1867   .text._ZN7Ssd130611clearScreenEv:00000086 .Loc.440
     /tmp/cc7wpQ70.s:1868   .text._ZN7Ssd130611clearScreenEv:00000086 .Loc.441
     /tmp/cc7wpQ70.s:1869   .text._ZN7Ssd130611clearScreenEv:00000086 .Loc.442
     /tmp/cc7wpQ70.s:1873   .text._ZN7Ssd130611clearScreenEv:00000088 .Loc.443
     /tmp/cc7wpQ70.s:1877   .text._ZN7Ssd130611clearScreenEv:00000088 .Loc.444
     /tmp/cc7wpQ70.s:1878   .text._ZN7Ssd130611clearScreenEv:00000088 .Loc.445
     /tmp/cc7wpQ70.s:1884   .text._ZN7Ssd130611clearScreenEv:00000092 .Loc.446
     /tmp/cc7wpQ70.s:1888   .text._ZN7Ssd130611clearScreenEv:00000094 .Loc.447
     /tmp/cc7wpQ70.s:1893   .text._ZN7Ssd130611clearScreenEv:00000098 .Loc.448
     /tmp/cc7wpQ70.s:1897   .text._ZN7Ssd130611clearScreenEv:0000009a .Loc.449
     /tmp/cc7wpQ70.s:1898   .text._ZN7Ssd130611clearScreenEv:0000009a .Loc.450
     /tmp/cc7wpQ70.s:1901   .text._ZN7Ssd130611clearScreenEv:0000009e .Loc.451
     /tmp/cc7wpQ70.s:1905   .text._ZN7Ssd130611clearScreenEv:000000a2 .Loc.452
     /tmp/cc7wpQ70.s:1906   .text._ZN7Ssd130611clearScreenEv:000000a2 .Loc.453
     /tmp/cc7wpQ70.s:1912   .text._ZN7Ssd130611clearScreenEv:000000ac .Loc.454
     /tmp/cc7wpQ70.s:1915   .text._ZN7Ssd130611clearScreenEv:000000b0 .Loc.455
     /tmp/cc7wpQ70.s:1921   .text._ZN7Ssd130611clearScreenEv:000000b4 .Loc.456
     /tmp/cc7wpQ70.s:1925   .text._ZN7Ssd130611clearScreenEv:000000b6 .Loc.457
GAS LISTING /tmp/cc7wpQ70.s 			page 151


     /tmp/cc7wpQ70.s:1926   .text._ZN7Ssd130611clearScreenEv:000000b6 .Loc.458
     /tmp/cc7wpQ70.s:1934   .text._ZN7Ssd130611clearScreenEv:000000c4 .Loc.459
     /tmp/cc7wpQ70.s:1937   .text._ZN7Ssd130611clearScreenEv:000000c8 .Loc.460
     /tmp/cc7wpQ70.s:1938   .text._ZN7Ssd130611clearScreenEv:000000c8 .Loc.461
     /tmp/cc7wpQ70.s:1942   .text._ZN7Ssd130611clearScreenEv:000000ca .Loc.462
     /tmp/cc7wpQ70.s:1944   .text._ZN7Ssd130611clearScreenEv:000000ca .Loc.463
     /tmp/cc7wpQ70.s:1948   .text._ZN7Ssd130611clearScreenEv:000000ce .Loc.464
     /tmp/cc7wpQ70.s:1949   .text._ZN7Ssd130611clearScreenEv:000000ce .Loc.465
     /tmp/cc7wpQ70.s:1952   .text._ZN7Ssd130611clearScreenEv:000000d2 .Loc.466
     /tmp/cc7wpQ70.s:1957   .text._ZN7Ssd130611clearScreenEv:000000d6 .Loc.467
     /tmp/cc7wpQ70.s:1960   .text._ZN7Ssd130611clearScreenEv:000000d6 .Loc.468
     /tmp/cc7wpQ70.s:1963   .text._ZN7Ssd130611clearScreenEv:000000d8 .Loc.469
     /tmp/cc7wpQ70.s:1967   .text._ZN7Ssd130611clearScreenEv:000000da .Loc.470
     /tmp/cc7wpQ70.s:1969   .text._ZN7Ssd130611clearScreenEv:000000da .Loc.471
     /tmp/cc7wpQ70.s:1970   .text._ZN7Ssd130611clearScreenEv:000000da .Loc.472
     /tmp/cc7wpQ70.s:1972   .text._ZN7Ssd130611clearScreenEv:000000dc .Loc.473
     /tmp/cc7wpQ70.s:1973   .text._ZN7Ssd130611clearScreenEv:000000dc .Loc.474
     /tmp/cc7wpQ70.s:1975   .text._ZN7Ssd130611clearScreenEv:000000de .Loc.475
     /tmp/cc7wpQ70.s:1976   .text._ZN7Ssd130611clearScreenEv:000000de .Loc.476
     /tmp/cc7wpQ70.s:1979   .text._ZN7Ssd130611clearScreenEv:000000e2 .Loc.477
     /tmp/cc7wpQ70.s:1980   .text._ZN7Ssd130611clearScreenEv:000000e2 .Loc.478
     /tmp/cc7wpQ70.s:1983   .text._ZN7Ssd130611clearScreenEv:000000e2 .Loc.479
     /tmp/cc7wpQ70.s:1987   .text._ZN7Ssd130611clearScreenEv:000000e4 .Loc.480
     /tmp/cc7wpQ70.s:2001   .text._ZN7Ssd130611clearScreenEv:000000fc .Loc.481
     /tmp/cc7wpQ70.s:2005   .text._ZN7Ssd130611clearScreenEv:00000102 L0
     /tmp/cc7wpQ70.s:2011   .text._ZN7Ssd13067displayEv:00000000 _ZN7Ssd13067displayEv
     /tmp/cc7wpQ70.s:2014   .text._ZN7Ssd13067displayEv:00000000 .Loc.482
     /tmp/cc7wpQ70.s:2015   .text._ZN7Ssd13067displayEv:00000000 L0
     /tmp/cc7wpQ70.s:2016   .text._ZN7Ssd13067displayEv:00000000 .Loc.483
     /tmp/cc7wpQ70.s:2038   .text._ZN7Ssd13067displayEv:0000000a .Loc.484
     /tmp/cc7wpQ70.s:2039   .text._ZN7Ssd13067displayEv:0000000a .Loc.485
     /tmp/cc7wpQ70.s:2040   .text._ZN7Ssd13067displayEv:0000000a .Loc.486
     /tmp/cc7wpQ70.s:2043   .text._ZN7Ssd13067displayEv:0000000e .Loc.487
     /tmp/cc7wpQ70.s:2046   .text._ZN7Ssd13067displayEv:00000012 .Loc.488
     /tmp/cc7wpQ70.s:2047   .text._ZN7Ssd13067displayEv:00000012 .Loc.489
     /tmp/cc7wpQ70.s:2054   .text._ZN7Ssd13067displayEv:0000001e .Loc.490
     /tmp/cc7wpQ70.s:2058   .text._ZN7Ssd13067displayEv:00000022 .Loc.491
     /tmp/cc7wpQ70.s:2063   .text._ZN7Ssd13067displayEv:00000026 .Loc.492
     /tmp/cc7wpQ70.s:2064   .text._ZN7Ssd13067displayEv:00000026 .Loc.493
     /tmp/cc7wpQ70.s:2067   .text._ZN7Ssd13067displayEv:0000002a .Loc.494
     /tmp/cc7wpQ70.s:2068   .text._ZN7Ssd13067displayEv:0000002a .Loc.495
     /tmp/cc7wpQ70.s:2069   .text._ZN7Ssd13067displayEv:0000002a .Loc.496
     /tmp/cc7wpQ70.s:2074   .text._ZN7Ssd13067displayEv:0000002c .Loc.497
     /tmp/cc7wpQ70.s:2078   .text._ZN7Ssd13067displayEv:0000002e .Loc.498
     /tmp/cc7wpQ70.s:2079   .text._ZN7Ssd13067displayEv:0000002e .Loc.499
     /tmp/cc7wpQ70.s:2082   .text._ZN7Ssd13067displayEv:00000032 .Loc.500
     /tmp/cc7wpQ70.s:2085   .text._ZN7Ssd13067displayEv:00000036 .Loc.501
     /tmp/cc7wpQ70.s:2086   .text._ZN7Ssd13067displayEv:00000036 .Loc.502
     /tmp/cc7wpQ70.s:2090   .text._ZN7Ssd13067displayEv:0000003c .Loc.503
     /tmp/cc7wpQ70.s:2099   .text._ZN7Ssd13067displayEv:00000048 .Loc.504
     /tmp/cc7wpQ70.s:2102   .text._ZN7Ssd13067displayEv:0000004c .Loc.505
     /tmp/cc7wpQ70.s:2103   .text._ZN7Ssd13067displayEv:0000004c .Loc.506
     /tmp/cc7wpQ70.s:2109   .text._ZN7Ssd13067displayEv:00000056 .Loc.507
     /tmp/cc7wpQ70.s:2112   .text._ZN7Ssd13067displayEv:0000005a .Loc.508
     /tmp/cc7wpQ70.s:2113   .text._ZN7Ssd13067displayEv:0000005a .Loc.509
     /tmp/cc7wpQ70.s:2117   .text._ZN7Ssd13067displayEv:00000060 .Loc.510
     /tmp/cc7wpQ70.s:2122   .text._ZN7Ssd13067displayEv:00000068 .Loc.511
GAS LISTING /tmp/cc7wpQ70.s 			page 152


     /tmp/cc7wpQ70.s:2125   .text._ZN7Ssd13067displayEv:0000006c .Loc.512
     /tmp/cc7wpQ70.s:2130   .text._ZN7Ssd13067displayEv:00000074 .Loc.513
     /tmp/cc7wpQ70.s:2135   .text._ZN7Ssd13067displayEv:0000007a .Loc.514
     /tmp/cc7wpQ70.s:2137   .text._ZN7Ssd13067displayEv:0000007a .Loc.515
     /tmp/cc7wpQ70.s:2138   .text._ZN7Ssd13067displayEv:0000007a .Loc.516
     /tmp/cc7wpQ70.s:2140   .text._ZN7Ssd13067displayEv:0000007c .Loc.517
     /tmp/cc7wpQ70.s:2141   .text._ZN7Ssd13067displayEv:0000007c .Loc.518
     /tmp/cc7wpQ70.s:2144   .text._ZN7Ssd13067displayEv:00000080 .Loc.519
     /tmp/cc7wpQ70.s:2145   .text._ZN7Ssd13067displayEv:00000080 .Loc.520
     /tmp/cc7wpQ70.s:2146   .text._ZN7Ssd13067displayEv:00000080 .Loc.521
     /tmp/cc7wpQ70.s:2151   .text._ZN7Ssd13067displayEv:00000082 .Loc.522
     /tmp/cc7wpQ70.s:2157   .text._ZN7Ssd13067displayEv:0000008a .Loc.523
     /tmp/cc7wpQ70.s:2159   .text._ZN7Ssd13067displayEv:0000008c L0
     /tmp/cc7wpQ70.s:2165   .text._ZN7Ssd13064initEP3BusNS_4SizeEhPh:00000000 _ZN7Ssd13064initEP3BusNS_4SizeEhPh
     /tmp/cc7wpQ70.s:2168   .text._ZN7Ssd13064initEP3BusNS_4SizeEhPh:00000000 .Loc.524
     /tmp/cc7wpQ70.s:2169   .text._ZN7Ssd13064initEP3BusNS_4SizeEhPh:00000000 L0
     /tmp/cc7wpQ70.s:2170   .text._ZN7Ssd13064initEP3BusNS_4SizeEhPh:00000000 .Loc.525
     /tmp/cc7wpQ70.s:2211   .text._ZN7Ssd13064initEP3BusNS_4SizeEhPh:00000018 .Loc.526
     /tmp/cc7wpQ70.s:2212   .text._ZN7Ssd13064initEP3BusNS_4SizeEhPh:00000018 .Loc.527
     /tmp/cc7wpQ70.s:2213   .text._ZN7Ssd13064initEP3BusNS_4SizeEhPh:00000018 .Loc.528
     /tmp/cc7wpQ70.s:2216   .text._ZN7Ssd13064initEP3BusNS_4SizeEhPh:0000001a .Loc.529
     /tmp/cc7wpQ70.s:2219   .text._ZN7Ssd13064initEP3BusNS_4SizeEhPh:0000001e .Loc.530
     /tmp/cc7wpQ70.s:2220   .text._ZN7Ssd13064initEP3BusNS_4SizeEhPh:0000001e .Loc.531
     /tmp/cc7wpQ70.s:2223   .text._ZN7Ssd13064initEP3BusNS_4SizeEhPh:00000022 .Loc.532
     /tmp/cc7wpQ70.s:2227   .text._ZN7Ssd13064initEP3BusNS_4SizeEhPh:00000028 .Loc.533
     /tmp/cc7wpQ70.s:2228   .text._ZN7Ssd13064initEP3BusNS_4SizeEhPh:00000028 .Loc.534
     /tmp/cc7wpQ70.s:2239   .text._ZN7Ssd13064initEP3BusNS_4SizeEhPh:0000003a .Loc.535
     /tmp/cc7wpQ70.s:2242   .text._ZN7Ssd13064initEP3BusNS_4SizeEhPh:0000003e .Loc.536
     /tmp/cc7wpQ70.s:2243   .text._ZN7Ssd13064initEP3BusNS_4SizeEhPh:0000003e .Loc.537
     /tmp/cc7wpQ70.s:2248   .text._ZN7Ssd13064initEP3BusNS_4SizeEhPh:00000046 .Loc.538
     /tmp/cc7wpQ70.s:2249   .text._ZN7Ssd13064initEP3BusNS_4SizeEhPh:00000046 .Loc.539
     /tmp/cc7wpQ70.s:2251   .text._ZN7Ssd13064initEP3BusNS_4SizeEhPh:00000046 .Loc.540
     /tmp/cc7wpQ70.s:2255   .text._ZN7Ssd13064initEP3BusNS_4SizeEhPh:00000048 .Loc.541
     /tmp/cc7wpQ70.s:2261   .text._ZN7Ssd13064initEP3BusNS_4SizeEhPh:0000004e .Loc.542
     /tmp/cc7wpQ70.s:2267   .text._ZN7Ssd13064initEP3BusNS_4SizeEhPh:00000056 .Loc.543
     /tmp/cc7wpQ70.s:2270   .text._ZN7Ssd13064initEP3BusNS_4SizeEhPh:00000058 .Loc.544
     /tmp/cc7wpQ70.s:2273   .text._ZN7Ssd13064initEP3BusNS_4SizeEhPh:0000005a .Loc.545
     /tmp/cc7wpQ70.s:2277   .text._ZN7Ssd13064initEP3BusNS_4SizeEhPh:0000005c .Loc.546
     /tmp/cc7wpQ70.s:2278   .text._ZN7Ssd13064initEP3BusNS_4SizeEhPh:0000005c .Loc.547
     /tmp/cc7wpQ70.s:2283   .text._ZN7Ssd13064initEP3BusNS_4SizeEhPh:00000064 .Loc.548
     /tmp/cc7wpQ70.s:2284   .text._ZN7Ssd13064initEP3BusNS_4SizeEhPh:00000064 .Loc.549
     /tmp/cc7wpQ70.s:2285   .text._ZN7Ssd13064initEP3BusNS_4SizeEhPh:00000064 .Loc.550
     /tmp/cc7wpQ70.s:2288   .text._ZN7Ssd13064initEP3BusNS_4SizeEhPh:00000066 .Loc.551
     /tmp/cc7wpQ70.s:2289   .text._ZN7Ssd13064initEP3BusNS_4SizeEhPh:00000066 .Loc.552
     /tmp/cc7wpQ70.s:2292   .text._ZN7Ssd13064initEP3BusNS_4SizeEhPh:0000006a .Loc.553
     /tmp/cc7wpQ70.s:2293   .text._ZN7Ssd13064initEP3BusNS_4SizeEhPh:0000006a .Loc.554
     /tmp/cc7wpQ70.s:2297   .text._ZN7Ssd13064initEP3BusNS_4SizeEhPh:00000070 .Loc.555
     /tmp/cc7wpQ70.s:2298   .text._ZN7Ssd13064initEP3BusNS_4SizeEhPh:00000070 .Loc.556
     /tmp/cc7wpQ70.s:2301   .text._ZN7Ssd13064initEP3BusNS_4SizeEhPh:00000074 .Loc.557
     /tmp/cc7wpQ70.s:2306   .text._ZN7Ssd13064initEP3BusNS_4SizeEhPh:0000007c .Loc.558
     /tmp/cc7wpQ70.s:2307   .text._ZN7Ssd13064initEP3BusNS_4SizeEhPh:0000007c .Loc.559
     /tmp/cc7wpQ70.s:2310   .text._ZN7Ssd13064initEP3BusNS_4SizeEhPh:00000080 .Loc.560
     /tmp/cc7wpQ70.s:2311   .text._ZN7Ssd13064initEP3BusNS_4SizeEhPh:00000080 .Loc.561
     /tmp/cc7wpQ70.s:2314   .text._ZN7Ssd13064initEP3BusNS_4SizeEhPh:00000084 .Loc.562
     /tmp/cc7wpQ70.s:2317   .text._ZN7Ssd13064initEP3BusNS_4SizeEhPh:00000086 .Loc.563
     /tmp/cc7wpQ70.s:2319   .text._ZN7Ssd13064initEP3BusNS_4SizeEhPh:00000088 .Loc.564
     /tmp/cc7wpQ70.s:2320   .text._ZN7Ssd13064initEP3BusNS_4SizeEhPh:00000088 .Loc.565
GAS LISTING /tmp/cc7wpQ70.s 			page 153


     /tmp/cc7wpQ70.s:2323   .text._ZN7Ssd13064initEP3BusNS_4SizeEhPh:0000008c .Loc.566
     /tmp/cc7wpQ70.s:2324   .text._ZN7Ssd13064initEP3BusNS_4SizeEhPh:0000008c .Loc.567
     /tmp/cc7wpQ70.s:2327   .text._ZN7Ssd13064initEP3BusNS_4SizeEhPh:00000092 L0
     /tmp/cc7wpQ70.s:2330   .text._ZN7Ssd13064initEP3BusNS_4SizeEhPh:00000094 .Loc.568
     /tmp/cc7wpQ70.s:2335   .text._ZN7Ssd13064initEP3BusNS_4SizeEhPh:0000009c .Loc.569
     /tmp/cc7wpQ70.s:2336   .text._ZN7Ssd13064initEP3BusNS_4SizeEhPh:0000009c .Loc.570
     /tmp/cc7wpQ70.s:2338   .text._ZN7Ssd13064initEP3BusNS_4SizeEhPh:0000009e .Loc.571
     /tmp/cc7wpQ70.s:2339   .text._ZN7Ssd13064initEP3BusNS_4SizeEhPh:0000009e .Loc.572
     /tmp/cc7wpQ70.s:2341   .text._ZN7Ssd13064initEP3BusNS_4SizeEhPh:000000a0 .Loc.573
     /tmp/cc7wpQ70.s:2342   .text._ZN7Ssd13064initEP3BusNS_4SizeEhPh:000000a0 .Loc.574
     /tmp/cc7wpQ70.s:2344   .text._ZN7Ssd13064initEP3BusNS_4SizeEhPh:000000a2 .Loc.575
     /tmp/cc7wpQ70.s:2345   .text._ZN7Ssd13064initEP3BusNS_4SizeEhPh:000000a2 .Loc.576
     /tmp/cc7wpQ70.s:2350   .text._ZN7Ssd13064initEP3BusNS_4SizeEhPh:000000aa .Loc.577
     /tmp/cc7wpQ70.s:2351   .text._ZN7Ssd13064initEP3BusNS_4SizeEhPh:000000aa .Loc.578
     /tmp/cc7wpQ70.s:2355   .text._ZN7Ssd13064initEP3BusNS_4SizeEhPh:000000b0 .Loc.579
     /tmp/cc7wpQ70.s:2358   .text._ZN7Ssd13064initEP3BusNS_4SizeEhPh:000000b2 .Loc.580
     /tmp/cc7wpQ70.s:2365   .text._ZN7Ssd13064initEP3BusNS_4SizeEhPh:000000ba .Loc.581
     /tmp/cc7wpQ70.s:2366   .text._ZN7Ssd13064initEP3BusNS_4SizeEhPh:000000ba .Loc.582
     /tmp/cc7wpQ70.s:5555   .progmem.data._ZL24constSsd1306InitSequence:00000000 _ZL24constSsd1306InitSequence
     /tmp/cc7wpQ70.s:2373   .text._ZN7Ssd13064initEP3BusNS_4SizeEhPh:000000c6 .Loc.583
     /tmp/cc7wpQ70.s:2375   .text._ZN7Ssd13064initEP3BusNS_4SizeEhPh:000000c8 .Loc.584
     /tmp/cc7wpQ70.s:2377   .text._ZN7Ssd13064initEP3BusNS_4SizeEhPh:000000cc L0
     /tmp/cc7wpQ70.s:2379   .text._ZN7Ssd13064initEP3BusNS_4SizeEhPh:000000ce .Loc.585
     /tmp/cc7wpQ70.s:2380   .text._ZN7Ssd13064initEP3BusNS_4SizeEhPh:000000ce .Loc.586
     /tmp/cc7wpQ70.s:2386   .text._ZN7Ssd13064initEP3BusNS_4SizeEhPh:000000d8 .Loc.587
     /tmp/cc7wpQ70.s:2388   .text._ZN7Ssd13064initEP3BusNS_4SizeEhPh:000000dc L0
     /tmp/cc7wpQ70.s:2390   .text._ZN7Ssd13064initEP3BusNS_4SizeEhPh:000000de .Loc.588
     /tmp/cc7wpQ70.s:2396   .text._ZN7Ssd13064initEP3BusNS_4SizeEhPh:000000e8 .Loc.589
     /tmp/cc7wpQ70.s:2398   .text._ZN7Ssd13064initEP3BusNS_4SizeEhPh:000000ec L0
     /tmp/cc7wpQ70.s:2400   .text._ZN7Ssd13064initEP3BusNS_4SizeEhPh:000000ee .Loc.590
     /tmp/cc7wpQ70.s:2401   .text._ZN7Ssd13064initEP3BusNS_4SizeEhPh:000000ee .Loc.591
     /tmp/cc7wpQ70.s:2407   .text._ZN7Ssd13064initEP3BusNS_4SizeEhPh:000000f8 .Loc.592
     /tmp/cc7wpQ70.s:2409   .text._ZN7Ssd13064initEP3BusNS_4SizeEhPh:000000fc L0
     /tmp/cc7wpQ70.s:2411   .text._ZN7Ssd13064initEP3BusNS_4SizeEhPh:000000fe .Loc.593
     /tmp/cc7wpQ70.s:2417   .text._ZN7Ssd13064initEP3BusNS_4SizeEhPh:00000108 .Loc.594
     /tmp/cc7wpQ70.s:2419   .text._ZN7Ssd13064initEP3BusNS_4SizeEhPh:0000010c L0
     /tmp/cc7wpQ70.s:2421   .text._ZN7Ssd13064initEP3BusNS_4SizeEhPh:0000010e .Loc.595
     /tmp/cc7wpQ70.s:2422   .text._ZN7Ssd13064initEP3BusNS_4SizeEhPh:0000010e .Loc.596
     /tmp/cc7wpQ70.s:2428   .text._ZN7Ssd13064initEP3BusNS_4SizeEhPh:00000118 .Loc.597
     /tmp/cc7wpQ70.s:2430   .text._ZN7Ssd13064initEP3BusNS_4SizeEhPh:0000011c L0
     /tmp/cc7wpQ70.s:2432   .text._ZN7Ssd13064initEP3BusNS_4SizeEhPh:0000011e .Loc.598
     /tmp/cc7wpQ70.s:2438   .text._ZN7Ssd13064initEP3BusNS_4SizeEhPh:00000128 .Loc.599
     /tmp/cc7wpQ70.s:2440   .text._ZN7Ssd13064initEP3BusNS_4SizeEhPh:0000012c L0
     /tmp/cc7wpQ70.s:2442   .text._ZN7Ssd13064initEP3BusNS_4SizeEhPh:0000012e .Loc.600
     /tmp/cc7wpQ70.s:2443   .text._ZN7Ssd13064initEP3BusNS_4SizeEhPh:0000012e .Loc.601
     /tmp/cc7wpQ70.s:2449   .text._ZN7Ssd13064initEP3BusNS_4SizeEhPh:00000138 .Loc.602
     /tmp/cc7wpQ70.s:2451   .text._ZN7Ssd13064initEP3BusNS_4SizeEhPh:0000013c L0
     /tmp/cc7wpQ70.s:2453   .text._ZN7Ssd13064initEP3BusNS_4SizeEhPh:0000013e .Loc.603
     /tmp/cc7wpQ70.s:2454   .text._ZN7Ssd13064initEP3BusNS_4SizeEhPh:0000013e .Loc.604
     /tmp/cc7wpQ70.s:2458   .text._ZN7Ssd13064initEP3BusNS_4SizeEhPh:00000144 .Loc.605
     /tmp/cc7wpQ70.s:2459   .text._ZN7Ssd13064initEP3BusNS_4SizeEhPh:00000144 .Loc.606
     /tmp/cc7wpQ70.s:2464   .text._ZN7Ssd13064initEP3BusNS_4SizeEhPh:0000014c .Loc.607
     /tmp/cc7wpQ70.s:2466   .text._ZN7Ssd13064initEP3BusNS_4SizeEhPh:00000150 L0
     /tmp/cc7wpQ70.s:2468   .text._ZN7Ssd13064initEP3BusNS_4SizeEhPh:00000152 .Loc.608
     /tmp/cc7wpQ70.s:2469   .text._ZN7Ssd13064initEP3BusNS_4SizeEhPh:00000152 .Loc.609
     /tmp/cc7wpQ70.s:2471   .text._ZN7Ssd13064initEP3BusNS_4SizeEhPh:00000154 .Loc.610
     /tmp/cc7wpQ70.s:2475   .text._ZN7Ssd13064initEP3BusNS_4SizeEhPh:00000158 .Loc.611
GAS LISTING /tmp/cc7wpQ70.s 			page 154


     /tmp/cc7wpQ70.s:2476   .text._ZN7Ssd13064initEP3BusNS_4SizeEhPh:00000158 .Loc.612
     /tmp/cc7wpQ70.s:2479   .text._ZN7Ssd13064initEP3BusNS_4SizeEhPh:0000015c .Loc.613
     /tmp/cc7wpQ70.s:2480   .text._ZN7Ssd13064initEP3BusNS_4SizeEhPh:0000015c .Loc.614
     /tmp/cc7wpQ70.s:2481   .text._ZN7Ssd13064initEP3BusNS_4SizeEhPh:0000015c .Loc.615
     /tmp/cc7wpQ70.s:2485   .text._ZN7Ssd13064initEP3BusNS_4SizeEhPh:0000015e .Loc.616
     /tmp/cc7wpQ70.s:2489   .text._ZN7Ssd13064initEP3BusNS_4SizeEhPh:00000162 .Loc.617
     /tmp/cc7wpQ70.s:2493   .text._ZN7Ssd13064initEP3BusNS_4SizeEhPh:00000166 .Loc.618
     /tmp/cc7wpQ70.s:2496   .text._ZN7Ssd13064initEP3BusNS_4SizeEhPh:00000168 .Loc.619
     /tmp/cc7wpQ70.s:2503   .text._ZN7Ssd13064initEP3BusNS_4SizeEhPh:00000170 .Loc.620
     /tmp/cc7wpQ70.s:2504   .text._ZN7Ssd13064initEP3BusNS_4SizeEhPh:00000170 .Loc.621
     /tmp/cc7wpQ70.s:2508   .text._ZN7Ssd13064initEP3BusNS_4SizeEhPh:00000176 .Loc.622
     /tmp/cc7wpQ70.s:2511   .text._ZN7Ssd13064initEP3BusNS_4SizeEhPh:0000017a .Loc.623
     /tmp/cc7wpQ70.s:2514   .text._ZN7Ssd13064initEP3BusNS_4SizeEhPh:0000017e L0
     /tmp/cc7wpQ70.s:2520   .text._ZN7Ssd130615setDisplayStateE10Activation:00000000 _ZN7Ssd130615setDisplayStateE10Activation
     /tmp/cc7wpQ70.s:2523   .text._ZN7Ssd130615setDisplayStateE10Activation:00000000 .Loc.624
     /tmp/cc7wpQ70.s:2524   .text._ZN7Ssd130615setDisplayStateE10Activation:00000000 L0
     /tmp/cc7wpQ70.s:2525   .text._ZN7Ssd130615setDisplayStateE10Activation:00000000 .Loc.625
     /tmp/cc7wpQ70.s:2544   .text._ZN7Ssd130615setDisplayStateE10Activation:0000000a .Loc.626
     /tmp/cc7wpQ70.s:2545   .text._ZN7Ssd130615setDisplayStateE10Activation:0000000a .Loc.627
     /tmp/cc7wpQ70.s:2546   .text._ZN7Ssd130615setDisplayStateE10Activation:0000000a .Loc.628
     /tmp/cc7wpQ70.s:2549   .text._ZN7Ssd130615setDisplayStateE10Activation:0000000e .Loc.629
     /tmp/cc7wpQ70.s:2552   .text._ZN7Ssd130615setDisplayStateE10Activation:00000012 .Loc.630
     /tmp/cc7wpQ70.s:2553   .text._ZN7Ssd130615setDisplayStateE10Activation:00000012 .Loc.631
     /tmp/cc7wpQ70.s:2556   .text._ZN7Ssd130615setDisplayStateE10Activation:00000016 .Loc.632
     /tmp/cc7wpQ70.s:2559   .text._ZN7Ssd130615setDisplayStateE10Activation:00000018 .Loc.633
     /tmp/cc7wpQ70.s:2563   .text._ZN7Ssd130615setDisplayStateE10Activation:0000001e .Loc.634
     /tmp/cc7wpQ70.s:2566   .text._ZN7Ssd130615setDisplayStateE10Activation:00000022 .Loc.635
     /tmp/cc7wpQ70.s:2567   .text._ZN7Ssd130615setDisplayStateE10Activation:00000022 .Loc.636
     /tmp/cc7wpQ70.s:2570   .text._ZN7Ssd130615setDisplayStateE10Activation:00000026 .Loc.637
     /tmp/cc7wpQ70.s:2571   .text._ZN7Ssd130615setDisplayStateE10Activation:00000026 .Loc.638
     /tmp/cc7wpQ70.s:2574   .text._ZN7Ssd130615setDisplayStateE10Activation:00000026 .Loc.639
     /tmp/cc7wpQ70.s:2578   .text._ZN7Ssd130615setDisplayStateE10Activation:0000002a .Loc.640
     /tmp/cc7wpQ70.s:2581   .text._ZN7Ssd130615setDisplayStateE10Activation:0000002c .Loc.641
     /tmp/cc7wpQ70.s:2585   .text._ZN7Ssd130615setDisplayStateE10Activation:0000002e .Loc.642
     /tmp/cc7wpQ70.s:2588   .text._ZN7Ssd130615setDisplayStateE10Activation:00000032 L0
     /tmp/cc7wpQ70.s:2594   .text._ZN7Ssd130611setContrastEh:00000000 _ZN7Ssd130611setContrastEh
     /tmp/cc7wpQ70.s:2597   .text._ZN7Ssd130611setContrastEh:00000000 .Loc.643
     /tmp/cc7wpQ70.s:2598   .text._ZN7Ssd130611setContrastEh:00000000 L0
     /tmp/cc7wpQ70.s:2599   .text._ZN7Ssd130611setContrastEh:00000000 .Loc.644
     /tmp/cc7wpQ70.s:2618   .text._ZN7Ssd130611setContrastEh:0000000a .Loc.645
     /tmp/cc7wpQ70.s:2619   .text._ZN7Ssd130611setContrastEh:0000000a .Loc.646
     /tmp/cc7wpQ70.s:2620   .text._ZN7Ssd130611setContrastEh:0000000a .Loc.647
     /tmp/cc7wpQ70.s:2623   .text._ZN7Ssd130611setContrastEh:0000000e .Loc.648
     /tmp/cc7wpQ70.s:2628   .text._ZN7Ssd130611setContrastEh:00000012 .Loc.649
     /tmp/cc7wpQ70.s:2632   .text._ZN7Ssd130611setContrastEh:00000016 .Loc.650
     /tmp/cc7wpQ70.s:2635   .text._ZN7Ssd130611setContrastEh:00000018 .Loc.651
     /tmp/cc7wpQ70.s:2639   .text._ZN7Ssd130611setContrastEh:0000001a .Loc.652
     /tmp/cc7wpQ70.s:2640   .text._ZN7Ssd130611setContrastEh:0000001a .Loc.653
     /tmp/cc7wpQ70.s:2645   .text._ZN7Ssd130611setContrastEh:00000022 .Loc.654
     /tmp/cc7wpQ70.s:2648   .text._ZN7Ssd130611setContrastEh:00000026 .Loc.655
     /tmp/cc7wpQ70.s:2653   .text._ZN7Ssd130611setContrastEh:0000002e .Loc.656
     /tmp/cc7wpQ70.s:2656   .text._ZN7Ssd130611setContrastEh:00000032 .Loc.657
     /tmp/cc7wpQ70.s:2657   .text._ZN7Ssd130611setContrastEh:00000032 .Loc.658
     /tmp/cc7wpQ70.s:2660   .text._ZN7Ssd130611setContrastEh:00000036 .Loc.659
     /tmp/cc7wpQ70.s:2661   .text._ZN7Ssd130611setContrastEh:00000036 .Loc.660
     /tmp/cc7wpQ70.s:2662   .text._ZN7Ssd130611setContrastEh:00000036 .Loc.661
     /tmp/cc7wpQ70.s:2664   .text._ZN7Ssd130611setContrastEh:00000038 L0
GAS LISTING /tmp/cc7wpQ70.s 			page 155


     /tmp/cc7wpQ70.s:2670   .text._ZN7Ssd130613setUpsideDownEb:00000000 _ZN7Ssd130613setUpsideDownEb
     /tmp/cc7wpQ70.s:2673   .text._ZN7Ssd130613setUpsideDownEb:00000000 .Loc.662
     /tmp/cc7wpQ70.s:2674   .text._ZN7Ssd130613setUpsideDownEb:00000000 L0
     /tmp/cc7wpQ70.s:2675   .text._ZN7Ssd130613setUpsideDownEb:00000000 .Loc.663
     /tmp/cc7wpQ70.s:2702   .text._ZN7Ssd130613setUpsideDownEb:0000000e .Loc.664
     /tmp/cc7wpQ70.s:2703   .text._ZN7Ssd130613setUpsideDownEb:0000000e .Loc.665
     /tmp/cc7wpQ70.s:2704   .text._ZN7Ssd130613setUpsideDownEb:0000000e .Loc.666
     /tmp/cc7wpQ70.s:2707   .text._ZN7Ssd130613setUpsideDownEb:00000012 .Loc.667
     /tmp/cc7wpQ70.s:2710   .text._ZN7Ssd130613setUpsideDownEb:00000016 .Loc.668
     /tmp/cc7wpQ70.s:2711   .text._ZN7Ssd130613setUpsideDownEb:00000016 .Loc.669
     /tmp/cc7wpQ70.s:2714   .text._ZN7Ssd130613setUpsideDownEb:0000001a .Loc.670
     /tmp/cc7wpQ70.s:2716   .text._ZN7Ssd130613setUpsideDownEb:0000001c .Loc.671
     /tmp/cc7wpQ70.s:2721   .text._ZN7Ssd130613setUpsideDownEb:00000020 .Loc.672
     /tmp/cc7wpQ70.s:2722   .text._ZN7Ssd130613setUpsideDownEb:00000020 .Loc.673
     /tmp/cc7wpQ70.s:2725   .text._ZN7Ssd130613setUpsideDownEb:00000022 .Loc.674
     /tmp/cc7wpQ70.s:2729   .text._ZN7Ssd130613setUpsideDownEb:00000028 .Loc.675
     /tmp/cc7wpQ70.s:2735   .text._ZN7Ssd130613setUpsideDownEb:0000002c .Loc.676
     /tmp/cc7wpQ70.s:2741   .text._ZN7Ssd130613setUpsideDownEb:00000034 .Loc.677
     /tmp/cc7wpQ70.s:2746   .text._ZN7Ssd130613setUpsideDownEb:00000038 .Loc.678
     /tmp/cc7wpQ70.s:2748   .text._ZN7Ssd130613setUpsideDownEb:0000003a .Loc.679
     /tmp/cc7wpQ70.s:2754   .text._ZN7Ssd130613setUpsideDownEb:00000040 .Loc.680
     /tmp/cc7wpQ70.s:2759   .text._ZN7Ssd130613setUpsideDownEb:00000048 .Loc.681
     /tmp/cc7wpQ70.s:2762   .text._ZN7Ssd130613setUpsideDownEb:0000004c .Loc.682
     /tmp/cc7wpQ70.s:2763   .text._ZN7Ssd130613setUpsideDownEb:0000004c .Loc.683
     /tmp/cc7wpQ70.s:2766   .text._ZN7Ssd130613setUpsideDownEb:00000050 .Loc.684
     /tmp/cc7wpQ70.s:2767   .text._ZN7Ssd130613setUpsideDownEb:00000050 .Loc.685
     /tmp/cc7wpQ70.s:2768   .text._ZN7Ssd130613setUpsideDownEb:00000050 .Loc.686
     /tmp/cc7wpQ70.s:2770   .text._ZN7Ssd130613setUpsideDownEb:00000052 L0
     /tmp/cc7wpQ70.s:2776   .text._ZN7Ssd13069setCursorEhh:00000000 _ZN7Ssd13069setCursorEhh
     /tmp/cc7wpQ70.s:2779   .text._ZN7Ssd13069setCursorEhh:00000000 .Loc.687
     /tmp/cc7wpQ70.s:2780   .text._ZN7Ssd13069setCursorEhh:00000000 L0
     /tmp/cc7wpQ70.s:2781   .text._ZN7Ssd13069setCursorEhh:00000000 .Loc.688
     /tmp/cc7wpQ70.s:2805   .text._ZN7Ssd13069setCursorEhh:0000000e .Loc.689
     /tmp/cc7wpQ70.s:2806   .text._ZN7Ssd13069setCursorEhh:0000000e .Loc.690
     /tmp/cc7wpQ70.s:2807   .text._ZN7Ssd13069setCursorEhh:0000000e .Loc.691
     /tmp/cc7wpQ70.s:2810   .text._ZN7Ssd13069setCursorEhh:00000012 .Loc.692
     /tmp/cc7wpQ70.s:2813   .text._ZN7Ssd13069setCursorEhh:00000016 .Loc.693
     /tmp/cc7wpQ70.s:2816   .text._ZN7Ssd13069setCursorEhh:0000001a .Loc.694
     /tmp/cc7wpQ70.s:2818   .text._ZN7Ssd13069setCursorEhh:0000001c .Loc.695
     /tmp/cc7wpQ70.s:2821   .text._ZN7Ssd13069setCursorEhh:00000020 .Loc.696
     /tmp/cc7wpQ70.s:2822   .text._ZN7Ssd13069setCursorEhh:00000020 .Loc.697
     /tmp/cc7wpQ70.s:2824   .text._ZN7Ssd13069setCursorEhh:00000022 .Loc.698
     /tmp/cc7wpQ70.s:2825   .text._ZN7Ssd13069setCursorEhh:00000022 .Loc.699
     /tmp/cc7wpQ70.s:2831   .text._ZN7Ssd13069setCursorEhh:0000002c .Loc.700
     /tmp/cc7wpQ70.s:2832   .text._ZN7Ssd13069setCursorEhh:0000002c .Loc.701
     /tmp/cc7wpQ70.s:2835   .text._ZN7Ssd13069setCursorEhh:00000030 .Loc.702
     /tmp/cc7wpQ70.s:2836   .text._ZN7Ssd13069setCursorEhh:00000030 .Loc.703
     /tmp/cc7wpQ70.s:2837   .text._ZN7Ssd13069setCursorEhh:00000030 .Loc.704
     /tmp/cc7wpQ70.s:2840   .text._ZN7Ssd13069setCursorEhh:00000032 .Loc.705
     /tmp/cc7wpQ70.s:2841   .text._ZN7Ssd13069setCursorEhh:00000032 .Loc.706
     /tmp/cc7wpQ70.s:2846   .text._ZN7Ssd13069setCursorEhh:0000003a .Loc.707
     /tmp/cc7wpQ70.s:2847   .text._ZN7Ssd13069setCursorEhh:0000003a .Loc.708
     /tmp/cc7wpQ70.s:2848   .text._ZN7Ssd13069setCursorEhh:0000003a .Loc.709
     /tmp/cc7wpQ70.s:2852   .text._ZN7Ssd13069setCursorEhh:0000003c .Loc.710
     /tmp/cc7wpQ70.s:2856   .text._ZN7Ssd13069setCursorEhh:00000040 .Loc.711
     /tmp/cc7wpQ70.s:2859   .text._ZN7Ssd13069setCursorEhh:00000042 .Loc.712
     /tmp/cc7wpQ70.s:2862   .text._ZN7Ssd13069setCursorEhh:00000044 .Loc.713
GAS LISTING /tmp/cc7wpQ70.s 			page 156


     /tmp/cc7wpQ70.s:2864   .text._ZN7Ssd13069setCursorEhh:00000046 L0
     /tmp/cc7wpQ70.s:2870   .text._ZN7Ssd130614setCursorPixelEhh:00000000 _ZN7Ssd130614setCursorPixelEhh
     /tmp/cc7wpQ70.s:2873   .text._ZN7Ssd130614setCursorPixelEhh:00000000 .Loc.714
     /tmp/cc7wpQ70.s:2874   .text._ZN7Ssd130614setCursorPixelEhh:00000000 L0
     /tmp/cc7wpQ70.s:2875   .text._ZN7Ssd130614setCursorPixelEhh:00000000 .Loc.715
     /tmp/cc7wpQ70.s:2899   .text._ZN7Ssd130614setCursorPixelEhh:0000000e .Loc.716
     /tmp/cc7wpQ70.s:2900   .text._ZN7Ssd130614setCursorPixelEhh:0000000e .Loc.717
     /tmp/cc7wpQ70.s:2901   .text._ZN7Ssd130614setCursorPixelEhh:0000000e .Loc.718
     /tmp/cc7wpQ70.s:2904   .text._ZN7Ssd130614setCursorPixelEhh:00000012 .Loc.719
     /tmp/cc7wpQ70.s:2907   .text._ZN7Ssd130614setCursorPixelEhh:00000016 .Loc.720
     /tmp/cc7wpQ70.s:2908   .text._ZN7Ssd130614setCursorPixelEhh:00000016 .Loc.721
     /tmp/cc7wpQ70.s:2913   .text._ZN7Ssd130614setCursorPixelEhh:0000001e .Loc.722
     /tmp/cc7wpQ70.s:2916   .text._ZN7Ssd130614setCursorPixelEhh:00000022 .Loc.723
     /tmp/cc7wpQ70.s:2919   .text._ZN7Ssd130614setCursorPixelEhh:00000026 .Loc.724
     /tmp/cc7wpQ70.s:2921   .text._ZN7Ssd130614setCursorPixelEhh:00000028 .Loc.725
     /tmp/cc7wpQ70.s:2925   .text._ZN7Ssd130614setCursorPixelEhh:0000002e .Loc.726
     /tmp/cc7wpQ70.s:2928   .text._ZN7Ssd130614setCursorPixelEhh:00000032 .Loc.727
     /tmp/cc7wpQ70.s:2929   .text._ZN7Ssd130614setCursorPixelEhh:00000032 .Loc.728
     /tmp/cc7wpQ70.s:2931   .text._ZN7Ssd130614setCursorPixelEhh:00000034 .Loc.729
     /tmp/cc7wpQ70.s:2932   .text._ZN7Ssd130614setCursorPixelEhh:00000034 .Loc.730
     /tmp/cc7wpQ70.s:2934   .text._ZN7Ssd130614setCursorPixelEhh:00000036 .Loc.731
     /tmp/cc7wpQ70.s:2935   .text._ZN7Ssd130614setCursorPixelEhh:00000036 .Loc.732
     /tmp/cc7wpQ70.s:2938   .text._ZN7Ssd130614setCursorPixelEhh:0000003a .Loc.733
     /tmp/cc7wpQ70.s:2939   .text._ZN7Ssd130614setCursorPixelEhh:0000003a .Loc.734
     /tmp/cc7wpQ70.s:2940   .text._ZN7Ssd130614setCursorPixelEhh:0000003a .Loc.735
     /tmp/cc7wpQ70.s:2943   .text._ZN7Ssd130614setCursorPixelEhh:0000003c .Loc.736
     /tmp/cc7wpQ70.s:2944   .text._ZN7Ssd130614setCursorPixelEhh:0000003c .Loc.737
     /tmp/cc7wpQ70.s:2949   .text._ZN7Ssd130614setCursorPixelEhh:00000044 .Loc.738
     /tmp/cc7wpQ70.s:2950   .text._ZN7Ssd130614setCursorPixelEhh:00000044 .Loc.739
     /tmp/cc7wpQ70.s:2953   .text._ZN7Ssd130614setCursorPixelEhh:00000044 .Loc.740
     /tmp/cc7wpQ70.s:2957   .text._ZN7Ssd130614setCursorPixelEhh:00000048 .Loc.741
     /tmp/cc7wpQ70.s:2960   .text._ZN7Ssd130614setCursorPixelEhh:0000004a .Loc.742
     /tmp/cc7wpQ70.s:2963   .text._ZN7Ssd130614setCursorPixelEhh:0000004c .Loc.743
     /tmp/cc7wpQ70.s:2967   .text._ZN7Ssd130614setCursorPixelEhh:0000004e .Loc.744
     /tmp/cc7wpQ70.s:2968   .text._ZN7Ssd130614setCursorPixelEhh:0000004e .Loc.745
     /tmp/cc7wpQ70.s:2973   .text._ZN7Ssd130614setCursorPixelEhh:00000056 .Loc.746
     /tmp/cc7wpQ70.s:2974   .text._ZN7Ssd130614setCursorPixelEhh:00000056 .Loc.747
     /tmp/cc7wpQ70.s:2975   .text._ZN7Ssd130614setCursorPixelEhh:00000056 .Loc.748
     /tmp/cc7wpQ70.s:2978   .text._ZN7Ssd130614setCursorPixelEhh:0000005a L0
     /tmp/cc7wpQ70.s:2984   .text._ZN7Ssd13065printEc:00000000 _ZN7Ssd13065printEc
     /tmp/cc7wpQ70.s:2987   .text._ZN7Ssd13065printEc:00000000 .Loc.749
     /tmp/cc7wpQ70.s:2988   .text._ZN7Ssd13065printEc:00000000 L0
     /tmp/cc7wpQ70.s:2989   .text._ZN7Ssd13065printEc:00000000 .Loc.750
     /tmp/cc7wpQ70.s:3012   .text._ZN7Ssd13065printEc:0000000c .Loc.751
     /tmp/cc7wpQ70.s:3013   .text._ZN7Ssd13065printEc:0000000c .Loc.752
     /tmp/cc7wpQ70.s:3014   .text._ZN7Ssd13065printEc:0000000c .Loc.753
     /tmp/cc7wpQ70.s:3017   .text._ZN7Ssd13065printEc:00000010 .Loc.754
     /tmp/cc7wpQ70.s:3019   .text._ZN7Ssd13065printEc:00000012 .Loc.755
     /tmp/cc7wpQ70.s:3022   .text._ZN7Ssd13065printEc:00000016 .Loc.756
     /tmp/cc7wpQ70.s:3025   .text._ZN7Ssd13065printEc:0000001a .Loc.757
     /tmp/cc7wpQ70.s:3026   .text._ZN7Ssd13065printEc:0000001a .Loc.758
     /tmp/cc7wpQ70.s:3028   .text._ZN7Ssd13065printEc:0000001c .Loc.759
     /tmp/cc7wpQ70.s:3029   .text._ZN7Ssd13065printEc:0000001c .Loc.760
     /tmp/cc7wpQ70.s:3031   .text._ZN7Ssd13065printEc:0000001e .Loc.761
     /tmp/cc7wpQ70.s:3034   .text._ZN7Ssd13065printEc:00000022 .Loc.762
     /tmp/cc7wpQ70.s:3041   .text._ZN7Ssd13065printEc:0000002e .Loc.763
     /tmp/cc7wpQ70.s:3042   .text._ZN7Ssd13065printEc:0000002e .Loc.764
GAS LISTING /tmp/cc7wpQ70.s 			page 157


     /tmp/cc7wpQ70.s:3044   .text._ZN7Ssd13065printEc:00000030 .Loc.765
     /tmp/cc7wpQ70.s:3051   .text._ZN7Ssd13065printEc:0000003c .Loc.766
     /tmp/cc7wpQ70.s:3054   .text._ZN7Ssd13065printEc:00000040 .Loc.767
     /tmp/cc7wpQ70.s:3057   .text._ZN7Ssd13065printEc:00000044 .Loc.768
     /tmp/cc7wpQ70.s:3064   .text._ZN7Ssd13065printEc:00000050 .Loc.769
     /tmp/cc7wpQ70.s:3068   .text._ZN7Ssd13065printEc:00000056 .Loc.770
     /tmp/cc7wpQ70.s:3069   .text._ZN7Ssd13065printEc:00000056 .Loc.771
     /tmp/cc7wpQ70.s:3073   .text._ZN7Ssd13065printEc:0000005a .Loc.772
     /tmp/cc7wpQ70.s:3074   .text._ZN7Ssd13065printEc:0000005a .Loc.773
     /tmp/cc7wpQ70.s:3079   .text._ZN7Ssd13065printEc:00000062 .Loc.774
     /tmp/cc7wpQ70.s:3083   .text._ZN7Ssd13065printEc:00000066 .Loc.775
     /tmp/cc7wpQ70.s:3084   .text._ZN7Ssd13065printEc:00000066 .Loc.776
     /tmp/cc7wpQ70.s:3087   .text._ZN7Ssd13065printEc:0000006a .Loc.777
     /tmp/cc7wpQ70.s:3088   .text._ZN7Ssd13065printEc:0000006a .Loc.778
     /tmp/cc7wpQ70.s:3090   .text._ZN7Ssd13065printEc:0000006a .Loc.779
     /tmp/cc7wpQ70.s:3096   .text._ZN7Ssd13065printEc:00000070 .Loc.780
     /tmp/cc7wpQ70.s:3099   .text._ZN7Ssd13065printEc:00000072 .Loc.781
     /tmp/cc7wpQ70.s:3104   .text._ZN7Ssd13065printEc:00000076 .Loc.782
     /tmp/cc7wpQ70.s:3107   .text._ZN7Ssd13065printEc:0000007a L0
     /tmp/cc7wpQ70.s:3115   .text._ZL15ssd1306WriteStdcP6__file:00000000 .Loc.783
     /tmp/cc7wpQ70.s:3116   .text._ZL15ssd1306WriteStdcP6__file:00000000 L0
     /tmp/cc7wpQ70.s:3121   .text._ZL15ssd1306WriteStdcP6__file:00000000 .Loc.784
     /tmp/cc7wpQ70.s:3122   .text._ZL15ssd1306WriteStdcP6__file:00000000 .Loc.785
     /tmp/cc7wpQ70.s:3123   .text._ZL15ssd1306WriteStdcP6__file:00000000 .Loc.786
     /tmp/cc7wpQ70.s:3126   .text._ZL15ssd1306WriteStdcP6__file:00000002 .Loc.787
     /tmp/cc7wpQ70.s:3130   .text._ZL15ssd1306WriteStdcP6__file:0000000a .Loc.788
     /tmp/cc7wpQ70.s:3133   .text._ZL15ssd1306WriteStdcP6__file:0000000e .Loc.789
     /tmp/cc7wpQ70.s:3134   .text._ZL15ssd1306WriteStdcP6__file:0000000e .Loc.790
     /tmp/cc7wpQ70.s:3139   .text._ZL15ssd1306WriteStdcP6__file:00000014 L0
     /tmp/cc7wpQ70.s:3145   .text._ZN7Ssd13065printEPKc:00000000 _ZN7Ssd13065printEPKc
     /tmp/cc7wpQ70.s:3148   .text._ZN7Ssd13065printEPKc:00000000 .Loc.791
     /tmp/cc7wpQ70.s:3149   .text._ZN7Ssd13065printEPKc:00000000 L0
     /tmp/cc7wpQ70.s:3150   .text._ZN7Ssd13065printEPKc:00000000 .Loc.792
     /tmp/cc7wpQ70.s:3185   .text._ZN7Ssd13065printEPKc:00000012 .Loc.793
     /tmp/cc7wpQ70.s:3186   .text._ZN7Ssd13065printEPKc:00000012 .Loc.794
     /tmp/cc7wpQ70.s:3188   .text._ZN7Ssd13065printEPKc:00000012 .Loc.795
     /tmp/cc7wpQ70.s:3189   .text._ZN7Ssd13065printEPKc:00000012 .Loc.796
     /tmp/cc7wpQ70.s:3192   .text._ZN7Ssd13065printEPKc:00000016 .Loc.797
     /tmp/cc7wpQ70.s:3194   .text._ZN7Ssd13065printEPKc:00000018 .Loc.798
     /tmp/cc7wpQ70.s:3197   .text._ZN7Ssd13065printEPKc:0000001c .Loc.799
     /tmp/cc7wpQ70.s:3201   .text._ZN7Ssd13065printEPKc:00000022 .Loc.800
     /tmp/cc7wpQ70.s:3206   .text._ZN7Ssd13065printEPKc:00000028 .Loc.801
     /tmp/cc7wpQ70.s:3207   .text._ZN7Ssd13065printEPKc:00000028 .Loc.802
     /tmp/cc7wpQ70.s:3213   .text._ZN7Ssd13065printEPKc:00000032 .Loc.803
     /tmp/cc7wpQ70.s:3214   .text._ZN7Ssd13065printEPKc:00000032 .Loc.804
     /tmp/cc7wpQ70.s:3215   .text._ZN7Ssd13065printEPKc:00000032 .Loc.805
     /tmp/cc7wpQ70.s:3220   .text._ZN7Ssd13065printEPKc:00000036 .Loc.806
     /tmp/cc7wpQ70.s:3221   .text._ZN7Ssd13065printEPKc:00000036 .Loc.807
     /tmp/cc7wpQ70.s:3225   .text._ZN7Ssd13065printEPKc:00000038 .Loc.808
     /tmp/cc7wpQ70.s:3232   .text._ZN7Ssd13065printEPKc:00000044 .Loc.809
     /tmp/cc7wpQ70.s:3233   .text._ZN7Ssd13065printEPKc:00000044 .Loc.810
     /tmp/cc7wpQ70.s:3237   .text._ZN7Ssd13065printEPKc:0000004a .Loc.811
     /tmp/cc7wpQ70.s:3240   .text._ZN7Ssd13065printEPKc:0000004e .Loc.812
     /tmp/cc7wpQ70.s:3244   .text._ZN7Ssd13065printEPKc:00000052 .Loc.813
     /tmp/cc7wpQ70.s:3245   .text._ZN7Ssd13065printEPKc:00000052 .Loc.814
     /tmp/cc7wpQ70.s:3249   .text._ZN7Ssd13065printEPKc:00000058 .Loc.815
     /tmp/cc7wpQ70.s:3250   .text._ZN7Ssd13065printEPKc:00000058 .Loc.816
GAS LISTING /tmp/cc7wpQ70.s 			page 158


     /tmp/cc7wpQ70.s:3253   .text._ZN7Ssd13065printEPKc:00000058 .Loc.817
     /tmp/cc7wpQ70.s:3261   .text._ZN7Ssd13065printEPKc:00000062 .Loc.818
     /tmp/cc7wpQ70.s:3265   .text._ZN7Ssd13065printEPKc:00000066 .Loc.819
     /tmp/cc7wpQ70.s:3268   .text._ZN7Ssd13065printEPKc:0000006a L0
     /tmp/cc7wpQ70.s:3274   .text._ZN7Ssd13069drawPixelEhhb:00000000 _ZN7Ssd13069drawPixelEhhb
     /tmp/cc7wpQ70.s:3277   .text._ZN7Ssd13069drawPixelEhhb:00000000 .Loc.820
     /tmp/cc7wpQ70.s:3278   .text._ZN7Ssd13069drawPixelEhhb:00000000 L0
     /tmp/cc7wpQ70.s:3279   .text._ZN7Ssd13069drawPixelEhhb:00000000 .Loc.821
     /tmp/cc7wpQ70.s:3312   .text._ZN7Ssd13069drawPixelEhhb:00000014 .Loc.822
     /tmp/cc7wpQ70.s:3313   .text._ZN7Ssd13069drawPixelEhhb:00000014 .Loc.823
     /tmp/cc7wpQ70.s:3314   .text._ZN7Ssd13069drawPixelEhhb:00000014 .Loc.824
     /tmp/cc7wpQ70.s:3317   .text._ZN7Ssd13069drawPixelEhhb:00000018 .Loc.825
     /tmp/cc7wpQ70.s:3319   .text._ZN7Ssd13069drawPixelEhhb:0000001a .Loc.826
     /tmp/cc7wpQ70.s:3322   .text._ZN7Ssd13069drawPixelEhhb:0000001e .Loc.827
     /tmp/cc7wpQ70.s:3323   .text._ZN7Ssd13069drawPixelEhhb:0000001e .Loc.828
     /tmp/cc7wpQ70.s:3329   .text._ZN7Ssd13069drawPixelEhhb:00000028 .Loc.829
     /tmp/cc7wpQ70.s:3332   .text._ZN7Ssd13069drawPixelEhhb:0000002c .Loc.830
     /tmp/cc7wpQ70.s:3335   .text._ZN7Ssd13069drawPixelEhhb:00000030 .Loc.831
     /tmp/cc7wpQ70.s:3337   .text._ZN7Ssd13069drawPixelEhhb:00000032 .Loc.832
     /tmp/cc7wpQ70.s:3341   .text._ZN7Ssd13069drawPixelEhhb:00000038 .Loc.833
     /tmp/cc7wpQ70.s:3345   .text._ZN7Ssd13069drawPixelEhhb:0000003c .Loc.834
     /tmp/cc7wpQ70.s:3346   .text._ZN7Ssd13069drawPixelEhhb:0000003c .Loc.835
     /tmp/cc7wpQ70.s:3352   .text._ZN7Ssd13069drawPixelEhhb:00000046 .Loc.836
     /tmp/cc7wpQ70.s:3353   .text._ZN7Ssd13069drawPixelEhhb:00000046 .Loc.837
     /tmp/cc7wpQ70.s:3354   .text._ZN7Ssd13069drawPixelEhhb:00000046 .Loc.838
     /tmp/cc7wpQ70.s:3357   .text._ZN7Ssd13069drawPixelEhhb:00000048 .Loc.839
     /tmp/cc7wpQ70.s:3362   .text._ZN7Ssd13069drawPixelEhhb:0000004c .Loc.840
     /tmp/cc7wpQ70.s:3367   .text._ZN7Ssd13069drawPixelEhhb:00000052 .Loc.841
     /tmp/cc7wpQ70.s:3370   .text._ZN7Ssd13069drawPixelEhhb:00000054 .Loc.842
     /tmp/cc7wpQ70.s:3373   .text._ZN7Ssd13069drawPixelEhhb:00000056 .Loc.843
     /tmp/cc7wpQ70.s:3377   .text._ZN7Ssd13069drawPixelEhhb:00000058 .Loc.844
     /tmp/cc7wpQ70.s:3378   .text._ZN7Ssd13069drawPixelEhhb:00000058 .Loc.845
     /tmp/cc7wpQ70.s:3383   .text._ZN7Ssd13069drawPixelEhhb:00000060 .Loc.846
     /tmp/cc7wpQ70.s:3384   .text._ZN7Ssd13069drawPixelEhhb:00000060 .Loc.847
     /tmp/cc7wpQ70.s:3385   .text._ZN7Ssd13069drawPixelEhhb:00000060 .Loc.848
     /tmp/cc7wpQ70.s:3388   .text._ZN7Ssd13069drawPixelEhhb:00000062 .Loc.849
     /tmp/cc7wpQ70.s:3389   .text._ZN7Ssd13069drawPixelEhhb:00000062 .Loc.850
     /tmp/cc7wpQ70.s:3396   .text._ZN7Ssd13069drawPixelEhhb:0000006e .Loc.851
     /tmp/cc7wpQ70.s:3397   .text._ZN7Ssd13069drawPixelEhhb:0000006e .Loc.852
     /tmp/cc7wpQ70.s:3401   .text._ZN7Ssd13069drawPixelEhhb:00000074 .Loc.853
     /tmp/cc7wpQ70.s:3402   .text._ZN7Ssd13069drawPixelEhhb:00000074 .Loc.854
     /tmp/cc7wpQ70.s:3403   .text._ZN7Ssd13069drawPixelEhhb:00000074 .Loc.855
     /tmp/cc7wpQ70.s:3405   .text._ZN7Ssd13069drawPixelEhhb:00000076 L0
     /tmp/cc7wpQ70.s:3411   .text._ZN7Ssd13068drawLineEhhhhb:00000000 _ZN7Ssd13068drawLineEhhhhb
     /tmp/cc7wpQ70.s:3414   .text._ZN7Ssd13068drawLineEhhhhb:00000000 .Loc.856
     /tmp/cc7wpQ70.s:3415   .text._ZN7Ssd13068drawLineEhhhhb:00000000 L0
     /tmp/cc7wpQ70.s:3416   .text._ZN7Ssd13068drawLineEhhhhb:00000000 .Loc.857
     /tmp/cc7wpQ70.s:3489   .text._ZN7Ssd13068drawLineEhhhhb:00000026 L0
     /tmp/cc7wpQ70.s:3490   .text._ZN7Ssd13068drawLineEhhhhb:00000028 L0
     /tmp/cc7wpQ70.s:3507   .text._ZN7Ssd13068drawLineEhhhhb:00000038 .Loc.858
     /tmp/cc7wpQ70.s:3508   .text._ZN7Ssd13068drawLineEhhhhb:00000038 .Loc.859
     /tmp/cc7wpQ70.s:3509   .text._ZN7Ssd13068drawLineEhhhhb:00000038 .Loc.860
     /tmp/cc7wpQ70.s:3512   .text._ZN7Ssd13068drawLineEhhhhb:0000003c .Loc.861
     /tmp/cc7wpQ70.s:3514   .text._ZN7Ssd13068drawLineEhhhhb:0000003e .Loc.862
     /tmp/cc7wpQ70.s:3516   .text._ZN7Ssd13068drawLineEhhhhb:00000042 L0
     /tmp/cc7wpQ70.s:3518   .text._ZN7Ssd13068drawLineEhhhhb:00000044 .Loc.863
     /tmp/cc7wpQ70.s:3519   .text._ZN7Ssd13068drawLineEhhhhb:00000044 .Loc.864
GAS LISTING /tmp/cc7wpQ70.s 			page 159


     /tmp/cc7wpQ70.s:3526   .text._ZN7Ssd13068drawLineEhhhhb:00000050 .Loc.865
     /tmp/cc7wpQ70.s:3529   .text._ZN7Ssd13068drawLineEhhhhb:00000054 .Loc.866
     /tmp/cc7wpQ70.s:3530   .text._ZN7Ssd13068drawLineEhhhhb:00000054 .Loc.867
     /tmp/cc7wpQ70.s:3533   .text._ZN7Ssd13068drawLineEhhhhb:00000056 .Loc.868
     /tmp/cc7wpQ70.s:3536   .text._ZN7Ssd13068drawLineEhhhhb:00000058 .Loc.869
     /tmp/cc7wpQ70.s:3537   .text._ZN7Ssd13068drawLineEhhhhb:00000058 .Loc.870
     /tmp/cc7wpQ70.s:3543   .text._ZN7Ssd13068drawLineEhhhhb:00000060 .Loc.871
     /tmp/cc7wpQ70.s:3544   .text._ZN7Ssd13068drawLineEhhhhb:00000060 .Loc.872
     /tmp/cc7wpQ70.s:3547   .text._ZN7Ssd13068drawLineEhhhhb:00000064 .Loc.873
     /tmp/cc7wpQ70.s:3550   .text._ZN7Ssd13068drawLineEhhhhb:00000068 .Loc.874
     /tmp/cc7wpQ70.s:3555   .text._ZN7Ssd13068drawLineEhhhhb:0000006c .Loc.875
     /tmp/cc7wpQ70.s:3556   .text._ZN7Ssd13068drawLineEhhhhb:0000006c .Loc.876
     /tmp/cc7wpQ70.s:3559   .text._ZN7Ssd13068drawLineEhhhhb:00000070 .Loc.877
     /tmp/cc7wpQ70.s:3566   .text._ZN7Ssd13068drawLineEhhhhb:00000078 .Loc.878
     /tmp/cc7wpQ70.s:3567   .text._ZN7Ssd13068drawLineEhhhhb:00000078 .Loc.879
     /tmp/cc7wpQ70.s:3570   .text._ZN7Ssd13068drawLineEhhhhb:0000007c .Loc.880
     /tmp/cc7wpQ70.s:3576   .text._ZN7Ssd13068drawLineEhhhhb:00000082 .Loc.881
     /tmp/cc7wpQ70.s:3577   .text._ZN7Ssd13068drawLineEhhhhb:00000082 .Loc.882
     /tmp/cc7wpQ70.s:3580   .text._ZN7Ssd13068drawLineEhhhhb:00000086 .Loc.883
     /tmp/cc7wpQ70.s:3586   .text._ZN7Ssd13068drawLineEhhhhb:0000008c .Loc.884
     /tmp/cc7wpQ70.s:3587   .text._ZN7Ssd13068drawLineEhhhhb:0000008c .Loc.885
     /tmp/cc7wpQ70.s:3590   .text._ZN7Ssd13068drawLineEhhhhb:0000008e .Loc.886
     /tmp/cc7wpQ70.s:3595   .text._ZN7Ssd13068drawLineEhhhhb:00000092 .Loc.887
     /tmp/cc7wpQ70.s:3597   .text._ZN7Ssd13068drawLineEhhhhb:00000092 .Loc.888
     /tmp/cc7wpQ70.s:3598   .text._ZN7Ssd13068drawLineEhhhhb:00000092 .Loc.889
     /tmp/cc7wpQ70.s:3605   .text._ZN7Ssd13068drawLineEhhhhb:0000009e .Loc.890
     /tmp/cc7wpQ70.s:3610   .text._ZN7Ssd13068drawLineEhhhhb:000000a4 .Loc.891
     /tmp/cc7wpQ70.s:3611   .text._ZN7Ssd13068drawLineEhhhhb:000000a4 .Loc.892
     /tmp/cc7wpQ70.s:3616   .text._ZN7Ssd13068drawLineEhhhhb:000000aa .Loc.893
     /tmp/cc7wpQ70.s:3620   .text._ZN7Ssd13068drawLineEhhhhb:000000b0 .Loc.894
     /tmp/cc7wpQ70.s:3621   .text._ZN7Ssd13068drawLineEhhhhb:000000b0 .Loc.895
     /tmp/cc7wpQ70.s:3625   .text._ZN7Ssd13068drawLineEhhhhb:000000b4 .Loc.896
     /tmp/cc7wpQ70.s:3626   .text._ZN7Ssd13068drawLineEhhhhb:000000b4 .Loc.897
     /tmp/cc7wpQ70.s:3631   .text._ZN7Ssd13068drawLineEhhhhb:000000b8 .Loc.898
     /tmp/cc7wpQ70.s:3635   .text._ZN7Ssd13068drawLineEhhhhb:000000be .Loc.899
     /tmp/cc7wpQ70.s:3636   .text._ZN7Ssd13068drawLineEhhhhb:000000be .Loc.900
     /tmp/cc7wpQ70.s:3640   .text._ZN7Ssd13068drawLineEhhhhb:000000c2 .Loc.901
     /tmp/cc7wpQ70.s:3641   .text._ZN7Ssd13068drawLineEhhhhb:000000c2 .Loc.902
     /tmp/cc7wpQ70.s:3645   .text._ZN7Ssd13068drawLineEhhhhb:000000c6 .Loc.903
     /tmp/cc7wpQ70.s:3651   .text._ZN7Ssd13068drawLineEhhhhb:000000ce .Loc.904
     /tmp/cc7wpQ70.s:3655   .text._ZN7Ssd13068drawLineEhhhhb:000000d0 .Loc.905
     /tmp/cc7wpQ70.s:3657   .text._ZN7Ssd13068drawLineEhhhhb:000000d0 .Loc.906
     /tmp/cc7wpQ70.s:3658   .text._ZN7Ssd13068drawLineEhhhhb:000000d0 .Loc.907
     /tmp/cc7wpQ70.s:3663   .text._ZN7Ssd13068drawLineEhhhhb:000000d8 .Loc.908
     /tmp/cc7wpQ70.s:3664   .text._ZN7Ssd13068drawLineEhhhhb:000000d8 .Loc.909
     /tmp/cc7wpQ70.s:3665   .text._ZN7Ssd13068drawLineEhhhhb:000000d8 .Loc.910
     /tmp/cc7wpQ70.s:3669   .text._ZN7Ssd13068drawLineEhhhhb:000000da .Loc.911
     /tmp/cc7wpQ70.s:3676   .text._ZN7Ssd13068drawLineEhhhhb:000000e2 .Loc.912
     /tmp/cc7wpQ70.s:3679   .text._ZN7Ssd13068drawLineEhhhhb:000000e6 .Loc.913
     /tmp/cc7wpQ70.s:3683   .text._ZN7Ssd13068drawLineEhhhhb:000000ea .Loc.914
     /tmp/cc7wpQ70.s:3689   .text._ZN7Ssd13068drawLineEhhhhb:000000f0 .Loc.915
     /tmp/cc7wpQ70.s:3696   .text._ZN7Ssd13068drawLineEhhhhb:000000f8 .Loc.916
     /tmp/cc7wpQ70.s:3704   .text._ZN7Ssd13068drawLineEhhhhb:00000100 .Loc.917
     /tmp/cc7wpQ70.s:3711   .text._ZN7Ssd13068drawLineEhhhhb:0000010a .Loc.918
     /tmp/cc7wpQ70.s:3712   .text._ZN7Ssd13068drawLineEhhhhb:0000010a .Loc.919
     /tmp/cc7wpQ70.s:3716   .text._ZN7Ssd13068drawLineEhhhhb:00000110 .Loc.920
     /tmp/cc7wpQ70.s:3717   .text._ZN7Ssd13068drawLineEhhhhb:00000110 .Loc.921
GAS LISTING /tmp/cc7wpQ70.s 			page 160


     /tmp/cc7wpQ70.s:3720   .text._ZN7Ssd13068drawLineEhhhhb:00000110 .Loc.922
     /tmp/cc7wpQ70.s:3733   .text._ZN7Ssd13068drawLineEhhhhb:00000124 .Loc.923
     /tmp/cc7wpQ70.s:3740   .text._ZN7Ssd13068drawLineEhhhhb:0000012e .Loc.924
     /tmp/cc7wpQ70.s:3745   .text._ZN7Ssd13068drawLineEhhhhb:00000134 .Loc.925
     /tmp/cc7wpQ70.s:3751   .text._ZN7Ssd13068drawLineEhhhhb:0000013c .Loc.926
     /tmp/cc7wpQ70.s:3754   .text._ZN7Ssd13068drawLineEhhhhb:0000013e .Loc.927
     /tmp/cc7wpQ70.s:3756   .text._ZN7Ssd13068drawLineEhhhhb:00000140 L0
     /tmp/cc7wpQ70.s:3762   .text._ZN7Ssd13068fillRectEhhhhb:00000000 _ZN7Ssd13068fillRectEhhhhb
     /tmp/cc7wpQ70.s:3765   .text._ZN7Ssd13068fillRectEhhhhb:00000000 .Loc.928
     /tmp/cc7wpQ70.s:3766   .text._ZN7Ssd13068fillRectEhhhhb:00000000 L0
     /tmp/cc7wpQ70.s:3767   .text._ZN7Ssd13068fillRectEhhhhb:00000000 .Loc.929
     /tmp/cc7wpQ70.s:3849   .text._ZN7Ssd13068fillRectEhhhhb:00000038 .Loc.930
     /tmp/cc7wpQ70.s:3850   .text._ZN7Ssd13068fillRectEhhhhb:00000038 .Loc.931
     /tmp/cc7wpQ70.s:3851   .text._ZN7Ssd13068fillRectEhhhhb:00000038 .Loc.932
     /tmp/cc7wpQ70.s:3854   .text._ZN7Ssd13068fillRectEhhhhb:0000003c .Loc.933
     /tmp/cc7wpQ70.s:3856   .text._ZN7Ssd13068fillRectEhhhhb:0000003e .Loc.934
     /tmp/cc7wpQ70.s:3859   .text._ZN7Ssd13068fillRectEhhhhb:00000042 .Loc.935
     /tmp/cc7wpQ70.s:3862   .text._ZN7Ssd13068fillRectEhhhhb:00000046 .Loc.936
     /tmp/cc7wpQ70.s:3865   .text._ZN7Ssd13068fillRectEhhhhb:0000004a .Loc.937
     /tmp/cc7wpQ70.s:3868   .text._ZN7Ssd13068fillRectEhhhhb:0000004e .Loc.938
     /tmp/cc7wpQ70.s:3871   .text._ZN7Ssd13068fillRectEhhhhb:00000052 .Loc.939
     /tmp/cc7wpQ70.s:3874   .text._ZN7Ssd13068fillRectEhhhhb:00000056 .Loc.940
     /tmp/cc7wpQ70.s:3876   .text._ZN7Ssd13068fillRectEhhhhb:00000056 .Loc.941
     /tmp/cc7wpQ70.s:3882   .text._ZN7Ssd13068fillRectEhhhhb:00000060 .Loc.942
     /tmp/cc7wpQ70.s:3886   .text._ZN7Ssd13068fillRectEhhhhb:00000064 .Loc.943
     /tmp/cc7wpQ70.s:3887   .text._ZN7Ssd13068fillRectEhhhhb:00000064 .Loc.944
     /tmp/cc7wpQ70.s:3888   .text._ZN7Ssd13068fillRectEhhhhb:00000064 .Loc.945
     /tmp/cc7wpQ70.s:3890   .text._ZN7Ssd13068fillRectEhhhhb:00000068 L0
     /tmp/cc7wpQ70.s:3892   .text._ZN7Ssd13068fillRectEhhhhb:0000006a .Loc.946
     /tmp/cc7wpQ70.s:3896   .text._ZN7Ssd13068fillRectEhhhhb:0000006c .Loc.947
     /tmp/cc7wpQ70.s:3897   .text._ZN7Ssd13068fillRectEhhhhb:0000006c .Loc.948
     /tmp/cc7wpQ70.s:3898   .text._ZN7Ssd13068fillRectEhhhhb:0000006c .Loc.949
     /tmp/cc7wpQ70.s:3901   .text._ZN7Ssd13068fillRectEhhhhb:0000006e .Loc.950
     /tmp/cc7wpQ70.s:3902   .text._ZN7Ssd13068fillRectEhhhhb:0000006e .Loc.951
     /tmp/cc7wpQ70.s:3907   .text._ZN7Ssd13068fillRectEhhhhb:00000076 .Loc.952
     /tmp/cc7wpQ70.s:3911   .text._ZN7Ssd13068fillRectEhhhhb:0000007c .Loc.953
     /tmp/cc7wpQ70.s:3912   .text._ZN7Ssd13068fillRectEhhhhb:0000007c .Loc.954
     /tmp/cc7wpQ70.s:3918   .text._ZN7Ssd13068fillRectEhhhhb:00000082 .Loc.955
     /tmp/cc7wpQ70.s:3921   .text._ZN7Ssd13068fillRectEhhhhb:00000086 .Loc.956
     /tmp/cc7wpQ70.s:3925   .text._ZN7Ssd13068fillRectEhhhhb:00000088 .Loc.957
     /tmp/cc7wpQ70.s:3927   .text._ZN7Ssd13068fillRectEhhhhb:00000088 .Loc.958
     /tmp/cc7wpQ70.s:3929   .text._ZN7Ssd13068fillRectEhhhhb:0000008a .Loc.959
     /tmp/cc7wpQ70.s:3933   .text._ZN7Ssd13068fillRectEhhhhb:0000008c .Loc.960
     /tmp/cc7wpQ70.s:3935   .text._ZN7Ssd13068fillRectEhhhhb:0000008c .Loc.961
     /tmp/cc7wpQ70.s:3936   .text._ZN7Ssd13068fillRectEhhhhb:0000008c .Loc.962
     /tmp/cc7wpQ70.s:3942   .text._ZN7Ssd13068fillRectEhhhhb:00000096 .Loc.963
     /tmp/cc7wpQ70.s:3943   .text._ZN7Ssd13068fillRectEhhhhb:00000096 .Loc.964
     /tmp/cc7wpQ70.s:3944   .text._ZN7Ssd13068fillRectEhhhhb:00000096 .Loc.965
     /tmp/cc7wpQ70.s:3948   .text._ZN7Ssd13068fillRectEhhhhb:00000098 .Loc.966
     /tmp/cc7wpQ70.s:3963   .text._ZN7Ssd13068fillRectEhhhhb:000000b0 .Loc.967
     /tmp/cc7wpQ70.s:3966   .text._ZN7Ssd13068fillRectEhhhhb:000000b2 .Loc.968
     /tmp/cc7wpQ70.s:3970   .text._ZN7Ssd13068fillRectEhhhhb:000000b6 .Loc.969
     /tmp/cc7wpQ70.s:3983   .text._ZN7Ssd13068fillRectEhhhhb:000000c6 .Loc.970
     /tmp/cc7wpQ70.s:3984   .text._ZN7Ssd13068fillRectEhhhhb:000000c6 .Loc.971
     /tmp/cc7wpQ70.s:3987   .text._ZN7Ssd13068fillRectEhhhhb:000000ca .Loc.972
     /tmp/cc7wpQ70.s:3992   .text._ZN7Ssd13068fillRectEhhhhb:000000d0 .Loc.973
     /tmp/cc7wpQ70.s:4001   .text._ZN7Ssd13068fillRectEhhhhb:000000de .Loc.974
GAS LISTING /tmp/cc7wpQ70.s 			page 161


     /tmp/cc7wpQ70.s:4003   .text._ZN7Ssd13068fillRectEhhhhb:000000de .Loc.975
     /tmp/cc7wpQ70.s:4011   .text._ZN7Ssd13068fillRectEhhhhb:000000ea .Loc.976
     /tmp/cc7wpQ70.s:4016   .text._ZN7Ssd13068fillRectEhhhhb:000000ec .Loc.977
     /tmp/cc7wpQ70.s:4017   .text._ZN7Ssd13068fillRectEhhhhb:000000ec .Loc.978
     /tmp/cc7wpQ70.s:4024   .text._ZN7Ssd13068fillRectEhhhhb:000000f8 .Loc.979
     /tmp/cc7wpQ70.s:4029   .text._ZN7Ssd13068fillRectEhhhhb:000000fc .Loc.980
     /tmp/cc7wpQ70.s:4030   .text._ZN7Ssd13068fillRectEhhhhb:000000fc .Loc.981
     /tmp/cc7wpQ70.s:4035   .text._ZN7Ssd13068fillRectEhhhhb:00000104 .Loc.982
     /tmp/cc7wpQ70.s:4040   .text._ZN7Ssd13068fillRectEhhhhb:0000010a .Loc.983
     /tmp/cc7wpQ70.s:4046   .text._ZN7Ssd13068fillRectEhhhhb:00000110 .Loc.984
     /tmp/cc7wpQ70.s:4050   .text._ZN7Ssd13068fillRectEhhhhb:00000116 .Loc.985
     /tmp/cc7wpQ70.s:4052   .text._ZN7Ssd13068fillRectEhhhhb:00000116 .Loc.986
     /tmp/cc7wpQ70.s:4056   .text._ZN7Ssd13068fillRectEhhhhb:0000011a .Loc.987
     /tmp/cc7wpQ70.s:4060   .text._ZN7Ssd13068fillRectEhhhhb:0000011c .Loc.988
     /tmp/cc7wpQ70.s:4063   .text._ZN7Ssd13068fillRectEhhhhb:0000011c .Loc.989
     /tmp/cc7wpQ70.s:4064   .text._ZN7Ssd13068fillRectEhhhhb:0000011c .Loc.990
     /tmp/cc7wpQ70.s:4068   .text._ZN7Ssd13068fillRectEhhhhb:00000122 .Loc.991
     /tmp/cc7wpQ70.s:4069   .text._ZN7Ssd13068fillRectEhhhhb:00000122 .Loc.992
     /tmp/cc7wpQ70.s:4070   .text._ZN7Ssd13068fillRectEhhhhb:00000122 .Loc.993
     /tmp/cc7wpQ70.s:4075   .text._ZN7Ssd13068fillRectEhhhhb:00000126 .Loc.994
     /tmp/cc7wpQ70.s:4078   .text._ZN7Ssd13068fillRectEhhhhb:00000126 .Loc.995
     /tmp/cc7wpQ70.s:4084   .text._ZN7Ssd13068fillRectEhhhhb:0000012a .Loc.996
     /tmp/cc7wpQ70.s:4085   .text._ZN7Ssd13068fillRectEhhhhb:0000012a .Loc.997
     /tmp/cc7wpQ70.s:4091   .text._ZN7Ssd13068fillRectEhhhhb:00000134 .Loc.998
     /tmp/cc7wpQ70.s:4095   .text._ZN7Ssd13068fillRectEhhhhb:00000136 .Loc.999
     /tmp/cc7wpQ70.s:4100   .text._ZN7Ssd13068fillRectEhhhhb:0000013a .Loc.1000
     /tmp/cc7wpQ70.s:4103   .text._ZN7Ssd13068fillRectEhhhhb:0000013a .Loc.1001
     /tmp/cc7wpQ70.s:4107   .text._ZN7Ssd13068fillRectEhhhhb:0000013e .Loc.1002
     /tmp/cc7wpQ70.s:4108   .text._ZN7Ssd13068fillRectEhhhhb:0000013e .Loc.1003
     /tmp/cc7wpQ70.s:4114   .text._ZN7Ssd13068fillRectEhhhhb:00000148 .Loc.1004
     /tmp/cc7wpQ70.s:4117   .text._ZN7Ssd13068fillRectEhhhhb:0000014c .Loc.1005
     /tmp/cc7wpQ70.s:4121   .text._ZN7Ssd13068fillRectEhhhhb:00000150 .Loc.1006
     /tmp/cc7wpQ70.s:4127   .text._ZN7Ssd13068fillRectEhhhhb:00000154 .Loc.1007
     /tmp/cc7wpQ70.s:4131   .text._ZN7Ssd13068fillRectEhhhhb:00000156 .Loc.1008
     /tmp/cc7wpQ70.s:4132   .text._ZN7Ssd13068fillRectEhhhhb:00000156 .Loc.1009
     /tmp/cc7wpQ70.s:4140   .text._ZN7Ssd13068fillRectEhhhhb:00000164 .Loc.1010
     /tmp/cc7wpQ70.s:4143   .text._ZN7Ssd13068fillRectEhhhhb:00000168 .Loc.1011
     /tmp/cc7wpQ70.s:4144   .text._ZN7Ssd13068fillRectEhhhhb:00000168 .Loc.1012
     /tmp/cc7wpQ70.s:4148   .text._ZN7Ssd13068fillRectEhhhhb:0000016a .Loc.1013
     /tmp/cc7wpQ70.s:4150   .text._ZN7Ssd13068fillRectEhhhhb:0000016a .Loc.1014
     /tmp/cc7wpQ70.s:4154   .text._ZN7Ssd13068fillRectEhhhhb:0000016e .Loc.1015
     /tmp/cc7wpQ70.s:4155   .text._ZN7Ssd13068fillRectEhhhhb:0000016e .Loc.1016
     /tmp/cc7wpQ70.s:4158   .text._ZN7Ssd13068fillRectEhhhhb:00000172 .Loc.1017
     /tmp/cc7wpQ70.s:4163   .text._ZN7Ssd13068fillRectEhhhhb:00000176 .Loc.1018
     /tmp/cc7wpQ70.s:4166   .text._ZN7Ssd13068fillRectEhhhhb:00000176 .Loc.1019
     /tmp/cc7wpQ70.s:4171   .text._ZN7Ssd13068fillRectEhhhhb:0000017c .Loc.1020
     /tmp/cc7wpQ70.s:4175   .text._ZN7Ssd13068fillRectEhhhhb:0000017e .Loc.1021
     /tmp/cc7wpQ70.s:4177   .text._ZN7Ssd13068fillRectEhhhhb:0000017e .Loc.1022
     /tmp/cc7wpQ70.s:4178   .text._ZN7Ssd13068fillRectEhhhhb:0000017e .Loc.1023
     /tmp/cc7wpQ70.s:4182   .text._ZN7Ssd13068fillRectEhhhhb:00000184 .Loc.1024
     /tmp/cc7wpQ70.s:4183   .text._ZN7Ssd13068fillRectEhhhhb:00000184 .Loc.1025
     /tmp/cc7wpQ70.s:4184   .text._ZN7Ssd13068fillRectEhhhhb:00000184 .Loc.1026
     /tmp/cc7wpQ70.s:4191   .text._ZN7Ssd13068fillRectEhhhhb:00000186 .Loc.1027
     /tmp/cc7wpQ70.s:4194   .text._ZN7Ssd13068fillRectEhhhhb:00000188 .Loc.1028
     /tmp/cc7wpQ70.s:4199   .text._ZN7Ssd13068fillRectEhhhhb:0000018a L0
     /tmp/cc7wpQ70.s:4205   .text._ZN7Ssd13068drawRectEhhhh:00000000 _ZN7Ssd13068drawRectEhhhh
     /tmp/cc7wpQ70.s:4208   .text._ZN7Ssd13068drawRectEhhhh:00000000 .Loc.1029
GAS LISTING /tmp/cc7wpQ70.s 			page 162


     /tmp/cc7wpQ70.s:4209   .text._ZN7Ssd13068drawRectEhhhh:00000000 L0
     /tmp/cc7wpQ70.s:4210   .text._ZN7Ssd13068drawRectEhhhh:00000000 .Loc.1030
     /tmp/cc7wpQ70.s:4284   .text._ZN7Ssd13068drawRectEhhhh:00000034 .Loc.1031
     /tmp/cc7wpQ70.s:4285   .text._ZN7Ssd13068drawRectEhhhh:00000034 .Loc.1032
     /tmp/cc7wpQ70.s:4286   .text._ZN7Ssd13068drawRectEhhhh:00000034 .Loc.1033
     /tmp/cc7wpQ70.s:4289   .text._ZN7Ssd13068drawRectEhhhh:00000038 .Loc.1034
     /tmp/cc7wpQ70.s:4291   .text._ZN7Ssd13068drawRectEhhhh:0000003a .Loc.1035
     /tmp/cc7wpQ70.s:4294   .text._ZN7Ssd13068drawRectEhhhh:0000003e .Loc.1036
     /tmp/cc7wpQ70.s:4297   .text._ZN7Ssd13068drawRectEhhhh:00000042 .Loc.1037
     /tmp/cc7wpQ70.s:4300   .text._ZN7Ssd13068drawRectEhhhh:00000046 .Loc.1038
     /tmp/cc7wpQ70.s:4303   .text._ZN7Ssd13068drawRectEhhhh:0000004a .Loc.1039
     /tmp/cc7wpQ70.s:4306   .text._ZN7Ssd13068drawRectEhhhh:0000004e .Loc.1040
     /tmp/cc7wpQ70.s:4309   .text._ZN7Ssd13068drawRectEhhhh:00000052 .Loc.1041
     /tmp/cc7wpQ70.s:4311   .text._ZN7Ssd13068drawRectEhhhh:00000052 .Loc.1042
     /tmp/cc7wpQ70.s:4316   .text._ZN7Ssd13068drawRectEhhhh:0000005a .Loc.1043
     /tmp/cc7wpQ70.s:4320   .text._ZN7Ssd13068drawRectEhhhh:0000005e .Loc.1044
     /tmp/cc7wpQ70.s:4321   .text._ZN7Ssd13068drawRectEhhhh:0000005e .Loc.1045
     /tmp/cc7wpQ70.s:4323   .text._ZN7Ssd13068drawRectEhhhh:0000005e .Loc.1046
     /tmp/cc7wpQ70.s:4324   .text._ZN7Ssd13068drawRectEhhhh:0000005e .Loc.1047
     /tmp/cc7wpQ70.s:4328   .text._ZN7Ssd13068drawRectEhhhh:00000062 .Loc.1048
     /tmp/cc7wpQ70.s:4329   .text._ZN7Ssd13068drawRectEhhhh:00000062 .Loc.1049
     /tmp/cc7wpQ70.s:4334   .text._ZN7Ssd13068drawRectEhhhh:0000006a .Loc.1050
     /tmp/cc7wpQ70.s:4338   .text._ZN7Ssd13068drawRectEhhhh:00000070 .Loc.1051
     /tmp/cc7wpQ70.s:4339   .text._ZN7Ssd13068drawRectEhhhh:00000070 .Loc.1052
     /tmp/cc7wpQ70.s:4342   .text._ZN7Ssd13068drawRectEhhhh:00000072 .Loc.1053
     /tmp/cc7wpQ70.s:4346   .text._ZN7Ssd13068drawRectEhhhh:00000074 .Loc.1054
     /tmp/cc7wpQ70.s:4349   .text._ZN7Ssd13068drawRectEhhhh:00000078 .Loc.1055
     /tmp/cc7wpQ70.s:4353   .text._ZN7Ssd13068drawRectEhhhh:0000007a .Loc.1056
     /tmp/cc7wpQ70.s:4355   .text._ZN7Ssd13068drawRectEhhhh:0000007a .Loc.1057
     /tmp/cc7wpQ70.s:4357   .text._ZN7Ssd13068drawRectEhhhh:0000007c .Loc.1058
     /tmp/cc7wpQ70.s:4361   .text._ZN7Ssd13068drawRectEhhhh:0000007e .Loc.1059
     /tmp/cc7wpQ70.s:4363   .text._ZN7Ssd13068drawRectEhhhh:0000007e .Loc.1060
     /tmp/cc7wpQ70.s:4364   .text._ZN7Ssd13068drawRectEhhhh:0000007e .Loc.1061
     /tmp/cc7wpQ70.s:4370   .text._ZN7Ssd13068drawRectEhhhh:00000088 .Loc.1062
     /tmp/cc7wpQ70.s:4371   .text._ZN7Ssd13068drawRectEhhhh:00000088 .Loc.1063
     /tmp/cc7wpQ70.s:4372   .text._ZN7Ssd13068drawRectEhhhh:00000088 .Loc.1064
     /tmp/cc7wpQ70.s:4376   .text._ZN7Ssd13068drawRectEhhhh:0000008a .Loc.1065
     /tmp/cc7wpQ70.s:4392   .text._ZN7Ssd13068drawRectEhhhh:000000a4 .Loc.1066
     /tmp/cc7wpQ70.s:4400   .text._ZN7Ssd13068drawRectEhhhh:000000b0 .Loc.1067
     /tmp/cc7wpQ70.s:4407   .text._ZN7Ssd13068drawRectEhhhh:000000b4 .Loc.1068
     /tmp/cc7wpQ70.s:4408   .text._ZN7Ssd13068drawRectEhhhh:000000b4 .Loc.1069
     /tmp/cc7wpQ70.s:4413   .text._ZN7Ssd13068drawRectEhhhh:000000bc .Loc.1070
     /tmp/cc7wpQ70.s:4421   .text._ZN7Ssd13068drawRectEhhhh:000000c8 .Loc.1071
     /tmp/cc7wpQ70.s:4422   .text._ZN7Ssd13068drawRectEhhhh:000000c8 .Loc.1072
     /tmp/cc7wpQ70.s:4425   .text._ZN7Ssd13068drawRectEhhhh:000000cc .Loc.1073
     /tmp/cc7wpQ70.s:4431   .text._ZN7Ssd13068drawRectEhhhh:000000d4 .Loc.1074
     /tmp/cc7wpQ70.s:4432   .text._ZN7Ssd13068drawRectEhhhh:000000d4 .Loc.1075
     /tmp/cc7wpQ70.s:4435   .text._ZN7Ssd13068drawRectEhhhh:000000d8 .Loc.1076
     /tmp/cc7wpQ70.s:4442   .text._ZN7Ssd13068drawRectEhhhh:000000e4 .Loc.1077
     /tmp/cc7wpQ70.s:4446   .text._ZN7Ssd13068drawRectEhhhh:000000ea .Loc.1078
     /tmp/cc7wpQ70.s:4450   .text._ZN7Ssd13068drawRectEhhhh:000000ec .Loc.1079
     /tmp/cc7wpQ70.s:4454   .text._ZN7Ssd13068drawRectEhhhh:000000f2 .Loc.1080
     /tmp/cc7wpQ70.s:4459   .text._ZN7Ssd13068drawRectEhhhh:000000f6 .Loc.1081
     /tmp/cc7wpQ70.s:4460   .text._ZN7Ssd13068drawRectEhhhh:000000f6 .Loc.1082
     /tmp/cc7wpQ70.s:4465   .text._ZN7Ssd13068drawRectEhhhh:000000fc .Loc.1083
     /tmp/cc7wpQ70.s:4466   .text._ZN7Ssd13068drawRectEhhhh:000000fc .Loc.1084
     /tmp/cc7wpQ70.s:4471   .text._ZN7Ssd13068drawRectEhhhh:00000102 .Loc.1085
GAS LISTING /tmp/cc7wpQ70.s 			page 163


     /tmp/cc7wpQ70.s:4472   .text._ZN7Ssd13068drawRectEhhhh:00000102 .Loc.1086
     /tmp/cc7wpQ70.s:4477   .text._ZN7Ssd13068drawRectEhhhh:00000108 .Loc.1087
     /tmp/cc7wpQ70.s:4480   .text._ZN7Ssd13068drawRectEhhhh:00000108 .Loc.1088
     /tmp/cc7wpQ70.s:4484   .text._ZN7Ssd13068drawRectEhhhh:0000010e .Loc.1089
     /tmp/cc7wpQ70.s:4485   .text._ZN7Ssd13068drawRectEhhhh:0000010e .Loc.1090
     /tmp/cc7wpQ70.s:4492   .text._ZN7Ssd13068drawRectEhhhh:0000011a .Loc.1091
     /tmp/cc7wpQ70.s:4493   .text._ZN7Ssd13068drawRectEhhhh:0000011a .Loc.1092
     /tmp/cc7wpQ70.s:4500   .text._ZN7Ssd13068drawRectEhhhh:00000126 .Loc.1093
     /tmp/cc7wpQ70.s:4505   .text._ZN7Ssd13068drawRectEhhhh:0000012c .Loc.1094
     /tmp/cc7wpQ70.s:4509   .text._ZN7Ssd13068drawRectEhhhh:0000012e .Loc.1095
     /tmp/cc7wpQ70.s:4511   .text._ZN7Ssd13068drawRectEhhhh:0000012e .Loc.1096
     /tmp/cc7wpQ70.s:4513   .text._ZN7Ssd13068drawRectEhhhh:0000012e .Loc.1097
     /tmp/cc7wpQ70.s:4516   .text._ZN7Ssd13068drawRectEhhhh:00000130 .Loc.1098
     /tmp/cc7wpQ70.s:4520   .text._ZN7Ssd13068drawRectEhhhh:00000132 .Loc.1099
     /tmp/cc7wpQ70.s:4524   .text._ZN7Ssd13068drawRectEhhhh:00000138 .Loc.1100
     /tmp/cc7wpQ70.s:4525   .text._ZN7Ssd13068drawRectEhhhh:00000138 .Loc.1101
     /tmp/cc7wpQ70.s:4532   .text._ZN7Ssd13068drawRectEhhhh:00000144 .Loc.1102
     /tmp/cc7wpQ70.s:4533   .text._ZN7Ssd13068drawRectEhhhh:00000144 .Loc.1103
     /tmp/cc7wpQ70.s:4540   .text._ZN7Ssd13068drawRectEhhhh:00000150 .Loc.1104
     /tmp/cc7wpQ70.s:4544   .text._ZN7Ssd13068drawRectEhhhh:00000154 .Loc.1105
     /tmp/cc7wpQ70.s:4548   .text._ZN7Ssd13068drawRectEhhhh:00000156 .Loc.1106
     /tmp/cc7wpQ70.s:4550   .text._ZN7Ssd13068drawRectEhhhh:00000156 .Loc.1107
     /tmp/cc7wpQ70.s:4551   .text._ZN7Ssd13068drawRectEhhhh:00000156 .Loc.1108
     /tmp/cc7wpQ70.s:4555   .text._ZN7Ssd13068drawRectEhhhh:0000015c .Loc.1109
     /tmp/cc7wpQ70.s:4556   .text._ZN7Ssd13068drawRectEhhhh:0000015c .Loc.1110
     /tmp/cc7wpQ70.s:4557   .text._ZN7Ssd13068drawRectEhhhh:0000015c .Loc.1111
     /tmp/cc7wpQ70.s:4562   .text._ZN7Ssd13068drawRectEhhhh:00000160 .Loc.1112
     /tmp/cc7wpQ70.s:4567   .text._ZN7Ssd13068drawRectEhhhh:00000160 .Loc.1113
     /tmp/cc7wpQ70.s:4574   .text._ZN7Ssd13068drawRectEhhhh:00000164 .Loc.1114
     /tmp/cc7wpQ70.s:4578   .text._ZN7Ssd13068drawRectEhhhh:00000166 .Loc.1115
     /tmp/cc7wpQ70.s:4579   .text._ZN7Ssd13068drawRectEhhhh:00000166 .Loc.1116
     /tmp/cc7wpQ70.s:4583   .text._ZN7Ssd13068drawRectEhhhh:0000016a .Loc.1117
     /tmp/cc7wpQ70.s:4589   .text._ZN7Ssd13068drawRectEhhhh:00000174 .Loc.1118
     /tmp/cc7wpQ70.s:4594   .text._ZN7Ssd13068drawRectEhhhh:00000178 .Loc.1119
     /tmp/cc7wpQ70.s:4596   .text._ZN7Ssd13068drawRectEhhhh:00000178 .Loc.1120
     /tmp/cc7wpQ70.s:4599   .text._ZN7Ssd13068drawRectEhhhh:0000017a .Loc.1121
     /tmp/cc7wpQ70.s:4603   .text._ZN7Ssd13068drawRectEhhhh:0000017c .Loc.1122
     /tmp/cc7wpQ70.s:4607   .text._ZN7Ssd13068drawRectEhhhh:00000180 .Loc.1123
     /tmp/cc7wpQ70.s:4609   .text._ZN7Ssd13068drawRectEhhhh:00000180 .Loc.1124
     /tmp/cc7wpQ70.s:4612   .text._ZN7Ssd13068drawRectEhhhh:00000184 .Loc.1125
     /tmp/cc7wpQ70.s:4615   .text._ZN7Ssd13068drawRectEhhhh:00000188 .Loc.1126
     /tmp/cc7wpQ70.s:4618   .text._ZN7Ssd13068drawRectEhhhh:0000018c .Loc.1127
     /tmp/cc7wpQ70.s:4621   .text._ZN7Ssd13068drawRectEhhhh:00000190 .Loc.1128
     /tmp/cc7wpQ70.s:4625   .text._ZN7Ssd13068drawRectEhhhh:00000192 .Loc.1129
     /tmp/cc7wpQ70.s:4628   .text._ZN7Ssd13068drawRectEhhhh:00000196 .Loc.1130
     /tmp/cc7wpQ70.s:4629   .text._ZN7Ssd13068drawRectEhhhh:00000196 .Loc.1131
     /tmp/cc7wpQ70.s:4632   .text._ZN7Ssd13068drawRectEhhhh:00000198 .Loc.1132
     /tmp/cc7wpQ70.s:4636   .text._ZN7Ssd13068drawRectEhhhh:0000019a .Loc.1133
     /tmp/cc7wpQ70.s:4641   .text._ZN7Ssd13068drawRectEhhhh:0000019e .Loc.1134
     /tmp/cc7wpQ70.s:4642   .text._ZN7Ssd13068drawRectEhhhh:0000019e .Loc.1135
     /tmp/cc7wpQ70.s:4649   .text._ZN7Ssd13068drawRectEhhhh:000001aa .Loc.1136
     /tmp/cc7wpQ70.s:4652   .text._ZN7Ssd13068drawRectEhhhh:000001ae .Loc.1137
     /tmp/cc7wpQ70.s:4657   .text._ZN7Ssd13068drawRectEhhhh:000001b2 .Loc.1138
     /tmp/cc7wpQ70.s:4660   .text._ZN7Ssd13068drawRectEhhhh:000001b2 .Loc.1139
     /tmp/cc7wpQ70.s:4665   .text._ZN7Ssd13068drawRectEhhhh:000001b6 .Loc.1140
     /tmp/cc7wpQ70.s:4667   .text._ZN7Ssd13068drawRectEhhhh:000001b6 .Loc.1141
     /tmp/cc7wpQ70.s:4671   .text._ZN7Ssd13068drawRectEhhhh:000001b8 .Loc.1142
GAS LISTING /tmp/cc7wpQ70.s 			page 164


     /tmp/cc7wpQ70.s:4675   .text._ZN7Ssd13068drawRectEhhhh:000001bc .Loc.1143
     /tmp/cc7wpQ70.s:4677   .text._ZN7Ssd13068drawRectEhhhh:000001bc .Loc.1144
     /tmp/cc7wpQ70.s:4678   .text._ZN7Ssd13068drawRectEhhhh:000001bc .Loc.1145
     /tmp/cc7wpQ70.s:4682   .text._ZN7Ssd13068drawRectEhhhh:000001c0 .Loc.1146
     /tmp/cc7wpQ70.s:4683   .text._ZN7Ssd13068drawRectEhhhh:000001c0 .Loc.1147
     /tmp/cc7wpQ70.s:4684   .text._ZN7Ssd13068drawRectEhhhh:000001c0 .Loc.1148
     /tmp/cc7wpQ70.s:4690   .text._ZN7Ssd13068drawRectEhhhh:000001ca .Loc.1149
     /tmp/cc7wpQ70.s:4694   .text._ZN7Ssd13068drawRectEhhhh:000001ce .Loc.1150
     /tmp/cc7wpQ70.s:4697   .text._ZN7Ssd13068drawRectEhhhh:000001d0 .Loc.1151
     /tmp/cc7wpQ70.s:4702   .text._ZN7Ssd13068drawRectEhhhh:000001d4 .Loc.1152
     /tmp/cc7wpQ70.s:4703   .text._ZN7Ssd13068drawRectEhhhh:000001d4 .Loc.1153
     /tmp/cc7wpQ70.s:4710   .text._ZN7Ssd13068drawRectEhhhh:000001de .Loc.1154
     /tmp/cc7wpQ70.s:4713   .text._ZN7Ssd13068drawRectEhhhh:000001e2 .Loc.1155
     /tmp/cc7wpQ70.s:4716   .text._ZN7Ssd13068drawRectEhhhh:000001e6 .Loc.1156
     /tmp/cc7wpQ70.s:4721   .text._ZN7Ssd13068drawRectEhhhh:000001ea .Loc.1157
     /tmp/cc7wpQ70.s:4724   .text._ZN7Ssd13068drawRectEhhhh:000001ea .Loc.1158
     /tmp/cc7wpQ70.s:4725   .text._ZN7Ssd13068drawRectEhhhh:000001ea .Loc.1159
     /tmp/cc7wpQ70.s:4729   .text._ZN7Ssd13068drawRectEhhhh:000001f0 .Loc.1160
     /tmp/cc7wpQ70.s:4730   .text._ZN7Ssd13068drawRectEhhhh:000001f0 .Loc.1161
     /tmp/cc7wpQ70.s:4731   .text._ZN7Ssd13068drawRectEhhhh:000001f0 .Loc.1162
     /tmp/cc7wpQ70.s:4739   .text._ZN7Ssd13068drawRectEhhhh:000001f2 .Loc.1163
     /tmp/cc7wpQ70.s:4746   .text._ZN7Ssd13068drawRectEhhhh:000001f6 L0
     /tmp/cc7wpQ70.s:4752   .text._ZN7Ssd13069drawHLineEhhh:00000000 _ZN7Ssd13069drawHLineEhhh
     /tmp/cc7wpQ70.s:4755   .text._ZN7Ssd13069drawHLineEhhh:00000000 .Loc.1164
     /tmp/cc7wpQ70.s:4756   .text._ZN7Ssd13069drawHLineEhhh:00000000 L0
     /tmp/cc7wpQ70.s:4757   .text._ZN7Ssd13069drawHLineEhhh:00000000 .Loc.1165
     /tmp/cc7wpQ70.s:4819   .text._ZN7Ssd13069drawHLineEhhh:0000002e .Loc.1166
     /tmp/cc7wpQ70.s:4820   .text._ZN7Ssd13069drawHLineEhhh:0000002e .Loc.1167
     /tmp/cc7wpQ70.s:4821   .text._ZN7Ssd13069drawHLineEhhh:0000002e .Loc.1168
     /tmp/cc7wpQ70.s:4824   .text._ZN7Ssd13069drawHLineEhhh:00000032 .Loc.1169
     /tmp/cc7wpQ70.s:4826   .text._ZN7Ssd13069drawHLineEhhh:00000034 .Loc.1170
     /tmp/cc7wpQ70.s:4829   .text._ZN7Ssd13069drawHLineEhhh:00000038 .Loc.1171
     /tmp/cc7wpQ70.s:4832   .text._ZN7Ssd13069drawHLineEhhh:0000003c .Loc.1172
     /tmp/cc7wpQ70.s:4835   .text._ZN7Ssd13069drawHLineEhhh:00000040 .Loc.1173
     /tmp/cc7wpQ70.s:4839   .text._ZN7Ssd13069drawHLineEhhh:00000046 .Loc.1174
     /tmp/cc7wpQ70.s:4842   .text._ZN7Ssd13069drawHLineEhhh:0000004a .Loc.1175
     /tmp/cc7wpQ70.s:4845   .text._ZN7Ssd13069drawHLineEhhh:0000004e .Loc.1176
     /tmp/cc7wpQ70.s:4847   .text._ZN7Ssd13069drawHLineEhhh:0000004e .Loc.1177
     /tmp/cc7wpQ70.s:4852   .text._ZN7Ssd13069drawHLineEhhh:00000056 .Loc.1178
     /tmp/cc7wpQ70.s:4856   .text._ZN7Ssd13069drawHLineEhhh:0000005a .Loc.1179
     /tmp/cc7wpQ70.s:4857   .text._ZN7Ssd13069drawHLineEhhh:0000005a .Loc.1180
     /tmp/cc7wpQ70.s:4858   .text._ZN7Ssd13069drawHLineEhhh:0000005a .Loc.1181
     /tmp/cc7wpQ70.s:4869   .text._ZN7Ssd13069drawHLineEhhh:00000068 .Loc.1182
     /tmp/cc7wpQ70.s:4870   .text._ZN7Ssd13069drawHLineEhhh:00000068 .Loc.1183
     /tmp/cc7wpQ70.s:4871   .text._ZN7Ssd13069drawHLineEhhh:00000068 .Loc.1184
     /tmp/cc7wpQ70.s:4876   .text._ZN7Ssd13069drawHLineEhhh:00000070 .Loc.1185
     /tmp/cc7wpQ70.s:4880   .text._ZN7Ssd13069drawHLineEhhh:00000076 .Loc.1186
     /tmp/cc7wpQ70.s:4881   .text._ZN7Ssd13069drawHLineEhhh:00000076 .Loc.1187
     /tmp/cc7wpQ70.s:4884   .text._ZN7Ssd13069drawHLineEhhh:00000078 .Loc.1188
     /tmp/cc7wpQ70.s:4888   .text._ZN7Ssd13069drawHLineEhhh:0000007a .Loc.1189
     /tmp/cc7wpQ70.s:4890   .text._ZN7Ssd13069drawHLineEhhh:0000007a .Loc.1190
     /tmp/cc7wpQ70.s:4892   .text._ZN7Ssd13069drawHLineEhhh:0000007c .Loc.1191
     /tmp/cc7wpQ70.s:4896   .text._ZN7Ssd13069drawHLineEhhh:0000007e .Loc.1192
     /tmp/cc7wpQ70.s:4898   .text._ZN7Ssd13069drawHLineEhhh:0000007e .Loc.1193
     /tmp/cc7wpQ70.s:4899   .text._ZN7Ssd13069drawHLineEhhh:0000007e .Loc.1194
     /tmp/cc7wpQ70.s:4905   .text._ZN7Ssd13069drawHLineEhhh:00000088 .Loc.1195
     /tmp/cc7wpQ70.s:4906   .text._ZN7Ssd13069drawHLineEhhh:00000088 .Loc.1196
GAS LISTING /tmp/cc7wpQ70.s 			page 165


     /tmp/cc7wpQ70.s:4907   .text._ZN7Ssd13069drawHLineEhhh:00000088 .Loc.1197
     /tmp/cc7wpQ70.s:4911   .text._ZN7Ssd13069drawHLineEhhh:0000008a .Loc.1198
     /tmp/cc7wpQ70.s:4927   .text._ZN7Ssd13069drawHLineEhhh:000000a4 .Loc.1199
     /tmp/cc7wpQ70.s:4931   .text._ZN7Ssd13069drawHLineEhhh:000000a8 .Loc.1200
     /tmp/cc7wpQ70.s:4939   .text._ZN7Ssd13069drawHLineEhhh:000000ae .Loc.1201
     /tmp/cc7wpQ70.s:4941   .text._ZN7Ssd13069drawHLineEhhh:000000ae .Loc.1202
     /tmp/cc7wpQ70.s:4945   .text._ZN7Ssd13069drawHLineEhhh:000000b2 .Loc.1203
     /tmp/cc7wpQ70.s:4948   .text._ZN7Ssd13069drawHLineEhhh:000000b4 .Loc.1204
     /tmp/cc7wpQ70.s:4949   .text._ZN7Ssd13069drawHLineEhhh:000000b4 .Loc.1205
     /tmp/cc7wpQ70.s:4956   .text._ZN7Ssd13069drawHLineEhhh:000000c0 .Loc.1206
     /tmp/cc7wpQ70.s:4962   .text._ZN7Ssd13069drawHLineEhhh:000000c6 .Loc.1207
     /tmp/cc7wpQ70.s:4963   .text._ZN7Ssd13069drawHLineEhhh:000000c6 .Loc.1208
     /tmp/cc7wpQ70.s:4968   .text._ZN7Ssd13069drawHLineEhhh:000000ce .Loc.1209
     /tmp/cc7wpQ70.s:4973   .text._ZN7Ssd13069drawHLineEhhh:000000d4 .Loc.1210
     /tmp/cc7wpQ70.s:4974   .text._ZN7Ssd13069drawHLineEhhh:000000d4 .Loc.1211
     /tmp/cc7wpQ70.s:4978   .text._ZN7Ssd13069drawHLineEhhh:000000da .Loc.1212
     /tmp/cc7wpQ70.s:4979   .text._ZN7Ssd13069drawHLineEhhh:000000da .Loc.1213
     /tmp/cc7wpQ70.s:4980   .text._ZN7Ssd13069drawHLineEhhh:000000da .Loc.1214
     /tmp/cc7wpQ70.s:4984   .text._ZN7Ssd13069drawHLineEhhh:000000dc .Loc.1215
     /tmp/cc7wpQ70.s:4988   .text._ZN7Ssd13069drawHLineEhhh:000000dc .Loc.1216
     /tmp/cc7wpQ70.s:4989   .text._ZN7Ssd13069drawHLineEhhh:000000dc .Loc.1217
     /tmp/cc7wpQ70.s:4995   .text._ZN7Ssd13069drawHLineEhhh:000000e6 .Loc.1218
     /tmp/cc7wpQ70.s:4999   .text._ZN7Ssd13069drawHLineEhhh:000000e8 .Loc.1219
     /tmp/cc7wpQ70.s:5003   .text._ZN7Ssd13069drawHLineEhhh:000000ec .Loc.1220
     /tmp/cc7wpQ70.s:5004   .text._ZN7Ssd13069drawHLineEhhh:000000ec .Loc.1221
     /tmp/cc7wpQ70.s:5012   .text._ZN7Ssd13069drawHLineEhhh:000000f8 .Loc.1222
     /tmp/cc7wpQ70.s:5016   .text._ZN7Ssd13069drawHLineEhhh:000000fe .Loc.1223
     /tmp/cc7wpQ70.s:5023   .text._ZN7Ssd13069drawHLineEhhh:00000104 .Loc.1224
     /tmp/cc7wpQ70.s:5027   .text._ZN7Ssd13069drawHLineEhhh:00000106 .Loc.1225
     /tmp/cc7wpQ70.s:5028   .text._ZN7Ssd13069drawHLineEhhh:00000106 .Loc.1226
     /tmp/cc7wpQ70.s:5036   .text._ZN7Ssd13069drawHLineEhhh:00000114 .Loc.1227
     /tmp/cc7wpQ70.s:5039   .text._ZN7Ssd13069drawHLineEhhh:00000118 .Loc.1228
     /tmp/cc7wpQ70.s:5040   .text._ZN7Ssd13069drawHLineEhhh:00000118 .Loc.1229
     /tmp/cc7wpQ70.s:5044   .text._ZN7Ssd13069drawHLineEhhh:0000011a .Loc.1230
     /tmp/cc7wpQ70.s:5046   .text._ZN7Ssd13069drawHLineEhhh:0000011a .Loc.1231
     /tmp/cc7wpQ70.s:5050   .text._ZN7Ssd13069drawHLineEhhh:0000011e .Loc.1232
     /tmp/cc7wpQ70.s:5051   .text._ZN7Ssd13069drawHLineEhhh:0000011e .Loc.1233
     /tmp/cc7wpQ70.s:5054   .text._ZN7Ssd13069drawHLineEhhh:00000122 .Loc.1234
     /tmp/cc7wpQ70.s:5061   .text._ZN7Ssd13069drawHLineEhhh:0000012a .Loc.1235
     /tmp/cc7wpQ70.s:5062   .text._ZN7Ssd13069drawHLineEhhh:0000012a .Loc.1236
     /tmp/cc7wpQ70.s:5066   .text._ZN7Ssd13069drawHLineEhhh:00000130 .Loc.1237
     /tmp/cc7wpQ70.s:5067   .text._ZN7Ssd13069drawHLineEhhh:00000130 .Loc.1238
     /tmp/cc7wpQ70.s:5068   .text._ZN7Ssd13069drawHLineEhhh:00000130 .Loc.1239
     /tmp/cc7wpQ70.s:5073   .text._ZN7Ssd13069drawHLineEhhh:00000132 .Loc.1240
     /tmp/cc7wpQ70.s:5076   .text._ZN7Ssd13069drawHLineEhhh:00000134 .Loc.1241
     /tmp/cc7wpQ70.s:5079   .text._ZN7Ssd13069drawHLineEhhh:00000136 L0
     /tmp/cc7wpQ70.s:5085   .text._ZN7Ssd13069drawVLineEhhh:00000000 _ZN7Ssd13069drawVLineEhhh
     /tmp/cc7wpQ70.s:5088   .text._ZN7Ssd13069drawVLineEhhh:00000000 .Loc.1242
     /tmp/cc7wpQ70.s:5089   .text._ZN7Ssd13069drawVLineEhhh:00000000 L0
     /tmp/cc7wpQ70.s:5090   .text._ZN7Ssd13069drawVLineEhhh:00000000 .Loc.1243
     /tmp/cc7wpQ70.s:5151   .text._ZN7Ssd13069drawVLineEhhh:00000026 .Loc.1244
     /tmp/cc7wpQ70.s:5152   .text._ZN7Ssd13069drawVLineEhhh:00000026 .Loc.1245
     /tmp/cc7wpQ70.s:5153   .text._ZN7Ssd13069drawVLineEhhh:00000026 .Loc.1246
     /tmp/cc7wpQ70.s:5156   .text._ZN7Ssd13069drawVLineEhhh:0000002a .Loc.1247
     /tmp/cc7wpQ70.s:5158   .text._ZN7Ssd13069drawVLineEhhh:0000002c .Loc.1248
     /tmp/cc7wpQ70.s:5161   .text._ZN7Ssd13069drawVLineEhhh:00000030 .Loc.1249
     /tmp/cc7wpQ70.s:5164   .text._ZN7Ssd13069drawVLineEhhh:00000034 .Loc.1250
GAS LISTING /tmp/cc7wpQ70.s 			page 166


     /tmp/cc7wpQ70.s:5167   .text._ZN7Ssd13069drawVLineEhhh:00000038 .Loc.1251
     /tmp/cc7wpQ70.s:5171   .text._ZN7Ssd13069drawVLineEhhh:0000003e .Loc.1252
     /tmp/cc7wpQ70.s:5174   .text._ZN7Ssd13069drawVLineEhhh:00000042 .Loc.1253
     /tmp/cc7wpQ70.s:5177   .text._ZN7Ssd13069drawVLineEhhh:00000046 .Loc.1254
     /tmp/cc7wpQ70.s:5179   .text._ZN7Ssd13069drawVLineEhhh:00000046 .Loc.1255
     /tmp/cc7wpQ70.s:5185   .text._ZN7Ssd13069drawVLineEhhh:00000050 .Loc.1256
     /tmp/cc7wpQ70.s:5189   .text._ZN7Ssd13069drawVLineEhhh:00000054 .Loc.1257
     /tmp/cc7wpQ70.s:5190   .text._ZN7Ssd13069drawVLineEhhh:00000054 .Loc.1258
     /tmp/cc7wpQ70.s:5193   .text._ZN7Ssd13069drawVLineEhhh:00000058 .Loc.1259
     /tmp/cc7wpQ70.s:5196   .text._ZN7Ssd13069drawVLineEhhh:0000005a .Loc.1260
     /tmp/cc7wpQ70.s:5199   .text._ZN7Ssd13069drawVLineEhhh:0000005e .Loc.1261
     /tmp/cc7wpQ70.s:5200   .text._ZN7Ssd13069drawVLineEhhh:0000005e .Loc.1262
     /tmp/cc7wpQ70.s:5205   .text._ZN7Ssd13069drawVLineEhhh:00000062 .Loc.1263
     /tmp/cc7wpQ70.s:5207   .text._ZN7Ssd13069drawVLineEhhh:00000062 .Loc.1264
     /tmp/cc7wpQ70.s:5213   .text._ZN7Ssd13069drawVLineEhhh:0000006a .Loc.1265
     /tmp/cc7wpQ70.s:5217   .text._ZN7Ssd13069drawVLineEhhh:0000006c .Loc.1266
     /tmp/cc7wpQ70.s:5219   .text._ZN7Ssd13069drawVLineEhhh:0000006c .Loc.1267
     /tmp/cc7wpQ70.s:5220   .text._ZN7Ssd13069drawVLineEhhh:0000006c .Loc.1268
     /tmp/cc7wpQ70.s:5226   .text._ZN7Ssd13069drawVLineEhhh:00000076 .Loc.1269
     /tmp/cc7wpQ70.s:5227   .text._ZN7Ssd13069drawVLineEhhh:00000076 .Loc.1270
     /tmp/cc7wpQ70.s:5228   .text._ZN7Ssd13069drawVLineEhhh:00000076 .Loc.1271
     /tmp/cc7wpQ70.s:5231   .text._ZN7Ssd13069drawVLineEhhh:00000078 .Loc.1272
     /tmp/cc7wpQ70.s:5240   .text._ZN7Ssd13069drawVLineEhhh:00000084 .Loc.1273
     /tmp/cc7wpQ70.s:5245   .text._ZN7Ssd13069drawVLineEhhh:0000008a .Loc.1274
     /tmp/cc7wpQ70.s:5248   .text._ZN7Ssd13069drawVLineEhhh:0000008c .Loc.1275
     /tmp/cc7wpQ70.s:5251   .text._ZN7Ssd13069drawVLineEhhh:0000008e .Loc.1276
     /tmp/cc7wpQ70.s:5259   .text._ZN7Ssd13069drawVLineEhhh:00000094 .Loc.1277
     /tmp/cc7wpQ70.s:5261   .text._ZN7Ssd13069drawVLineEhhh:00000094 .Loc.1278
     /tmp/cc7wpQ70.s:5265   .text._ZN7Ssd13069drawVLineEhhh:00000098 .Loc.1279
     /tmp/cc7wpQ70.s:5268   .text._ZN7Ssd13069drawVLineEhhh:0000009a .Loc.1280
     /tmp/cc7wpQ70.s:5269   .text._ZN7Ssd13069drawVLineEhhh:0000009a .Loc.1281
     /tmp/cc7wpQ70.s:5276   .text._ZN7Ssd13069drawVLineEhhh:000000a6 .Loc.1282
     /tmp/cc7wpQ70.s:5282   .text._ZN7Ssd13069drawVLineEhhh:000000ac .Loc.1283
     /tmp/cc7wpQ70.s:5283   .text._ZN7Ssd13069drawVLineEhhh:000000ac .Loc.1284
     /tmp/cc7wpQ70.s:5288   .text._ZN7Ssd13069drawVLineEhhh:000000b4 .Loc.1285
     /tmp/cc7wpQ70.s:5293   .text._ZN7Ssd13069drawVLineEhhh:000000ba .Loc.1286
     /tmp/cc7wpQ70.s:5294   .text._ZN7Ssd13069drawVLineEhhh:000000ba .Loc.1287
     /tmp/cc7wpQ70.s:5298   .text._ZN7Ssd13069drawVLineEhhh:000000c0 .Loc.1288
     /tmp/cc7wpQ70.s:5299   .text._ZN7Ssd13069drawVLineEhhh:000000c0 .Loc.1289
     /tmp/cc7wpQ70.s:5302   .text._ZN7Ssd13069drawVLineEhhh:000000c0 .Loc.1290
     /tmp/cc7wpQ70.s:5307   .text._ZN7Ssd13069drawVLineEhhh:000000c4 .Loc.1291
     /tmp/cc7wpQ70.s:5312   .text._ZN7Ssd13069drawVLineEhhh:000000c4 .Loc.1292
     /tmp/cc7wpQ70.s:5317   .text._ZN7Ssd13069drawVLineEhhh:000000c8 .Loc.1293
     /tmp/cc7wpQ70.s:5323   .text._ZN7Ssd13069drawVLineEhhh:000000cc .Loc.1294
     /tmp/cc7wpQ70.s:5324   .text._ZN7Ssd13069drawVLineEhhh:000000cc .Loc.1295
     /tmp/cc7wpQ70.s:5335   .text._ZN7Ssd13069drawVLineEhhh:000000dc .Loc.1296
     /tmp/cc7wpQ70.s:5339   .text._ZN7Ssd13069drawVLineEhhh:000000e2 .Loc.1297
     /tmp/cc7wpQ70.s:5343   .text._ZN7Ssd13069drawVLineEhhh:000000e4 .Loc.1298
     /tmp/cc7wpQ70.s:5346   .text._ZN7Ssd13069drawVLineEhhh:000000e8 .Loc.1299
     /tmp/cc7wpQ70.s:5348   .text._ZN7Ssd13069drawVLineEhhh:000000e8 .Loc.1300
     /tmp/cc7wpQ70.s:5349   .text._ZN7Ssd13069drawVLineEhhh:000000e8 .Loc.1301
     /tmp/cc7wpQ70.s:5354   .text._ZN7Ssd13069drawVLineEhhh:000000ee .Loc.1302
     /tmp/cc7wpQ70.s:5357   .text._ZN7Ssd13069drawVLineEhhh:000000f2 .Loc.1303
     /tmp/cc7wpQ70.s:5360   .text._ZN7Ssd13069drawVLineEhhh:000000f6 .Loc.1304
     /tmp/cc7wpQ70.s:5361   .text._ZN7Ssd13069drawVLineEhhh:000000f6 .Loc.1305
     /tmp/cc7wpQ70.s:5369   .text._ZN7Ssd13069drawVLineEhhh:00000104 .Loc.1306
     /tmp/cc7wpQ70.s:5373   .text._ZN7Ssd13069drawVLineEhhh:00000108 .Loc.1307
GAS LISTING /tmp/cc7wpQ70.s 			page 167


     /tmp/cc7wpQ70.s:5377   .text._ZN7Ssd13069drawVLineEhhh:0000010a .Loc.1308
     /tmp/cc7wpQ70.s:5378   .text._ZN7Ssd13069drawVLineEhhh:0000010a .Loc.1309
     /tmp/cc7wpQ70.s:5383   .text._ZN7Ssd13069drawVLineEhhh:00000112 .Loc.1310
     /tmp/cc7wpQ70.s:5387   .text._ZN7Ssd13069drawVLineEhhh:00000116 .Loc.1311
     /tmp/cc7wpQ70.s:5388   .text._ZN7Ssd13069drawVLineEhhh:00000116 .Loc.1312
     /tmp/cc7wpQ70.s:5394   .text._ZN7Ssd13069drawVLineEhhh:0000011e .Loc.1313
     /tmp/cc7wpQ70.s:5395   .text._ZN7Ssd13069drawVLineEhhh:0000011e .Loc.1314
     /tmp/cc7wpQ70.s:5398   .text._ZN7Ssd13069drawVLineEhhh:00000122 .Loc.1315
     /tmp/cc7wpQ70.s:5403   .text._ZN7Ssd13069drawVLineEhhh:00000126 .Loc.1316
     /tmp/cc7wpQ70.s:5404   .text._ZN7Ssd13069drawVLineEhhh:00000126 .Loc.1317
     /tmp/cc7wpQ70.s:5407   .text._ZN7Ssd13069drawVLineEhhh:0000012a .Loc.1318
     /tmp/cc7wpQ70.s:5410   .text._ZN7Ssd13069drawVLineEhhh:0000012e .Loc.1319
     /tmp/cc7wpQ70.s:5415   .text._ZN7Ssd13069drawVLineEhhh:00000132 .Loc.1320
     /tmp/cc7wpQ70.s:5416   .text._ZN7Ssd13069drawVLineEhhh:00000132 .Loc.1321
     /tmp/cc7wpQ70.s:5418   .text._ZN7Ssd13069drawVLineEhhh:00000134 .Loc.1322
     /tmp/cc7wpQ70.s:5421   .text._ZN7Ssd13069drawVLineEhhh:00000134 .Loc.1323
     /tmp/cc7wpQ70.s:5425   .text._ZN7Ssd13069drawVLineEhhh:00000136 .Loc.1324
     /tmp/cc7wpQ70.s:5429   .text._ZN7Ssd13069drawVLineEhhh:00000136 .Loc.1325
     /tmp/cc7wpQ70.s:5430   .text._ZN7Ssd13069drawVLineEhhh:00000136 .Loc.1326
     /tmp/cc7wpQ70.s:5434   .text._ZN7Ssd13069drawVLineEhhh:0000013c .Loc.1327
     /tmp/cc7wpQ70.s:5435   .text._ZN7Ssd13069drawVLineEhhh:0000013c .Loc.1328
     /tmp/cc7wpQ70.s:5436   .text._ZN7Ssd13069drawVLineEhhh:0000013c .Loc.1329
     /tmp/cc7wpQ70.s:5438   .text._ZN7Ssd13069drawVLineEhhh:0000013e L0
     /tmp/cc7wpQ70.s:113    .text._ZN7Ssd1306C2Ev:00000056 L0
     /tmp/cc7wpQ70.s:137    .text._ZN7Ssd1306D2Ev:00000002 L0
     /tmp/cc7wpQ70.s:161    .text._ZN7Ssd130612getLastErrorEv:00000008 L0
     /tmp/cc7wpQ70.s:222    .text._ZN7Ssd130611setTextSizeEh:00000028 L0
     /tmp/cc7wpQ70.s:269    .text._ZN7Ssd13065stdioEv:00000026 L0
     /tmp/cc7wpQ70.s:435    .text._ZN7Ssd130613_writeCommandEh:000000b2 L0
     /tmp/cc7wpQ70.s:551    .text._ZN7Ssd130617_writeCommandListEPKhh:00000046 L0
     /tmp/cc7wpQ70.s:771    .text._ZN7Ssd130610_writeDataEPKhh:000000d4 L0
     /tmp/cc7wpQ70.s:856    .text._ZN7Ssd130611_setAddressEhh:00000046 L0
     /tmp/cc7wpQ70.s:988    .text._ZN7Ssd13069_setPixelEhhb:00000080 L0
     /tmp/cc7wpQ70.s:1664   .text._ZN7Ssd130610_writeCharEc:0000026c L0
     /tmp/cc7wpQ70.s:1709   .text._ZN7Ssd130614_isInitializedEv:0000001e L0
     /tmp/cc7wpQ70.s:2008   .text._ZN7Ssd130611clearScreenEv:00000102 L0
     /tmp/cc7wpQ70.s:2162   .text._ZN7Ssd13067displayEv:0000008c L0
     /tmp/cc7wpQ70.s:2517   .text._ZN7Ssd13064initEP3BusNS_4SizeEhPh:0000017e L0
     /tmp/cc7wpQ70.s:2591   .text._ZN7Ssd130615setDisplayStateE10Activation:00000032 L0
     /tmp/cc7wpQ70.s:2667   .text._ZN7Ssd130611setContrastEh:00000038 L0
     /tmp/cc7wpQ70.s:2773   .text._ZN7Ssd130613setUpsideDownEb:00000052 L0
     /tmp/cc7wpQ70.s:2867   .text._ZN7Ssd13069setCursorEhh:00000046 L0
     /tmp/cc7wpQ70.s:2981   .text._ZN7Ssd130614setCursorPixelEhh:0000005a L0
     /tmp/cc7wpQ70.s:3110   .text._ZN7Ssd13065printEc:0000007a L0
     /tmp/cc7wpQ70.s:3142   .text._ZL15ssd1306WriteStdcP6__file:00000014 L0
     /tmp/cc7wpQ70.s:3271   .text._ZN7Ssd13065printEPKc:0000006a L0
     /tmp/cc7wpQ70.s:3408   .text._ZN7Ssd13069drawPixelEhhb:00000076 L0
     /tmp/cc7wpQ70.s:3759   .text._ZN7Ssd13068drawLineEhhhhb:00000140 L0
     /tmp/cc7wpQ70.s:4202   .text._ZN7Ssd13068fillRectEhhhhb:0000018a L0
     /tmp/cc7wpQ70.s:4749   .text._ZN7Ssd13068drawRectEhhhh:000001f6 L0
     /tmp/cc7wpQ70.s:5082   .text._ZN7Ssd13069drawHLineEhhh:00000136 L0
     /tmp/cc7wpQ70.s:5442   .text._ZN7Ssd13069drawVLineEhhh:0000013e L0
                     .debug_frame:00000000 L0
     /tmp/cc7wpQ70.s:207    .text._ZN7Ssd130611setTextSizeEh:0000001c .L7
     /tmp/cc7wpQ70.s:386    .text._ZN7Ssd130613_writeCommandEh:00000076 .L14
     /tmp/cc7wpQ70.s:409    .text._ZN7Ssd130613_writeCommandEh:00000094 .L15
     /tmp/cc7wpQ70.s:372    .text._ZN7Ssd130613_writeCommandEh:00000066 .L9
GAS LISTING /tmp/cc7wpQ70.s 			page 168


     /tmp/cc7wpQ70.s:487    .text._ZN7Ssd130617_writeCommandListEPKhh:00000018 .L17
     /tmp/cc7wpQ70.s:518    .text._ZN7Ssd130617_writeCommandListEPKhh:00000030 .L20
     /tmp/cc7wpQ70.s:483    .text._ZN7Ssd130617_writeCommandListEPKhh:00000016 .L21
     /tmp/cc7wpQ70.s:530    .text._ZN7Ssd130617_writeCommandListEPKhh:00000038 .L16
     /tmp/cc7wpQ70.s:637    .text._ZN7Ssd130610_writeDataEPKhh:00000040 .L31
     /tmp/cc7wpQ70.s:711    .text._ZN7Ssd130610_writeDataEPKhh:0000009c .L23
     /tmp/cc7wpQ70.s:732    .text._ZN7Ssd130610_writeDataEPKhh:000000ac .L32
     /tmp/cc7wpQ70.s:757    .text._ZN7Ssd130610_writeDataEPKhh:000000cc .L33
     /tmp/cc7wpQ70.s:680    .text._ZN7Ssd130610_writeDataEPKhh:00000072 .L25
     /tmp/cc7wpQ70.s:659    .text._ZN7Ssd130610_writeDataEPKhh:0000005c .L22
     /tmp/cc7wpQ70.s:821    .text._ZN7Ssd130611_setAddressEhh:0000001e .L38
     /tmp/cc7wpQ70.s:809    .text._ZN7Ssd130611_setAddressEhh:00000016 .L34
     /tmp/cc7wpQ70.s:961    .text._ZN7Ssd13069_setPixelEhhb:00000066 .L39
     /tmp/cc7wpQ70.s:918    .text._ZN7Ssd13069_setPixelEhhb:00000038 .L21
     /tmp/cc7wpQ70.s:915    .text._ZN7Ssd13069_setPixelEhhb:00000034 .L11
     /tmp/cc7wpQ70.s:968    .text._ZN7Ssd13069_setPixelEhhb:0000006c .L41
     /tmp/cc7wpQ70.s:953    .text._ZN7Ssd13069_setPixelEhhb:0000005e .L22
     /tmp/cc7wpQ70.s:950    .text._ZN7Ssd13069_setPixelEhhb:0000005a .L12
     /tmp/cc7wpQ70.s:940    .text._ZN7Ssd13069_setPixelEhhb:00000052 .L42
     /tmp/cc7wpQ70.s:1096   .text._ZN7Ssd130610_writeCharEc:00000042 .L44
     /tmp/cc7wpQ70.s:1143   .text._ZN7Ssd130610_writeCharEc:0000007c .L45
     /tmp/cc7wpQ70.s:1176   .text._ZN7Ssd130610_writeCharEc:000000aa .L46
     /tmp/cc7wpQ70.s:1366   .text._ZN7Ssd130610_writeCharEc:0000014c .L76
     /tmp/cc7wpQ70.s:1608   .text._ZN7Ssd130610_writeCharEc:00000232 .L57
     /tmp/cc7wpQ70.s:1355   .text._ZN7Ssd130610_writeCharEc:00000148 .L49
     /tmp/cc7wpQ70.s:1217   .text._ZN7Ssd130610_writeCharEc:000000c8 .L52
     /tmp/cc7wpQ70.s:1266   .text._ZN7Ssd130610_writeCharEc:000000fa .L77
     /tmp/cc7wpQ70.s:1250   .text._ZN7Ssd130610_writeCharEc:000000ec .L53
     /tmp/cc7wpQ70.s:1304   .text._ZN7Ssd130610_writeCharEc:0000011c .L78
     /tmp/cc7wpQ70.s:1289   .text._ZN7Ssd130610_writeCharEc:0000010e .L23
     /tmp/cc7wpQ70.s:1286   .text._ZN7Ssd130610_writeCharEc:0000010a .L13
     /tmp/cc7wpQ70.s:1258   .text._ZN7Ssd130610_writeCharEc:000000f2 .L51
     /tmp/cc7wpQ70.s:1374   .text._ZN7Ssd130610_writeCharEc:00000150 .L79
     /tmp/cc7wpQ70.s:1206   .text._ZN7Ssd130610_writeCharEc:000000c4 .L69
     /tmp/cc7wpQ70.s:1273   .text._ZN7Ssd130610_writeCharEc:000000fc .L50
     /tmp/cc7wpQ70.s:1313   .text._ZN7Ssd130610_writeCharEc:0000011e .L47
     /tmp/cc7wpQ70.s:1570   .text._ZN7Ssd130610_writeCharEc:00000216 .L59
     /tmp/cc7wpQ70.s:1499   .text._ZN7Ssd130610_writeCharEc:000001da .L80
     /tmp/cc7wpQ70.s:1475   .text._ZN7Ssd130610_writeCharEc:000001be .L24
     /tmp/cc7wpQ70.s:1472   .text._ZN7Ssd130610_writeCharEc:000001ba .L14
     /tmp/cc7wpQ70.s:1438   .text._ZN7Ssd130610_writeCharEc:00000194 .L61
     /tmp/cc7wpQ70.s:1490   .text._ZN7Ssd130610_writeCharEc:000001d2 .L25
     /tmp/cc7wpQ70.s:1487   .text._ZN7Ssd130610_writeCharEc:000001ce .L15
     /tmp/cc7wpQ70.s:1522   .text._ZN7Ssd130610_writeCharEc:000001ec .L63
     /tmp/cc7wpQ70.s:1508   .text._ZN7Ssd130610_writeCharEc:000001de .L64
     /tmp/cc7wpQ70.s:1585   .text._ZN7Ssd130610_writeCharEc:0000021c .L81
     /tmp/cc7wpQ70.s:1429   .text._ZN7Ssd130610_writeCharEc:00000190 .L72
     /tmp/cc7wpQ70.s:1443   .text._ZN7Ssd130610_writeCharEc:00000196 .L60
     /tmp/cc7wpQ70.s:1394   .text._ZN7Ssd130610_writeCharEc:00000164 .L43
     /tmp/cc7wpQ70.s:1637   .text._ZN7Ssd130610_writeCharEc:00000252 .L82
     /tmp/cc7wpQ70.s:1532   .text._ZN7Ssd130610_writeCharEc:000001f2 .L58
     /tmp/cc7wpQ70.s:1696   .text._ZN7Ssd130614_isInitializedEv:00000014 .L86
     /tmp/cc7wpQ70.s:1982   .text._ZN7Ssd130611clearScreenEv:000000e2 .L99
     /tmp/cc7wpQ70.s:1794   .text._ZN7Ssd130611clearScreenEv:00000040 .L103
     /tmp/cc7wpQ70.s:1887   .text._ZN7Ssd130611clearScreenEv:00000094 .L90
     /tmp/cc7wpQ70.s:1831   .text._ZN7Ssd130611clearScreenEv:00000062 .L91
     /tmp/cc7wpQ70.s:1815   .text._ZN7Ssd130611clearScreenEv:00000050 .L92
GAS LISTING /tmp/cc7wpQ70.s 			page 169


     /tmp/cc7wpQ70.s:1850   .text._ZN7Ssd130611clearScreenEv:00000076 .L26
     /tmp/cc7wpQ70.s:1847   .text._ZN7Ssd130611clearScreenEv:00000072 .L16
     /tmp/cc7wpQ70.s:1985   .text._ZN7Ssd130611clearScreenEv:000000e4 .L87
     /tmp/cc7wpQ70.s:1872   .text._ZN7Ssd130611clearScreenEv:00000088 .L93
     /tmp/cc7wpQ70.s:1966   .text._ZN7Ssd130611clearScreenEv:000000da .L104
     /tmp/cc7wpQ70.s:1941   .text._ZN7Ssd130611clearScreenEv:000000ca .L95
     /tmp/cc7wpQ70.s:1955   .text._ZN7Ssd130611clearScreenEv:000000d6 .L105
     /tmp/cc7wpQ70.s:1919   .text._ZN7Ssd130611clearScreenEv:000000b4 .L102
     /tmp/cc7wpQ70.s:1923   .text._ZN7Ssd130611clearScreenEv:000000b6 .L96
     /tmp/cc7wpQ70.s:1896   .text._ZN7Ssd130611clearScreenEv:0000009a .L94
     /tmp/cc7wpQ70.s:2149   .text._ZN7Ssd13067displayEv:00000082 .L106
     /tmp/cc7wpQ70.s:2061   .text._ZN7Ssd13067displayEv:00000026 .L114
     /tmp/cc7wpQ70.s:2077   .text._ZN7Ssd13067displayEv:0000002e .L109
     /tmp/cc7wpQ70.s:2134   .text._ZN7Ssd13067displayEv:0000007a .L115
     /tmp/cc7wpQ70.s:2096   .text._ZN7Ssd13067displayEv:00000044 .L27
     /tmp/cc7wpQ70.s:2093   .text._ZN7Ssd13067displayEv:00000040 .L17
     /tmp/cc7wpQ70.s:2072   .text._ZN7Ssd13067displayEv:0000002c .L111
     /tmp/cc7wpQ70.s:2276   .text._ZN7Ssd13064initEP3BusNS_4SizeEhPh:0000005c .L131
     /tmp/cc7wpQ70.s:2287   .text._ZN7Ssd13064initEP3BusNS_4SizeEhPh:00000066 .L119
     /tmp/cc7wpQ70.s:2250   .text._ZN7Ssd13064initEP3BusNS_4SizeEhPh:00000046 .L120
     /tmp/cc7wpQ70.s:2484   .text._ZN7Ssd13064initEP3BusNS_4SizeEhPh:0000015e .L127
     /tmp/cc7wpQ70.s:2488   .text._ZN7Ssd13064initEP3BusNS_4SizeEhPh:00000162 .L132
     /tmp/cc7wpQ70.s:2492   .text._ZN7Ssd13064initEP3BusNS_4SizeEhPh:00000166 .L128
     /tmp/cc7wpQ70.s:2254   .text._ZN7Ssd13064initEP3BusNS_4SizeEhPh:00000048 .L116
     /tmp/cc7wpQ70.s:2502   .text._ZN7Ssd13064initEP3BusNS_4SizeEhPh:00000170 .L133
     /tmp/cc7wpQ70.s:2316   .text._ZN7Ssd13064initEP3BusNS_4SizeEhPh:00000086 .L121
     /tmp/cc7wpQ70.s:2329   .text._ZN7Ssd13064initEP3BusNS_4SizeEhPh:00000094 .L122
     /tmp/cc7wpQ70.s:2363   .text._ZN7Ssd13064initEP3BusNS_4SizeEhPh:000000ba .L123
     /tmp/cc7wpQ70.s:2474   .text._ZN7Ssd13064initEP3BusNS_4SizeEhPh:00000158 .L125
     /tmp/cc7wpQ70.s:2572   .text._ZN7Ssd130615setDisplayStateE10Activation:00000026 .L134
     /tmp/cc7wpQ70.s:2584   .text._ZN7Ssd130615setDisplayStateE10Activation:0000002e .L140
     /tmp/cc7wpQ70.s:2558   .text._ZN7Ssd130615setDisplayStateE10Activation:00000018 .L136
     /tmp/cc7wpQ70.s:2638   .text._ZN7Ssd130611setContrastEh:0000001a .L145
     /tmp/cc7wpQ70.s:2626   .text._ZN7Ssd130611setContrastEh:00000012 .L141
     /tmp/cc7wpQ70.s:2733   .text._ZN7Ssd130613setUpsideDownEb:0000002c .L146
     /tmp/cc7wpQ70.s:2745   .text._ZN7Ssd130613setUpsideDownEb:00000038 .L150
     /tmp/cc7wpQ70.s:2753   .text._ZN7Ssd130613setUpsideDownEb:00000040 .L151
     /tmp/cc7wpQ70.s:2719   .text._ZN7Ssd130613setUpsideDownEb:00000020 .L148
     /tmp/cc7wpQ70.s:2850   .text._ZN7Ssd13069setCursorEhh:0000003c .L152
     /tmp/cc7wpQ70.s:2839   .text._ZN7Ssd13069setCursorEhh:00000032 .L155
     /tmp/cc7wpQ70.s:2951   .text._ZN7Ssd130614setCursorPixelEhh:00000044 .L158
     /tmp/cc7wpQ70.s:2942   .text._ZN7Ssd130614setCursorPixelEhh:0000003c .L164
     /tmp/cc7wpQ70.s:2966   .text._ZN7Ssd130614setCursorPixelEhh:0000004e .L161
     /tmp/cc7wpQ70.s:3089   .text._ZN7Ssd13065printEc:0000006a .L165
     /tmp/cc7wpQ70.s:3072   .text._ZN7Ssd13065printEc:0000005a .L168
     /tmp/cc7wpQ70.s:3082   .text._ZN7Ssd13065printEc:00000066 .L169
     /tmp/cc7wpQ70.s:3103   .text._ZN7Ssd13065printEc:00000076 .L171
     /tmp/cc7wpQ70.s:3252   .text._ZN7Ssd13065printEPKc:00000058 .L174
     /tmp/cc7wpQ70.s:3205   .text._ZN7Ssd13065printEPKc:00000028 .L182
     /tmp/cc7wpQ70.s:3224   .text._ZN7Ssd13065printEPKc:00000038 .L177
     /tmp/cc7wpQ70.s:3243   .text._ZN7Ssd13065printEPKc:00000052 .L183
     /tmp/cc7wpQ70.s:3219   .text._ZN7Ssd13065printEPKc:00000036 .L184
     /tmp/cc7wpQ70.s:3356   .text._ZN7Ssd13069drawPixelEhhb:00000048 .L185
     /tmp/cc7wpQ70.s:3376   .text._ZN7Ssd13069drawPixelEhhb:00000058 .L191
     /tmp/cc7wpQ70.s:3344   .text._ZN7Ssd13069drawPixelEhhb:0000003c .L188
     /tmp/cc7wpQ70.s:3387   .text._ZN7Ssd13069drawPixelEhhb:00000062 .L189
     /tmp/cc7wpQ70.s:3719   .text._ZN7Ssd13068drawLineEhhhhb:00000110 .L192
GAS LISTING /tmp/cc7wpQ70.s 			page 170


     /tmp/cc7wpQ70.s:3654   .text._ZN7Ssd13068drawLineEhhhhb:000000d0 .L211
     /tmp/cc7wpQ70.s:3668   .text._ZN7Ssd13068drawLineEhhhhb:000000da .L195
     /tmp/cc7wpQ70.s:3675   .text._ZN7Ssd13068drawLineEhhhhb:000000e2 .L197
     /tmp/cc7wpQ70.s:3688   .text._ZN7Ssd13068drawLineEhhhhb:000000f0 .L207
     /tmp/cc7wpQ70.s:3695   .text._ZN7Ssd13068drawLineEhhhhb:000000f8 .L208
     /tmp/cc7wpQ70.s:3702   .text._ZN7Ssd13068drawLineEhhhhb:00000100 .L212
     /tmp/cc7wpQ70.s:3630   .text._ZN7Ssd13068drawLineEhhhhb:000000b8 .L204
     /tmp/cc7wpQ70.s:3594   .text._ZN7Ssd13068drawLineEhhhhb:00000092 .L201
     /tmp/cc7wpQ70.s:3554   .text._ZN7Ssd13068drawLineEhhhhb:0000006c .L196
     /tmp/cc7wpQ70.s:3565   .text._ZN7Ssd13068drawLineEhhhhb:00000078 .L198
     /tmp/cc7wpQ70.s:3574   .text._ZN7Ssd13068drawLineEhhhhb:00000082 .L199
     /tmp/cc7wpQ70.s:3584   .text._ZN7Ssd13068drawLineEhhhhb:0000008c .L200
     /tmp/cc7wpQ70.s:3609   .text._ZN7Ssd13068drawLineEhhhhb:000000a4 .L202
     /tmp/cc7wpQ70.s:3947   .text._ZN7Ssd13068fillRectEhhhhb:00000098 .L213
     /tmp/cc7wpQ70.s:3932   .text._ZN7Ssd13068fillRectEhhhhb:0000008c .L216
     /tmp/cc7wpQ70.s:3980   .text._ZN7Ssd13068fillRectEhhhhb:000000c6 .L239
     /tmp/cc7wpQ70.s:4074   .text._ZN7Ssd13068fillRectEhhhhb:00000126 .L234
     /tmp/cc7wpQ70.s:3917   .text._ZN7Ssd13068fillRectEhhhhb:00000082 .L224
     /tmp/cc7wpQ70.s:3923   .text._ZN7Ssd13068fillRectEhhhhb:00000088 .L225
     /tmp/cc7wpQ70.s:4094   .text._ZN7Ssd13068fillRectEhhhhb:00000136 .L226
     /tmp/cc7wpQ70.s:4045   .text._ZN7Ssd13068fillRectEhhhhb:00000110 .L219
     /tmp/cc7wpQ70.s:4014   .text._ZN7Ssd13068fillRectEhhhhb:000000ec .L221
     /tmp/cc7wpQ70.s:4059   .text._ZN7Ssd13068fillRectEhhhhb:0000011c .L240
     /tmp/cc7wpQ70.s:4028   .text._ZN7Ssd13068fillRectEhhhhb:000000fc .L220
     /tmp/cc7wpQ70.s:3894   .text._ZN7Ssd13068fillRectEhhhhb:0000006c .L223
     /tmp/cc7wpQ70.s:4082   .text._ZN7Ssd13068fillRectEhhhhb:0000012a .L227
     /tmp/cc7wpQ70.s:4174   .text._ZN7Ssd13068fillRectEhhhhb:0000017e .L241
     /tmp/cc7wpQ70.s:4120   .text._ZN7Ssd13068fillRectEhhhhb:00000150 .L242
     /tmp/cc7wpQ70.s:4147   .text._ZN7Ssd13068fillRectEhhhhb:0000016a .L229
     /tmp/cc7wpQ70.s:4187   .text._ZN7Ssd13068fillRectEhhhhb:00000186 .L237
     /tmp/cc7wpQ70.s:4161   .text._ZN7Ssd13068fillRectEhhhhb:00000176 .L243
     /tmp/cc7wpQ70.s:4125   .text._ZN7Ssd13068fillRectEhhhhb:00000154 .L236
     /tmp/cc7wpQ70.s:4129   .text._ZN7Ssd13068fillRectEhhhhb:00000156 .L230
     /tmp/cc7wpQ70.s:4099   .text._ZN7Ssd13068fillRectEhhhhb:0000013a .L228
     /tmp/cc7wpQ70.s:4375   .text._ZN7Ssd13068drawRectEhhhh:0000008a .L244
     /tmp/cc7wpQ70.s:4360   .text._ZN7Ssd13068drawRectEhhhh:0000007e .L247
     /tmp/cc7wpQ70.s:4404   .text._ZN7Ssd13068drawRectEhhhh:000000b4 .L277
     /tmp/cc7wpQ70.s:4344   .text._ZN7Ssd13068drawRectEhhhh:00000074 .L256
     /tmp/cc7wpQ70.s:4351   .text._ZN7Ssd13068drawRectEhhhh:0000007a .L257
     /tmp/cc7wpQ70.s:4670   .text._ZN7Ssd13068drawRectEhhhh:000001b8 .L258
     /tmp/cc7wpQ70.s:4448   .text._ZN7Ssd13068drawRectEhhhh:000000ec .L250
     /tmp/cc7wpQ70.s:4458   .text._ZN7Ssd13068drawRectEhhhh:000000f6 .L251
     /tmp/cc7wpQ70.s:4508   .text._ZN7Ssd13068drawRectEhhhh:0000012e .L278
     /tmp/cc7wpQ70.s:4478   .text._ZN7Ssd13068drawRectEhhhh:00000108 .L252
     /tmp/cc7wpQ70.s:4547   .text._ZN7Ssd13068drawRectEhhhh:00000156 .L279
     /tmp/cc7wpQ70.s:4519   .text._ZN7Ssd13068drawRectEhhhh:00000132 .L254
     /tmp/cc7wpQ70.s:4640   .text._ZN7Ssd13068drawRectEhhhh:0000019e .L280
     /tmp/cc7wpQ70.s:4656   .text._ZN7Ssd13068drawRectEhhhh:000001b2 .L281
     /tmp/cc7wpQ70.s:4571   .text._ZN7Ssd13068drawRectEhhhh:00000164 .L260
     /tmp/cc7wpQ70.s:4635   .text._ZN7Ssd13068drawRectEhhhh:0000019a .L271
     /tmp/cc7wpQ70.s:4577   .text._ZN7Ssd13068drawRectEhhhh:00000166 .L262
     /tmp/cc7wpQ70.s:4623   .text._ZN7Ssd13068drawRectEhhhh:00000192 .L263
     /tmp/cc7wpQ70.s:4734   .text._ZN7Ssd13068drawRectEhhhh:000001f2 .L272
     /tmp/cc7wpQ70.s:4593   .text._ZN7Ssd13068drawRectEhhhh:00000178 .L264
     /tmp/cc7wpQ70.s:4701   .text._ZN7Ssd13068drawRectEhhhh:000001d4 .L282
     /tmp/cc7wpQ70.s:4720   .text._ZN7Ssd13068drawRectEhhhh:000001ea .L283
     /tmp/cc7wpQ70.s:4561   .text._ZN7Ssd13068drawRectEhhhh:00000160 .L284
GAS LISTING /tmp/cc7wpQ70.s 			page 171


     /tmp/cc7wpQ70.s:4602   .text._ZN7Ssd13068drawRectEhhhh:0000017c .L259
     /tmp/cc7wpQ70.s:4664   .text._ZN7Ssd13068drawRectEhhhh:000001b6 .L266
     /tmp/cc7wpQ70.s:4910   .text._ZN7Ssd13069drawHLineEhhh:0000008a .L285
     /tmp/cc7wpQ70.s:4895   .text._ZN7Ssd13069drawHLineEhhh:0000007e .L287
     /tmp/cc7wpQ70.s:4936   .text._ZN7Ssd13069drawHLineEhhh:000000ae .L302
     /tmp/cc7wpQ70.s:4865   .text._ZN7Ssd13069drawHLineEhhh:00000064 .L28
     /tmp/cc7wpQ70.s:4863   .text._ZN7Ssd13069drawHLineEhhh:00000062 .L18
     /tmp/cc7wpQ70.s:4886   .text._ZN7Ssd13069drawHLineEhhh:0000007a .L292
     /tmp/cc7wpQ70.s:4998   .text._ZN7Ssd13069drawHLineEhhh:000000e8 .L293
     /tmp/cc7wpQ70.s:4961   .text._ZN7Ssd13069drawHLineEhhh:000000c6 .L290
     /tmp/cc7wpQ70.s:4947   .text._ZN7Ssd13069drawHLineEhhh:000000b4 .L291
     /tmp/cc7wpQ70.s:4983   .text._ZN7Ssd13069drawHLineEhhh:000000dc .L294
     /tmp/cc7wpQ70.s:5043   .text._ZN7Ssd13069drawHLineEhhh:0000011a .L295
     /tmp/cc7wpQ70.s:5071   .text._ZN7Ssd13069drawHLineEhhh:00000132 .L300
     /tmp/cc7wpQ70.s:5059   .text._ZN7Ssd13069drawHLineEhhh:0000012a .L303
     /tmp/cc7wpQ70.s:5021   .text._ZN7Ssd13069drawHLineEhhh:00000104 .L299
     /tmp/cc7wpQ70.s:5025   .text._ZN7Ssd13069drawHLineEhhh:00000106 .L296
     /tmp/cc7wpQ70.s:5230   .text._ZN7Ssd13069drawVLineEhhh:00000078 .L304
     /tmp/cc7wpQ70.s:5216   .text._ZN7Ssd13069drawVLineEhhh:0000006c .L307
     /tmp/cc7wpQ70.s:5256   .text._ZN7Ssd13069drawVLineEhhh:00000094 .L324
     /tmp/cc7wpQ70.s:5204   .text._ZN7Ssd13069drawVLineEhhh:00000062 .L312
     /tmp/cc7wpQ70.s:5376   .text._ZN7Ssd13069drawVLineEhhh:0000010a .L313
     /tmp/cc7wpQ70.s:5281   .text._ZN7Ssd13069drawVLineEhhh:000000ac .L310
     /tmp/cc7wpQ70.s:5267   .text._ZN7Ssd13069drawVLineEhhh:0000009a .L311
     /tmp/cc7wpQ70.s:5402   .text._ZN7Ssd13069drawVLineEhhh:00000126 .L314
     /tmp/cc7wpQ70.s:5414   .text._ZN7Ssd13069drawVLineEhhh:00000132 .L315
     /tmp/cc7wpQ70.s:5332   .text._ZN7Ssd13069drawVLineEhhh:000000d8 .L29
     /tmp/cc7wpQ70.s:5329   .text._ZN7Ssd13069drawVLineEhhh:000000d4 .L19
     /tmp/cc7wpQ70.s:5321   .text._ZN7Ssd13069drawVLineEhhh:000000cc .L317
     /tmp/cc7wpQ70.s:5301   .text._ZN7Ssd13069drawVLineEhhh:000000c0 .L319
     /tmp/cc7wpQ70.s:5424   .text._ZN7Ssd13069drawVLineEhhh:00000136 .L325
     /tmp/cc7wpQ70.s:5306   .text._ZN7Ssd13069drawVLineEhhh:000000c4 .L322
     /tmp/cc7wpQ70.s:5316   .text._ZN7Ssd13069drawVLineEhhh:000000c8 .L323
     /tmp/cc7wpQ70.s:5342   .text._ZN7Ssd13069drawVLineEhhh:000000e4 .L316
     /tmp/cc7wpQ70.s:10357  .debug_abbrev:00000000 .Ldebug_abbrev0
     /tmp/cc7wpQ70.s:17811  .debug_ranges:00000000 .Ldebug_ranges0
     /tmp/cc7wpQ70.s:18061  .debug_line:00000000 .Ldebug_line0
     /tmp/cc7wpQ70.s:3114   .text._ZL15ssd1306WriteStdcP6__file:00000000 .LFB167
     /tmp/cc7wpQ70.s:3140   .text._ZL15ssd1306WriteStdcP6__file:00000014 .LFE167
     /tmp/cc7wpQ70.s:11373  .debug_loc:00000006 .LLST97
     /tmp/cc7wpQ70.s:11366  .debug_loc:00000000 .LVUS97
     /tmp/cc7wpQ70.s:11402  .debug_loc:0000003c .LLST98
     /tmp/cc7wpQ70.s:11397  .debug_loc:00000038 .LVUS98
     /tmp/cc7wpQ70.s:3132   .text._ZL15ssd1306WriteStdcP6__file:0000000e .LVL215
     /tmp/cc7wpQ70.s:1669   .text._ZN7Ssd130614_isInitializedEv:00000000 .LFB166
     /tmp/cc7wpQ70.s:1707   .text._ZN7Ssd130614_isInitializedEv:0000001e .LFE166
     /tmp/cc7wpQ70.s:11432  .debug_loc:0000006c .LLST57
     /tmp/cc7wpQ70.s:11427  .debug_loc:00000068 .LVUS57
     /tmp/cc7wpQ70.s:993    .text._ZN7Ssd130610_writeCharEc:00000000 .LFB165
     /tmp/cc7wpQ70.s:1662   .text._ZN7Ssd130610_writeCharEc:0000026c .LFE165
     /tmp/cc7wpQ70.s:11453  .debug_loc:00000094 .LLST32
     /tmp/cc7wpQ70.s:11565  .debug_loc:0000017f .LLST33
     /tmp/cc7wpQ70.s:11556  .debug_loc:00000177 .LVUS33
     /tmp/cc7wpQ70.s:11617  .debug_loc:000001d3 .LLST34
     /tmp/cc7wpQ70.s:11608  .debug_loc:000001cb .LVUS34
     /tmp/cc7wpQ70.s:11660  .debug_loc:0000021e .LLST35
     /tmp/cc7wpQ70.s:11647  .debug_loc:00000212 .LVUS35
GAS LISTING /tmp/cc7wpQ70.s 			page 172


     /tmp/cc7wpQ70.s:11692  .debug_loc:0000026c .LLST36
     /tmp/cc7wpQ70.s:11687  .debug_loc:00000268 .LVUS36
     /tmp/cc7wpQ70.s:11710  .debug_loc:00000290 .LLST37
     /tmp/cc7wpQ70.s:11703  .debug_loc:0000028a .LVUS37
     /tmp/cc7wpQ70.s:11731  .debug_loc:000002be .LLST38
     /tmp/cc7wpQ70.s:11726  .debug_loc:000002ba .LVUS38
     /tmp/cc7wpQ70.s:1211   .text._ZN7Ssd130610_writeCharEc:000000c4 .LBB11
     /tmp/cc7wpQ70.s:1376   .text._ZN7Ssd130610_writeCharEc:00000150 .LBE11
     /tmp/cc7wpQ70.s:11747  .debug_loc:000002e0 .LLST39
     /tmp/cc7wpQ70.s:11742  .debug_loc:000002dc .LVUS39
     /tmp/cc7wpQ70.s:11767  .debug_loc:00000306 .LLST40
     /tmp/cc7wpQ70.s:11758  .debug_loc:000002fe .LVUS40
     /tmp/cc7wpQ70.s:1327   .text._ZN7Ssd130610_writeCharEc:0000012a .LBB21
     /tmp/cc7wpQ70.s:1357   .text._ZN7Ssd130610_writeCharEc:00000148 .LBE21
     /tmp/cc7wpQ70.s:11793  .debug_loc:00000340 .LLST45
     /tmp/cc7wpQ70.s:11788  .debug_loc:0000033c .LVUS45
     /tmp/cc7wpQ70.s:11828  .debug_loc:00000378 .LLST46
     /tmp/cc7wpQ70.s:11825  .debug_loc:00000376 .LVUS46
     /tmp/cc7wpQ70.s:11840  .debug_loc:0000038f .LLST41
     /tmp/cc7wpQ70.s:11835  .debug_loc:0000038b .LVUS41
     /tmp/cc7wpQ70.s:11857  .debug_loc:000003b2 .LLST42
     /tmp/cc7wpQ70.s:11852  .debug_loc:000003ae .LVUS42
     /tmp/cc7wpQ70.s:11873  .debug_loc:000003d4 .LLST43
     /tmp/cc7wpQ70.s:11868  .debug_loc:000003d0 .LVUS43
     /tmp/cc7wpQ70.s:11892  .debug_loc:000003f9 .LLST44
     /tmp/cc7wpQ70.s:11885  .debug_loc:000003f3 .LVUS44
     /tmp/cc7wpQ70.s:1245   .text._ZN7Ssd130610_writeCharEc:000000e8 .LVL83
     /tmp/cc7wpQ70.s:11912  .debug_loc:00000426 .LLST47
     /tmp/cc7wpQ70.s:11907  .debug_loc:00000422 .LVUS47
     /tmp/cc7wpQ70.s:11933  .debug_loc:0000044d .LLST48
     /tmp/cc7wpQ70.s:11924  .debug_loc:00000445 .LVUS48
     /tmp/cc7wpQ70.s:11958  .debug_loc:00000486 .LLST49
     /tmp/cc7wpQ70.s:11955  .debug_loc:00000484 .LVUS49
     /tmp/cc7wpQ70.s:11974  .debug_loc:000004a1 .LLST50
     /tmp/cc7wpQ70.s:11965  .debug_loc:00000499 .LVUS50
     /tmp/cc7wpQ70.s:12004  .debug_loc:000004df .LLST51
     /tmp/cc7wpQ70.s:11995  .debug_loc:000004d7 .LVUS51
     /tmp/cc7wpQ70.s:1545   .text._ZN7Ssd130610_writeCharEc:000001fa .LBB32
     /tmp/cc7wpQ70.s:1572   .text._ZN7Ssd130610_writeCharEc:00000216 .LBE32
     /tmp/cc7wpQ70.s:12030  .debug_loc:00000519 .LLST55
     /tmp/cc7wpQ70.s:12025  .debug_loc:00000515 .LVUS55
     /tmp/cc7wpQ70.s:12065  .debug_loc:00000551 .LLST56
     /tmp/cc7wpQ70.s:12062  .debug_loc:0000054f .LVUS56
     /tmp/cc7wpQ70.s:12077  .debug_loc:00000568 .LLST52
     /tmp/cc7wpQ70.s:12072  .debug_loc:00000564 .LVUS52
     /tmp/cc7wpQ70.s:1447   .text._ZN7Ssd130610_writeCharEc:0000019a .LBB29
     /tmp/cc7wpQ70.s:1501   .text._ZN7Ssd130610_writeCharEc:000001da .LBE29
     /tmp/cc7wpQ70.s:12094  .debug_loc:0000058b .LLST53
     /tmp/cc7wpQ70.s:12089  .debug_loc:00000587 .LVUS53
     /tmp/cc7wpQ70.s:1503   .text._ZN7Ssd130610_writeCharEc:000001da .LBB30
     /tmp/cc7wpQ70.s:1527   .text._ZN7Ssd130610_writeCharEc:000001f0 .LBE30
     /tmp/cc7wpQ70.s:12108  .debug_loc:000005ab .LLST54
     /tmp/cc7wpQ70.s:12105  .debug_loc:000005a9 .LVUS54
     /tmp/cc7wpQ70.s:1597   .text._ZN7Ssd130610_writeCharEc:00000228 .LVL114
     /tmp/cc7wpQ70.s:1623   .text._ZN7Ssd130610_writeCharEc:00000244 .LVL117
     /tmp/cc7wpQ70.s:861    .text._ZN7Ssd13069_setPixelEhhb:00000000 .LFB164
     /tmp/cc7wpQ70.s:986    .text._ZN7Ssd13069_setPixelEhhb:00000080 .LFE164
GAS LISTING /tmp/cc7wpQ70.s 			page 173


     /tmp/cc7wpQ70.s:12115  .debug_loc:000005be .LLST25
     /tmp/cc7wpQ70.s:12141  .debug_loc:000005f1 .LLST26
     /tmp/cc7wpQ70.s:12136  .debug_loc:000005ed .LVUS26
     /tmp/cc7wpQ70.s:12167  .debug_loc:0000061d .LLST27
     /tmp/cc7wpQ70.s:12162  .debug_loc:00000619 .LVUS27
     /tmp/cc7wpQ70.s:12192  .debug_loc:00000648 .LLST28
     /tmp/cc7wpQ70.s:12187  .debug_loc:00000644 .LVUS28
     /tmp/cc7wpQ70.s:12219  .debug_loc:00000675 .LLST29
     /tmp/cc7wpQ70.s:12212  .debug_loc:0000066f .LVUS29
     /tmp/cc7wpQ70.s:12248  .debug_loc:000006ab .LLST30
     /tmp/cc7wpQ70.s:12243  .debug_loc:000006a7 .LVUS30
     /tmp/cc7wpQ70.s:12278  .debug_loc:000006db .LLST31
     /tmp/cc7wpQ70.s:12269  .debug_loc:000006d3 .LVUS31
     /tmp/cc7wpQ70.s:776    .text._ZN7Ssd130611_setAddressEhh:00000000 .LFB163
     /tmp/cc7wpQ70.s:854    .text._ZN7Ssd130611_setAddressEhh:00000046 .LFE163
     /tmp/cc7wpQ70.s:12297  .debug_loc:0000070f .LLST21
     /tmp/cc7wpQ70.s:12333  .debug_loc:00000753 .LLST22
     /tmp/cc7wpQ70.s:12324  .debug_loc:0000074b .LVUS22
     /tmp/cc7wpQ70.s:12381  .debug_loc:000007a3 .LLST23
     /tmp/cc7wpQ70.s:12376  .debug_loc:0000079f .LVUS23
     /tmp/cc7wpQ70.s:12410  .debug_loc:000007d2 .LLST24
     /tmp/cc7wpQ70.s:12401  .debug_loc:000007ca .LVUS24
     /tmp/cc7wpQ70.s:805    .text._ZN7Ssd130611_setAddressEhh:00000012 .LVL54
     /tmp/cc7wpQ70.s:828    .text._ZN7Ssd130611_setAddressEhh:00000028 .LVL58
     /tmp/cc7wpQ70.s:841    .text._ZN7Ssd130611_setAddressEhh:0000003a .LVL59
     /tmp/cc7wpQ70.s:556    .text._ZN7Ssd130610_writeDataEPKhh:00000000 .LFB162
     /tmp/cc7wpQ70.s:769    .text._ZN7Ssd130610_writeDataEPKhh:000000d4 .LFE162
     /tmp/cc7wpQ70.s:12438  .debug_loc:0000080f .LLST15
     /tmp/cc7wpQ70.s:12510  .debug_loc:000008a1 .LLST16
     /tmp/cc7wpQ70.s:12501  .debug_loc:00000899 .LVUS16
     /tmp/cc7wpQ70.s:12558  .debug_loc:000008f1 .LLST17
     /tmp/cc7wpQ70.s:12549  .debug_loc:000008e9 .LVUS17
     /tmp/cc7wpQ70.s:12610  .debug_loc:00000945 .LLST18
     /tmp/cc7wpQ70.s:12601  .debug_loc:0000093d .LVUS18
     /tmp/cc7wpQ70.s:12643  .debug_loc:00000986 .LLST19
     /tmp/cc7wpQ70.s:12638  .debug_loc:00000982 .LVUS19
     /tmp/cc7wpQ70.s:12664  .debug_loc:000009ad .LLST20
     /tmp/cc7wpQ70.s:12655  .debug_loc:000009a5 .LVUS20
     /tmp/cc7wpQ70.s:702    .text._ZN7Ssd130610_writeDataEPKhh:00000094 .LVL45
     /tmp/cc7wpQ70.s:629    .text._ZN7Ssd130610_writeDataEPKhh:00000036 .LVL38
     /tmp/cc7wpQ70.s:440    .text._ZN7Ssd130617_writeCommandListEPKhh:00000000 .LFB161
     /tmp/cc7wpQ70.s:549    .text._ZN7Ssd130617_writeCommandListEPKhh:00000046 .LFE161
     /tmp/cc7wpQ70.s:12688  .debug_loc:000009e6 .LLST8
     /tmp/cc7wpQ70.s:12740  .debug_loc:00000a4f .LLST9
     /tmp/cc7wpQ70.s:12733  .debug_loc:00000a49 .LVUS9
     /tmp/cc7wpQ70.s:12781  .debug_loc:00000a91 .LLST10
     /tmp/cc7wpQ70.s:12774  .debug_loc:00000a8b .LVUS10
     /tmp/cc7wpQ70.s:12822  .debug_loc:00000ad3 .LLST11
     /tmp/cc7wpQ70.s:12815  .debug_loc:00000acd .LVUS11
     /tmp/cc7wpQ70.s:477    .text._ZN7Ssd130617_writeCommandListEPKhh:00000012 .LBB4
     /tmp/cc7wpQ70.s:521    .text._ZN7Ssd130617_writeCommandListEPKhh:00000030 .LBE4
     /tmp/cc7wpQ70.s:12851  .debug_loc:00000b09 .LLST12
     /tmp/cc7wpQ70.s:12846  .debug_loc:00000b05 .LVUS12
     /tmp/cc7wpQ70.s:493    .text._ZN7Ssd130617_writeCommandListEPKhh:0000001c .LBB6
     /tmp/cc7wpQ70.s:508    .text._ZN7Ssd130617_writeCommandListEPKhh:00000024 .LBE6
     /tmp/cc7wpQ70.s:12870  .debug_loc:00000b2e .LLST13
     /tmp/cc7wpQ70.s:12863  .debug_loc:00000b28 .LVUS13
GAS LISTING /tmp/cc7wpQ70.s 			page 174


     /tmp/cc7wpQ70.s:12909  .debug_loc:00000b6e .LLST14
     /tmp/cc7wpQ70.s:12906  .debug_loc:00000b6c .LVUS14
     /tmp/cc7wpQ70.s:512    .text._ZN7Ssd130617_writeCommandListEPKhh:0000002a .LVL27
     /tmp/cc7wpQ70.s:274    .text._ZN7Ssd130613_writeCommandEh:00000000 .LFB160
     /tmp/cc7wpQ70.s:433    .text._ZN7Ssd130613_writeCommandEh:000000b2 .LFE160
     /tmp/cc7wpQ70.s:12916  .debug_loc:00000b81 .LLST5
     /tmp/cc7wpQ70.s:12975  .debug_loc:00000bf8 .LLST6
     /tmp/cc7wpQ70.s:12966  .debug_loc:00000bf0 .LVUS6
     /tmp/cc7wpQ70.s:13019  .debug_loc:00000c44 .LLST7
     /tmp/cc7wpQ70.s:13014  .debug_loc:00000c40 .LVUS7
     /tmp/cc7wpQ70.s:335    .text._ZN7Ssd130613_writeCommandEh:00000032 .LVL15
     /tmp/cc7wpQ70.s:361    .text._ZN7Ssd130613_writeCommandEh:0000005a .LVL16
     /tmp/cc7wpQ70.s:5087   .text._ZN7Ssd13069drawVLineEhhh:00000000 .LFB159
     /tmp/cc7wpQ70.s:5439   .text._ZN7Ssd13069drawVLineEhhh:0000013e .LFE159
     /tmp/cc7wpQ70.s:13039  .debug_loc:00000c6b .LLST171
     /tmp/cc7wpQ70.s:13134  .debug_loc:00000d30 .LLST172
     /tmp/cc7wpQ70.s:13125  .debug_loc:00000d28 .LVUS172
     /tmp/cc7wpQ70.s:13186  .debug_loc:00000d84 .LLST173
     /tmp/cc7wpQ70.s:13177  .debug_loc:00000d7c .LVUS173
     /tmp/cc7wpQ70.s:13223  .debug_loc:00000dc9 .LLST174
     /tmp/cc7wpQ70.s:13214  .debug_loc:00000dc1 .LVUS174
     /tmp/cc7wpQ70.s:13260  .debug_loc:00000e0e .LLST175
     /tmp/cc7wpQ70.s:13251  .debug_loc:00000e06 .LVUS175
     /tmp/cc7wpQ70.s:13293  .debug_loc:00000e4f .LLST176
     /tmp/cc7wpQ70.s:13288  .debug_loc:00000e4b .LVUS176
     /tmp/cc7wpQ70.s:5260   .text._ZN7Ssd13069drawVLineEhhh:00000094 .LBB97
     /tmp/cc7wpQ70.s:5292   .text._ZN7Ssd13069drawVLineEhhh:000000ba .LBE97
     /tmp/cc7wpQ70.s:13307  .debug_loc:00000e6f .LLST177
     /tmp/cc7wpQ70.s:13304  .debug_loc:00000e6d .LVUS177
     /tmp/cc7wpQ70.s:5275   .text._ZN7Ssd13069drawVLineEhhh:000000a6 .LVL387
     /tmp/cc7wpQ70.s:13324  .debug_loc:00000e8b .LLST178
     /tmp/cc7wpQ70.s:13319  .debug_loc:00000e87 .LVUS178
     /tmp/cc7wpQ70.s:13344  .debug_loc:00000eb1 .LLST179
     /tmp/cc7wpQ70.s:13335  .debug_loc:00000ea9 .LVUS179
     /tmp/cc7wpQ70.s:13374  .debug_loc:00000eef .LLST180
     /tmp/cc7wpQ70.s:13369  .debug_loc:00000eeb .LVUS180
     /tmp/cc7wpQ70.s:13390  .debug_loc:00000f11 .LLST181
     /tmp/cc7wpQ70.s:13385  .debug_loc:00000f0d .LVUS181
     /tmp/cc7wpQ70.s:13406  .debug_loc:00000f33 .LLST182
     /tmp/cc7wpQ70.s:13401  .debug_loc:00000f2f .LVUS182
     /tmp/cc7wpQ70.s:5356   .text._ZN7Ssd13069drawVLineEhhh:000000f2 .LVL395
     /tmp/cc7wpQ70.s:5368   .text._ZN7Ssd13069drawVLineEhhh:00000104 .LVL396
     /tmp/cc7wpQ70.s:5155   .text._ZN7Ssd13069drawVLineEhhh:0000002a .LVL376
     /tmp/cc7wpQ70.s:4754   .text._ZN7Ssd13069drawHLineEhhh:00000000 .LFB158
     /tmp/cc7wpQ70.s:5080   .text._ZN7Ssd13069drawHLineEhhh:00000136 .LFE158
     /tmp/cc7wpQ70.s:13417  .debug_loc:00000f51 .LLST161
     /tmp/cc7wpQ70.s:13505  .debug_loc:00001008 .LLST162
     /tmp/cc7wpQ70.s:13496  .debug_loc:00001000 .LVUS162
     /tmp/cc7wpQ70.s:13559  .debug_loc:0000105e .LLST163
     /tmp/cc7wpQ70.s:13548  .debug_loc:00001054 .LVUS163
     /tmp/cc7wpQ70.s:13615  .debug_loc:000010bd .LLST164
     /tmp/cc7wpQ70.s:13600  .debug_loc:000010af .LVUS164
     /tmp/cc7wpQ70.s:13670  .debug_loc:00001129 .LLST165
     /tmp/cc7wpQ70.s:13655  .debug_loc:0000111b .LVUS165
     /tmp/cc7wpQ70.s:13737  .debug_loc:000011a1 .LLST166
     /tmp/cc7wpQ70.s:13728  .debug_loc:00001199 .LVUS166
     /tmp/cc7wpQ70.s:13768  .debug_loc:000011e0 .LLST167
GAS LISTING /tmp/cc7wpQ70.s 			page 175


     /tmp/cc7wpQ70.s:13765  .debug_loc:000011de .LVUS167
     /tmp/cc7wpQ70.s:4940   .text._ZN7Ssd13069drawHLineEhhh:000000ae .LBB88
     /tmp/cc7wpQ70.s:4972   .text._ZN7Ssd13069drawHLineEhhh:000000d4 .LBE88
     /tmp/cc7wpQ70.s:13778  .debug_loc:000011f5 .LLST168
     /tmp/cc7wpQ70.s:13775  .debug_loc:000011f3 .LVUS168
     /tmp/cc7wpQ70.s:4955   .text._ZN7Ssd13069drawHLineEhhh:000000c0 .LVL363
     /tmp/cc7wpQ70.s:13795  .debug_loc:00001211 .LLST169
     /tmp/cc7wpQ70.s:13790  .debug_loc:0000120d .LVUS169
     /tmp/cc7wpQ70.s:13812  .debug_loc:00001234 .LLST170
     /tmp/cc7wpQ70.s:13807  .debug_loc:00001230 .LVUS170
     /tmp/cc7wpQ70.s:5035   .text._ZN7Ssd13069drawHLineEhhh:00000114 .LVL371
     /tmp/cc7wpQ70.s:4823   .text._ZN7Ssd13069drawHLineEhhh:00000032 .LVL353
     /tmp/cc7wpQ70.s:5014   .text._ZN7Ssd13069drawHLineEhhh:000000fc .LVL368
     /tmp/cc7wpQ70.s:4207   .text._ZN7Ssd13068drawRectEhhhh:00000000 .LFB157
     /tmp/cc7wpQ70.s:4747   .text._ZN7Ssd13068drawRectEhhhh:000001f6 .LFE157
     /tmp/cc7wpQ70.s:13823  .debug_loc:00001252 .LLST140
     /tmp/cc7wpQ70.s:13929  .debug_loc:00001330 .LLST141
     /tmp/cc7wpQ70.s:13920  .debug_loc:00001328 .LVUS141
     /tmp/cc7wpQ70.s:13981  .debug_loc:00001384 .LLST142
     /tmp/cc7wpQ70.s:13972  .debug_loc:0000137c .LVUS142
     /tmp/cc7wpQ70.s:14022  .debug_loc:000013cd .LLST143
     /tmp/cc7wpQ70.s:14009  .debug_loc:000013c1 .LVUS143
     /tmp/cc7wpQ70.s:14082  .debug_loc:00001437 .LLST144
     /tmp/cc7wpQ70.s:14067  .debug_loc:00001429 .LVUS144
     /tmp/cc7wpQ70.s:14149  .debug_loc:000014af .LLST145
     /tmp/cc7wpQ70.s:14140  .debug_loc:000014a7 .LVUS145
     /tmp/cc7wpQ70.s:14195  .debug_loc:000014fd .LLST146
     /tmp/cc7wpQ70.s:14186  .debug_loc:000014f5 .LVUS146
     /tmp/cc7wpQ70.s:14230  .debug_loc:00001540 .LLST147
     /tmp/cc7wpQ70.s:14223  .debug_loc:0000153a .LVUS147
     /tmp/cc7wpQ70.s:4406   .text._ZN7Ssd13068drawRectEhhhh:000000b4 .LBB70
     /tmp/cc7wpQ70.s:4563   .text._ZN7Ssd13068drawRectEhhhh:00000160 .LBE70
     /tmp/cc7wpQ70.s:14248  .debug_loc:0000156b .LLST148
     /tmp/cc7wpQ70.s:14245  .debug_loc:00001569 .LVUS148
     /tmp/cc7wpQ70.s:14263  .debug_loc:00001585 .LLST149
     /tmp/cc7wpQ70.s:14260  .debug_loc:00001583 .LVUS149
     /tmp/cc7wpQ70.s:14278  .debug_loc:0000159f .LLST150
     /tmp/cc7wpQ70.s:14275  .debug_loc:0000159d .LVUS150
     /tmp/cc7wpQ70.s:14288  .debug_loc:000015b4 .LLST151
     /tmp/cc7wpQ70.s:14285  .debug_loc:000015b2 .LVUS151
     /tmp/cc7wpQ70.s:14298  .debug_loc:000015c9 .LLST152
     /tmp/cc7wpQ70.s:14295  .debug_loc:000015c7 .LVUS152
     /tmp/cc7wpQ70.s:4479   .text._ZN7Ssd13068drawRectEhhhh:00000108 .LBB71
     /tmp/cc7wpQ70.s:4510   .text._ZN7Ssd13068drawRectEhhhh:0000012e .LBE71
     /tmp/cc7wpQ70.s:14312  .debug_loc:000015e2 .LLST153
     /tmp/cc7wpQ70.s:14305  .debug_loc:000015dc .LVUS153
     /tmp/cc7wpQ70.s:4491   .text._ZN7Ssd13068drawRectEhhhh:0000011a .LVL318
     /tmp/cc7wpQ70.s:4499   .text._ZN7Ssd13068drawRectEhhhh:00000126 .LVL319
     /tmp/cc7wpQ70.s:4512   .text._ZN7Ssd13068drawRectEhhhh:0000012e .LBB72
     /tmp/cc7wpQ70.s:4549   .text._ZN7Ssd13068drawRectEhhhh:00000156 .LBE72
     /tmp/cc7wpQ70.s:14346  .debug_loc:0000161d .LLST154
     /tmp/cc7wpQ70.s:14339  .debug_loc:00001617 .LVUS154
     /tmp/cc7wpQ70.s:4531   .text._ZN7Ssd13068drawRectEhhhh:00000144 .LVL324
     /tmp/cc7wpQ70.s:4539   .text._ZN7Ssd13068drawRectEhhhh:00000150 .LVL325
     /tmp/cc7wpQ70.s:14378  .debug_loc:00001656 .LLST155
     /tmp/cc7wpQ70.s:14373  .debug_loc:00001652 .LVUS155
     /tmp/cc7wpQ70.s:14396  .debug_loc:0000167a .LLST156
GAS LISTING /tmp/cc7wpQ70.s 			page 176


     /tmp/cc7wpQ70.s:14389  .debug_loc:00001674 .LVUS156
     /tmp/cc7wpQ70.s:14445  .debug_loc:000016c4 .LLST157
     /tmp/cc7wpQ70.s:14438  .debug_loc:000016be .LVUS157
     /tmp/cc7wpQ70.s:14506  .debug_loc:0000171a .LLST158
     /tmp/cc7wpQ70.s:14487  .debug_loc:00001708 .LVUS158
     /tmp/cc7wpQ70.s:14554  .debug_loc:0000178d .LLST159
     /tmp/cc7wpQ70.s:14547  .debug_loc:00001787 .LVUS159
     /tmp/cc7wpQ70.s:14582  .debug_loc:000017c2 .LLST160
     /tmp/cc7wpQ70.s:14569  .debug_loc:000017b6 .LVUS160
     /tmp/cc7wpQ70.s:4648   .text._ZN7Ssd13068drawRectEhhhh:000001aa .LVL340
     /tmp/cc7wpQ70.s:4689   .text._ZN7Ssd13068drawRectEhhhh:000001ca .LVL346
     /tmp/cc7wpQ70.s:4712   .text._ZN7Ssd13068drawRectEhhhh:000001e2 .LVL349
     /tmp/cc7wpQ70.s:4288   .text._ZN7Ssd13068drawRectEhhhh:00000038 .LVL300
     /tmp/cc7wpQ70.s:3764   .text._ZN7Ssd13068fillRectEhhhhb:00000000 .LFB156
     /tmp/cc7wpQ70.s:4200   .text._ZN7Ssd13068fillRectEhhhhb:0000018a .LFE156
     /tmp/cc7wpQ70.s:14612  .debug_loc:0000180f .LLST123
     /tmp/cc7wpQ70.s:14730  .debug_loc:00001907 .LLST124
     /tmp/cc7wpQ70.s:14721  .debug_loc:000018ff .LVUS124
     /tmp/cc7wpQ70.s:14782  .debug_loc:0000195b .LLST125
     /tmp/cc7wpQ70.s:14773  .debug_loc:00001953 .LVUS125
     /tmp/cc7wpQ70.s:14821  .debug_loc:000019a2 .LLST126
     /tmp/cc7wpQ70.s:14810  .debug_loc:00001998 .LVUS126
     /tmp/cc7wpQ70.s:14877  .debug_loc:00001a01 .LLST127
     /tmp/cc7wpQ70.s:14862  .debug_loc:000019f3 .LVUS127
     /tmp/cc7wpQ70.s:14952  .debug_loc:00001a81 .LLST128
     /tmp/cc7wpQ70.s:14935  .debug_loc:00001a71 .LVUS128
     /tmp/cc7wpQ70.s:15030  .debug_loc:00001b0b .LLST129
     /tmp/cc7wpQ70.s:15023  .debug_loc:00001b05 .LVUS129
     /tmp/cc7wpQ70.s:15059  .debug_loc:00001b41 .LLST130
     /tmp/cc7wpQ70.s:15054  .debug_loc:00001b3d .LVUS130
     /tmp/cc7wpQ70.s:15075  .debug_loc:00001b63 .LLST131
     /tmp/cc7wpQ70.s:15070  .debug_loc:00001b5f .LVUS131
     /tmp/cc7wpQ70.s:15093  .debug_loc:00001b87 .LLST132
     /tmp/cc7wpQ70.s:15086  .debug_loc:00001b81 .LVUS132
     /tmp/cc7wpQ70.s:3982   .text._ZN7Ssd13068fillRectEhhhhb:000000c6 .LBB55
     /tmp/cc7wpQ70.s:4076   .text._ZN7Ssd13068fillRectEhhhhb:00000126 .LBE55
     /tmp/cc7wpQ70.s:15111  .debug_loc:00001bb2 .LLST133
     /tmp/cc7wpQ70.s:15108  .debug_loc:00001bb0 .LVUS133
     /tmp/cc7wpQ70.s:4002   .text._ZN7Ssd13068fillRectEhhhhb:000000de .LBB56
     /tmp/cc7wpQ70.s:4062   .text._ZN7Ssd13068fillRectEhhhhb:0000011c .LBE56
     /tmp/cc7wpQ70.s:15126  .debug_loc:00001bcc .LLST134
     /tmp/cc7wpQ70.s:15123  .debug_loc:00001bca .LVUS134
     /tmp/cc7wpQ70.s:15143  .debug_loc:00001be8 .LLST135
     /tmp/cc7wpQ70.s:15138  .debug_loc:00001be4 .LVUS135
     /tmp/cc7wpQ70.s:4023   .text._ZN7Ssd13068fillRectEhhhhb:000000f8 .LVL280
     /tmp/cc7wpQ70.s:15169  .debug_loc:00001c14 .LLST136
     /tmp/cc7wpQ70.s:15164  .debug_loc:00001c10 .LVUS136
     /tmp/cc7wpQ70.s:15188  .debug_loc:00001c39 .LLST137
     /tmp/cc7wpQ70.s:15181  .debug_loc:00001c33 .LVUS137
     /tmp/cc7wpQ70.s:15210  .debug_loc:00001c68 .LLST138
     /tmp/cc7wpQ70.s:15205  .debug_loc:00001c64 .LVUS138
     /tmp/cc7wpQ70.s:15226  .debug_loc:00001c8a .LLST139
     /tmp/cc7wpQ70.s:15221  .debug_loc:00001c86 .LVUS139
     /tmp/cc7wpQ70.s:4139   .text._ZN7Ssd13068fillRectEhhhhb:00000164 .LVL292
     /tmp/cc7wpQ70.s:4113   .text._ZN7Ssd13068fillRectEhhhhb:00000148 .LVL289
     /tmp/cc7wpQ70.s:3853   .text._ZN7Ssd13068fillRectEhhhhb:0000003c .LVL265
     /tmp/cc7wpQ70.s:3413   .text._ZN7Ssd13068drawLineEhhhhb:00000000 .LFB155
GAS LISTING /tmp/cc7wpQ70.s 			page 177


     /tmp/cc7wpQ70.s:3757   .text._ZN7Ssd13068drawLineEhhhhb:00000140 .LFE155
     /tmp/cc7wpQ70.s:15237  .debug_loc:00001ca8 .LLST108
     /tmp/cc7wpQ70.s:15372  .debug_loc:00001dc6 .LLST109
     /tmp/cc7wpQ70.s:15365  .debug_loc:00001dc0 .LVUS109
     /tmp/cc7wpQ70.s:15413  .debug_loc:00001e08 .LLST110
     /tmp/cc7wpQ70.s:15406  .debug_loc:00001e02 .LVUS110
     /tmp/cc7wpQ70.s:15444  .debug_loc:00001e40 .LLST111
     /tmp/cc7wpQ70.s:15437  .debug_loc:00001e3a .LVUS111
     /tmp/cc7wpQ70.s:15475  .debug_loc:00001e78 .LLST112
     /tmp/cc7wpQ70.s:15468  .debug_loc:00001e72 .LVUS112
     /tmp/cc7wpQ70.s:15506  .debug_loc:00001eb0 .LLST113
     /tmp/cc7wpQ70.s:15499  .debug_loc:00001eaa .LVUS113
     /tmp/cc7wpQ70.s:15539  .debug_loc:00001eea .LLST114
     /tmp/cc7wpQ70.s:15530  .debug_loc:00001ee2 .LVUS114
     /tmp/cc7wpQ70.s:15581  .debug_loc:00001f34 .LLST115
     /tmp/cc7wpQ70.s:15576  .debug_loc:00001f30 .LVUS115
     /tmp/cc7wpQ70.s:15613  .debug_loc:00001f66 .LLST116
     /tmp/cc7wpQ70.s:15602  .debug_loc:00001f5c .LVUS116
     /tmp/cc7wpQ70.s:15658  .debug_loc:00001fba .LLST117
     /tmp/cc7wpQ70.s:15653  .debug_loc:00001fb6 .LVUS117
     /tmp/cc7wpQ70.s:15684  .debug_loc:00001fe6 .LLST118
     /tmp/cc7wpQ70.s:15679  .debug_loc:00001fe2 .LVUS118
     /tmp/cc7wpQ70.s:15710  .debug_loc:00002012 .LLST119
     /tmp/cc7wpQ70.s:15705  .debug_loc:0000200e .LVUS119
     /tmp/cc7wpQ70.s:15736  .debug_loc:0000203e .LLST120
     /tmp/cc7wpQ70.s:15731  .debug_loc:0000203a .LVUS120
     /tmp/cc7wpQ70.s:15762  .debug_loc:0000206a .LLST121
     /tmp/cc7wpQ70.s:15757  .debug_loc:00002066 .LVUS121
     /tmp/cc7wpQ70.s:15786  .debug_loc:00002094 .LLST122
     /tmp/cc7wpQ70.s:15783  .debug_loc:00002092 .LVUS122
     /tmp/cc7wpQ70.s:3604   .text._ZN7Ssd13068drawLineEhhhhb:0000009e .LVL244
     /tmp/cc7wpQ70.s:3511   .text._ZN7Ssd13068drawLineEhhhhb:0000003c .LVL234
     /tmp/cc7wpQ70.s:3276   .text._ZN7Ssd13069drawPixelEhhb:00000000 .LFB154
     /tmp/cc7wpQ70.s:3406   .text._ZN7Ssd13069drawPixelEhhb:00000076 .LFE154
     /tmp/cc7wpQ70.s:15798  .debug_loc:000020ac .LLST103
     /tmp/cc7wpQ70.s:15852  .debug_loc:00002117 .LLST104
     /tmp/cc7wpQ70.s:15843  .debug_loc:0000210f .LVUS104
     /tmp/cc7wpQ70.s:15904  .debug_loc:0000216b .LLST105
     /tmp/cc7wpQ70.s:15895  .debug_loc:00002163 .LVUS105
     /tmp/cc7wpQ70.s:15941  .debug_loc:000021b0 .LLST106
     /tmp/cc7wpQ70.s:15932  .debug_loc:000021a8 .LVUS106
     /tmp/cc7wpQ70.s:15978  .debug_loc:000021f5 .LLST107
     /tmp/cc7wpQ70.s:15969  .debug_loc:000021ed .LVUS107
     /tmp/cc7wpQ70.s:3316   .text._ZN7Ssd13069drawPixelEhhb:00000018 .LVL226
     /tmp/cc7wpQ70.s:3395   .text._ZN7Ssd13069drawPixelEhhb:0000006e .LVL232
     /tmp/cc7wpQ70.s:3147   .text._ZN7Ssd13065printEPKc:00000000 .LFB153
     /tmp/cc7wpQ70.s:3269   .text._ZN7Ssd13065printEPKc:0000006a .LFE153
     /tmp/cc7wpQ70.s:16006  .debug_loc:00002232 .LLST99
     /tmp/cc7wpQ70.s:16064  .debug_loc:000022a8 .LLST100
     /tmp/cc7wpQ70.s:16057  .debug_loc:000022a2 .LVUS100
     /tmp/cc7wpQ70.s:16105  .debug_loc:000022ea .LLST101
     /tmp/cc7wpQ70.s:16098  .debug_loc:000022e4 .LVUS101
     /tmp/cc7wpQ70.s:16144  .debug_loc:0000232a .LLST102
     /tmp/cc7wpQ70.s:16139  .debug_loc:00002326 .LVUS102
     /tmp/cc7wpQ70.s:3191   .text._ZN7Ssd13065printEPKc:00000016 .LVL218
     /tmp/cc7wpQ70.s:3236   .text._ZN7Ssd13065printEPKc:0000004a .LVL221
     /tmp/cc7wpQ70.s:2986   .text._ZN7Ssd13065printEc:00000000 .LFB152
GAS LISTING /tmp/cc7wpQ70.s 			page 178


     /tmp/cc7wpQ70.s:3108   .text._ZN7Ssd13065printEc:0000007a .LFE152
     /tmp/cc7wpQ70.s:16161  .debug_loc:0000234e .LLST94
     /tmp/cc7wpQ70.s:16203  .debug_loc:0000239f .LLST95
     /tmp/cc7wpQ70.s:16194  .debug_loc:00002397 .LVUS95
     /tmp/cc7wpQ70.s:16255  .debug_loc:000023f3 .LLST96
     /tmp/cc7wpQ70.s:16246  .debug_loc:000023eb .LVUS96
     /tmp/cc7wpQ70.s:3016   .text._ZN7Ssd13065printEc:00000010 .LVL207
     /tmp/cc7wpQ70.s:3078   .text._ZN7Ssd13065printEc:00000062 .LVL208
     /tmp/cc7wpQ70.s:227    .text._ZN7Ssd13065stdioEv:00000000 .LFB151
     /tmp/cc7wpQ70.s:267    .text._ZN7Ssd13065stdioEv:00000026 .LFE151
     /tmp/cc7wpQ70.s:16288  .debug_loc:00002434 .LLST4
     /tmp/cc7wpQ70.s:16283  .debug_loc:00002430 .LVUS4
     /tmp/cc7wpQ70.s:2872   .text._ZN7Ssd130614setCursorPixelEhh:00000000 .LFB150
     /tmp/cc7wpQ70.s:2979   .text._ZN7Ssd130614setCursorPixelEhh:0000005a .LFE150
     /tmp/cc7wpQ70.s:16309  .debug_loc:0000245c .LLST90
     /tmp/cc7wpQ70.s:16351  .debug_loc:000024ad .LLST91
     /tmp/cc7wpQ70.s:16342  .debug_loc:000024a5 .LVUS91
     /tmp/cc7wpQ70.s:16403  .debug_loc:00002501 .LLST92
     /tmp/cc7wpQ70.s:16394  .debug_loc:000024f9 .LVUS92
     /tmp/cc7wpQ70.s:16440  .debug_loc:00002546 .LLST93
     /tmp/cc7wpQ70.s:16431  .debug_loc:0000253e .LVUS93
     /tmp/cc7wpQ70.s:2903   .text._ZN7Ssd130614setCursorPixelEhh:00000012 .LVL201
     /tmp/cc7wpQ70.s:2778   .text._ZN7Ssd13069setCursorEhh:00000000 .LFB149
     /tmp/cc7wpQ70.s:2865   .text._ZN7Ssd13069setCursorEhh:00000046 .LFE149
     /tmp/cc7wpQ70.s:16468  .debug_loc:00002583 .LLST86
     /tmp/cc7wpQ70.s:16508  .debug_loc:000025d2 .LLST87
     /tmp/cc7wpQ70.s:16501  .debug_loc:000025cc .LVUS87
     /tmp/cc7wpQ70.s:16549  .debug_loc:00002614 .LLST88
     /tmp/cc7wpQ70.s:16542  .debug_loc:0000260e .LVUS88
     /tmp/cc7wpQ70.s:16580  .debug_loc:0000264c .LLST89
     /tmp/cc7wpQ70.s:16573  .debug_loc:00002646 .LVUS89
     /tmp/cc7wpQ70.s:2809   .text._ZN7Ssd13069setCursorEhh:00000012 .LVL196
     /tmp/cc7wpQ70.s:166    .text._ZN7Ssd130611setTextSizeEh:00000000 .LFB148
     /tmp/cc7wpQ70.s:220    .text._ZN7Ssd130611setTextSizeEh:00000028 .LFE148
     /tmp/cc7wpQ70.s:16609  .debug_loc:00002682 .LLST2
     /tmp/cc7wpQ70.s:16604  .debug_loc:0000267e .LVUS2
     /tmp/cc7wpQ70.s:16639  .debug_loc:000026b2 .LLST3
     /tmp/cc7wpQ70.s:16630  .debug_loc:000026aa .LVUS3
     /tmp/cc7wpQ70.s:142    .text._ZN7Ssd130612getLastErrorEv:00000000 .LFB147
     /tmp/cc7wpQ70.s:159    .text._ZN7Ssd130612getLastErrorEv:00000008 .LFE147
     /tmp/cc7wpQ70.s:16674  .debug_loc:000026f5 .LLST1
     /tmp/cc7wpQ70.s:16669  .debug_loc:000026f1 .LVUS1
     /tmp/cc7wpQ70.s:2672   .text._ZN7Ssd130613setUpsideDownEb:00000000 .LFB146
     /tmp/cc7wpQ70.s:2771   .text._ZN7Ssd130613setUpsideDownEb:00000052 .LFE146
     /tmp/cc7wpQ70.s:16695  .debug_loc:0000271d .LLST82
     /tmp/cc7wpQ70.s:16743  .debug_loc:0000277b .LLST83
     /tmp/cc7wpQ70.s:16734  .debug_loc:00002773 .LVUS83
     /tmp/cc7wpQ70.s:16797  .debug_loc:000027d1 .LLST84
     /tmp/cc7wpQ70.s:16786  .debug_loc:000027c7 .LVUS84
     /tmp/cc7wpQ70.s:16843  .debug_loc:00002826 .LLST85
     /tmp/cc7wpQ70.s:16838  .debug_loc:00002822 .LVUS85
     /tmp/cc7wpQ70.s:2706   .text._ZN7Ssd130613setUpsideDownEb:00000012 .LVL186
     /tmp/cc7wpQ70.s:2728   .text._ZN7Ssd130613setUpsideDownEb:00000028 .LVL189
     /tmp/cc7wpQ70.s:2758   .text._ZN7Ssd130613setUpsideDownEb:00000048 .LVL194
     /tmp/cc7wpQ70.s:2596   .text._ZN7Ssd130611setContrastEh:00000000 .LFB145
     /tmp/cc7wpQ70.s:2665   .text._ZN7Ssd130611setContrastEh:00000038 .LFE145
     /tmp/cc7wpQ70.s:16854  .debug_loc:00002844 .LLST79
GAS LISTING /tmp/cc7wpQ70.s 			page 179


     /tmp/cc7wpQ70.s:16890  .debug_loc:00002888 .LLST80
     /tmp/cc7wpQ70.s:16881  .debug_loc:00002880 .LVUS80
     /tmp/cc7wpQ70.s:16942  .debug_loc:000028dc .LLST81
     /tmp/cc7wpQ70.s:16933  .debug_loc:000028d4 .LVUS81
     /tmp/cc7wpQ70.s:2622   .text._ZN7Ssd130611setContrastEh:0000000e .LVL179
     /tmp/cc7wpQ70.s:2644   .text._ZN7Ssd130611setContrastEh:00000022 .LVL183
     /tmp/cc7wpQ70.s:2652   .text._ZN7Ssd130611setContrastEh:0000002e .LVL184
     /tmp/cc7wpQ70.s:2522   .text._ZN7Ssd130615setDisplayStateE10Activation:00000000 .LFB144
     /tmp/cc7wpQ70.s:2589   .text._ZN7Ssd130615setDisplayStateE10Activation:00000032 .LFE144
     /tmp/cc7wpQ70.s:16970  .debug_loc:00002919 .LLST76
     /tmp/cc7wpQ70.s:17006  .debug_loc:0000295d .LLST77
     /tmp/cc7wpQ70.s:16997  .debug_loc:00002955 .LVUS77
     /tmp/cc7wpQ70.s:17058  .debug_loc:000029b1 .LLST78
     /tmp/cc7wpQ70.s:17049  .debug_loc:000029a9 .LVUS78
     /tmp/cc7wpQ70.s:2548   .text._ZN7Ssd130615setDisplayStateE10Activation:0000000e .LVL173
     /tmp/cc7wpQ70.s:2562   .text._ZN7Ssd130615setDisplayStateE10Activation:0000001e .LVL174
     /tmp/cc7wpQ70.s:2013   .text._ZN7Ssd13067displayEv:00000000 .LFB143
     /tmp/cc7wpQ70.s:2160   .text._ZN7Ssd13067displayEv:0000008c .LFE143
     /tmp/cc7wpQ70.s:17086  .debug_loc:000029ee .LLST66
     /tmp/cc7wpQ70.s:17126  .debug_loc:00002a3d .LLST67
     /tmp/cc7wpQ70.s:17119  .debug_loc:00002a37 .LVUS67
     /tmp/cc7wpQ70.s:17163  .debug_loc:00002a7b .LLST68
     /tmp/cc7wpQ70.s:17160  .debug_loc:00002a79 .LVUS68
     /tmp/cc7wpQ70.s:2108   .text._ZN7Ssd13067displayEv:00000056 .LVL144
     /tmp/cc7wpQ70.s:2129   .text._ZN7Ssd13067displayEv:00000074 .LVL145
     /tmp/cc7wpQ70.s:2042   .text._ZN7Ssd13067displayEv:0000000e .LVL141
     /tmp/cc7wpQ70.s:1714   .text._ZN7Ssd130611clearScreenEv:00000000 .LFB142
     /tmp/cc7wpQ70.s:2006   .text._ZN7Ssd130611clearScreenEv:00000102 .LFE142
     /tmp/cc7wpQ70.s:17170  .debug_loc:00002a8e .LLST58
     /tmp/cc7wpQ70.s:17244  .debug_loc:00002b29 .LLST59
     /tmp/cc7wpQ70.s:17237  .debug_loc:00002b23 .LVUS59
     /tmp/cc7wpQ70.s:1797   .text._ZN7Ssd130611clearScreenEv:00000040 .LBB41
     /tmp/cc7wpQ70.s:1874   .text._ZN7Ssd130611clearScreenEv:00000088 .LBE41
     /tmp/cc7wpQ70.s:17281  .debug_loc:00002b67 .LLST60
     /tmp/cc7wpQ70.s:17278  .debug_loc:00002b65 .LVUS60
     /tmp/cc7wpQ70.s:1808   .text._ZN7Ssd130611clearScreenEv:0000004a .LBB42
     /tmp/cc7wpQ70.s:1836   .text._ZN7Ssd130611clearScreenEv:00000068 .LBE42
     /tmp/cc7wpQ70.s:17298  .debug_loc:00002b83 .LLST61
     /tmp/cc7wpQ70.s:17293  .debug_loc:00002b7f .LVUS61
     /tmp/cc7wpQ70.s:17318  .debug_loc:00002ba9 .LLST62
     /tmp/cc7wpQ70.s:17315  .debug_loc:00002ba7 .LVUS62
     /tmp/cc7wpQ70.s:1892   .text._ZN7Ssd130611clearScreenEv:00000098 .LBB46
     /tmp/cc7wpQ70.s:1968   .text._ZN7Ssd130611clearScreenEv:000000da .LBE46
     /tmp/cc7wpQ70.s:17332  .debug_loc:00002bc2 .LLST63
     /tmp/cc7wpQ70.s:17325  .debug_loc:00002bbc .LVUS63
     /tmp/cc7wpQ70.s:1904   .text._ZN7Ssd130611clearScreenEv:000000a2 .LBB47
     /tmp/cc7wpQ70.s:1959   .text._ZN7Ssd130611clearScreenEv:000000d6 .LBE47
     /tmp/cc7wpQ70.s:17352  .debug_loc:00002bef .LLST64
     /tmp/cc7wpQ70.s:17349  .debug_loc:00002bed .LVUS64
     /tmp/cc7wpQ70.s:17362  .debug_loc:00002c04 .LLST65
     /tmp/cc7wpQ70.s:17359  .debug_loc:00002c02 .LVUS65
     /tmp/cc7wpQ70.s:1933   .text._ZN7Ssd130611clearScreenEv:000000c4 .LVL133
     /tmp/cc7wpQ70.s:1911   .text._ZN7Ssd130611clearScreenEv:000000ac .LVL130
     /tmp/cc7wpQ70.s:1771   .text._ZN7Ssd130611clearScreenEv:00000026 .LVL122
     /tmp/cc7wpQ70.s:2167   .text._ZN7Ssd13064initEP3BusNS_4SizeEhPh:00000000 .LFB141
     /tmp/cc7wpQ70.s:2515   .text._ZN7Ssd13064initEP3BusNS_4SizeEhPh:0000017e .LFE141
     /tmp/cc7wpQ70.s:17369  .debug_loc:00002c17 .LLST69
GAS LISTING /tmp/cc7wpQ70.s 			page 180


     /tmp/cc7wpQ70.s:17435  .debug_loc:00002c9c .LLST70
     /tmp/cc7wpQ70.s:17426  .debug_loc:00002c94 .LVUS70
     /tmp/cc7wpQ70.s:17487  .debug_loc:00002cf0 .LLST71
     /tmp/cc7wpQ70.s:17478  .debug_loc:00002ce8 .LVUS71
     /tmp/cc7wpQ70.s:17539  .debug_loc:00002d44 .LLST72
     /tmp/cc7wpQ70.s:17530  .debug_loc:00002d3c .LVUS72
     /tmp/cc7wpQ70.s:17576  .debug_loc:00002d89 .LLST73
     /tmp/cc7wpQ70.s:17567  .debug_loc:00002d81 .LVUS73
     /tmp/cc7wpQ70.s:17621  .debug_loc:00002dd6 .LLST74
     /tmp/cc7wpQ70.s:17604  .debug_loc:00002dc6 .LVUS74
     /tmp/cc7wpQ70.s:17705  .debug_loc:00002e66 .LLST75
     /tmp/cc7wpQ70.s:17700  .debug_loc:00002e62 .LVUS75
     /tmp/cc7wpQ70.s:2238   .text._ZN7Ssd13064initEP3BusNS_4SizeEhPh:0000003a .LVL150
     /tmp/cc7wpQ70.s:2372   .text._ZN7Ssd13064initEP3BusNS_4SizeEhPh:000000c6 .LVL159
     /tmp/cc7wpQ70.s:2384   .text._ZN7Ssd13064initEP3BusNS_4SizeEhPh:000000d6 .LVL160
     /tmp/cc7wpQ70.s:2394   .text._ZN7Ssd13064initEP3BusNS_4SizeEhPh:000000e6 .LVL161
     /tmp/cc7wpQ70.s:2405   .text._ZN7Ssd13064initEP3BusNS_4SizeEhPh:000000f6 .LVL162
     /tmp/cc7wpQ70.s:2415   .text._ZN7Ssd13064initEP3BusNS_4SizeEhPh:00000106 .LVL163
     /tmp/cc7wpQ70.s:2426   .text._ZN7Ssd13064initEP3BusNS_4SizeEhPh:00000116 .LVL164
     /tmp/cc7wpQ70.s:2436   .text._ZN7Ssd13064initEP3BusNS_4SizeEhPh:00000126 .LVL165
     /tmp/cc7wpQ70.s:2447   .text._ZN7Ssd13064initEP3BusNS_4SizeEhPh:00000136 .LVL166
     /tmp/cc7wpQ70.s:2462   .text._ZN7Ssd13064initEP3BusNS_4SizeEhPh:0000014a .LVL167
     /tmp/cc7wpQ70.s:2507   .text._ZN7Ssd13064initEP3BusNS_4SizeEhPh:00000176 .LVL171
     /tmp/cc7wpQ70.s:118    .text._ZN7Ssd1306D2Ev:00000000 .LFB139
     /tmp/cc7wpQ70.s:133    .text._ZN7Ssd1306D2Ev:00000002 .LFE139
     /tmp/cc7wpQ70.s:16     .text._ZN7Ssd1306C2Ev:00000000 .LFB136
     /tmp/cc7wpQ70.s:109    .text._ZN7Ssd1306C2Ev:00000056 .LFE136
     /tmp/cc7wpQ70.s:17721  .debug_loc:00002e88 .LLST0
     /tmp/cc7wpQ70.s:17716  .debug_loc:00002e84 .LVUS0
     /tmp/cc7wpQ70.s:3113   .text._ZL15ssd1306WriteStdcP6__file:00000000 .LVL212
     /tmp/cc7wpQ70.s:3129   .text._ZL15ssd1306WriteStdcP6__file:0000000a .LVL214
     /tmp/cc7wpQ70.s:3125   .text._ZL15ssd1306WriteStdcP6__file:00000002 .LVL213
     /tmp/cc7wpQ70.s:1668   .text._ZN7Ssd130614_isInitializedEv:00000000 .LVL119
     /tmp/cc7wpQ70.s:1684   .text._ZN7Ssd130614_isInitializedEv:0000000a .LVL120
     /tmp/cc7wpQ70.s:998    .text._ZN7Ssd130610_writeCharEc:00000002 .LCFI27
     /tmp/cc7wpQ70.s:1002   .text._ZN7Ssd130610_writeCharEc:00000004 .LCFI28
     /tmp/cc7wpQ70.s:1006   .text._ZN7Ssd130610_writeCharEc:00000006 .LCFI29
     /tmp/cc7wpQ70.s:1010   .text._ZN7Ssd130610_writeCharEc:00000008 .LCFI30
     /tmp/cc7wpQ70.s:1014   .text._ZN7Ssd130610_writeCharEc:0000000a .LCFI31
     /tmp/cc7wpQ70.s:1018   .text._ZN7Ssd130610_writeCharEc:0000000c .LCFI32
     /tmp/cc7wpQ70.s:1022   .text._ZN7Ssd130610_writeCharEc:0000000e .LCFI33
     /tmp/cc7wpQ70.s:1026   .text._ZN7Ssd130610_writeCharEc:00000010 .LCFI34
     /tmp/cc7wpQ70.s:1030   .text._ZN7Ssd130610_writeCharEc:00000012 .LCFI35
     /tmp/cc7wpQ70.s:1034   .text._ZN7Ssd130610_writeCharEc:00000014 .LCFI36
     /tmp/cc7wpQ70.s:1038   .text._ZN7Ssd130610_writeCharEc:00000016 .LCFI37
     /tmp/cc7wpQ70.s:1042   .text._ZN7Ssd130610_writeCharEc:00000018 .LCFI38
     /tmp/cc7wpQ70.s:1046   .text._ZN7Ssd130610_writeCharEc:0000001a .LCFI39
     /tmp/cc7wpQ70.s:1050   .text._ZN7Ssd130610_writeCharEc:0000001c .LCFI40
     /tmp/cc7wpQ70.s:1055   .text._ZN7Ssd130610_writeCharEc:00000020 .LCFI41
     /tmp/cc7wpQ70.s:1058   .text._ZN7Ssd130610_writeCharEc:00000022 .LCFI42
     /tmp/cc7wpQ70.s:992    .text._ZN7Ssd130610_writeCharEc:00000000 .LVL70
     /tmp/cc7wpQ70.s:1074   .text._ZN7Ssd130610_writeCharEc:00000032 .LVL71
     /tmp/cc7wpQ70.s:1411   .text._ZN7Ssd130610_writeCharEc:0000017a .LVL97
     /tmp/cc7wpQ70.s:1428   .text._ZN7Ssd130610_writeCharEc:00000190 .LVL100
     /tmp/cc7wpQ70.s:1089   .text._ZN7Ssd130610_writeCharEc:0000003c .LVL74
     /tmp/cc7wpQ70.s:1095   .text._ZN7Ssd130610_writeCharEc:00000042 .LVL75
     /tmp/cc7wpQ70.s:1205   .text._ZN7Ssd130610_writeCharEc:000000c4 .LVL80
GAS LISTING /tmp/cc7wpQ70.s 			page 181


     /tmp/cc7wpQ70.s:1080   .text._ZN7Ssd130610_writeCharEc:00000038 .LVL72
     /tmp/cc7wpQ70.s:1129   .text._ZN7Ssd130610_writeCharEc:0000006c .LVL78
     /tmp/cc7wpQ70.s:1365   .text._ZN7Ssd130610_writeCharEc:0000014c .LVL94
     /tmp/cc7wpQ70.s:1373   .text._ZN7Ssd130610_writeCharEc:00000150 .LVL95
     /tmp/cc7wpQ70.s:1415   .text._ZN7Ssd130610_writeCharEc:0000017e .LVL98
     /tmp/cc7wpQ70.s:1084   .text._ZN7Ssd130610_writeCharEc:0000003a .LVL73
     /tmp/cc7wpQ70.s:1114   .text._ZN7Ssd130610_writeCharEc:00000056 .LVL77
     /tmp/cc7wpQ70.s:1104   .text._ZN7Ssd130610_writeCharEc:0000004c .LVL76
     /tmp/cc7wpQ70.s:1422   .text._ZN7Ssd130610_writeCharEc:00000188 .LVL99
     /tmp/cc7wpQ70.s:1198   .text._ZN7Ssd130610_writeCharEc:000000c0 .LVL79
     /tmp/cc7wpQ70.s:1393   .text._ZN7Ssd130610_writeCharEc:00000164 .LVL96
     /tmp/cc7wpQ70.s:1216   .text._ZN7Ssd130610_writeCharEc:000000c8 .LVL81
     /tmp/cc7wpQ70.s:1312   .text._ZN7Ssd130610_writeCharEc:0000011e .LVL89
     /tmp/cc7wpQ70.s:1320   .text._ZN7Ssd130610_writeCharEc:00000124 .LVL90
     /tmp/cc7wpQ70.s:1353   .text._ZN7Ssd130610_writeCharEc:00000148 .LVL93
     /tmp/cc7wpQ70.s:1342   .text._ZN7Ssd130610_writeCharEc:00000144 .LVL91
     /tmp/cc7wpQ70.s:1349   .text._ZN7Ssd130610_writeCharEc:00000146 .LVL92
     /tmp/cc7wpQ70.s:1272   .text._ZN7Ssd130610_writeCharEc:000000fc .LVL86
     /tmp/cc7wpQ70.s:1296   .text._ZN7Ssd130610_writeCharEc:00000118 .LVL87
     /tmp/cc7wpQ70.s:1303   .text._ZN7Ssd130610_writeCharEc:0000011c .LVL88
     /tmp/cc7wpQ70.s:1242   .text._ZN7Ssd130610_writeCharEc:000000e4 .LVL82
     /tmp/cc7wpQ70.s:1249   .text._ZN7Ssd130610_writeCharEc:000000ec .LVL84
     /tmp/cc7wpQ70.s:1257   .text._ZN7Ssd130610_writeCharEc:000000f2 .LVL85
     /tmp/cc7wpQ70.s:1507   .text._ZN7Ssd130610_writeCharEc:000001de .LVL106
     /tmp/cc7wpQ70.s:1521   .text._ZN7Ssd130610_writeCharEc:000001ec .LVL108
     /tmp/cc7wpQ70.s:1614   .text._ZN7Ssd130610_writeCharEc:00000236 .LVL116
     /tmp/cc7wpQ70.s:1636   .text._ZN7Ssd130610_writeCharEc:00000252 .LVL118
     /tmp/cc7wpQ70.s:1437   .text._ZN7Ssd130610_writeCharEc:00000194 .LVL101
     /tmp/cc7wpQ70.s:1539   .text._ZN7Ssd130610_writeCharEc:000001f8 .LVL110
     /tmp/cc7wpQ70.s:1567   .text._ZN7Ssd130610_writeCharEc:00000216 .LVL112
     /tmp/cc7wpQ70.s:1584   .text._ZN7Ssd130610_writeCharEc:0000021c .LVL113
     /tmp/cc7wpQ70.s:1495   .text._ZN7Ssd130610_writeCharEc:000001d8 .LVL104
     /tmp/cc7wpQ70.s:1498   .text._ZN7Ssd130610_writeCharEc:000001da .LVL105
     /tmp/cc7wpQ70.s:1531   .text._ZN7Ssd130610_writeCharEc:000001f2 .LVL109
     /tmp/cc7wpQ70.s:1560   .text._ZN7Ssd130610_writeCharEc:00000214 .LVL111
     /tmp/cc7wpQ70.s:1442   .text._ZN7Ssd130610_writeCharEc:00000196 .LVL102
     /tmp/cc7wpQ70.s:1465   .text._ZN7Ssd130610_writeCharEc:000001b4 .LVL103
     /tmp/cc7wpQ70.s:866    .text._ZN7Ssd13069_setPixelEhhb:00000002 .LCFI25
     /tmp/cc7wpQ70.s:870    .text._ZN7Ssd13069_setPixelEhhb:00000004 .LCFI26
     /tmp/cc7wpQ70.s:860    .text._ZN7Ssd13069_setPixelEhhb:00000000 .LVL60
     /tmp/cc7wpQ70.s:883    .text._ZN7Ssd13069_setPixelEhhb:0000000c .LVL61
     /tmp/cc7wpQ70.s:906    .text._ZN7Ssd13069_setPixelEhhb:0000002c .LVL62
     /tmp/cc7wpQ70.s:910    .text._ZN7Ssd13069_setPixelEhhb:0000002e .LVL63
     /tmp/cc7wpQ70.s:947    .text._ZN7Ssd13069_setPixelEhhb:00000058 .LVL66
     /tmp/cc7wpQ70.s:967    .text._ZN7Ssd13069_setPixelEhhb:0000006c .LVL68
     /tmp/cc7wpQ70.s:960    .text._ZN7Ssd13069_setPixelEhhb:00000066 .LVL67
     /tmp/cc7wpQ70.s:922    .text._ZN7Ssd13069_setPixelEhhb:0000003e .LVL64
     /tmp/cc7wpQ70.s:936    .text._ZN7Ssd13069_setPixelEhhb:0000004e .LVL65
     /tmp/cc7wpQ70.s:979    .text._ZN7Ssd13069_setPixelEhhb:00000078 .LVL69
     /tmp/cc7wpQ70.s:781    .text._ZN7Ssd130611_setAddressEhh:00000002 .LCFI22
     /tmp/cc7wpQ70.s:785    .text._ZN7Ssd130611_setAddressEhh:00000004 .LCFI23
     /tmp/cc7wpQ70.s:789    .text._ZN7Ssd130611_setAddressEhh:00000006 .LCFI24
     /tmp/cc7wpQ70.s:775    .text._ZN7Ssd130611_setAddressEhh:00000000 .LVL52
     /tmp/cc7wpQ70.s:817    .text._ZN7Ssd130611_setAddressEhh:0000001c .LVL56
     /tmp/cc7wpQ70.s:820    .text._ZN7Ssd130611_setAddressEhh:0000001e .LVL57
     /tmp/cc7wpQ70.s:801    .text._ZN7Ssd130611_setAddressEhh:0000000c .LVL53
     /tmp/cc7wpQ70.s:813    .text._ZN7Ssd130611_setAddressEhh:00000018 .LVL55
GAS LISTING /tmp/cc7wpQ70.s 			page 182


     /tmp/cc7wpQ70.s:561    .text._ZN7Ssd130610_writeDataEPKhh:00000002 .LCFI13
     /tmp/cc7wpQ70.s:565    .text._ZN7Ssd130610_writeDataEPKhh:00000004 .LCFI14
     /tmp/cc7wpQ70.s:569    .text._ZN7Ssd130610_writeDataEPKhh:00000006 .LCFI15
     /tmp/cc7wpQ70.s:573    .text._ZN7Ssd130610_writeDataEPKhh:00000008 .LCFI16
     /tmp/cc7wpQ70.s:577    .text._ZN7Ssd130610_writeDataEPKhh:0000000a .LCFI17
     /tmp/cc7wpQ70.s:581    .text._ZN7Ssd130610_writeDataEPKhh:0000000c .LCFI18
     /tmp/cc7wpQ70.s:585    .text._ZN7Ssd130610_writeDataEPKhh:0000000e .LCFI19
     /tmp/cc7wpQ70.s:589    .text._ZN7Ssd130610_writeDataEPKhh:00000010 .LCFI20
     /tmp/cc7wpQ70.s:593    .text._ZN7Ssd130610_writeDataEPKhh:00000012 .LCFI21
     /tmp/cc7wpQ70.s:555    .text._ZN7Ssd130610_writeDataEPKhh:00000000 .LVL33
     /tmp/cc7wpQ70.s:610    .text._ZN7Ssd130610_writeDataEPKhh:0000001e .LVL35
     /tmp/cc7wpQ70.s:667    .text._ZN7Ssd130610_writeDataEPKhh:00000066 .LVL41
     /tmp/cc7wpQ70.s:679    .text._ZN7Ssd130610_writeDataEPKhh:00000072 .LVL44
     /tmp/cc7wpQ70.s:613    .text._ZN7Ssd130610_writeDataEPKhh:00000020 .LVL36
     /tmp/cc7wpQ70.s:671    .text._ZN7Ssd130610_writeDataEPKhh:0000006a .LVL42
     /tmp/cc7wpQ70.s:626    .text._ZN7Ssd130610_writeDataEPKhh:00000034 .LVL37
     /tmp/cc7wpQ70.s:674    .text._ZN7Ssd130610_writeDataEPKhh:0000006c .LVL43
     /tmp/cc7wpQ70.s:604    .text._ZN7Ssd130610_writeDataEPKhh:00000018 .LVL34
     /tmp/cc7wpQ70.s:658    .text._ZN7Ssd130610_writeDataEPKhh:0000005c .LVL40
     /tmp/cc7wpQ70.s:710    .text._ZN7Ssd130610_writeDataEPKhh:0000009c .LVL46
     /tmp/cc7wpQ70.s:722    .text._ZN7Ssd130610_writeDataEPKhh:000000a4 .LVL47
     /tmp/cc7wpQ70.s:728    .text._ZN7Ssd130610_writeDataEPKhh:000000aa .LVL48
     /tmp/cc7wpQ70.s:731    .text._ZN7Ssd130610_writeDataEPKhh:000000ac .LVL49
     /tmp/cc7wpQ70.s:756    .text._ZN7Ssd130610_writeDataEPKhh:000000cc .LVL51
     /tmp/cc7wpQ70.s:445    .text._ZN7Ssd130617_writeCommandListEPKhh:00000002 .LCFI7
     /tmp/cc7wpQ70.s:449    .text._ZN7Ssd130617_writeCommandListEPKhh:00000004 .LCFI8
     /tmp/cc7wpQ70.s:453    .text._ZN7Ssd130617_writeCommandListEPKhh:00000006 .LCFI9
     /tmp/cc7wpQ70.s:457    .text._ZN7Ssd130617_writeCommandListEPKhh:00000008 .LCFI10
     /tmp/cc7wpQ70.s:461    .text._ZN7Ssd130617_writeCommandListEPKhh:0000000a .LCFI11
     /tmp/cc7wpQ70.s:465    .text._ZN7Ssd130617_writeCommandListEPKhh:0000000c .LCFI12
     /tmp/cc7wpQ70.s:439    .text._ZN7Ssd130617_writeCommandListEPKhh:00000000 .LVL21
     /tmp/cc7wpQ70.s:482    .text._ZN7Ssd130617_writeCommandListEPKhh:00000016 .LVL23
     /tmp/cc7wpQ70.s:541    .text._ZN7Ssd130617_writeCommandListEPKhh:00000040 .LVL31
     /tmp/cc7wpQ70.s:545    .text._ZN7Ssd130617_writeCommandListEPKhh:00000044 .LVL32
     /tmp/cc7wpQ70.s:534    .text._ZN7Ssd130617_writeCommandListEPKhh:0000003a .LVL29
     /tmp/cc7wpQ70.s:476    .text._ZN7Ssd130617_writeCommandListEPKhh:00000012 .LVL22
     /tmp/cc7wpQ70.s:537    .text._ZN7Ssd130617_writeCommandListEPKhh:0000003c .LVL30
     /tmp/cc7wpQ70.s:486    .text._ZN7Ssd130617_writeCommandListEPKhh:00000018 .LVL24
     /tmp/cc7wpQ70.s:498    .text._ZN7Ssd130617_writeCommandListEPKhh:00000022 .LVL25
     /tmp/cc7wpQ70.s:517    .text._ZN7Ssd130617_writeCommandListEPKhh:00000030 .LVL28
     /tmp/cc7wpQ70.s:505    .text._ZN7Ssd130617_writeCommandListEPKhh:00000024 .LVL26
     /tmp/cc7wpQ70.s:279    .text._ZN7Ssd130613_writeCommandEh:00000002 .LCFI0
     /tmp/cc7wpQ70.s:283    .text._ZN7Ssd130613_writeCommandEh:00000004 .LCFI1
     /tmp/cc7wpQ70.s:287    .text._ZN7Ssd130613_writeCommandEh:00000006 .LCFI2
     /tmp/cc7wpQ70.s:291    .text._ZN7Ssd130613_writeCommandEh:00000008 .LCFI3
     /tmp/cc7wpQ70.s:295    .text._ZN7Ssd130613_writeCommandEh:0000000a .LCFI4
     /tmp/cc7wpQ70.s:299    .text._ZN7Ssd130613_writeCommandEh:0000000c .LCFI5
     /tmp/cc7wpQ70.s:303    .text._ZN7Ssd130613_writeCommandEh:00000010 .LCFI6
     /tmp/cc7wpQ70.s:273    .text._ZN7Ssd130613_writeCommandEh:00000000 .LVL12
     /tmp/cc7wpQ70.s:318    .text._ZN7Ssd130613_writeCommandEh:0000001a .LVL13
     /tmp/cc7wpQ70.s:381    .text._ZN7Ssd130613_writeCommandEh:00000072 .LVL17
     /tmp/cc7wpQ70.s:385    .text._ZN7Ssd130613_writeCommandEh:00000076 .LVL18
     /tmp/cc7wpQ70.s:321    .text._ZN7Ssd130613_writeCommandEh:0000001c .LVL14
     /tmp/cc7wpQ70.s:5092   .text._ZN7Ssd13069drawVLineEhhh:00000002 .LCFI165
     /tmp/cc7wpQ70.s:5096   .text._ZN7Ssd13069drawVLineEhhh:00000004 .LCFI166
     /tmp/cc7wpQ70.s:5100   .text._ZN7Ssd13069drawVLineEhhh:00000006 .LCFI167
     /tmp/cc7wpQ70.s:5104   .text._ZN7Ssd13069drawVLineEhhh:00000008 .LCFI168
GAS LISTING /tmp/cc7wpQ70.s 			page 183


     /tmp/cc7wpQ70.s:5108   .text._ZN7Ssd13069drawVLineEhhh:0000000a .LCFI169
     /tmp/cc7wpQ70.s:5112   .text._ZN7Ssd13069drawVLineEhhh:0000000c .LCFI170
     /tmp/cc7wpQ70.s:5116   .text._ZN7Ssd13069drawVLineEhhh:0000000e .LCFI171
     /tmp/cc7wpQ70.s:5120   .text._ZN7Ssd13069drawVLineEhhh:00000010 .LCFI172
     /tmp/cc7wpQ70.s:5124   .text._ZN7Ssd13069drawVLineEhhh:00000012 .LCFI173
     /tmp/cc7wpQ70.s:5128   .text._ZN7Ssd13069drawVLineEhhh:00000014 .LCFI174
     /tmp/cc7wpQ70.s:5132   .text._ZN7Ssd13069drawVLineEhhh:00000016 .LCFI175
     /tmp/cc7wpQ70.s:5136   .text._ZN7Ssd13069drawVLineEhhh:00000018 .LCFI176
     /tmp/cc7wpQ70.s:5140   .text._ZN7Ssd13069drawVLineEhhh:0000001c .LCFI177
     /tmp/cc7wpQ70.s:5086   .text._ZN7Ssd13069drawVLineEhhh:00000000 .LVL375
     /tmp/cc7wpQ70.s:5239   .text._ZN7Ssd13069drawVLineEhhh:00000084 .LVL381
     /tmp/cc7wpQ70.s:5255   .text._ZN7Ssd13069drawVLineEhhh:00000094 .LVL385
     /tmp/cc7wpQ70.s:5250   .text._ZN7Ssd13069drawVLineEhhh:0000008e .LVL384
     /tmp/cc7wpQ70.s:5244   .text._ZN7Ssd13069drawVLineEhhh:0000008a .LVL382
     /tmp/cc7wpQ70.s:5247   .text._ZN7Ssd13069drawVLineEhhh:0000008c .LVL383
     /tmp/cc7wpQ70.s:5195   .text._ZN7Ssd13069drawVLineEhhh:0000005a .LVL377
     /tmp/cc7wpQ70.s:5215   .text._ZN7Ssd13069drawVLineEhhh:0000006c .LVL380
     /tmp/cc7wpQ70.s:5305   .text._ZN7Ssd13069drawVLineEhhh:000000c4 .LVL390
     /tmp/cc7wpQ70.s:5264   .text._ZN7Ssd13069drawVLineEhhh:00000098 .LVL386
     /tmp/cc7wpQ70.s:5300   .text._ZN7Ssd13069drawVLineEhhh:000000c0 .LVL389
     /tmp/cc7wpQ70.s:5212   .text._ZN7Ssd13069drawVLineEhhh:0000006a .LVL379
     /tmp/cc7wpQ70.s:5320   .text._ZN7Ssd13069drawVLineEhhh:000000cc .LVL392
     /tmp/cc7wpQ70.s:5375   .text._ZN7Ssd13069drawVLineEhhh:0000010a .LVL397
     /tmp/cc7wpQ70.s:5393   .text._ZN7Ssd13069drawVLineEhhh:0000011e .LVL398
     /tmp/cc7wpQ70.s:5423   .text._ZN7Ssd13069drawVLineEhhh:00000136 .LVL402
     /tmp/cc7wpQ70.s:5315   .text._ZN7Ssd13069drawVLineEhhh:000000c8 .LVL391
     /tmp/cc7wpQ70.s:5401   .text._ZN7Ssd13069drawVLineEhhh:00000126 .LVL399
     /tmp/cc7wpQ70.s:5413   .text._ZN7Ssd13069drawVLineEhhh:00000132 .LVL400
     /tmp/cc7wpQ70.s:5353   .text._ZN7Ssd13069drawVLineEhhh:000000ee .LVL394
     /tmp/cc7wpQ70.s:5419   .text._ZN7Ssd13069drawVLineEhhh:00000134 .LVL401
     /tmp/cc7wpQ70.s:4759   .text._ZN7Ssd13069drawHLineEhhh:00000002 .LCFI153
     /tmp/cc7wpQ70.s:4763   .text._ZN7Ssd13069drawHLineEhhh:00000004 .LCFI154
     /tmp/cc7wpQ70.s:4767   .text._ZN7Ssd13069drawHLineEhhh:00000006 .LCFI155
     /tmp/cc7wpQ70.s:4771   .text._ZN7Ssd13069drawHLineEhhh:00000008 .LCFI156
     /tmp/cc7wpQ70.s:4775   .text._ZN7Ssd13069drawHLineEhhh:0000000a .LCFI157
     /tmp/cc7wpQ70.s:4779   .text._ZN7Ssd13069drawHLineEhhh:0000000c .LCFI158
     /tmp/cc7wpQ70.s:4783   .text._ZN7Ssd13069drawHLineEhhh:0000000e .LCFI159
     /tmp/cc7wpQ70.s:4787   .text._ZN7Ssd13069drawHLineEhhh:00000010 .LCFI160
     /tmp/cc7wpQ70.s:4791   .text._ZN7Ssd13069drawHLineEhhh:00000012 .LCFI161
     /tmp/cc7wpQ70.s:4795   .text._ZN7Ssd13069drawHLineEhhh:00000014 .LCFI162
     /tmp/cc7wpQ70.s:4800   .text._ZN7Ssd13069drawHLineEhhh:00000018 .LCFI163
     /tmp/cc7wpQ70.s:4803   .text._ZN7Ssd13069drawHLineEhhh:0000001a .LCFI164
     /tmp/cc7wpQ70.s:4753   .text._ZN7Ssd13069drawHLineEhhh:00000000 .LVL352
     /tmp/cc7wpQ70.s:4926   .text._ZN7Ssd13069drawHLineEhhh:000000a4 .LVL359
     /tmp/cc7wpQ70.s:4935   .text._ZN7Ssd13069drawHLineEhhh:000000ae .LVL361
     /tmp/cc7wpQ70.s:4909   .text._ZN7Ssd13069drawHLineEhhh:0000008a .LVL358
     /tmp/cc7wpQ70.s:5020   .text._ZN7Ssd13069drawHLineEhhh:00000104 .LVL369
     /tmp/cc7wpQ70.s:4930   .text._ZN7Ssd13069drawHLineEhhh:000000a8 .LVL360
     /tmp/cc7wpQ70.s:4944   .text._ZN7Ssd13069drawHLineEhhh:000000b2 .LVL362
     /tmp/cc7wpQ70.s:4982   .text._ZN7Ssd13069drawHLineEhhh:000000dc .LVL365
     /tmp/cc7wpQ70.s:4883   .text._ZN7Ssd13069drawHLineEhhh:00000078 .LVL355
     /tmp/cc7wpQ70.s:4894   .text._ZN7Ssd13069drawHLineEhhh:0000007e .LVL357
     /tmp/cc7wpQ70.s:4868   .text._ZN7Ssd13069drawHLineEhhh:00000068 .LVL354
     /tmp/cc7wpQ70.s:4887   .text._ZN7Ssd13069drawHLineEhhh:0000007a .LVL356
     /tmp/cc7wpQ70.s:5075   .text._ZN7Ssd13069drawHLineEhhh:00000134 .LVL374
     /tmp/cc7wpQ70.s:5011   .text._ZN7Ssd13069drawHLineEhhh:000000f8 .LVL367
     /tmp/cc7wpQ70.s:5026   .text._ZN7Ssd13069drawHLineEhhh:00000106 .LVL370
GAS LISTING /tmp/cc7wpQ70.s 			page 184


     /tmp/cc7wpQ70.s:5042   .text._ZN7Ssd13069drawHLineEhhh:0000011a .LVL372
     /tmp/cc7wpQ70.s:5070   .text._ZN7Ssd13069drawHLineEhhh:00000132 .LVL373
     /tmp/cc7wpQ70.s:4212   .text._ZN7Ssd13068drawRectEhhhh:00000002 .LCFI138
     /tmp/cc7wpQ70.s:4216   .text._ZN7Ssd13068drawRectEhhhh:00000004 .LCFI139
     /tmp/cc7wpQ70.s:4220   .text._ZN7Ssd13068drawRectEhhhh:00000006 .LCFI140
     /tmp/cc7wpQ70.s:4224   .text._ZN7Ssd13068drawRectEhhhh:00000008 .LCFI141
     /tmp/cc7wpQ70.s:4228   .text._ZN7Ssd13068drawRectEhhhh:0000000a .LCFI142
     /tmp/cc7wpQ70.s:4232   .text._ZN7Ssd13068drawRectEhhhh:0000000c .LCFI143
     /tmp/cc7wpQ70.s:4236   .text._ZN7Ssd13068drawRectEhhhh:0000000e .LCFI144
     /tmp/cc7wpQ70.s:4240   .text._ZN7Ssd13068drawRectEhhhh:00000010 .LCFI145
     /tmp/cc7wpQ70.s:4244   .text._ZN7Ssd13068drawRectEhhhh:00000012 .LCFI146
     /tmp/cc7wpQ70.s:4248   .text._ZN7Ssd13068drawRectEhhhh:00000014 .LCFI147
     /tmp/cc7wpQ70.s:4252   .text._ZN7Ssd13068drawRectEhhhh:00000016 .LCFI148
     /tmp/cc7wpQ70.s:4256   .text._ZN7Ssd13068drawRectEhhhh:00000018 .LCFI149
     /tmp/cc7wpQ70.s:4260   .text._ZN7Ssd13068drawRectEhhhh:0000001a .LCFI150
     /tmp/cc7wpQ70.s:4265   .text._ZN7Ssd13068drawRectEhhhh:0000001e .LCFI151
     /tmp/cc7wpQ70.s:4268   .text._ZN7Ssd13068drawRectEhhhh:00000020 .LCFI152
     /tmp/cc7wpQ70.s:4206   .text._ZN7Ssd13068drawRectEhhhh:00000000 .LVL299
     /tmp/cc7wpQ70.s:4391   .text._ZN7Ssd13068drawRectEhhhh:000000a4 .LVL308
     /tmp/cc7wpQ70.s:4403   .text._ZN7Ssd13068drawRectEhhhh:000000b4 .LVL310
     /tmp/cc7wpQ70.s:4399   .text._ZN7Ssd13068drawRectEhhhh:000000b0 .LVL309
     /tmp/cc7wpQ70.s:4374   .text._ZN7Ssd13068drawRectEhhhh:0000008a .LVL307
     /tmp/cc7wpQ70.s:4464   .text._ZN7Ssd13068drawRectEhhhh:000000fc .LVL315
     /tmp/cc7wpQ70.s:4560   .text._ZN7Ssd13068drawRectEhhhh:00000160 .LVL328
     /tmp/cc7wpQ70.s:4341   .text._ZN7Ssd13068drawRectEhhhh:00000072 .LVL303
     /tmp/cc7wpQ70.s:4359   .text._ZN7Ssd13068drawRectEhhhh:0000007e .LVL306
     /tmp/cc7wpQ70.s:4518   .text._ZN7Ssd13068drawRectEhhhh:00000132 .LVL323
     /tmp/cc7wpQ70.s:4515   .text._ZN7Ssd13068drawRectEhhhh:00000130 .LVL322
     /tmp/cc7wpQ70.s:4322   .text._ZN7Ssd13068drawRectEhhhh:0000005e .LVL301
     /tmp/cc7wpQ70.s:4345   .text._ZN7Ssd13068drawRectEhhhh:00000074 .LVL304
     /tmp/cc7wpQ70.s:4327   .text._ZN7Ssd13068drawRectEhhhh:00000062 .LVL302
     /tmp/cc7wpQ70.s:4352   .text._ZN7Ssd13068drawRectEhhhh:0000007a .LVL305
     /tmp/cc7wpQ70.s:4420   .text._ZN7Ssd13068drawRectEhhhh:000000c8 .LVL311
     /tmp/cc7wpQ70.s:4449   .text._ZN7Ssd13068drawRectEhhhh:000000ec .LVL313
     /tmp/cc7wpQ70.s:4430   .text._ZN7Ssd13068drawRectEhhhh:000000d4 .LVL312
     /tmp/cc7wpQ70.s:4457   .text._ZN7Ssd13068drawRectEhhhh:000000f6 .LVL314
     /tmp/cc7wpQ70.s:4470   .text._ZN7Ssd13068drawRectEhhhh:00000102 .LVL316
     /tmp/cc7wpQ70.s:4476   .text._ZN7Ssd13068drawRectEhhhh:00000108 .LVL317
     /tmp/cc7wpQ70.s:4504   .text._ZN7Ssd13068drawRectEhhhh:0000012c .LVL320
     /tmp/cc7wpQ70.s:4507   .text._ZN7Ssd13068drawRectEhhhh:0000012e .LVL321
     /tmp/cc7wpQ70.s:4543   .text._ZN7Ssd13068drawRectEhhhh:00000154 .LVL326
     /tmp/cc7wpQ70.s:4546   .text._ZN7Ssd13068drawRectEhhhh:00000156 .LVL327
     /tmp/cc7wpQ70.s:4669   .text._ZN7Ssd13068drawRectEhhhh:000001b8 .LVL343
     /tmp/cc7wpQ70.s:4676   .text._ZN7Ssd13068drawRectEhhhh:000001bc .LVL344
     /tmp/cc7wpQ70.s:4719   .text._ZN7Ssd13068drawRectEhhhh:000001ea .LVL350
     /tmp/cc7wpQ70.s:4733   .text._ZN7Ssd13068drawRectEhhhh:000001f2 .LVL351
     /tmp/cc7wpQ70.s:4681   .text._ZN7Ssd13068drawRectEhhhh:000001c0 .LVL345
     /tmp/cc7wpQ70.s:4570   .text._ZN7Ssd13068drawRectEhhhh:00000164 .LVL329
     /tmp/cc7wpQ70.s:4582   .text._ZN7Ssd13068drawRectEhhhh:0000016a .LVL331
     /tmp/cc7wpQ70.s:4601   .text._ZN7Ssd13068drawRectEhhhh:0000017c .LVL334
     /tmp/cc7wpQ70.s:4639   .text._ZN7Ssd13068drawRectEhhhh:0000019e .LVL339
     /tmp/cc7wpQ70.s:4655   .text._ZN7Ssd13068drawRectEhhhh:000001b2 .LVL341
     /tmp/cc7wpQ70.s:4663   .text._ZN7Ssd13068drawRectEhhhh:000001b6 .LVL342
     /tmp/cc7wpQ70.s:4700   .text._ZN7Ssd13068drawRectEhhhh:000001d4 .LVL347
     /tmp/cc7wpQ70.s:4709   .text._ZN7Ssd13068drawRectEhhhh:000001de .LVL348
     /tmp/cc7wpQ70.s:4576   .text._ZN7Ssd13068drawRectEhhhh:00000166 .LVL330
     /tmp/cc7wpQ70.s:4592   .text._ZN7Ssd13068drawRectEhhhh:00000178 .LVL332
GAS LISTING /tmp/cc7wpQ70.s 			page 185


     /tmp/cc7wpQ70.s:4608   .text._ZN7Ssd13068drawRectEhhhh:00000180 .LVL335
     /tmp/cc7wpQ70.s:4624   .text._ZN7Ssd13068drawRectEhhhh:00000192 .LVL336
     /tmp/cc7wpQ70.s:4631   .text._ZN7Ssd13068drawRectEhhhh:00000198 .LVL337
     /tmp/cc7wpQ70.s:4634   .text._ZN7Ssd13068drawRectEhhhh:0000019a .LVL338
     /tmp/cc7wpQ70.s:3769   .text._ZN7Ssd13068fillRectEhhhhb:00000002 .LCFI121
     /tmp/cc7wpQ70.s:3773   .text._ZN7Ssd13068fillRectEhhhhb:00000004 .LCFI122
     /tmp/cc7wpQ70.s:3777   .text._ZN7Ssd13068fillRectEhhhhb:00000006 .LCFI123
     /tmp/cc7wpQ70.s:3781   .text._ZN7Ssd13068fillRectEhhhhb:00000008 .LCFI124
     /tmp/cc7wpQ70.s:3785   .text._ZN7Ssd13068fillRectEhhhhb:0000000a .LCFI125
     /tmp/cc7wpQ70.s:3789   .text._ZN7Ssd13068fillRectEhhhhb:0000000c .LCFI126
     /tmp/cc7wpQ70.s:3793   .text._ZN7Ssd13068fillRectEhhhhb:0000000e .LCFI127
     /tmp/cc7wpQ70.s:3797   .text._ZN7Ssd13068fillRectEhhhhb:00000010 .LCFI128
     /tmp/cc7wpQ70.s:3801   .text._ZN7Ssd13068fillRectEhhhhb:00000012 .LCFI129
     /tmp/cc7wpQ70.s:3805   .text._ZN7Ssd13068fillRectEhhhhb:00000014 .LCFI130
     /tmp/cc7wpQ70.s:3809   .text._ZN7Ssd13068fillRectEhhhhb:00000016 .LCFI131
     /tmp/cc7wpQ70.s:3813   .text._ZN7Ssd13068fillRectEhhhhb:00000018 .LCFI132
     /tmp/cc7wpQ70.s:3817   .text._ZN7Ssd13068fillRectEhhhhb:0000001a .LCFI133
     /tmp/cc7wpQ70.s:3821   .text._ZN7Ssd13068fillRectEhhhhb:0000001c .LCFI134
     /tmp/cc7wpQ70.s:3825   .text._ZN7Ssd13068fillRectEhhhhb:0000001e .LCFI135
     /tmp/cc7wpQ70.s:3830   .text._ZN7Ssd13068fillRectEhhhhb:00000022 .LCFI136
     /tmp/cc7wpQ70.s:3833   .text._ZN7Ssd13068fillRectEhhhhb:00000024 .LCFI137
     /tmp/cc7wpQ70.s:3763   .text._ZN7Ssd13068fillRectEhhhhb:00000000 .LVL264
     /tmp/cc7wpQ70.s:3969   .text._ZN7Ssd13068fillRectEhhhhb:000000b6 .LVL274
     /tmp/cc7wpQ70.s:3979   .text._ZN7Ssd13068fillRectEhhhhb:000000c6 .LVL275
     /tmp/cc7wpQ70.s:3962   .text._ZN7Ssd13068fillRectEhhhhb:000000b0 .LVL272
     /tmp/cc7wpQ70.s:3946   .text._ZN7Ssd13068fillRectEhhhhb:00000098 .LVL271
     /tmp/cc7wpQ70.s:4098   .text._ZN7Ssd13068fillRectEhhhhb:0000013a .LVL288
     /tmp/cc7wpQ70.s:3916   .text._ZN7Ssd13068fillRectEhhhhb:00000082 .LVL268
     /tmp/cc7wpQ70.s:3931   .text._ZN7Ssd13068fillRectEhhhhb:0000008c .LVL270
     /tmp/cc7wpQ70.s:4081   .text._ZN7Ssd13068fillRectEhhhhb:0000012a .LVL286
     /tmp/cc7wpQ70.s:3900   .text._ZN7Ssd13068fillRectEhhhhb:0000006e .LVL267
     /tmp/cc7wpQ70.s:3991   .text._ZN7Ssd13068fillRectEhhhhb:000000d0 .LVL276
     /tmp/cc7wpQ70.s:4073   .text._ZN7Ssd13068fillRectEhhhhb:00000126 .LVL285
     /tmp/cc7wpQ70.s:3965   .text._ZN7Ssd13068fillRectEhhhhb:000000b2 .LVL273
     /tmp/cc7wpQ70.s:3895   .text._ZN7Ssd13068fillRectEhhhhb:0000006c .LVL266
     /tmp/cc7wpQ70.s:3924   .text._ZN7Ssd13068fillRectEhhhhb:00000088 .LVL269
     /tmp/cc7wpQ70.s:4000   .text._ZN7Ssd13068fillRectEhhhhb:000000de .LVL277
     /tmp/cc7wpQ70.s:4010   .text._ZN7Ssd13068fillRectEhhhhb:000000ea .LVL278
     /tmp/cc7wpQ70.s:4013   .text._ZN7Ssd13068fillRectEhhhhb:000000ec .LVL279
     /tmp/cc7wpQ70.s:4044   .text._ZN7Ssd13068fillRectEhhhhb:00000110 .LVL282
     /tmp/cc7wpQ70.s:4055   .text._ZN7Ssd13068fillRectEhhhhb:0000011a .LVL283
     /tmp/cc7wpQ70.s:4058   .text._ZN7Ssd13068fillRectEhhhhb:0000011c .LVL284
     /tmp/cc7wpQ70.s:4170   .text._ZN7Ssd13068fillRectEhhhhb:0000017c .LVL295
     /tmp/cc7wpQ70.s:4173   .text._ZN7Ssd13068fillRectEhhhhb:0000017e .LVL296
     /tmp/cc7wpQ70.s:4124   .text._ZN7Ssd13068fillRectEhhhhb:00000154 .LVL290
     /tmp/cc7wpQ70.s:4162   .text._ZN7Ssd13068fillRectEhhhhb:00000176 .LVL294
     /tmp/cc7wpQ70.s:4186   .text._ZN7Ssd13068fillRectEhhhhb:00000186 .LVL297
     /tmp/cc7wpQ70.s:4193   .text._ZN7Ssd13068fillRectEhhhhb:00000188 .LVL298
     /tmp/cc7wpQ70.s:4130   .text._ZN7Ssd13068fillRectEhhhhb:00000156 .LVL291
     /tmp/cc7wpQ70.s:4146   .text._ZN7Ssd13068fillRectEhhhhb:0000016a .LVL293
     /tmp/cc7wpQ70.s:3418   .text._ZN7Ssd13068drawLineEhhhhb:00000002 .LCFI101
     /tmp/cc7wpQ70.s:3422   .text._ZN7Ssd13068drawLineEhhhhb:00000004 .LCFI102
     /tmp/cc7wpQ70.s:3426   .text._ZN7Ssd13068drawLineEhhhhb:00000006 .LCFI103
     /tmp/cc7wpQ70.s:3430   .text._ZN7Ssd13068drawLineEhhhhb:00000008 .LCFI104
     /tmp/cc7wpQ70.s:3434   .text._ZN7Ssd13068drawLineEhhhhb:0000000a .LCFI105
     /tmp/cc7wpQ70.s:3438   .text._ZN7Ssd13068drawLineEhhhhb:0000000c .LCFI106
     /tmp/cc7wpQ70.s:3442   .text._ZN7Ssd13068drawLineEhhhhb:0000000e .LCFI107
GAS LISTING /tmp/cc7wpQ70.s 			page 186


     /tmp/cc7wpQ70.s:3446   .text._ZN7Ssd13068drawLineEhhhhb:00000010 .LCFI108
     /tmp/cc7wpQ70.s:3450   .text._ZN7Ssd13068drawLineEhhhhb:00000012 .LCFI109
     /tmp/cc7wpQ70.s:3454   .text._ZN7Ssd13068drawLineEhhhhb:00000014 .LCFI110
     /tmp/cc7wpQ70.s:3458   .text._ZN7Ssd13068drawLineEhhhhb:00000016 .LCFI111
     /tmp/cc7wpQ70.s:3462   .text._ZN7Ssd13068drawLineEhhhhb:00000018 .LCFI112
     /tmp/cc7wpQ70.s:3466   .text._ZN7Ssd13068drawLineEhhhhb:0000001a .LCFI113
     /tmp/cc7wpQ70.s:3470   .text._ZN7Ssd13068drawLineEhhhhb:0000001c .LCFI114
     /tmp/cc7wpQ70.s:3474   .text._ZN7Ssd13068drawLineEhhhhb:0000001e .LCFI115
     /tmp/cc7wpQ70.s:3478   .text._ZN7Ssd13068drawLineEhhhhb:00000020 .LCFI116
     /tmp/cc7wpQ70.s:3482   .text._ZN7Ssd13068drawLineEhhhhb:00000022 .LCFI117
     /tmp/cc7wpQ70.s:3486   .text._ZN7Ssd13068drawLineEhhhhb:00000024 .LCFI118
     /tmp/cc7wpQ70.s:3491   .text._ZN7Ssd13068drawLineEhhhhb:00000028 .LCFI119
     /tmp/cc7wpQ70.s:3495   .text._ZN7Ssd13068drawLineEhhhhb:0000002c .LCFI120
     /tmp/cc7wpQ70.s:3412   .text._ZN7Ssd13068drawLineEhhhhb:00000000 .LVL233
     /tmp/cc7wpQ70.s:3739   .text._ZN7Ssd13068drawLineEhhhhb:0000012e .LVL260
     /tmp/cc7wpQ70.s:3744   .text._ZN7Ssd13068drawLineEhhhhb:00000134 .LVL261
     /tmp/cc7wpQ70.s:3732   .text._ZN7Ssd13068drawLineEhhhhb:00000124 .LVL259
     /tmp/cc7wpQ70.s:3750   .text._ZN7Ssd13068drawLineEhhhhb:0000013c .LVL262
     /tmp/cc7wpQ70.s:3532   .text._ZN7Ssd13068drawLineEhhhhb:00000056 .LVL235
     /tmp/cc7wpQ70.s:3753   .text._ZN7Ssd13068drawLineEhhhhb:0000013e .LVL263
     /tmp/cc7wpQ70.s:3589   .text._ZN7Ssd13068drawLineEhhhhb:0000008e .LVL242
     /tmp/cc7wpQ70.s:3653   .text._ZN7Ssd13068drawLineEhhhhb:000000d0 .LVL251
     /tmp/cc7wpQ70.s:3701   .text._ZN7Ssd13068drawLineEhhhhb:00000100 .LVL257
     /tmp/cc7wpQ70.s:3535   .text._ZN7Ssd13068drawLineEhhhhb:00000058 .LVL236
     /tmp/cc7wpQ70.s:3667   .text._ZN7Ssd13068drawLineEhhhhb:000000da .LVL252
     /tmp/cc7wpQ70.s:3718   .text._ZN7Ssd13068drawLineEhhhhb:00000110 .LVL258
     /tmp/cc7wpQ70.s:3542   .text._ZN7Ssd13068drawLineEhhhhb:00000060 .LVL237
     /tmp/cc7wpQ70.s:3564   .text._ZN7Ssd13068drawLineEhhhhb:00000078 .LVL239
     /tmp/cc7wpQ70.s:3650   .text._ZN7Ssd13068drawLineEhhhhb:000000ce .LVL250
     /tmp/cc7wpQ70.s:3682   .text._ZN7Ssd13068drawLineEhhhhb:000000ea .LVL254
     /tmp/cc7wpQ70.s:3553   .text._ZN7Ssd13068drawLineEhhhhb:0000006c .LVL238
     /tmp/cc7wpQ70.s:3674   .text._ZN7Ssd13068drawLineEhhhhb:000000e2 .LVL253
     /tmp/cc7wpQ70.s:3687   .text._ZN7Ssd13068drawLineEhhhhb:000000f0 .LVL255
     /tmp/cc7wpQ70.s:3575   .text._ZN7Ssd13068drawLineEhhhhb:00000082 .LVL240
     /tmp/cc7wpQ70.s:3694   .text._ZN7Ssd13068drawLineEhhhhb:000000f8 .LVL256
     /tmp/cc7wpQ70.s:3585   .text._ZN7Ssd13068drawLineEhhhhb:0000008c .LVL241
     /tmp/cc7wpQ70.s:3593   .text._ZN7Ssd13068drawLineEhhhhb:00000092 .LVL243
     /tmp/cc7wpQ70.s:3615   .text._ZN7Ssd13068drawLineEhhhhb:000000aa .LVL245
     /tmp/cc7wpQ70.s:3644   .text._ZN7Ssd13068drawLineEhhhhb:000000c6 .LVL249
     /tmp/cc7wpQ70.s:3281   .text._ZN7Ssd13069drawPixelEhhb:00000002 .LCFI95
     /tmp/cc7wpQ70.s:3285   .text._ZN7Ssd13069drawPixelEhhb:00000004 .LCFI96
     /tmp/cc7wpQ70.s:3289   .text._ZN7Ssd13069drawPixelEhhb:00000006 .LCFI97
     /tmp/cc7wpQ70.s:3293   .text._ZN7Ssd13069drawPixelEhhb:00000008 .LCFI98
     /tmp/cc7wpQ70.s:3297   .text._ZN7Ssd13069drawPixelEhhb:0000000a .LCFI99
     /tmp/cc7wpQ70.s:3301   .text._ZN7Ssd13069drawPixelEhhb:0000000c .LCFI100
     /tmp/cc7wpQ70.s:3275   .text._ZN7Ssd13069drawPixelEhhb:00000000 .LVL225
     /tmp/cc7wpQ70.s:3366   .text._ZN7Ssd13069drawPixelEhhb:00000052 .LVL228
     /tmp/cc7wpQ70.s:3375   .text._ZN7Ssd13069drawPixelEhhb:00000058 .LVL231
     /tmp/cc7wpQ70.s:3361   .text._ZN7Ssd13069drawPixelEhhb:0000004c .LVL227
     /tmp/cc7wpQ70.s:3369   .text._ZN7Ssd13069drawPixelEhhb:00000054 .LVL229
     /tmp/cc7wpQ70.s:3372   .text._ZN7Ssd13069drawPixelEhhb:00000056 .LVL230
     /tmp/cc7wpQ70.s:3152   .text._ZN7Ssd13065printEPKc:00000002 .LCFI88
     /tmp/cc7wpQ70.s:3156   .text._ZN7Ssd13065printEPKc:00000004 .LCFI89
     /tmp/cc7wpQ70.s:3160   .text._ZN7Ssd13065printEPKc:00000006 .LCFI90
     /tmp/cc7wpQ70.s:3164   .text._ZN7Ssd13065printEPKc:00000008 .LCFI91
     /tmp/cc7wpQ70.s:3168   .text._ZN7Ssd13065printEPKc:0000000a .LCFI92
     /tmp/cc7wpQ70.s:3172   .text._ZN7Ssd13065printEPKc:0000000c .LCFI93
GAS LISTING /tmp/cc7wpQ70.s 			page 187


     /tmp/cc7wpQ70.s:3176   .text._ZN7Ssd13065printEPKc:0000000e .LCFI94
     /tmp/cc7wpQ70.s:3146   .text._ZN7Ssd13065printEPKc:00000000 .LVL216
     /tmp/cc7wpQ70.s:3260   .text._ZN7Ssd13065printEPKc:00000062 .LVL223
     /tmp/cc7wpQ70.s:3264   .text._ZN7Ssd13065printEPKc:00000066 .LVL224
     /tmp/cc7wpQ70.s:3187   .text._ZN7Ssd13065printEPKc:00000012 .LVL217
     /tmp/cc7wpQ70.s:3218   .text._ZN7Ssd13065printEPKc:00000036 .LVL219
     /tmp/cc7wpQ70.s:3251   .text._ZN7Ssd13065printEPKc:00000058 .LVL222
     /tmp/cc7wpQ70.s:2991   .text._ZN7Ssd13065printEc:00000002 .LCFI84
     /tmp/cc7wpQ70.s:2995   .text._ZN7Ssd13065printEc:00000004 .LCFI85
     /tmp/cc7wpQ70.s:2999   .text._ZN7Ssd13065printEc:00000006 .LCFI86
     /tmp/cc7wpQ70.s:3003   .text._ZN7Ssd13065printEc:00000008 .LCFI87
     /tmp/cc7wpQ70.s:2985   .text._ZN7Ssd13065printEc:00000000 .LVL206
     /tmp/cc7wpQ70.s:3095   .text._ZN7Ssd13065printEc:00000070 .LVL209
     /tmp/cc7wpQ70.s:3102   .text._ZN7Ssd13065printEc:00000076 .LVL211
     /tmp/cc7wpQ70.s:3098   .text._ZN7Ssd13065printEc:00000072 .LVL210
     /tmp/cc7wpQ70.s:226    .text._ZN7Ssd13065stdioEv:00000000 .LVL10
     /tmp/cc7wpQ70.s:262    .text._ZN7Ssd13065stdioEv:00000024 .LVL11
     /tmp/cc7wpQ70.s:2877   .text._ZN7Ssd130614setCursorPixelEhh:00000002 .LCFI80
     /tmp/cc7wpQ70.s:2881   .text._ZN7Ssd130614setCursorPixelEhh:00000004 .LCFI81
     /tmp/cc7wpQ70.s:2885   .text._ZN7Ssd130614setCursorPixelEhh:00000006 .LCFI82
     /tmp/cc7wpQ70.s:2889   .text._ZN7Ssd130614setCursorPixelEhh:00000008 .LCFI83
     /tmp/cc7wpQ70.s:2871   .text._ZN7Ssd130614setCursorPixelEhh:00000000 .LVL200
     /tmp/cc7wpQ70.s:2956   .text._ZN7Ssd130614setCursorPixelEhh:00000048 .LVL202
     /tmp/cc7wpQ70.s:2965   .text._ZN7Ssd130614setCursorPixelEhh:0000004e .LVL205
     /tmp/cc7wpQ70.s:2959   .text._ZN7Ssd130614setCursorPixelEhh:0000004a .LVL203
     /tmp/cc7wpQ70.s:2962   .text._ZN7Ssd130614setCursorPixelEhh:0000004c .LVL204
     /tmp/cc7wpQ70.s:2783   .text._ZN7Ssd13069setCursorEhh:00000002 .LCFI76
     /tmp/cc7wpQ70.s:2787   .text._ZN7Ssd13069setCursorEhh:00000004 .LCFI77
     /tmp/cc7wpQ70.s:2791   .text._ZN7Ssd13069setCursorEhh:00000006 .LCFI78
     /tmp/cc7wpQ70.s:2795   .text._ZN7Ssd13069setCursorEhh:00000008 .LCFI79
     /tmp/cc7wpQ70.s:2777   .text._ZN7Ssd13069setCursorEhh:00000000 .LVL195
     /tmp/cc7wpQ70.s:2855   .text._ZN7Ssd13069setCursorEhh:00000040 .LVL197
     /tmp/cc7wpQ70.s:2858   .text._ZN7Ssd13069setCursorEhh:00000042 .LVL198
     /tmp/cc7wpQ70.s:2861   .text._ZN7Ssd13069setCursorEhh:00000044 .LVL199
     /tmp/cc7wpQ70.s:165    .text._ZN7Ssd130611setTextSizeEh:00000000 .LVL5
     /tmp/cc7wpQ70.s:179    .text._ZN7Ssd130611setTextSizeEh:00000004 .LVL6
     /tmp/cc7wpQ70.s:188    .text._ZN7Ssd130611setTextSizeEh:0000000c .LVL7
     /tmp/cc7wpQ70.s:202    .text._ZN7Ssd130611setTextSizeEh:0000001a .LVL8
     /tmp/cc7wpQ70.s:206    .text._ZN7Ssd130611setTextSizeEh:0000001c .LVL9
     /tmp/cc7wpQ70.s:141    .text._ZN7Ssd130612getLastErrorEv:00000000 .LVL3
     /tmp/cc7wpQ70.s:154    .text._ZN7Ssd130612getLastErrorEv:00000006 .LVL4
     /tmp/cc7wpQ70.s:2677   .text._ZN7Ssd130613setUpsideDownEb:00000002 .LCFI71
     /tmp/cc7wpQ70.s:2681   .text._ZN7Ssd130613setUpsideDownEb:00000004 .LCFI72
     /tmp/cc7wpQ70.s:2685   .text._ZN7Ssd130613setUpsideDownEb:00000006 .LCFI73
     /tmp/cc7wpQ70.s:2689   .text._ZN7Ssd130613setUpsideDownEb:00000008 .LCFI74
     /tmp/cc7wpQ70.s:2693   .text._ZN7Ssd130613setUpsideDownEb:0000000a .LCFI75
     /tmp/cc7wpQ70.s:2671   .text._ZN7Ssd130613setUpsideDownEb:00000000 .LVL185
     /tmp/cc7wpQ70.s:2740   .text._ZN7Ssd130613setUpsideDownEb:00000034 .LVL191
     /tmp/cc7wpQ70.s:2744   .text._ZN7Ssd130613setUpsideDownEb:00000038 .LVL192
     /tmp/cc7wpQ70.s:2724   .text._ZN7Ssd130613setUpsideDownEb:00000022 .LVL188
     /tmp/cc7wpQ70.s:2752   .text._ZN7Ssd130613setUpsideDownEb:00000040 .LVL193
     /tmp/cc7wpQ70.s:2720   .text._ZN7Ssd130613setUpsideDownEb:00000020 .LVL187
     /tmp/cc7wpQ70.s:2732   .text._ZN7Ssd130613setUpsideDownEb:0000002c .LVL190
     /tmp/cc7wpQ70.s:2601   .text._ZN7Ssd130611setContrastEh:00000002 .LCFI68
     /tmp/cc7wpQ70.s:2605   .text._ZN7Ssd130611setContrastEh:00000004 .LCFI69
     /tmp/cc7wpQ70.s:2609   .text._ZN7Ssd130611setContrastEh:00000006 .LCFI70
     /tmp/cc7wpQ70.s:2595   .text._ZN7Ssd130611setContrastEh:00000000 .LVL178
GAS LISTING /tmp/cc7wpQ70.s 			page 188


     /tmp/cc7wpQ70.s:2631   .text._ZN7Ssd130611setContrastEh:00000016 .LVL180
     /tmp/cc7wpQ70.s:2637   .text._ZN7Ssd130611setContrastEh:0000001a .LVL182
     /tmp/cc7wpQ70.s:2634   .text._ZN7Ssd130611setContrastEh:00000018 .LVL181
     /tmp/cc7wpQ70.s:2527   .text._ZN7Ssd130615setDisplayStateE10Activation:00000002 .LCFI65
     /tmp/cc7wpQ70.s:2531   .text._ZN7Ssd130615setDisplayStateE10Activation:00000004 .LCFI66
     /tmp/cc7wpQ70.s:2535   .text._ZN7Ssd130615setDisplayStateE10Activation:00000006 .LCFI67
     /tmp/cc7wpQ70.s:2521   .text._ZN7Ssd130615setDisplayStateE10Activation:00000000 .LVL172
     /tmp/cc7wpQ70.s:2577   .text._ZN7Ssd130615setDisplayStateE10Activation:0000002a .LVL175
     /tmp/cc7wpQ70.s:2583   .text._ZN7Ssd130615setDisplayStateE10Activation:0000002e .LVL177
     /tmp/cc7wpQ70.s:2580   .text._ZN7Ssd130615setDisplayStateE10Activation:0000002c .LVL176
     /tmp/cc7wpQ70.s:2018   .text._ZN7Ssd13067displayEv:00000002 .LCFI53
     /tmp/cc7wpQ70.s:2022   .text._ZN7Ssd13067displayEv:00000004 .LCFI54
     /tmp/cc7wpQ70.s:2026   .text._ZN7Ssd13067displayEv:00000006 .LCFI55
     /tmp/cc7wpQ70.s:2030   .text._ZN7Ssd13067displayEv:00000008 .LCFI56
     /tmp/cc7wpQ70.s:2012   .text._ZN7Ssd13067displayEv:00000000 .LVL140
     /tmp/cc7wpQ70.s:2156   .text._ZN7Ssd13067displayEv:0000008a .LVL147
     /tmp/cc7wpQ70.s:2071   .text._ZN7Ssd13067displayEv:0000002c .LVL142
     /tmp/cc7wpQ70.s:2148   .text._ZN7Ssd13067displayEv:00000082 .LVL146
     /tmp/cc7wpQ70.s:1719   .text._ZN7Ssd130611clearScreenEv:00000002 .LCFI43
     /tmp/cc7wpQ70.s:1723   .text._ZN7Ssd130611clearScreenEv:00000004 .LCFI44
     /tmp/cc7wpQ70.s:1727   .text._ZN7Ssd130611clearScreenEv:00000006 .LCFI45
     /tmp/cc7wpQ70.s:1731   .text._ZN7Ssd130611clearScreenEv:00000008 .LCFI46
     /tmp/cc7wpQ70.s:1735   .text._ZN7Ssd130611clearScreenEv:0000000a .LCFI47
     /tmp/cc7wpQ70.s:1739   .text._ZN7Ssd130611clearScreenEv:0000000c .LCFI48
     /tmp/cc7wpQ70.s:1743   .text._ZN7Ssd130611clearScreenEv:0000000e .LCFI49
     /tmp/cc7wpQ70.s:1747   .text._ZN7Ssd130611clearScreenEv:00000010 .LCFI50
     /tmp/cc7wpQ70.s:1752   .text._ZN7Ssd130611clearScreenEv:00000014 .LCFI51
     /tmp/cc7wpQ70.s:1755   .text._ZN7Ssd130611clearScreenEv:00000016 .LCFI52
     /tmp/cc7wpQ70.s:1713   .text._ZN7Ssd130611clearScreenEv:00000000 .LVL121
     /tmp/cc7wpQ70.s:2000   .text._ZN7Ssd130611clearScreenEv:000000fc .LVL139
     /tmp/cc7wpQ70.s:1806   .text._ZN7Ssd130611clearScreenEv:0000004a .LVL123
     /tmp/cc7wpQ70.s:1871   .text._ZN7Ssd130611clearScreenEv:00000088 .LVL127
     /tmp/cc7wpQ70.s:1814   .text._ZN7Ssd130611clearScreenEv:00000050 .LVL124
     /tmp/cc7wpQ70.s:1844   .text._ZN7Ssd130611clearScreenEv:00000070 .LVL126
     /tmp/cc7wpQ70.s:1895   .text._ZN7Ssd130611clearScreenEv:0000009a .LVL129
     /tmp/cc7wpQ70.s:1962   .text._ZN7Ssd130611clearScreenEv:000000d8 .LVL136
     /tmp/cc7wpQ70.s:1965   .text._ZN7Ssd130611clearScreenEv:000000da .LVL137
     /tmp/cc7wpQ70.s:1981   .text._ZN7Ssd130611clearScreenEv:000000e2 .LVL138
     /tmp/cc7wpQ70.s:1918   .text._ZN7Ssd130611clearScreenEv:000000b4 .LVL131
     /tmp/cc7wpQ70.s:1956   .text._ZN7Ssd130611clearScreenEv:000000d6 .LVL135
     /tmp/cc7wpQ70.s:1924   .text._ZN7Ssd130611clearScreenEv:000000b6 .LVL132
     /tmp/cc7wpQ70.s:1940   .text._ZN7Ssd130611clearScreenEv:000000ca .LVL134
     /tmp/cc7wpQ70.s:2172   .text._ZN7Ssd13064initEP3BusNS_4SizeEhPh:00000002 .LCFI57
     /tmp/cc7wpQ70.s:2176   .text._ZN7Ssd13064initEP3BusNS_4SizeEhPh:00000004 .LCFI58
     /tmp/cc7wpQ70.s:2180   .text._ZN7Ssd13064initEP3BusNS_4SizeEhPh:00000006 .LCFI59
     /tmp/cc7wpQ70.s:2184   .text._ZN7Ssd13064initEP3BusNS_4SizeEhPh:00000008 .LCFI60
     /tmp/cc7wpQ70.s:2188   .text._ZN7Ssd13064initEP3BusNS_4SizeEhPh:0000000a .LCFI61
     /tmp/cc7wpQ70.s:2192   .text._ZN7Ssd13064initEP3BusNS_4SizeEhPh:0000000c .LCFI62
     /tmp/cc7wpQ70.s:2196   .text._ZN7Ssd13064initEP3BusNS_4SizeEhPh:0000000e .LCFI63
     /tmp/cc7wpQ70.s:2200   .text._ZN7Ssd13064initEP3BusNS_4SizeEhPh:00000010 .LCFI64
     /tmp/cc7wpQ70.s:2166   .text._ZN7Ssd13064initEP3BusNS_4SizeEhPh:00000000 .LVL148
     /tmp/cc7wpQ70.s:2215   .text._ZN7Ssd13064initEP3BusNS_4SizeEhPh:0000001a .LVL149
     /tmp/cc7wpQ70.s:2260   .text._ZN7Ssd13064initEP3BusNS_4SizeEhPh:0000004e .LVL152
     /tmp/cc7wpQ70.s:2275   .text._ZN7Ssd13064initEP3BusNS_4SizeEhPh:0000005c .LVL156
     /tmp/cc7wpQ70.s:2266   .text._ZN7Ssd13064initEP3BusNS_4SizeEhPh:00000056 .LVL153
     /tmp/cc7wpQ70.s:2269   .text._ZN7Ssd13064initEP3BusNS_4SizeEhPh:00000058 .LVL154
     /tmp/cc7wpQ70.s:2272   .text._ZN7Ssd13064initEP3BusNS_4SizeEhPh:0000005a .LVL155
GAS LISTING /tmp/cc7wpQ70.s 			page 189


     /tmp/cc7wpQ70.s:2253   .text._ZN7Ssd13064initEP3BusNS_4SizeEhPh:00000048 .LVL151
     /tmp/cc7wpQ70.s:2357   .text._ZN7Ssd13064initEP3BusNS_4SizeEhPh:000000b2 .LVL157
     /tmp/cc7wpQ70.s:2483   .text._ZN7Ssd13064initEP3BusNS_4SizeEhPh:0000015e .LVL168
     /tmp/cc7wpQ70.s:2495   .text._ZN7Ssd13064initEP3BusNS_4SizeEhPh:00000168 .LVL169
     /tmp/cc7wpQ70.s:2501   .text._ZN7Ssd13064initEP3BusNS_4SizeEhPh:00000170 .LVL170
     /tmp/cc7wpQ70.s:2364   .text._ZN7Ssd13064initEP3BusNS_4SizeEhPh:000000ba .LVL158
     /tmp/cc7wpQ70.s:15     .text._ZN7Ssd1306C2Ev:00000000 .LVL0
     /tmp/cc7wpQ70.s:33     .text._ZN7Ssd1306C2Ev:0000000a .LVL1
     /tmp/cc7wpQ70.s:5566   .debug_info:00000000 .Ldebug_info0
     /tmp/cc7wpQ70.s:681    .text._ZN7Ssd130610_writeDataEPKhh:00000072 .LBB7
     /tmp/cc7wpQ70.s:713    .text._ZN7Ssd130610_writeDataEPKhh:0000009c .LBE7
     /tmp/cc7wpQ70.s:717    .text._ZN7Ssd130610_writeDataEPKhh:000000a0 .LBB8
     /tmp/cc7wpQ70.s:759    .text._ZN7Ssd130610_writeDataEPKhh:000000cc .LBE8
     /tmp/cc7wpQ70.s:1212   .text._ZN7Ssd130610_writeCharEc:000000c4 .LBB12
     /tmp/cc7wpQ70.s:1309   .text._ZN7Ssd130610_writeCharEc:0000011c .LBE12
     /tmp/cc7wpQ70.s:1318   .text._ZN7Ssd130610_writeCharEc:00000124 .LBB23
     /tmp/cc7wpQ70.s:1369   .text._ZN7Ssd130610_writeCharEc:0000014c .LBE23
     /tmp/cc7wpQ70.s:1218   .text._ZN7Ssd130610_writeCharEc:000000c8 .LBB13
     /tmp/cc7wpQ70.s:1308   .text._ZN7Ssd130610_writeCharEc:0000011c .LBE13
     /tmp/cc7wpQ70.s:1360   .text._ZN7Ssd130610_writeCharEc:00000148 .LBB22
     /tmp/cc7wpQ70.s:1368   .text._ZN7Ssd130610_writeCharEc:0000014c .LBE22
     /tmp/cc7wpQ70.s:1219   .text._ZN7Ssd130610_writeCharEc:000000c8 .LBB14
     /tmp/cc7wpQ70.s:1269   .text._ZN7Ssd130610_writeCharEc:000000fa .LBE14
     /tmp/cc7wpQ70.s:1278   .text._ZN7Ssd130610_writeCharEc:00000102 .LBB19
     /tmp/cc7wpQ70.s:1307   .text._ZN7Ssd130610_writeCharEc:0000011c .LBE19
     /tmp/cc7wpQ70.s:1220   .text._ZN7Ssd130610_writeCharEc:000000c8 .LBB15
     /tmp/cc7wpQ70.s:1268   .text._ZN7Ssd130610_writeCharEc:000000fa .LBE15
     /tmp/cc7wpQ70.s:1298   .text._ZN7Ssd130610_writeCharEc:00000118 .LBB18
     /tmp/cc7wpQ70.s:1306   .text._ZN7Ssd130610_writeCharEc:0000011c .LBE18
     /tmp/cc7wpQ70.s:1221   .text._ZN7Ssd130610_writeCharEc:000000c8 .LBB16
     /tmp/cc7wpQ70.s:1254   .text._ZN7Ssd130610_writeCharEc:000000f0 .LBE16
     /tmp/cc7wpQ70.s:1262   .text._ZN7Ssd130610_writeCharEc:000000f6 .LBB17
     /tmp/cc7wpQ70.s:1267   .text._ZN7Ssd130610_writeCharEc:000000fa .LBE17
     /tmp/cc7wpQ70.s:1200   .text._ZN7Ssd130610_writeCharEc:000000c0 .LBB24
     /tmp/cc7wpQ70.s:1208   .text._ZN7Ssd130610_writeCharEc:000000c4 .LBE24
     /tmp/cc7wpQ70.s:1430   .text._ZN7Ssd130610_writeCharEc:00000190 .LBB39
     /tmp/cc7wpQ70.s:1640   .text._ZN7Ssd130610_writeCharEc:00000252 .LBE39
     /tmp/cc7wpQ70.s:1431   .text._ZN7Ssd130610_writeCharEc:00000190 .LBB25
     /tmp/cc7wpQ70.s:1604   .text._ZN7Ssd130610_writeCharEc:00000230 .LBE25
     /tmp/cc7wpQ70.s:1612   .text._ZN7Ssd130610_writeCharEc:00000236 .LBB37
     /tmp/cc7wpQ70.s:1639   .text._ZN7Ssd130610_writeCharEc:00000252 .LBE37
     /tmp/cc7wpQ70.s:1432   .text._ZN7Ssd130610_writeCharEc:00000190 .LBB26
     /tmp/cc7wpQ70.s:1589   .text._ZN7Ssd130610_writeCharEc:0000021c .LBE26
     /tmp/cc7wpQ70.s:1629   .text._ZN7Ssd130610_writeCharEc:0000024c .LBB36
     /tmp/cc7wpQ70.s:1632   .text._ZN7Ssd130610_writeCharEc:0000024e .LBE36
     /tmp/cc7wpQ70.s:1433   .text._ZN7Ssd130610_writeCharEc:00000190 .LBB27
     /tmp/cc7wpQ70.s:1528   .text._ZN7Ssd130610_writeCharEc:000001f0 .LBE27
     /tmp/cc7wpQ70.s:1537   .text._ZN7Ssd130610_writeCharEc:000001f8 .LBB35
     /tmp/cc7wpQ70.s:1588   .text._ZN7Ssd130610_writeCharEc:0000021c .LBE35
     /tmp/cc7wpQ70.s:1439   .text._ZN7Ssd130610_writeCharEc:00000194 .LBB28
     /tmp/cc7wpQ70.s:1502   .text._ZN7Ssd130610_writeCharEc:000001da .LBE28
     /tmp/cc7wpQ70.s:1575   .text._ZN7Ssd130610_writeCharEc:00000216 .LBB33
     /tmp/cc7wpQ70.s:1578   .text._ZN7Ssd130610_writeCharEc:00000218 .LBE33
     /tmp/cc7wpQ70.s:1581   .text._ZN7Ssd130610_writeCharEc:0000021a .LBB34
     /tmp/cc7wpQ70.s:1587   .text._ZN7Ssd130610_writeCharEc:0000021c .LBE34
     /tmp/cc7wpQ70.s:1790   .text._ZN7Ssd130611clearScreenEv:0000003c .LBB43
     /tmp/cc7wpQ70.s:1795   .text._ZN7Ssd130611clearScreenEv:00000040 .LBE43
GAS LISTING /tmp/cc7wpQ70.s 			page 190


     /tmp/cc7wpQ70.s:1876   .text._ZN7Ssd130611clearScreenEv:00000088 .LBB45
     /tmp/cc7wpQ70.s:1891   .text._ZN7Ssd130611clearScreenEv:00000098 .LBE45
     /tmp/cc7wpQ70.s:1920   .text._ZN7Ssd130611clearScreenEv:000000b4 .LBB48
     /tmp/cc7wpQ70.s:1943   .text._ZN7Ssd130611clearScreenEv:000000ca .LBE48
     /tmp/cc7wpQ70.s:1947   .text._ZN7Ssd130611clearScreenEv:000000ce .LBB49
     /tmp/cc7wpQ70.s:1958   .text._ZN7Ssd130611clearScreenEv:000000d6 .LBE49
     /tmp/cc7wpQ70.s:2057   .text._ZN7Ssd13067displayEv:00000022 .LBB50
     /tmp/cc7wpQ70.s:2062   .text._ZN7Ssd13067displayEv:00000026 .LBE50
     /tmp/cc7wpQ70.s:2073   .text._ZN7Ssd13067displayEv:0000002c .LBB51
     /tmp/cc7wpQ70.s:2136   .text._ZN7Ssd13067displayEv:0000007a .LBE51
     /tmp/cc7wpQ70.s:3596   .text._ZN7Ssd13068drawLineEhhhhb:00000092 .LBB52
     /tmp/cc7wpQ70.s:3656   .text._ZN7Ssd13068drawLineEhhhhb:000000d0 .LBE52
     /tmp/cc7wpQ70.s:3703   .text._ZN7Ssd13068drawLineEhhhhb:00000100 .LBB53
     /tmp/cc7wpQ70.s:3710   .text._ZN7Ssd13068drawLineEhhhhb:0000010a .LBE53
     /tmp/cc7wpQ70.s:4015   .text._ZN7Ssd13068fillRectEhhhhb:000000ec .LBB57
     /tmp/cc7wpQ70.s:4039   .text._ZN7Ssd13068fillRectEhhhhb:0000010a .LBE57
     /tmp/cc7wpQ70.s:4051   .text._ZN7Ssd13068fillRectEhhhhb:00000116 .LBB58
     /tmp/cc7wpQ70.s:4061   .text._ZN7Ssd13068fillRectEhhhhb:0000011c .LBE58
     /tmp/cc7wpQ70.s:3926   .text._ZN7Ssd13068fillRectEhhhhb:00000088 .LBB59
     /tmp/cc7wpQ70.s:3934   .text._ZN7Ssd13068fillRectEhhhhb:0000008c .LBE59
     /tmp/cc7wpQ70.s:4083   .text._ZN7Ssd13068fillRectEhhhhb:0000012a .LBB61
     /tmp/cc7wpQ70.s:4101   .text._ZN7Ssd13068fillRectEhhhhb:0000013a .LBE61
     /tmp/cc7wpQ70.s:4102   .text._ZN7Ssd13068fillRectEhhhhb:0000013a .LBB62
     /tmp/cc7wpQ70.s:4176   .text._ZN7Ssd13068fillRectEhhhhb:0000017e .LBE62
     /tmp/cc7wpQ70.s:4188   .text._ZN7Ssd13068fillRectEhhhhb:00000186 .LBB68
     /tmp/cc7wpQ70.s:4198   .text._ZN7Ssd13068fillRectEhhhhb:0000018a .LBE68
     /tmp/cc7wpQ70.s:4106   .text._ZN7Ssd13068fillRectEhhhhb:0000013e .LBB63
     /tmp/cc7wpQ70.s:4165   .text._ZN7Ssd13068fillRectEhhhhb:00000176 .LBE63
     /tmp/cc7wpQ70.s:4189   .text._ZN7Ssd13068fillRectEhhhhb:00000186 .LBB67
     /tmp/cc7wpQ70.s:4197   .text._ZN7Ssd13068fillRectEhhhhb:0000018a .LBE67
     /tmp/cc7wpQ70.s:4126   .text._ZN7Ssd13068fillRectEhhhhb:00000154 .LBB64
     /tmp/cc7wpQ70.s:4149   .text._ZN7Ssd13068fillRectEhhhhb:0000016a .LBE64
     /tmp/cc7wpQ70.s:4153   .text._ZN7Ssd13068fillRectEhhhhb:0000016e .LBB65
     /tmp/cc7wpQ70.s:4164   .text._ZN7Ssd13068fillRectEhhhhb:00000176 .LBE65
     /tmp/cc7wpQ70.s:4190   .text._ZN7Ssd13068fillRectEhhhhb:00000186 .LBB66
     /tmp/cc7wpQ70.s:4196   .text._ZN7Ssd13068fillRectEhhhhb:0000018a .LBE66
     /tmp/cc7wpQ70.s:4354   .text._ZN7Ssd13068drawRectEhhhh:0000007a .LBB73
     /tmp/cc7wpQ70.s:4362   .text._ZN7Ssd13068drawRectEhhhh:0000007e .LBE73
     /tmp/cc7wpQ70.s:4565   .text._ZN7Ssd13068drawRectEhhhh:00000160 .LBB84
     /tmp/cc7wpQ70.s:4723   .text._ZN7Ssd13068drawRectEhhhh:000001ea .LBE84
     /tmp/cc7wpQ70.s:4735   .text._ZN7Ssd13068drawRectEhhhh:000001f2 .LBB85
     /tmp/cc7wpQ70.s:4745   .text._ZN7Ssd13068drawRectEhhhh:000001f6 .LBE85
     /tmp/cc7wpQ70.s:4566   .text._ZN7Ssd13068drawRectEhhhh:00000160 .LBB74
     /tmp/cc7wpQ70.s:4666   .text._ZN7Ssd13068drawRectEhhhh:000001b6 .LBE74
     /tmp/cc7wpQ70.s:4674   .text._ZN7Ssd13068drawRectEhhhh:000001bc .LBB81
     /tmp/cc7wpQ70.s:4722   .text._ZN7Ssd13068drawRectEhhhh:000001ea .LBE81
     /tmp/cc7wpQ70.s:4736   .text._ZN7Ssd13068drawRectEhhhh:000001f2 .LBB82
     /tmp/cc7wpQ70.s:4744   .text._ZN7Ssd13068drawRectEhhhh:000001f6 .LBE82
     /tmp/cc7wpQ70.s:4572   .text._ZN7Ssd13068drawRectEhhhh:00000164 .LBB75
     /tmp/cc7wpQ70.s:4659   .text._ZN7Ssd13068drawRectEhhhh:000001b2 .LBE75
     /tmp/cc7wpQ70.s:4693   .text._ZN7Ssd13068drawRectEhhhh:000001ce .LBB79
     /tmp/cc7wpQ70.s:4696   .text._ZN7Ssd13068drawRectEhhhh:000001d0 .LBE79
     /tmp/cc7wpQ70.s:4737   .text._ZN7Ssd13068drawRectEhhhh:000001f2 .LBB80
     /tmp/cc7wpQ70.s:4743   .text._ZN7Ssd13068drawRectEhhhh:000001f6 .LBE80
     /tmp/cc7wpQ70.s:4573   .text._ZN7Ssd13068drawRectEhhhh:00000164 .LBB76
     /tmp/cc7wpQ70.s:4595   .text._ZN7Ssd13068drawRectEhhhh:00000178 .LBE76
     /tmp/cc7wpQ70.s:4606   .text._ZN7Ssd13068drawRectEhhhh:00000180 .LBB77
GAS LISTING /tmp/cc7wpQ70.s 			page 191


     /tmp/cc7wpQ70.s:4658   .text._ZN7Ssd13068drawRectEhhhh:000001b2 .LBE77
     /tmp/cc7wpQ70.s:4738   .text._ZN7Ssd13068drawRectEhhhh:000001f2 .LBB78
     /tmp/cc7wpQ70.s:4742   .text._ZN7Ssd13068drawRectEhhhh:000001f6 .LBE78
     /tmp/cc7wpQ70.s:4889   .text._ZN7Ssd13069drawHLineEhhh:0000007a .LBB89
     /tmp/cc7wpQ70.s:4897   .text._ZN7Ssd13069drawHLineEhhh:0000007e .LBE89
     /tmp/cc7wpQ70.s:4987   .text._ZN7Ssd13069drawHLineEhhh:000000dc .LBB91
     /tmp/cc7wpQ70.s:5002   .text._ZN7Ssd13069drawHLineEhhh:000000ec .LBE91
     /tmp/cc7wpQ70.s:5022   .text._ZN7Ssd13069drawHLineEhhh:00000104 .LBB92
     /tmp/cc7wpQ70.s:5045   .text._ZN7Ssd13069drawHLineEhhh:0000011a .LBE92
     /tmp/cc7wpQ70.s:5049   .text._ZN7Ssd13069drawHLineEhhh:0000011e .LBB93
     /tmp/cc7wpQ70.s:5060   .text._ZN7Ssd13069drawHLineEhhh:0000012a .LBE93
     /tmp/cc7wpQ70.s:5072   .text._ZN7Ssd13069drawHLineEhhh:00000132 .LBB94
     /tmp/cc7wpQ70.s:5078   .text._ZN7Ssd13069drawHLineEhhh:00000136 .LBE94
     /tmp/cc7wpQ70.s:5206   .text._ZN7Ssd13069drawVLineEhhh:00000062 .LBB98
     /tmp/cc7wpQ70.s:5218   .text._ZN7Ssd13069drawVLineEhhh:0000006c .LBE98
     /tmp/cc7wpQ70.s:5310   .text._ZN7Ssd13069drawVLineEhhh:000000c4 .LBB104
     /tmp/cc7wpQ70.s:5428   .text._ZN7Ssd13069drawVLineEhhh:00000136 .LBE104
     /tmp/cc7wpQ70.s:5311   .text._ZN7Ssd13069drawVLineEhhh:000000c4 .LBB99
     /tmp/cc7wpQ70.s:5372   .text._ZN7Ssd13069drawVLineEhhh:00000108 .LBE99
     /tmp/cc7wpQ70.s:5386   .text._ZN7Ssd13069drawVLineEhhh:00000116 .LBB102
     /tmp/cc7wpQ70.s:5427   .text._ZN7Ssd13069drawVLineEhhh:00000136 .LBE102
     /tmp/cc7wpQ70.s:5322   .text._ZN7Ssd13069drawVLineEhhh:000000cc .LBB100
     /tmp/cc7wpQ70.s:5347   .text._ZN7Ssd13069drawVLineEhhh:000000e8 .LBE100
     /tmp/cc7wpQ70.s:5420   .text._ZN7Ssd13069drawVLineEhhh:00000134 .LBB101
     /tmp/cc7wpQ70.s:5426   .text._ZN7Ssd13069drawVLineEhhh:00000136 .LBE101

UNDEFINED SYMBOLS
__iob
__divmodhi4
__do_clear_bss
