GAS LISTING /tmp/ccQ8U2zo.s 			page 1


   1               		.file	"twi.cpp"
   2               	__SP_H__ = 0x3e
   3               	__SP_L__ = 0x3d
   4               	__SREG__ = 0x3f
   5               	__tmp_reg__ = 0
   6               	__zero_reg__ = 1
   7               		.text
   8               	.Ltext0:
   9               		.cfi_sections	.debug_frame
  10               		.file 1 "funsape/peripheral/twi.cpp"
  11               		.section	.text._ZN3Bus7readRegEhPhj,"axG",@progbits,_ZN3Bus7readRegEhPhj,comdat
  12               		.weak	_ZN3Bus7readRegEhPhj
  14               	_ZN3Bus7readRegEhPhj:
  15               	.LVL0:
  16               	.LFB126:
  17               		.file 2 "funsape/peripheral/../util/bus.hpp"
   1:funsape/peripheral/../util/bus.hpp **** //!
   2:funsape/peripheral/../util/bus.hpp **** //! \file           bus.hpp
   3:funsape/peripheral/../util/bus.hpp **** //! \brief          Bus Handler support to Funsape AVR8 Library
   4:funsape/peripheral/../util/bus.hpp **** //! \author         Leandro Schwarz (bladabuska+funsapeavr8lib@gmail.com)
   5:funsape/peripheral/../util/bus.hpp **** //! \date           2024-05-08
   6:funsape/peripheral/../util/bus.hpp **** //! \version        24.05
   7:funsape/peripheral/../util/bus.hpp **** //! \copyright      license
   8:funsape/peripheral/../util/bus.hpp **** //! \details        This file provides a virtual class to handle a digital
   9:funsape/peripheral/../util/bus.hpp **** //!                     communication bus for the Funsape AVR8 Library
  10:funsape/peripheral/../util/bus.hpp **** //!
  11:funsape/peripheral/../util/bus.hpp **** 
  12:funsape/peripheral/../util/bus.hpp **** // =============================================================================
  13:funsape/peripheral/../util/bus.hpp **** // Include guard (START)
  14:funsape/peripheral/../util/bus.hpp **** // =============================================================================
  15:funsape/peripheral/../util/bus.hpp **** 
  16:funsape/peripheral/../util/bus.hpp **** #ifndef __BUS_HPP
  17:funsape/peripheral/../util/bus.hpp **** #define __BUS_HPP                   2604
  18:funsape/peripheral/../util/bus.hpp **** 
  19:funsape/peripheral/../util/bus.hpp **** // =============================================================================
  20:funsape/peripheral/../util/bus.hpp **** // Dependencies
  21:funsape/peripheral/../util/bus.hpp **** // =============================================================================
  22:funsape/peripheral/../util/bus.hpp **** 
  23:funsape/peripheral/../util/bus.hpp **** //     /////////////////     GLOBAL DEFINITIONS FILE    /////////////////     //
  24:funsape/peripheral/../util/bus.hpp **** #include "../globalDefines.hpp"
  25:funsape/peripheral/../util/bus.hpp **** #if !defined(__GLOBAL_DEFINES_HPP)
  26:funsape/peripheral/../util/bus.hpp **** #   error "Global definitions file is corrupted!"
  27:funsape/peripheral/../util/bus.hpp **** #elif __GLOBAL_DEFINES_HPP != __BUS_HPP
  28:funsape/peripheral/../util/bus.hpp **** #   error "Version mismatch between file header and global definitions file!"
  29:funsape/peripheral/../util/bus.hpp **** #endif
  30:funsape/peripheral/../util/bus.hpp **** 
  31:funsape/peripheral/../util/bus.hpp **** //     //////////////////     LIBRARY DEPENDENCIES     //////////////////     //
  32:funsape/peripheral/../util/bus.hpp **** #include "debug.hpp"
  33:funsape/peripheral/../util/bus.hpp **** #if !defined(__DEBUG_HPP)
  34:funsape/peripheral/../util/bus.hpp **** #   error "Header file (debug.hpp) is corrupted!"
  35:funsape/peripheral/../util/bus.hpp **** #elif __DEBUG_HPP != __BUS_HPP
  36:funsape/peripheral/../util/bus.hpp **** #   error "Version mismatch between header file and library dependency (debug.hpp)!"
  37:funsape/peripheral/../util/bus.hpp **** #endif
  38:funsape/peripheral/../util/bus.hpp **** 
  39:funsape/peripheral/../util/bus.hpp **** // #include "../peripheral/funsapeLibGpio.hpp"
  40:funsape/peripheral/../util/bus.hpp **** // #if !defined(__FUNSAPE_LIB_GPIO_HPP)
  41:funsape/peripheral/../util/bus.hpp **** // #   error "Header file (funsapeLibGpio.hpp) is corrupted!"
GAS LISTING /tmp/ccQ8U2zo.s 			page 2


  42:funsape/peripheral/../util/bus.hpp **** // #elif __FUNSAPE_LIB_GPIO_HPP != __BUS_HPP
  43:funsape/peripheral/../util/bus.hpp **** // #   error "Version mismatch between header file and library dependency (funsapeLibGpio.hpp)!"
  44:funsape/peripheral/../util/bus.hpp **** // #endif
  45:funsape/peripheral/../util/bus.hpp **** 
  46:funsape/peripheral/../util/bus.hpp **** // =============================================================================
  47:funsape/peripheral/../util/bus.hpp **** // Undefining previous definitions
  48:funsape/peripheral/../util/bus.hpp **** // =============================================================================
  49:funsape/peripheral/../util/bus.hpp **** 
  50:funsape/peripheral/../util/bus.hpp **** // NONE
  51:funsape/peripheral/../util/bus.hpp **** 
  52:funsape/peripheral/../util/bus.hpp **** // =============================================================================
  53:funsape/peripheral/../util/bus.hpp **** // Constant definitions
  54:funsape/peripheral/../util/bus.hpp **** // =============================================================================
  55:funsape/peripheral/../util/bus.hpp **** 
  56:funsape/peripheral/../util/bus.hpp **** 
  57:funsape/peripheral/../util/bus.hpp **** // =============================================================================
  58:funsape/peripheral/../util/bus.hpp **** // New data types
  59:funsape/peripheral/../util/bus.hpp **** // =============================================================================
  60:funsape/peripheral/../util/bus.hpp **** 
  61:funsape/peripheral/../util/bus.hpp **** // NONE
  62:funsape/peripheral/../util/bus.hpp **** 
  63:funsape/peripheral/../util/bus.hpp **** // =============================================================================
  64:funsape/peripheral/../util/bus.hpp **** // Interrupt callback functions
  65:funsape/peripheral/../util/bus.hpp **** // =============================================================================
  66:funsape/peripheral/../util/bus.hpp **** 
  67:funsape/peripheral/../util/bus.hpp **** // NONE
  68:funsape/peripheral/../util/bus.hpp **** 
  69:funsape/peripheral/../util/bus.hpp **** // =============================================================================
  70:funsape/peripheral/../util/bus.hpp **** // Bus Class
  71:funsape/peripheral/../util/bus.hpp **** // =============================================================================
  72:funsape/peripheral/../util/bus.hpp **** 
  73:funsape/peripheral/../util/bus.hpp **** //!
  74:funsape/peripheral/../util/bus.hpp **** //! \brief          Bus class
  75:funsape/peripheral/../util/bus.hpp **** //! \details        Bus class
  76:funsape/peripheral/../util/bus.hpp **** //!
  77:funsape/peripheral/../util/bus.hpp **** class Bus
  78:funsape/peripheral/../util/bus.hpp **** {
  79:funsape/peripheral/../util/bus.hpp ****     // -------------------------------------------------------------------------
  80:funsape/peripheral/../util/bus.hpp ****     // New data types ----------------------------------------------------------
  81:funsape/peripheral/../util/bus.hpp **** public:
  82:funsape/peripheral/../util/bus.hpp ****     //     //////////////////////     Bus Type    ///////////////////////     //
  83:funsape/peripheral/../util/bus.hpp ****     //!
  84:funsape/peripheral/../util/bus.hpp ****     //! \brief      Bus type enumeration
  85:funsape/peripheral/../util/bus.hpp ****     //! \details    Bus type options associated with the bus.
  86:funsape/peripheral/../util/bus.hpp ****     //!
  87:funsape/peripheral/../util/bus.hpp ****     enum class BusType {
  88:funsape/peripheral/../util/bus.hpp ****         NONE                            = 0,    //!< Bus is not initialized
  89:funsape/peripheral/../util/bus.hpp ****         OWI                             = 1,    //!< One Wire Interface
  90:funsape/peripheral/../util/bus.hpp ****         PARALLEL                        = 2,    //!< Simple parallel bitbang interface
  91:funsape/peripheral/../util/bus.hpp ****         SERIAL                          = 3,    //!< Simple serial bitbang interface
  92:funsape/peripheral/../util/bus.hpp ****         SPI                             = 4,    //!< Serial Peripheral Interface
  93:funsape/peripheral/../util/bus.hpp ****         TWI                             = 5,    //!< Two Wire Interface (I2C)
  94:funsape/peripheral/../util/bus.hpp ****         UART                            = 6,    //!< Universal Sync./Async. Receiver Transmitter
  95:funsape/peripheral/../util/bus.hpp ****     };
  96:funsape/peripheral/../util/bus.hpp **** 
  97:funsape/peripheral/../util/bus.hpp **** private:
  98:funsape/peripheral/../util/bus.hpp ****     // NONE
GAS LISTING /tmp/ccQ8U2zo.s 			page 3


  99:funsape/peripheral/../util/bus.hpp **** 
 100:funsape/peripheral/../util/bus.hpp **** protected:
 101:funsape/peripheral/../util/bus.hpp ****     // NONE
 102:funsape/peripheral/../util/bus.hpp **** 
 103:funsape/peripheral/../util/bus.hpp ****     // -------------------------------------------------------------------------
 104:funsape/peripheral/../util/bus.hpp ****     // Operator overloading ----------------------------------------------------
 105:funsape/peripheral/../util/bus.hpp **** public:
 106:funsape/peripheral/../util/bus.hpp ****     // NONE
 107:funsape/peripheral/../util/bus.hpp **** 
 108:funsape/peripheral/../util/bus.hpp **** private:
 109:funsape/peripheral/../util/bus.hpp ****     // NONE
 110:funsape/peripheral/../util/bus.hpp **** 
 111:funsape/peripheral/../util/bus.hpp **** protected:
 112:funsape/peripheral/../util/bus.hpp ****     // NONE
 113:funsape/peripheral/../util/bus.hpp **** 
 114:funsape/peripheral/../util/bus.hpp ****     // -------------------------------------------------------------------------
 115:funsape/peripheral/../util/bus.hpp ****     // Constructors ------------------------------------------------------------
 116:funsape/peripheral/../util/bus.hpp **** public:
 117:funsape/peripheral/../util/bus.hpp ****     // NONE
 118:funsape/peripheral/../util/bus.hpp **** 
 119:funsape/peripheral/../util/bus.hpp ****     // -------------------------------------------------------------------------
 120:funsape/peripheral/../util/bus.hpp ****     // Methods - Inherited methods ---------------------------------------------
 121:funsape/peripheral/../util/bus.hpp **** public:
 122:funsape/peripheral/../util/bus.hpp ****     // NONE
 123:funsape/peripheral/../util/bus.hpp **** 
 124:funsape/peripheral/../util/bus.hpp **** protected:
 125:funsape/peripheral/../util/bus.hpp ****     // NONE
 126:funsape/peripheral/../util/bus.hpp **** 
 127:funsape/peripheral/../util/bus.hpp ****     // -------------------------------------------------------------------------
 128:funsape/peripheral/../util/bus.hpp ****     // Methods - Class own methods ---------------------------------------------
 129:funsape/peripheral/../util/bus.hpp **** public:
 130:funsape/peripheral/../util/bus.hpp ****     //     ////////////////////    DATA TRANSFER     ////////////////////     //
 131:funsape/peripheral/../util/bus.hpp ****     //!
 132:funsape/peripheral/../util/bus.hpp ****     //! \brief          Reads data from an address.
 133:funsape/peripheral/../util/bus.hpp ****     //! \details        This function reads a block of data from the given
 134:funsape/peripheral/../util/bus.hpp ****     //!                     register address.
 135:funsape/peripheral/../util/bus.hpp ****     //! \param[in]      reg_p           register address
 136:funsape/peripheral/../util/bus.hpp ****     //! \param[out]     buffData_p      pointer to data vector
 137:funsape/peripheral/../util/bus.hpp ****     //! \param[in]      buffSize_p      number of data elements to read
 138:funsape/peripheral/../util/bus.hpp ****     //! \return         bool_t          True on success / False on failure
 139:funsape/peripheral/../util/bus.hpp ****     //!
 140:funsape/peripheral/../util/bus.hpp ****     virtual bool_t readReg(
  18               		.loc 2 140 20 view -0
  19               		.cfi_startproc
  20               	/* prologue: function */
  21               	/* frame size = 0 */
  22               	/* stack size = 0 */
  23               	.L__stack_usage = 0
 141:funsape/peripheral/../util/bus.hpp ****             cuint8_t reg_p,
 142:funsape/peripheral/../util/bus.hpp ****             uint8_t *buffData_p,
 143:funsape/peripheral/../util/bus.hpp ****             cuint16_t buffSize_p
 144:funsape/peripheral/../util/bus.hpp ****     ) {
 145:funsape/peripheral/../util/bus.hpp ****         // Mark passage for debugging purpose
 146:funsape/peripheral/../util/bus.hpp ****         debugMark(PSTR("Bus::readReg(cuint8_t, uint8_t *, cuint16_t)"), Debug::CodeIndex::BUS_HANDL
  24               		.loc 2 146 9 view .LVU1
 147:funsape/peripheral/../util/bus.hpp **** 
 148:funsape/peripheral/../util/bus.hpp ****         // Returns error
GAS LISTING /tmp/ccQ8U2zo.s 			page 4


 149:funsape/peripheral/../util/bus.hpp ****         this->_lastError = Error::FEATURE_NOT_SUPPORTED;
  25               		.loc 2 149 9 view .LVU2
  26               		.loc 2 149 26 is_stmt 0 view .LVU3
  27 0000 22E4      		ldi r18,lo8(66)
  28 0002 30E0      		ldi r19,0
  29               	.LVL1:
  30               		.loc 2 149 26 view .LVU4
  31 0004 FC01      		movw r30,r24
  32 0006 3383      		std Z+3,r19
  33 0008 2283      		std Z+2,r18
 150:funsape/peripheral/../util/bus.hpp ****         debugMessage(Error::FEATURE_NOT_SUPPORTED, Debug::CodeIndex::BUS_HANDLER_MODULE);
  34               		.loc 2 150 9 is_stmt 1 view .LVU5
 151:funsape/peripheral/../util/bus.hpp ****         return false;
  35               		.loc 2 151 9 view .LVU6
 152:funsape/peripheral/../util/bus.hpp ****     };
  36               		.loc 2 152 5 is_stmt 0 view .LVU7
  37 000a 80E0      		ldi r24,0
  38               	.LVL2:
  39               	/* epilogue start */
  40               		.loc 2 152 5 view .LVU8
  41 000c 0895      		ret
  42               		.cfi_endproc
  43               	.LFE126:
  45               		.section	.text._ZN3Bus8sendDataEPhj,"axG",@progbits,_ZN3Bus8sendDataEPhj,comdat
  46               		.weak	_ZN3Bus8sendDataEPhj
  48               	_ZN3Bus8sendDataEPhj:
  49               	.LVL3:
  50               	.LFB127:
 153:funsape/peripheral/../util/bus.hpp **** 
 154:funsape/peripheral/../util/bus.hpp ****     //!
 155:funsape/peripheral/../util/bus.hpp ****     //! \brief          Sends (exchange) data to the bus.
 156:funsape/peripheral/../util/bus.hpp ****     //! \details        This function exchanges (sends and receives) a block of
 157:funsape/peripheral/../util/bus.hpp ****     //!                     data to the bus. The data to be sent is read from
 158:funsape/peripheral/../util/bus.hpp ****     //!                     the data vector, and the data received is stored at
 159:funsape/peripheral/../util/bus.hpp ****     //!                     the same vector, overwriting its data.
 160:funsape/peripheral/../util/bus.hpp ****     //! \param[in,out]  buffData_p      pointer to data vector to exchange
 161:funsape/peripheral/../util/bus.hpp ****     //! \param[in]      buffSize_p      number of data elements to exchange
 162:funsape/peripheral/../util/bus.hpp ****     //! \return         bool_t          True on success / False on failure
 163:funsape/peripheral/../util/bus.hpp ****     //!
 164:funsape/peripheral/../util/bus.hpp ****     virtual bool_t sendData(
  51               		.loc 2 164 20 is_stmt 1 view -0
  52               		.cfi_startproc
  53               	/* prologue: function */
  54               	/* frame size = 0 */
  55               	/* stack size = 0 */
  56               	.L__stack_usage = 0
 165:funsape/peripheral/../util/bus.hpp ****             uint8_t *buffData_p,
 166:funsape/peripheral/../util/bus.hpp ****             cuint16_t buffSize_p
 167:funsape/peripheral/../util/bus.hpp ****     ) {
 168:funsape/peripheral/../util/bus.hpp ****         // Mark passage for debugging purpose
 169:funsape/peripheral/../util/bus.hpp ****         debugMark(PSTR("Bus::sendData(uint8_t *, cuint16_t)"), Debug::CodeIndex::BUS_HANDLER_MODULE
  57               		.loc 2 169 9 view .LVU10
 170:funsape/peripheral/../util/bus.hpp **** 
 171:funsape/peripheral/../util/bus.hpp ****         // Returns error
 172:funsape/peripheral/../util/bus.hpp ****         this->_lastError = Error::FEATURE_NOT_SUPPORTED;
  58               		.loc 2 172 9 view .LVU11
  59               		.loc 2 172 26 is_stmt 0 view .LVU12
GAS LISTING /tmp/ccQ8U2zo.s 			page 5


  60 0000 22E4      		ldi r18,lo8(66)
  61 0002 30E0      		ldi r19,0
  62 0004 FC01      		movw r30,r24
  63 0006 3383      		std Z+3,r19
  64 0008 2283      		std Z+2,r18
 173:funsape/peripheral/../util/bus.hpp ****         debugMessage(Error::FEATURE_NOT_SUPPORTED, Debug::CodeIndex::BUS_HANDLER_MODULE);
  65               		.loc 2 173 9 is_stmt 1 view .LVU13
 174:funsape/peripheral/../util/bus.hpp ****         return false;
  66               		.loc 2 174 9 view .LVU14
 175:funsape/peripheral/../util/bus.hpp ****     };
  67               		.loc 2 175 5 is_stmt 0 view .LVU15
  68 000a 80E0      		ldi r24,0
  69               	.LVL4:
  70               	/* epilogue start */
  71               		.loc 2 175 5 view .LVU16
  72 000c 0895      		ret
  73               		.cfi_endproc
  74               	.LFE127:
  76               		.section	.text._ZN3Bus8sendDataEPKhPhj,"axG",@progbits,_ZN3Bus8sendDataEPKhPhj,comdat
  77               		.weak	_ZN3Bus8sendDataEPKhPhj
  79               	_ZN3Bus8sendDataEPKhPhj:
  80               	.LVL5:
  81               	.LFB128:
 176:funsape/peripheral/../util/bus.hpp **** 
 177:funsape/peripheral/../util/bus.hpp ****     //!
 178:funsape/peripheral/../util/bus.hpp ****     //! \brief          Sends (exchange) data to the bus.
 179:funsape/peripheral/../util/bus.hpp ****     //! \details        This function exchanges (sends and receives) a block of
 180:funsape/peripheral/../util/bus.hpp ****     //!                     data to the bus. The data to be sent and the
 181:funsape/peripheral/../util/bus.hpp ****     //!                     received data are stored in separate data vectors.
 182:funsape/peripheral/../util/bus.hpp ****     //! \param[in]      txBuffData_p    pointer to the tx data vector
 183:funsape/peripheral/../util/bus.hpp ****     //! \param[out]     rxBuffData_p    pointer to the rx data vector
 184:funsape/peripheral/../util/bus.hpp ****     //! \param[in]      buffSize_p      number of data elements to exchange
 185:funsape/peripheral/../util/bus.hpp ****     //! \return         bool_t          True on success / False on failure
 186:funsape/peripheral/../util/bus.hpp ****     //!
 187:funsape/peripheral/../util/bus.hpp ****     virtual bool_t sendData(
  82               		.loc 2 187 20 is_stmt 1 view -0
  83               		.cfi_startproc
  84               	/* prologue: function */
  85               	/* frame size = 0 */
  86               	/* stack size = 0 */
  87               	.L__stack_usage = 0
 188:funsape/peripheral/../util/bus.hpp ****             cuint8_t *txBuffData_p,
 189:funsape/peripheral/../util/bus.hpp ****             uint8_t *rxBuffData_p,
 190:funsape/peripheral/../util/bus.hpp ****             cuint16_t buffSize_p
 191:funsape/peripheral/../util/bus.hpp ****     ) {
 192:funsape/peripheral/../util/bus.hpp ****         // Mark passage for debugging purpose
 193:funsape/peripheral/../util/bus.hpp ****         debugMark(PSTR("Bus::sendData(cuint8_t *, uint8_t *, cuint16_t)"), Debug::CodeIndex::BUS_HA
  88               		.loc 2 193 9 view .LVU18
 194:funsape/peripheral/../util/bus.hpp **** 
 195:funsape/peripheral/../util/bus.hpp ****         // Returns error
 196:funsape/peripheral/../util/bus.hpp ****         this->_lastError = Error::FEATURE_NOT_SUPPORTED;
  89               		.loc 2 196 9 view .LVU19
  90               		.loc 2 196 26 is_stmt 0 view .LVU20
  91 0000 22E4      		ldi r18,lo8(66)
  92 0002 30E0      		ldi r19,0
  93               	.LVL6:
  94               		.loc 2 196 26 view .LVU21
GAS LISTING /tmp/ccQ8U2zo.s 			page 6


  95 0004 FC01      		movw r30,r24
  96 0006 3383      		std Z+3,r19
  97 0008 2283      		std Z+2,r18
 197:funsape/peripheral/../util/bus.hpp ****         debugMessage(Error::FEATURE_NOT_SUPPORTED, Debug::CodeIndex::BUS_HANDLER_MODULE);
  98               		.loc 2 197 9 is_stmt 1 view .LVU22
 198:funsape/peripheral/../util/bus.hpp ****         return false;
  99               		.loc 2 198 9 view .LVU23
 199:funsape/peripheral/../util/bus.hpp ****     };
 100               		.loc 2 199 5 is_stmt 0 view .LVU24
 101 000a 80E0      		ldi r24,0
 102               	.LVL7:
 103               	/* epilogue start */
 104               		.loc 2 199 5 view .LVU25
 105 000c 0895      		ret
 106               		.cfi_endproc
 107               	.LFE128:
 109               		.section	.text._ZN3Bus8writeRegEhPKhj,"axG",@progbits,_ZN3Bus8writeRegEhPKhj,comdat
 110               		.weak	_ZN3Bus8writeRegEhPKhj
 112               	_ZN3Bus8writeRegEhPKhj:
 113               	.LVL8:
 114               	.LFB129:
 200:funsape/peripheral/../util/bus.hpp **** 
 201:funsape/peripheral/../util/bus.hpp ****     //!
 202:funsape/peripheral/../util/bus.hpp ****     //! \brief          Writes data at an address.
 203:funsape/peripheral/../util/bus.hpp ****     //! \details        This function writes a block of data at the given
 204:funsape/peripheral/../util/bus.hpp ****     //!                     register address.
 205:funsape/peripheral/../util/bus.hpp ****     //! \param[in]      reg_p           register address
 206:funsape/peripheral/../util/bus.hpp ****     //! \param[in]      buffData_p      pointer to data vector
 207:funsape/peripheral/../util/bus.hpp ****     //! \param[in]      buffSize_p      number of data elements to write
 208:funsape/peripheral/../util/bus.hpp ****     //! \return         bool_t          True on success / False on failure
 209:funsape/peripheral/../util/bus.hpp ****     //!
 210:funsape/peripheral/../util/bus.hpp ****     virtual bool_t writeReg(
 115               		.loc 2 210 20 is_stmt 1 view -0
 116               		.cfi_startproc
 117               	/* prologue: function */
 118               	/* frame size = 0 */
 119               	/* stack size = 0 */
 120               	.L__stack_usage = 0
 211:funsape/peripheral/../util/bus.hpp ****             cuint8_t reg_p,
 212:funsape/peripheral/../util/bus.hpp ****             cuint8_t *buffData_p,
 213:funsape/peripheral/../util/bus.hpp ****             cuint16_t buffSize_p
 214:funsape/peripheral/../util/bus.hpp ****     ) {
 215:funsape/peripheral/../util/bus.hpp ****         // Mark passage for debugging purpose
 216:funsape/peripheral/../util/bus.hpp ****         debugMark(PSTR("Bus::writeReg(cuint8_t, cuint8_t *, cuint16_t)"), Debug::CodeIndex::BUS_HAN
 121               		.loc 2 216 9 view .LVU27
 217:funsape/peripheral/../util/bus.hpp **** 
 218:funsape/peripheral/../util/bus.hpp ****         // Returns error
 219:funsape/peripheral/../util/bus.hpp ****         this->_lastError = Error::FEATURE_NOT_SUPPORTED;
 122               		.loc 2 219 9 view .LVU28
 123               		.loc 2 219 26 is_stmt 0 view .LVU29
 124 0000 22E4      		ldi r18,lo8(66)
 125 0002 30E0      		ldi r19,0
 126               	.LVL9:
 127               		.loc 2 219 26 view .LVU30
 128 0004 FC01      		movw r30,r24
 129 0006 3383      		std Z+3,r19
 130 0008 2283      		std Z+2,r18
GAS LISTING /tmp/ccQ8U2zo.s 			page 7


 220:funsape/peripheral/../util/bus.hpp ****         debugMessage(Error::FEATURE_NOT_SUPPORTED, Debug::CodeIndex::BUS_HANDLER_MODULE);
 131               		.loc 2 220 9 is_stmt 1 view .LVU31
 221:funsape/peripheral/../util/bus.hpp ****         return false;
 132               		.loc 2 221 9 view .LVU32
 222:funsape/peripheral/../util/bus.hpp ****     };
 133               		.loc 2 222 5 is_stmt 0 view .LVU33
 134 000a 80E0      		ldi r24,0
 135               	.LVL10:
 136               	/* epilogue start */
 137               		.loc 2 222 5 view .LVU34
 138 000c 0895      		ret
 139               		.cfi_endproc
 140               	.LFE129:
 142               		.section	.text._ZN3Bus9setDeviceEjb,"axG",@progbits,_ZN3Bus9setDeviceEjb,comdat
 143               		.weak	_ZN3Bus9setDeviceEjb
 145               	_ZN3Bus9setDeviceEjb:
 146               	.LVL11:
 147               	.LFB130:
 223:funsape/peripheral/../util/bus.hpp **** 
 224:funsape/peripheral/../util/bus.hpp ****     //     ////////////////     TWI PROTOCOL METHODS     ////////////////     //
 225:funsape/peripheral/../util/bus.hpp ****     //!
 226:funsape/peripheral/../util/bus.hpp ****     //! \brief          Sets the device slave address.
 227:funsape/peripheral/../util/bus.hpp ****     //! \details        This function sets the device slave address.
 228:funsape/peripheral/../util/bus.hpp ****     //! \param[in]      address_p           slave address
 229:funsape/peripheral/../util/bus.hpp ****     //! \param[in]      useLongAddress_p    use 10-bits slave address
 230:funsape/peripheral/../util/bus.hpp ****     //! \return         bool_t          True on success / False on failure
 231:funsape/peripheral/../util/bus.hpp ****     //!
 232:funsape/peripheral/../util/bus.hpp ****     virtual bool_t setDevice(
 148               		.loc 2 232 20 is_stmt 1 view -0
 149               		.cfi_startproc
 150               	/* prologue: function */
 151               	/* frame size = 0 */
 152               	/* stack size = 0 */
 153               	.L__stack_usage = 0
 233:funsape/peripheral/../util/bus.hpp ****             cuint16_t address_p,
 234:funsape/peripheral/../util/bus.hpp ****             cbool_t useLongAddress_p = false
 235:funsape/peripheral/../util/bus.hpp ****     ) {
 236:funsape/peripheral/../util/bus.hpp ****         // Mark passage for debugging purpose
 237:funsape/peripheral/../util/bus.hpp ****         debugMark(PSTR("Bus::setDevice(cuint16_t, cbool_t)"), Debug::CodeIndex::BUS_HANDLER_MODULE)
 154               		.loc 2 237 9 view .LVU36
 238:funsape/peripheral/../util/bus.hpp **** 
 239:funsape/peripheral/../util/bus.hpp ****         // Returns error
 240:funsape/peripheral/../util/bus.hpp ****         this->_lastError = Error::FEATURE_NOT_SUPPORTED;
 155               		.loc 2 240 9 view .LVU37
 156               		.loc 2 240 26 is_stmt 0 view .LVU38
 157 0000 22E4      		ldi r18,lo8(66)
 158 0002 30E0      		ldi r19,0
 159 0004 FC01      		movw r30,r24
 160 0006 3383      		std Z+3,r19
 161 0008 2283      		std Z+2,r18
 241:funsape/peripheral/../util/bus.hpp ****         debugMessage(Error::FEATURE_NOT_SUPPORTED, Debug::CodeIndex::BUS_HANDLER_MODULE);
 162               		.loc 2 241 9 is_stmt 1 view .LVU39
 242:funsape/peripheral/../util/bus.hpp ****         return false;
 163               		.loc 2 242 9 view .LVU40
 243:funsape/peripheral/../util/bus.hpp ****     };
 164               		.loc 2 243 5 is_stmt 0 view .LVU41
 165 000a 80E0      		ldi r24,0
GAS LISTING /tmp/ccQ8U2zo.s 			page 8


 166               	.LVL12:
 167               	/* epilogue start */
 168               		.loc 2 243 5 view .LVU42
 169 000c 0895      		ret
 170               		.cfi_endproc
 171               	.LFE130:
 173               		.section	.text._ZN3Bus9setDeviceEPFvvES1_,"axG",@progbits,_ZN3Bus9setDeviceEPFvvES1_,comdat
 174               		.weak	_ZN3Bus9setDeviceEPFvvES1_
 176               	_ZN3Bus9setDeviceEPFvvES1_:
 177               	.LVL13:
 178               	.LFB131:
 244:funsape/peripheral/../util/bus.hpp **** 
 245:funsape/peripheral/../util/bus.hpp ****     //     ////////////////     SPI PROTOCOL METHODS     ////////////////     //
 246:funsape/peripheral/../util/bus.hpp ****     //!
 247:funsape/peripheral/../util/bus.hpp ****     //! \brief          Sets the device slave select functions.
 248:funsape/peripheral/../util/bus.hpp ****     //! \details        This function sets the device slave select functions.
 249:funsape/peripheral/../util/bus.hpp ****     //! \param[in]      actFunc_p       pointer to slave select function
 250:funsape/peripheral/../util/bus.hpp ****     //! \param[in]      deactFunc_p     pointer to slave release function
 251:funsape/peripheral/../util/bus.hpp ****     //! \return         bool_t          True on success / False on failure
 252:funsape/peripheral/../util/bus.hpp ****     //!
 253:funsape/peripheral/../util/bus.hpp ****     virtual bool_t setDevice(
 179               		.loc 2 253 20 is_stmt 1 view -0
 180               		.cfi_startproc
 181               	/* prologue: function */
 182               	/* frame size = 0 */
 183               	/* stack size = 0 */
 184               	.L__stack_usage = 0
 254:funsape/peripheral/../util/bus.hpp ****             void (* actFunc_p)(void),
 255:funsape/peripheral/../util/bus.hpp ****             void (* deactFunc_p)(void)
 256:funsape/peripheral/../util/bus.hpp ****     ) {
 257:funsape/peripheral/../util/bus.hpp ****         // Mark passage for debugging purpose
 258:funsape/peripheral/../util/bus.hpp ****         debugMark(PSTR("Bus::setDevice(void *(void), void *(void))"), Debug::CodeIndex::BUS_HANDLER
 185               		.loc 2 258 9 view .LVU44
 259:funsape/peripheral/../util/bus.hpp **** 
 260:funsape/peripheral/../util/bus.hpp ****         // Returns error
 261:funsape/peripheral/../util/bus.hpp ****         this->_lastError = Error::FEATURE_NOT_SUPPORTED;
 186               		.loc 2 261 9 view .LVU45
 187               		.loc 2 261 26 is_stmt 0 view .LVU46
 188 0000 22E4      		ldi r18,lo8(66)
 189 0002 30E0      		ldi r19,0
 190 0004 FC01      		movw r30,r24
 191 0006 3383      		std Z+3,r19
 192 0008 2283      		std Z+2,r18
 262:funsape/peripheral/../util/bus.hpp ****         debugMessage(Error::FEATURE_NOT_SUPPORTED, Debug::CodeIndex::BUS_HANDLER_MODULE);
 193               		.loc 2 262 9 is_stmt 1 view .LVU47
 263:funsape/peripheral/../util/bus.hpp ****         return false;
 194               		.loc 2 263 9 view .LVU48
 264:funsape/peripheral/../util/bus.hpp ****     };
 195               		.loc 2 264 5 is_stmt 0 view .LVU49
 196 000a 80E0      		ldi r24,0
 197               	.LVL14:
 198               	/* epilogue start */
 199               		.loc 2 264 5 view .LVU50
 200 000c 0895      		ret
 201               		.cfi_endproc
 202               	.LFE131:
 204               		.section	.text._ZN3Bus10getBusTypeEv,"axG",@progbits,_ZN3Bus10getBusTypeEv,comdat
GAS LISTING /tmp/ccQ8U2zo.s 			page 9


 205               		.weak	_ZN3Bus10getBusTypeEv
 207               	_ZN3Bus10getBusTypeEv:
 208               	.LVL15:
 209               	.LFB132:
 265:funsape/peripheral/../util/bus.hpp **** 
 266:funsape/peripheral/../util/bus.hpp ****     // !
 267:funsape/peripheral/../util/bus.hpp ****     // ! \brief          Sets the device slave select Gpio pin.
 268:funsape/peripheral/../util/bus.hpp ****     // ! \details        This function sets the device slave select Gpio pin.
 269:funsape/peripheral/../util/bus.hpp ****     // ! \param[in]      csPin_p         pointer Gpio slave select pin object
 270:funsape/peripheral/../util/bus.hpp ****     // ! \return         bool_t          True on success / False on failure
 271:funsape/peripheral/../util/bus.hpp ****     // !
 272:funsape/peripheral/../util/bus.hpp ****     // virtual bool_t setDevice(
 273:funsape/peripheral/../util/bus.hpp ****     //         const Gpio *csPin_p
 274:funsape/peripheral/../util/bus.hpp ****     // ) {
 275:funsape/peripheral/../util/bus.hpp ****     //     // Mark passage for debugging purpose
 276:funsape/peripheral/../util/bus.hpp ****     // debugMark(PSTR("Bus::setDevice(const Gpio *)"), Debug::CodeIndex::BUS_HANDLER_MODULE);
 277:funsape/peripheral/../util/bus.hpp **** 
 278:funsape/peripheral/../util/bus.hpp ****     //     // Returns error
 279:funsape/peripheral/../util/bus.hpp ****     //     this->_lastError = Error::FEATURE_NOT_SUPPORTED;
 280:funsape/peripheral/../util/bus.hpp ****     //     debugMessage(Error::FEATURE_NOT_SUPPORTED, Debug::CodeIndex::BUS_HANDLER_MODULE);
 281:funsape/peripheral/../util/bus.hpp ****     //     return false;
 282:funsape/peripheral/../util/bus.hpp ****     // };
 283:funsape/peripheral/../util/bus.hpp **** 
 284:funsape/peripheral/../util/bus.hpp ****     //     /////////////////     CONTROL AND STATUS     /////////////////     //
 285:funsape/peripheral/../util/bus.hpp ****     //!
 286:funsape/peripheral/../util/bus.hpp ****     //! \brief          Retuns the bus type.
 287:funsape/peripheral/../util/bus.hpp ****     //! \details        This function returns the bus type interface.
 288:funsape/peripheral/../util/bus.hpp ****     //! \return         BusType         Bus type
 289:funsape/peripheral/../util/bus.hpp ****     //!
 290:funsape/peripheral/../util/bus.hpp ****     virtual Bus::BusType getBusType(void) {
 210               		.loc 2 290 26 is_stmt 1 view -0
 211               		.cfi_startproc
 212               	/* prologue: function */
 213               	/* frame size = 0 */
 214               	/* stack size = 0 */
 215               	.L__stack_usage = 0
 291:funsape/peripheral/../util/bus.hpp ****         // Mark passage for debugging purpose
 292:funsape/peripheral/../util/bus.hpp ****         debugMark(PSTR("Bus::getBusType(void)"), Debug::CodeIndex::BUS_HANDLER_MODULE);
 216               		.loc 2 292 9 view .LVU52
 293:funsape/peripheral/../util/bus.hpp **** 
 294:funsape/peripheral/../util/bus.hpp ****         // Returns default handler
 295:funsape/peripheral/../util/bus.hpp ****         return BusType::NONE;
 217               		.loc 2 295 9 view .LVU53
 296:funsape/peripheral/../util/bus.hpp ****     }
 218               		.loc 2 296 5 is_stmt 0 view .LVU54
 219 0000 80E0      		ldi r24,0
 220 0002 90E0      		ldi r25,0
 221               	.LVL16:
 222               	/* epilogue start */
 223               		.loc 2 296 5 view .LVU55
 224 0004 0895      		ret
 225               		.cfi_endproc
 226               	.LFE132:
 228               		.section	.text._ZN3Bus12getLastErrorEv,"axG",@progbits,_ZN3Bus12getLastErrorEv,comdat
 229               		.weak	_ZN3Bus12getLastErrorEv
 231               	_ZN3Bus12getLastErrorEv:
 232               	.LVL17:
GAS LISTING /tmp/ccQ8U2zo.s 			page 10


 233               	.LFB133:
 297:funsape/peripheral/../util/bus.hpp **** 
 298:funsape/peripheral/../util/bus.hpp ****     //!
 299:funsape/peripheral/../util/bus.hpp ****     //! \brief          Retuns the last error.
 300:funsape/peripheral/../util/bus.hpp ****     //! \details        This function returns the error code associated with the
 301:funsape/peripheral/../util/bus.hpp ****     //!                     last operation.
 302:funsape/peripheral/../util/bus.hpp ****     //! \return         Error           Error code
 303:funsape/peripheral/../util/bus.hpp ****     //!
 304:funsape/peripheral/../util/bus.hpp ****     virtual Error getLastError(void) {
 234               		.loc 2 304 19 is_stmt 1 view -0
 235               		.cfi_startproc
 236               	/* prologue: function */
 237               	/* frame size = 0 */
 238               	/* stack size = 0 */
 239               	.L__stack_usage = 0
 305:funsape/peripheral/../util/bus.hpp ****         // Returns last error
 306:funsape/peripheral/../util/bus.hpp ****         return this->_lastError;
 240               		.loc 2 306 9 view .LVU57
 307:funsape/peripheral/../util/bus.hpp ****     }
 241               		.loc 2 307 5 is_stmt 0 view .LVU58
 242 0000 FC01      		movw r30,r24
 243 0002 8281      		ldd r24,Z+2
 244 0004 9381      		ldd r25,Z+3
 245               	.LVL18:
 246               	/* epilogue start */
 247               		.loc 2 307 5 view .LVU59
 248 0006 0895      		ret
 249               		.cfi_endproc
 250               	.LFE133:
 252               		.section	.text._ZN3Twi9setDeviceEjb,"ax",@progbits
 253               	.global	_ZN3Twi9setDeviceEjb
 255               	_ZN3Twi9setDeviceEjb:
 256               	.LVL19:
 257               	.LFB159:
   1:funsape/peripheral/twi.cpp **** //!
   2:funsape/peripheral/twi.cpp **** //! \file           twi.cpp
   3:funsape/peripheral/twi.cpp **** //! \brief          TWI peripheral control for the FunSAPE AVR8 Library
   4:funsape/peripheral/twi.cpp **** //! \author         Leandro Schwarz (bladabuska+funsapeavr8lib@gmail.com)
   5:funsape/peripheral/twi.cpp **** //! \date           2024-05-08
   6:funsape/peripheral/twi.cpp **** //! \version        24.05
   7:funsape/peripheral/twi.cpp **** //! \copyright      license
   8:funsape/peripheral/twi.cpp **** //! \details        TWI peripheral control for the FunSAPE AVR8 Library
   9:funsape/peripheral/twi.cpp **** //!
  10:funsape/peripheral/twi.cpp **** 
  11:funsape/peripheral/twi.cpp **** // =============================================================================
  12:funsape/peripheral/twi.cpp **** // System file dependencies
  13:funsape/peripheral/twi.cpp **** // =============================================================================
  14:funsape/peripheral/twi.cpp **** 
  15:funsape/peripheral/twi.cpp **** #include "twi.hpp"
  16:funsape/peripheral/twi.cpp **** #if !defined(__TWI_HPP)
  17:funsape/peripheral/twi.cpp **** #    error "Header file is corrupted!"
  18:funsape/peripheral/twi.cpp **** #elif __TWI_HPP != 2604
  19:funsape/peripheral/twi.cpp **** #    error "Version mismatch between source and header files!"
  20:funsape/peripheral/twi.cpp **** #endif
  21:funsape/peripheral/twi.cpp **** 
  22:funsape/peripheral/twi.cpp **** #include <avr/interrupt.h>
  23:funsape/peripheral/twi.cpp **** 
GAS LISTING /tmp/ccQ8U2zo.s 			page 11


  24:funsape/peripheral/twi.cpp **** // =============================================================================
  25:funsape/peripheral/twi.cpp **** // File exclusive - Constants
  26:funsape/peripheral/twi.cpp **** // =============================================================================
  27:funsape/peripheral/twi.cpp **** 
  28:funsape/peripheral/twi.cpp **** cuint32_t   constTwiBitRateMax          = 400'000;
  29:funsape/peripheral/twi.cpp **** cuint32_t   constTwiBitRateMin          = 1'000;
  30:funsape/peripheral/twi.cpp **** cuint8_t    constTwiBufferSizeMax       = 100;
  31:funsape/peripheral/twi.cpp **** cuint8_t    constTwiBufferSizeMin       = 10;
  32:funsape/peripheral/twi.cpp **** cuint16_t   constTwiDefaultTimeout      = 20;
  33:funsape/peripheral/twi.cpp **** 
  34:funsape/peripheral/twi.cpp **** // =============================================================================
  35:funsape/peripheral/twi.cpp **** // File exclusive - New data types
  36:funsape/peripheral/twi.cpp **** // =============================================================================
  37:funsape/peripheral/twi.cpp **** 
  38:funsape/peripheral/twi.cpp **** // NONE
  39:funsape/peripheral/twi.cpp **** 
  40:funsape/peripheral/twi.cpp **** // =============================================================================
  41:funsape/peripheral/twi.cpp **** // File exclusive - Global variables
  42:funsape/peripheral/twi.cpp **** // =============================================================================
  43:funsape/peripheral/twi.cpp **** 
  44:funsape/peripheral/twi.cpp **** Twi twi;
  45:funsape/peripheral/twi.cpp **** 
  46:funsape/peripheral/twi.cpp **** // =============================================================================
  47:funsape/peripheral/twi.cpp **** // File exclusive - Macro-functions
  48:funsape/peripheral/twi.cpp **** // =============================================================================
  49:funsape/peripheral/twi.cpp **** 
  50:funsape/peripheral/twi.cpp **** // NONE
  51:funsape/peripheral/twi.cpp **** 
  52:funsape/peripheral/twi.cpp **** // =============================================================================
  53:funsape/peripheral/twi.cpp **** // Class constructors
  54:funsape/peripheral/twi.cpp **** // =============================================================================
  55:funsape/peripheral/twi.cpp **** 
  56:funsape/peripheral/twi.cpp **** Twi::Twi(void)
  57:funsape/peripheral/twi.cpp **** {
  58:funsape/peripheral/twi.cpp ****     // Reset data members
  59:funsape/peripheral/twi.cpp ****     this->_bufferData                   = nullptr;
  60:funsape/peripheral/twi.cpp ****     this->_bufferIndex                  = 0;
  61:funsape/peripheral/twi.cpp ****     this->_bufferLength                 = 0;
  62:funsape/peripheral/twi.cpp ****     this->_bufferMaxSize                = 0;
  63:funsape/peripheral/twi.cpp ****     this->_devAddress                   = 0;
  64:funsape/peripheral/twi.cpp ****     this->_devAddressSet                = false;
  65:funsape/peripheral/twi.cpp ****     this->_initialized                  = false;
  66:funsape/peripheral/twi.cpp ****     this->_lastTransOk                  = false;
  67:funsape/peripheral/twi.cpp ****     this->_state                        = State::NO_STATE;
  68:funsape/peripheral/twi.cpp ****     this->_timeout                      = constTwiDefaultTimeout;
  69:funsape/peripheral/twi.cpp ****     this->_twiError                     = 0;
  70:funsape/peripheral/twi.cpp ****     this->_useLongAddress               = false;
  71:funsape/peripheral/twi.cpp **** 
  72:funsape/peripheral/twi.cpp ****     // Returns successfully
  73:funsape/peripheral/twi.cpp ****     this->_lastError = Error::NONE;
  74:funsape/peripheral/twi.cpp ****     return;
  75:funsape/peripheral/twi.cpp **** }
  76:funsape/peripheral/twi.cpp **** 
  77:funsape/peripheral/twi.cpp **** Twi::~Twi(void)
  78:funsape/peripheral/twi.cpp **** {
  79:funsape/peripheral/twi.cpp ****     // Returns successfully
  80:funsape/peripheral/twi.cpp ****     return;
GAS LISTING /tmp/ccQ8U2zo.s 			page 12


  81:funsape/peripheral/twi.cpp **** }
  82:funsape/peripheral/twi.cpp **** 
  83:funsape/peripheral/twi.cpp **** // =============================================================================
  84:funsape/peripheral/twi.cpp **** // Class public methods - Inhirited methods
  85:funsape/peripheral/twi.cpp **** // =============================================================================
  86:funsape/peripheral/twi.cpp **** 
  87:funsape/peripheral/twi.cpp **** bool_t Twi::readReg(cuint8_t reg_p, uint8_t *buffData_p, cuint16_t buffSize_p)
  88:funsape/peripheral/twi.cpp **** {
  89:funsape/peripheral/twi.cpp ****     // Local variables
  90:funsape/peripheral/twi.cpp ****     bool_t auxBool                      = false;
  91:funsape/peripheral/twi.cpp **** 
  92:funsape/peripheral/twi.cpp ****     // Checks for errors - Device address not set
  93:funsape/peripheral/twi.cpp ****     if(!this->_devAddressSet) {
  94:funsape/peripheral/twi.cpp ****         // Returns error
  95:funsape/peripheral/twi.cpp ****         this->_lastError = Error::DEVICE_NOT_SELECTED;
  96:funsape/peripheral/twi.cpp ****         return false;
  97:funsape/peripheral/twi.cpp ****     }
  98:funsape/peripheral/twi.cpp **** 
  99:funsape/peripheral/twi.cpp ****     // Sends data
 100:funsape/peripheral/twi.cpp ****     if(this->_useLongAddress) {
 101:funsape/peripheral/twi.cpp ****         // FIXME - implement support to 10-bit address
 102:funsape/peripheral/twi.cpp ****         // Returns error
 103:funsape/peripheral/twi.cpp ****         this->_lastError = Error::NOT_IMPLEMENTED;
 104:funsape/peripheral/twi.cpp ****         return false;
 105:funsape/peripheral/twi.cpp ****     } else {
 106:funsape/peripheral/twi.cpp ****         auxBool = this->sendData((uint8_t)this->_devAddress, Operation::READ, reg_p, buffData_p, bu
 107:funsape/peripheral/twi.cpp ****     }
 108:funsape/peripheral/twi.cpp **** 
 109:funsape/peripheral/twi.cpp ****     // Error - Communication error
 110:funsape/peripheral/twi.cpp ****     if(!auxBool) {
 111:funsape/peripheral/twi.cpp ****         // Returns error
 112:funsape/peripheral/twi.cpp ****         return false;
 113:funsape/peripheral/twi.cpp ****     }
 114:funsape/peripheral/twi.cpp **** 
 115:funsape/peripheral/twi.cpp ****     // Returns successfully
 116:funsape/peripheral/twi.cpp ****     this->_lastError = Error::NONE;
 117:funsape/peripheral/twi.cpp ****     return true;
 118:funsape/peripheral/twi.cpp **** }
 119:funsape/peripheral/twi.cpp **** 
 120:funsape/peripheral/twi.cpp **** bool_t Twi::writeReg(cuint8_t reg_p, cuint8_t *buffData_p, cuint16_t buffSize_p)
 121:funsape/peripheral/twi.cpp **** {
 122:funsape/peripheral/twi.cpp ****     // Local variables
 123:funsape/peripheral/twi.cpp ****     bool_t auxBool                      = false;
 124:funsape/peripheral/twi.cpp **** 
 125:funsape/peripheral/twi.cpp ****     // Checks for errors - Device address not set
 126:funsape/peripheral/twi.cpp ****     if(!this->_devAddressSet) {
 127:funsape/peripheral/twi.cpp ****         // Returns error
 128:funsape/peripheral/twi.cpp ****         this->_lastError = Error::DEVICE_NOT_SELECTED;
 129:funsape/peripheral/twi.cpp ****         return false;
 130:funsape/peripheral/twi.cpp ****     }
 131:funsape/peripheral/twi.cpp **** 
 132:funsape/peripheral/twi.cpp ****     // Sends data
 133:funsape/peripheral/twi.cpp ****     if(this->_useLongAddress) {
 134:funsape/peripheral/twi.cpp ****         // FIXME - implement support to 10-bit address
 135:funsape/peripheral/twi.cpp ****         // Returns error
 136:funsape/peripheral/twi.cpp ****         this->_lastError = Error::NOT_IMPLEMENTED;
 137:funsape/peripheral/twi.cpp ****         return false;
GAS LISTING /tmp/ccQ8U2zo.s 			page 13


 138:funsape/peripheral/twi.cpp ****     } else {
 139:funsape/peripheral/twi.cpp ****         auxBool = this->sendData((uint8_t)this->_devAddress, Operation::WRITE, reg_p, (uint8_t *)bu
 140:funsape/peripheral/twi.cpp ****     }
 141:funsape/peripheral/twi.cpp **** 
 142:funsape/peripheral/twi.cpp ****     // Error - Communication error
 143:funsape/peripheral/twi.cpp ****     if(!auxBool) {
 144:funsape/peripheral/twi.cpp ****         // Returns error
 145:funsape/peripheral/twi.cpp ****         return false;
 146:funsape/peripheral/twi.cpp ****     }
 147:funsape/peripheral/twi.cpp **** 
 148:funsape/peripheral/twi.cpp ****     // Returns successfully
 149:funsape/peripheral/twi.cpp ****     this->_lastError = Error::NONE;
 150:funsape/peripheral/twi.cpp ****     return true;
 151:funsape/peripheral/twi.cpp **** }
 152:funsape/peripheral/twi.cpp **** 
 153:funsape/peripheral/twi.cpp **** bool_t Twi::setDevice(cuint16_t address_p, cbool_t useLongAddress_p)
 154:funsape/peripheral/twi.cpp **** {
 258               		.loc 1 154 1 is_stmt 1 view -0
 259               		.cfi_startproc
 260               	/* prologue: function */
 261               	/* frame size = 0 */
 262               	/* stack size = 0 */
 263               	.L__stack_usage = 0
 264               		.loc 1 154 1 is_stmt 0 view .LVU61
 265 0000 FC01      		movw r30,r24
 155:funsape/peripheral/twi.cpp ****     // Update data members
 156:funsape/peripheral/twi.cpp ****     this->_devAddress                   = address_p;
 266               		.loc 1 156 5 is_stmt 1 view .LVU62
 267               		.loc 1 156 43 is_stmt 0 view .LVU63
 268 0002 CB01      		movw r24,r22
 269               	.LVL20:
 270               		.loc 1 156 43 view .LVU64
 271 0004 9370      		andi r25,3
 272 0006 DC01      		movw r26,r24
 273               		.loc 1 156 41 view .LVU65
 274 0008 262F      		mov r18,r22
 275 000a 220F      		lsl r18
 276 000c 8485      		ldd r24,Z+12
 277 000e 8170      		andi r24,lo8(1)
 278 0010 822B      		or r24,r18
 279 0012 8487      		std Z+12,r24
 280 0014 67FB      		bst r22,7
 281 0016 6627      		clr r22
 282 0018 60F9      		bld r22,0
 283               	.LVL21:
 284               		.loc 1 156 41 view .LVU66
 285 001a 8585      		ldd r24,Z+13
 286 001c 8E7F      		andi r24,lo8(-2)
 287 001e 682B      		or r22,r24
 288 0020 6587      		std Z+13,r22
 289 0022 8B2F      		mov r24,r27
 290 0024 8370      		andi r24,lo8(3)
 291 0026 880F      		lsl r24
 292 0028 697F      		andi r22,lo8(-7)
 293 002a 862B      		or r24,r22
 294 002c 8587      		std Z+13,r24
 157:funsape/peripheral/twi.cpp ****     this->_useLongAddress               = useLongAddress_p;
GAS LISTING /tmp/ccQ8U2zo.s 			page 14


 295               		.loc 1 157 5 is_stmt 1 view .LVU67
 296               		.loc 1 157 41 is_stmt 0 view .LVU68
 297 002e 40FB      		bst r20,0
 298 0030 83F9      		bld r24,3
 299               	.LVL22:
 300               		.loc 1 157 41 view .LVU69
 301 0032 8587      		std Z+13,r24
 158:funsape/peripheral/twi.cpp ****     this->_devAddressSet                = true;
 302               		.loc 1 158 5 is_stmt 1 view .LVU70
 303               		.loc 1 158 41 is_stmt 0 view .LVU71
 304 0034 8681      		ldd r24,Z+6
 305 0036 8160      		ori r24,lo8(1<<0)
 306 0038 8683      		std Z+6,r24
 159:funsape/peripheral/twi.cpp **** 
 160:funsape/peripheral/twi.cpp ****     // Returns successfully
 161:funsape/peripheral/twi.cpp ****     this->_lastError = Error::NONE;
 307               		.loc 1 161 5 is_stmt 1 view .LVU72
 308               		.loc 1 161 22 is_stmt 0 view .LVU73
 309 003a 1582      		std Z+5,__zero_reg__
 310 003c 1482      		std Z+4,__zero_reg__
 162:funsape/peripheral/twi.cpp ****     return true;
 311               		.loc 1 162 5 is_stmt 1 view .LVU74
 163:funsape/peripheral/twi.cpp **** }
 312               		.loc 1 163 1 is_stmt 0 view .LVU75
 313 003e 81E0      		ldi r24,lo8(1)
 314               	/* epilogue start */
 315 0040 0895      		ret
 316               		.cfi_endproc
 317               	.LFE159:
 319               		.section	.text._ZN3Twi10getBusTypeEv,"ax",@progbits
 320               	.global	_ZN3Twi10getBusTypeEv
 322               	_ZN3Twi10getBusTypeEv:
 323               	.LVL23:
 324               	.LFB161:
 164:funsape/peripheral/twi.cpp **** 
 165:funsape/peripheral/twi.cpp **** bool_t Twi::sendData(uint8_t devAddress_p, Operation readWrite_p, uint8_t reg_p, uint8_t *msg_p, ui
 166:funsape/peripheral/twi.cpp **** {
 167:funsape/peripheral/twi.cpp ****     // Check for errors - NOT Initialized
 168:funsape/peripheral/twi.cpp ****     if(!this->_initialized) {
 169:funsape/peripheral/twi.cpp ****         // Returns error
 170:funsape/peripheral/twi.cpp ****         this->_lastError = Error::NOT_INITIALIZED;
 171:funsape/peripheral/twi.cpp ****         return false;
 172:funsape/peripheral/twi.cpp ****     }
 173:funsape/peripheral/twi.cpp ****     // Check for errors - Message pointer
 174:funsape/peripheral/twi.cpp ****     if((msgSize_p > 0) && (msg_p == nullptr)) {
 175:funsape/peripheral/twi.cpp ****         // Returns error
 176:funsape/peripheral/twi.cpp ****         this->_lastError = Error::ARGUMENT_POINTER_NULL;
 177:funsape/peripheral/twi.cpp ****         return false;
 178:funsape/peripheral/twi.cpp ****     }
 179:funsape/peripheral/twi.cpp **** 
 180:funsape/peripheral/twi.cpp ****     // Wait last transmission ends
 181:funsape/peripheral/twi.cpp ****     if(!this->_waitWhileIsBusy()) {
 182:funsape/peripheral/twi.cpp ****         // Returns error
 183:funsape/peripheral/twi.cpp ****         return false;
 184:funsape/peripheral/twi.cpp ****     }
 185:funsape/peripheral/twi.cpp **** 
 186:funsape/peripheral/twi.cpp ****     // Prepare to send data
GAS LISTING /tmp/ccQ8U2zo.s 			page 15


 187:funsape/peripheral/twi.cpp ****     if(readWrite_p == Operation::WRITE) {       // Write operation
 188:funsape/peripheral/twi.cpp ****         this->_bufferData[0] = (devAddress_p << 1) | (uint8_t)(Operation::WRITE);
 189:funsape/peripheral/twi.cpp ****         this->_bufferData[1] = reg_p;
 190:funsape/peripheral/twi.cpp ****         for(uint8_t i = 0; i < msgSize_p; i++) {
 191:funsape/peripheral/twi.cpp ****             this->_bufferData[i + 2] = msg_p[i];
 192:funsape/peripheral/twi.cpp ****         }
 193:funsape/peripheral/twi.cpp ****         this->_bufferLength = msgSize_p + 2;
 194:funsape/peripheral/twi.cpp ****         this->_startTransmission();
 195:funsape/peripheral/twi.cpp ****     } else {                            // Read operation
 196:funsape/peripheral/twi.cpp ****         // Set pointer first
 197:funsape/peripheral/twi.cpp ****         this->_bufferData[0] = (devAddress_p << 1) | (uint8_t)(Operation::WRITE);
 198:funsape/peripheral/twi.cpp ****         this->_bufferData[1] = reg_p;
 199:funsape/peripheral/twi.cpp ****         this->_bufferLength = 2;
 200:funsape/peripheral/twi.cpp ****         this->_startTransmission();
 201:funsape/peripheral/twi.cpp ****         // Wait last transmission ends
 202:funsape/peripheral/twi.cpp ****         if(!this->_waitWhileIsBusy()) {
 203:funsape/peripheral/twi.cpp ****             // Returns error
 204:funsape/peripheral/twi.cpp ****             return false;
 205:funsape/peripheral/twi.cpp ****         }
 206:funsape/peripheral/twi.cpp ****         // Read data
 207:funsape/peripheral/twi.cpp ****         this->_bufferData[0] = (devAddress_p << 1) | (uint8_t)(Operation::READ);
 208:funsape/peripheral/twi.cpp ****         this->_bufferLength = msgSize_p + 1;
 209:funsape/peripheral/twi.cpp ****         this->_startTransmission();
 210:funsape/peripheral/twi.cpp ****         if(!this->_waitWhileIsBusy()) {
 211:funsape/peripheral/twi.cpp ****             // Returns error
 212:funsape/peripheral/twi.cpp ****             return false;
 213:funsape/peripheral/twi.cpp ****         }
 214:funsape/peripheral/twi.cpp ****         // Gets data from reception buffer
 215:funsape/peripheral/twi.cpp ****         if(!this->_readFromBuffer(msg_p, msgSize_p)) {
 216:funsape/peripheral/twi.cpp ****             // Returns error
 217:funsape/peripheral/twi.cpp ****             return false;
 218:funsape/peripheral/twi.cpp ****         }
 219:funsape/peripheral/twi.cpp ****     }
 220:funsape/peripheral/twi.cpp **** 
 221:funsape/peripheral/twi.cpp ****     // Returns successfully
 222:funsape/peripheral/twi.cpp ****     this->_lastError = Error::NONE;
 223:funsape/peripheral/twi.cpp ****     return true;
 224:funsape/peripheral/twi.cpp **** }
 225:funsape/peripheral/twi.cpp **** 
 226:funsape/peripheral/twi.cpp **** Bus::BusType Twi::getBusType(void)
 227:funsape/peripheral/twi.cpp **** {
 325               		.loc 1 227 1 is_stmt 1 view -0
 326               		.cfi_startproc
 327               	/* prologue: function */
 328               	/* frame size = 0 */
 329               	/* stack size = 0 */
 330               	.L__stack_usage = 0
 228:funsape/peripheral/twi.cpp ****     // Returns bus type
 229:funsape/peripheral/twi.cpp ****     return Bus::BusType::TWI;
 331               		.loc 1 229 5 view .LVU77
 230:funsape/peripheral/twi.cpp **** }
 332               		.loc 1 230 1 is_stmt 0 view .LVU78
 333 0000 85E0      		ldi r24,lo8(5)
 334 0002 90E0      		ldi r25,0
 335               	.LVL24:
 336               	/* epilogue start */
 337               		.loc 1 230 1 view .LVU79
GAS LISTING /tmp/ccQ8U2zo.s 			page 16


 338 0004 0895      		ret
 339               		.cfi_endproc
 340               	.LFE161:
 342               		.section	.text._ZN3Twi12getLastErrorEv,"ax",@progbits
 343               	.global	_ZN3Twi12getLastErrorEv
 345               	_ZN3Twi12getLastErrorEv:
 346               	.LVL25:
 347               	.LFB164:
 231:funsape/peripheral/twi.cpp **** 
 232:funsape/peripheral/twi.cpp **** // =============================================================================
 233:funsape/peripheral/twi.cpp **** // Class public methods - Own methods
 234:funsape/peripheral/twi.cpp **** // =============================================================================
 235:funsape/peripheral/twi.cpp **** 
 236:funsape/peripheral/twi.cpp **** bool_t Twi::init(cuint32_t clockSpeed_p, cuint8_t bufferSize_p)
 237:funsape/peripheral/twi.cpp **** {
 238:funsape/peripheral/twi.cpp ****     // Local variables
 239:funsape/peripheral/twi.cpp ****     uint32_t aux32                      = 0;
 240:funsape/peripheral/twi.cpp ****     // uint16_t aux16 = 0;
 241:funsape/peripheral/twi.cpp ****     uint8_t aux8                        = 0;
 242:funsape/peripheral/twi.cpp **** 
 243:funsape/peripheral/twi.cpp ****     // Disables TWI and reset all registers
 244:funsape/peripheral/twi.cpp ****     clrBit(TWCR, TWEN);
 245:funsape/peripheral/twi.cpp ****     TWCR = 0x00;
 246:funsape/peripheral/twi.cpp ****     TWSR = 0x00;
 247:funsape/peripheral/twi.cpp ****     TWBR = 0;
 248:funsape/peripheral/twi.cpp ****     TWAR = 0;
 249:funsape/peripheral/twi.cpp ****     TWAMR = 0;
 250:funsape/peripheral/twi.cpp **** 
 251:funsape/peripheral/twi.cpp ****     // Check for errors - Clock speed
 252:funsape/peripheral/twi.cpp ****     if(clockSpeed_p < constTwiBitRateMin) {
 253:funsape/peripheral/twi.cpp ****         // Returns error
 254:funsape/peripheral/twi.cpp ****         this->_lastError = Error::CLOCK_SPEED_TOO_LOW;
 255:funsape/peripheral/twi.cpp ****         return false;
 256:funsape/peripheral/twi.cpp ****     } else if(clockSpeed_p > constTwiBitRateMax) {
 257:funsape/peripheral/twi.cpp ****         // Returns error
 258:funsape/peripheral/twi.cpp ****         this->_lastError = Error::CLOCK_SPEED_TOO_HIGH;
 259:funsape/peripheral/twi.cpp ****         return false;
 260:funsape/peripheral/twi.cpp ****     }
 261:funsape/peripheral/twi.cpp ****     // Check for errors - Buffer size
 262:funsape/peripheral/twi.cpp ****     if(bufferSize_p < constTwiBufferSizeMin) {
 263:funsape/peripheral/twi.cpp ****         // Returns error
 264:funsape/peripheral/twi.cpp ****         this->_lastError = Error::BUFFER_SIZE_TOO_SMALL;
 265:funsape/peripheral/twi.cpp ****         return false;
 266:funsape/peripheral/twi.cpp ****     } else if(bufferSize_p > constTwiBufferSizeMax) {
 267:funsape/peripheral/twi.cpp ****         // Returns error
 268:funsape/peripheral/twi.cpp ****         this->_lastError = Error::BUFFER_SIZE_TOO_LARGE;
 269:funsape/peripheral/twi.cpp ****         return false;
 270:funsape/peripheral/twi.cpp ****     }
 271:funsape/peripheral/twi.cpp **** 
 272:funsape/peripheral/twi.cpp ****     // Allocates memory (Free first if already allocated)
 273:funsape/peripheral/twi.cpp ****     if(isPointerValid(this->_bufferData)) {
 274:funsape/peripheral/twi.cpp ****         free(this->_bufferData);
 275:funsape/peripheral/twi.cpp ****         this->_bufferData = nullptr;
 276:funsape/peripheral/twi.cpp ****     }
 277:funsape/peripheral/twi.cpp ****     this->_bufferData = (uint8_t *)calloc((bufferSize_p + 2), sizeof(uint8_t));
 278:funsape/peripheral/twi.cpp ****     if(!isPointerValid(this->_bufferData)) {
 279:funsape/peripheral/twi.cpp ****         // Returns error
GAS LISTING /tmp/ccQ8U2zo.s 			page 17


 280:funsape/peripheral/twi.cpp ****         this->_lastError = Error::MEMORY_ALLOCATION;
 281:funsape/peripheral/twi.cpp ****         return false;
 282:funsape/peripheral/twi.cpp ****     }
 283:funsape/peripheral/twi.cpp ****     this->_bufferMaxSize = bufferSize_p + 2;
 284:funsape/peripheral/twi.cpp ****     this->_bufferIndex = 0;
 285:funsape/peripheral/twi.cpp ****     this->_bufferLength = 0;
 286:funsape/peripheral/twi.cpp **** 
 287:funsape/peripheral/twi.cpp ****     // Evaluate BIT RATE and PRESCALER
 288:funsape/peripheral/twi.cpp ****     systemStatus.getCpuClock(&aux32);
 289:funsape/peripheral/twi.cpp ****     aux32 /= clockSpeed_p;
 290:funsape/peripheral/twi.cpp ****     // aux16 = (uint16_t)aux32;
 291:funsape/peripheral/twi.cpp ****     aux32 -= 16;
 292:funsape/peripheral/twi.cpp ****     aux32 /= 2;
 293:funsape/peripheral/twi.cpp ****     if(aux32 <= 255) {                  // Prescaler 1
 294:funsape/peripheral/twi.cpp ****         aux8 = (uint8_t)aux32;
 295:funsape/peripheral/twi.cpp ****     } else if(aux32 <= 1020) {          // Prescaler 4
 296:funsape/peripheral/twi.cpp ****         aux8 = (uint8_t)(aux32 / 4);
 297:funsape/peripheral/twi.cpp ****         TWSR |= (1 << TWPS0);
 298:funsape/peripheral/twi.cpp ****     } else if(aux32 <= 4080) {          // Prescaler 16
 299:funsape/peripheral/twi.cpp ****         aux8 = (uint8_t)(aux32 / 16);
 300:funsape/peripheral/twi.cpp ****         TWSR |= (2 << TWPS0);
 301:funsape/peripheral/twi.cpp ****     } else if(aux32 <= 16320) {         // Prescaler 64
 302:funsape/peripheral/twi.cpp ****         aux8 = (uint8_t)(aux32 / 64);
 303:funsape/peripheral/twi.cpp ****         TWSR |= (3 << TWPS0);
 304:funsape/peripheral/twi.cpp ****     }
 305:funsape/peripheral/twi.cpp **** 
 306:funsape/peripheral/twi.cpp ****     // Update TWI registers
 307:funsape/peripheral/twi.cpp ****     TWBR                                = aux8;
 308:funsape/peripheral/twi.cpp ****     TWDR                                = 0xFF;         // Release SDA
 309:funsape/peripheral/twi.cpp ****     setBit(TWCR, TWEN);                 // Activate TWI interface
 310:funsape/peripheral/twi.cpp ****     this->_initialized                  = true;
 311:funsape/peripheral/twi.cpp **** 
 312:funsape/peripheral/twi.cpp ****     // Returns successfully
 313:funsape/peripheral/twi.cpp ****     this->_lastError = Error::NONE;
 314:funsape/peripheral/twi.cpp ****     return true;
 315:funsape/peripheral/twi.cpp **** }
 316:funsape/peripheral/twi.cpp **** 
 317:funsape/peripheral/twi.cpp **** bool_t Twi::setTimeout(cuint16_t timeout_p)
 318:funsape/peripheral/twi.cpp **** {
 319:funsape/peripheral/twi.cpp ****     // Updates data members
 320:funsape/peripheral/twi.cpp ****     this->_timeout = timeout_p;
 321:funsape/peripheral/twi.cpp **** 
 322:funsape/peripheral/twi.cpp ****     // Returns successfully
 323:funsape/peripheral/twi.cpp ****     this->_lastError = Error::NONE;
 324:funsape/peripheral/twi.cpp ****     return true;
 325:funsape/peripheral/twi.cpp **** }
 326:funsape/peripheral/twi.cpp **** 
 327:funsape/peripheral/twi.cpp **** Error Twi::getLastError(void)
 328:funsape/peripheral/twi.cpp **** {
 348               		.loc 1 328 1 is_stmt 1 view -0
 349               		.cfi_startproc
 350               	/* prologue: function */
 351               	/* frame size = 0 */
 352               	/* stack size = 0 */
 353               	.L__stack_usage = 0
 329:funsape/peripheral/twi.cpp ****     // Returns last error
 330:funsape/peripheral/twi.cpp ****     return this->_lastError;
GAS LISTING /tmp/ccQ8U2zo.s 			page 18


 354               		.loc 1 330 5 view .LVU81
 331:funsape/peripheral/twi.cpp **** }
 355               		.loc 1 331 1 is_stmt 0 view .LVU82
 356 0000 FC01      		movw r30,r24
 357 0002 8481      		ldd r24,Z+4
 358 0004 9581      		ldd r25,Z+5
 359               	.LVL26:
 360               	/* epilogue start */
 361               		.loc 1 331 1 view .LVU83
 362 0006 0895      		ret
 363               		.cfi_endproc
 364               	.LFE164:
 366               		.section	.text._ZN3TwiC2Ev,"ax",@progbits
 367               	.global	_ZN3TwiC2Ev
 369               	_ZN3TwiC2Ev:
 370               	.LVL27:
 371               	.LFB152:
  56:funsape/peripheral/twi.cpp **** {
 372               		.loc 1 56 1 is_stmt 1 view -0
 373               		.cfi_startproc
 374               	/* prologue: function */
 375               	/* frame size = 0 */
 376               	/* stack size = 0 */
 377               	.L__stack_usage = 0
  56:funsape/peripheral/twi.cpp **** {
 378               		.loc 1 56 1 is_stmt 0 view .LVU85
 379 0000 FC01      		movw r30,r24
 380               	.LVL28:
 381               	.LBB10:
 382               	.LBB11:
 383               	.LBI11:
  77:funsape/peripheral/../util/bus.hpp **** {
 384               		.loc 2 77 7 is_stmt 1 view .LVU86
 385               	.LBB12:
 386 0002 80E0      		ldi r24,lo8(_ZTV3Bus+4)
 387 0004 90E0      		ldi r25,hi8(_ZTV3Bus+4)
 388               	.LVL29:
  77:funsape/peripheral/../util/bus.hpp **** {
 389               		.loc 2 77 7 is_stmt 0 view .LVU87
 390 0006 9183      		std Z+1,r25
 391 0008 8083      		st Z,r24
 392               	.LVL30:
  77:funsape/peripheral/../util/bus.hpp **** {
 393               		.loc 2 77 7 view .LVU88
 394               	.LBE12:
 395               	.LBE11:
  56:funsape/peripheral/twi.cpp **** {
 396               		.loc 1 56 14 discriminator 1 view .LVU89
 397 000a 80E0      		ldi r24,lo8(_ZTV3Twi+4)
 398 000c 90E0      		ldi r25,hi8(_ZTV3Twi+4)
 399 000e 9183      		std Z+1,r25
 400 0010 8083      		st Z,r24
  59:funsape/peripheral/twi.cpp ****     this->_bufferIndex                  = 0;
 401               		.loc 1 59 5 is_stmt 1 view .LVU90
  59:funsape/peripheral/twi.cpp ****     this->_bufferIndex                  = 0;
 402               		.loc 1 59 41 is_stmt 0 view .LVU91
 403 0012 108A      		std Z+16,__zero_reg__
GAS LISTING /tmp/ccQ8U2zo.s 			page 19


 404 0014 1786      		std Z+15,__zero_reg__
  60:funsape/peripheral/twi.cpp ****     this->_bufferLength                 = 0;
 405               		.loc 1 60 5 is_stmt 1 view .LVU92
  60:funsape/peripheral/twi.cpp ****     this->_bufferLength                 = 0;
 406               		.loc 1 60 41 is_stmt 0 view .LVU93
 407 0016 8189      		ldd r24,Z+17
 408 0018 8078      		andi r24,lo8(-128)
 409 001a 818B      		std Z+17,r24
  61:funsape/peripheral/twi.cpp ****     this->_bufferMaxSize                = 0;
 410               		.loc 1 61 5 is_stmt 1 view .LVU94
  61:funsape/peripheral/twi.cpp ****     this->_bufferMaxSize                = 0;
 411               		.loc 1 61 41 is_stmt 0 view .LVU95
 412 001c 8585      		ldd r24,Z+13
 413 001e 982F      		mov r25,r24
 414 0020 9F70      		andi r25,lo8(15)
 415 0022 9587      		std Z+13,r25
 416 0024 9685      		ldd r25,Z+14
 417 0026 987F      		andi r25,lo8(-8)
 418 0028 9687      		std Z+14,r25
  62:funsape/peripheral/twi.cpp ****     this->_devAddress                   = 0;
 419               		.loc 1 62 5 is_stmt 1 view .LVU96
  62:funsape/peripheral/twi.cpp ****     this->_devAddress                   = 0;
 420               		.loc 1 62 41 is_stmt 0 view .LVU97
 421 002a 118A      		std Z+17,__zero_reg__
 422 002c 9289      		ldd r25,Z+18
 423 002e 907C      		andi r25,lo8(-64)
 424 0030 928B      		std Z+18,r25
  63:funsape/peripheral/twi.cpp ****     this->_devAddressSet                = false;
 425               		.loc 1 63 5 is_stmt 1 view .LVU98
  63:funsape/peripheral/twi.cpp ****     this->_devAddressSet                = false;
 426               		.loc 1 63 41 is_stmt 0 view .LVU99
 427 0032 9485      		ldd r25,Z+12
 428 0034 9170      		andi r25,lo8(1)
 429 0036 9487      		std Z+12,r25
 430 0038 982F      		mov r25,r24
 431 003a 9E70      		andi r25,lo8(14)
 432 003c 9587      		std Z+13,r25
 433 003e 8870      		andi r24,lo8(8)
 434 0040 8587      		std Z+13,r24
  64:funsape/peripheral/twi.cpp ****     this->_initialized                  = false;
 435               		.loc 1 64 5 is_stmt 1 view .LVU100
  64:funsape/peripheral/twi.cpp ****     this->_initialized                  = false;
 436               		.loc 1 64 41 is_stmt 0 view .LVU101
 437 0042 8681      		ldd r24,Z+6
 438 0044 8E7F      		andi r24,lo8(~(1<<0))
 439 0046 8683      		std Z+6,r24
  65:funsape/peripheral/twi.cpp ****     this->_lastTransOk                  = false;
 440               		.loc 1 65 5 is_stmt 1 view .LVU102
  65:funsape/peripheral/twi.cpp ****     this->_lastTransOk                  = false;
 441               		.loc 1 65 41 is_stmt 0 view .LVU103
 442 0048 1486      		std Z+12,__zero_reg__
  66:funsape/peripheral/twi.cpp ****     this->_state                        = State::NO_STATE;
 443               		.loc 1 66 5 is_stmt 1 view .LVU104
  66:funsape/peripheral/twi.cpp ****     this->_state                        = State::NO_STATE;
 444               		.loc 1 66 41 is_stmt 0 view .LVU105
 445 004a 8D7F      		andi r24,lo8(~(1<<1))
 446 004c 8683      		std Z+6,r24
GAS LISTING /tmp/ccQ8U2zo.s 			page 20


  67:funsape/peripheral/twi.cpp ****     this->_timeout                      = constTwiDefaultTimeout;
 447               		.loc 1 67 5 is_stmt 1 view .LVU106
  67:funsape/peripheral/twi.cpp ****     this->_timeout                      = constTwiDefaultTimeout;
 448               		.loc 1 67 41 is_stmt 0 view .LVU107
 449 004e 88EF      		ldi r24,lo8(-8)
 450 0050 90E0      		ldi r25,0
 451 0052 9187      		std Z+9,r25
 452 0054 8087      		std Z+8,r24
  68:funsape/peripheral/twi.cpp ****     this->_twiError                     = 0;
 453               		.loc 1 68 5 is_stmt 1 view .LVU108
  68:funsape/peripheral/twi.cpp ****     this->_twiError                     = 0;
 454               		.loc 1 68 41 is_stmt 0 view .LVU109
 455 0056 84E1      		ldi r24,lo8(20)
 456 0058 90E0      		ldi r25,0
 457 005a 9387      		std Z+11,r25
 458 005c 8287      		std Z+10,r24
  69:funsape/peripheral/twi.cpp ****     this->_useLongAddress               = false;
 459               		.loc 1 69 5 is_stmt 1 view .LVU110
  69:funsape/peripheral/twi.cpp ****     this->_useLongAddress               = false;
 460               		.loc 1 69 41 is_stmt 0 view .LVU111
 461 005e 1782      		std Z+7,__zero_reg__
  70:funsape/peripheral/twi.cpp **** 
 462               		.loc 1 70 5 is_stmt 1 view .LVU112
  70:funsape/peripheral/twi.cpp **** 
 463               		.loc 1 70 41 is_stmt 0 view .LVU113
 464 0060 1586      		std Z+13,__zero_reg__
  73:funsape/peripheral/twi.cpp ****     return;
 465               		.loc 1 73 5 is_stmt 1 view .LVU114
  73:funsape/peripheral/twi.cpp ****     return;
 466               		.loc 1 73 22 is_stmt 0 view .LVU115
 467 0062 1582      		std Z+5,__zero_reg__
 468 0064 1482      		std Z+4,__zero_reg__
  74:funsape/peripheral/twi.cpp **** }
 469               		.loc 1 74 5 is_stmt 1 view .LVU116
 470               	/* epilogue start */
 471               	.LBE10:
  75:funsape/peripheral/twi.cpp **** 
 472               		.loc 1 75 1 is_stmt 0 view .LVU117
 473 0066 0895      		ret
 474               		.cfi_endproc
 475               	.LFE152:
 477               	.global	_ZN3TwiC1Ev
 478               		.set	_ZN3TwiC1Ev,_ZN3TwiC2Ev
 479               		.section	.text._Z41__static_initialization_and_destruction_0v,"ax",@progbits
 481               	_Z41__static_initialization_and_destruction_0v:
 482               	.LFB170:
 332:funsape/peripheral/twi.cpp **** 
 333:funsape/peripheral/twi.cpp **** // =============================================================================
 334:funsape/peripheral/twi.cpp **** // Class private methods
 335:funsape/peripheral/twi.cpp **** // =============================================================================
 336:funsape/peripheral/twi.cpp **** 
 337:funsape/peripheral/twi.cpp **** bool_t Twi::_waitWhileIsBusy(void)
 338:funsape/peripheral/twi.cpp **** {
 339:funsape/peripheral/twi.cpp ****     // Local variables
 340:funsape/peripheral/twi.cpp ****     uint32_t stopwatchMark;
 341:funsape/peripheral/twi.cpp ****     uint32_t stopwatchDeadline;
 342:funsape/peripheral/twi.cpp **** 
GAS LISTING /tmp/ccQ8U2zo.s 			page 21


 343:funsape/peripheral/twi.cpp ****     // Evaluates stopwatch deadline
 344:funsape/peripheral/twi.cpp ****     if(this->_timeout == 0) {
 345:funsape/peripheral/twi.cpp ****         stopwatchDeadline = 0xFFFFFFFF;
 346:funsape/peripheral/twi.cpp ****     } else {
 347:funsape/peripheral/twi.cpp ****         stopwatchDeadline = 0;
 348:funsape/peripheral/twi.cpp ****         systemStatus.getStopwatchValue(&stopwatchDeadline);
 349:funsape/peripheral/twi.cpp ****         stopwatchDeadline += this->_timeout;
 350:funsape/peripheral/twi.cpp ****     }
 351:funsape/peripheral/twi.cpp **** 
 352:funsape/peripheral/twi.cpp ****     // Wait until TWI is ready for next transmission
 353:funsape/peripheral/twi.cpp ****     do {
 354:funsape/peripheral/twi.cpp ****         stopwatchMark = 0;
 355:funsape/peripheral/twi.cpp ****         systemStatus.getStopwatchValue(&stopwatchMark);
 356:funsape/peripheral/twi.cpp ****         if(stopwatchMark > stopwatchDeadline) {
 357:funsape/peripheral/twi.cpp ****             // Returns error
 358:funsape/peripheral/twi.cpp ****             this->_lastError = Error::TIMED_OUT;
 359:funsape/peripheral/twi.cpp ****             return false;
 360:funsape/peripheral/twi.cpp ****         }
 361:funsape/peripheral/twi.cpp ****     } while(isBitSet(TWCR, TWIE));
 362:funsape/peripheral/twi.cpp **** 
 363:funsape/peripheral/twi.cpp ****     // Returns successfully
 364:funsape/peripheral/twi.cpp ****     this->_lastError = Error::NONE;
 365:funsape/peripheral/twi.cpp ****     return true;
 366:funsape/peripheral/twi.cpp **** }
 367:funsape/peripheral/twi.cpp **** 
 368:funsape/peripheral/twi.cpp **** bool_t Twi::_startTransmission(void)
 369:funsape/peripheral/twi.cpp **** {
 370:funsape/peripheral/twi.cpp ****     this->_lastTransOk = false;
 371:funsape/peripheral/twi.cpp ****     this->_state = State::NO_STATE;
 372:funsape/peripheral/twi.cpp ****     TWCR = 0 |
 373:funsape/peripheral/twi.cpp ****             (1 << TWEN) |
 374:funsape/peripheral/twi.cpp ****             (1 << TWIE) |
 375:funsape/peripheral/twi.cpp ****             (1 << TWINT) |
 376:funsape/peripheral/twi.cpp ****             (1 << TWSTA);
 377:funsape/peripheral/twi.cpp **** 
 378:funsape/peripheral/twi.cpp ****     // Returns successfully
 379:funsape/peripheral/twi.cpp ****     this->_lastError = Error::NONE;
 380:funsape/peripheral/twi.cpp ****     return true;
 381:funsape/peripheral/twi.cpp **** }
 382:funsape/peripheral/twi.cpp **** 
 383:funsape/peripheral/twi.cpp **** bool_t Twi::_readFromBuffer(uint8_t *msg_p, cuint8_t msgSize_p)
 384:funsape/peripheral/twi.cpp **** {
 385:funsape/peripheral/twi.cpp ****     // Check for errors
 386:funsape/peripheral/twi.cpp ****     if(!this->_lastTransOk) {
 387:funsape/peripheral/twi.cpp ****         // Returns error
 388:funsape/peripheral/twi.cpp ****         this->_lastError = Error::COMMUNICATION_FAILED;
 389:funsape/peripheral/twi.cpp ****         return false;
 390:funsape/peripheral/twi.cpp ****     }
 391:funsape/peripheral/twi.cpp ****     for(uint8_t i = 0; i < msgSize_p; i++) {
 392:funsape/peripheral/twi.cpp ****         msg_p[i] = this->_bufferData[i + 1];
 393:funsape/peripheral/twi.cpp ****     }
 394:funsape/peripheral/twi.cpp **** 
 395:funsape/peripheral/twi.cpp ****     // Returns successfully
 396:funsape/peripheral/twi.cpp ****     this->_lastError = Error::NONE;
 397:funsape/peripheral/twi.cpp ****     return true;
 398:funsape/peripheral/twi.cpp **** }
 399:funsape/peripheral/twi.cpp **** 
GAS LISTING /tmp/ccQ8U2zo.s 			page 22


 400:funsape/peripheral/twi.cpp **** // =============================================================================
 401:funsape/peripheral/twi.cpp **** // Class protected methods
 402:funsape/peripheral/twi.cpp **** // =============================================================================
 403:funsape/peripheral/twi.cpp **** 
 404:funsape/peripheral/twi.cpp **** // NONE
 405:funsape/peripheral/twi.cpp **** 
 406:funsape/peripheral/twi.cpp **** // =============================================================================
 407:funsape/peripheral/twi.cpp **** // General public functions definitions
 408:funsape/peripheral/twi.cpp **** // =============================================================================
 409:funsape/peripheral/twi.cpp **** 
 410:funsape/peripheral/twi.cpp **** // NONE
 411:funsape/peripheral/twi.cpp **** 
 412:funsape/peripheral/twi.cpp **** // =============================================================================
 413:funsape/peripheral/twi.cpp **** // Interrupt callback functions
 414:funsape/peripheral/twi.cpp **** // =============================================================================
 415:funsape/peripheral/twi.cpp **** 
 416:funsape/peripheral/twi.cpp **** void Twi::interruptHandler(void)
 417:funsape/peripheral/twi.cpp **** {
 418:funsape/peripheral/twi.cpp ****     static uint8_t twiBufferPointer;
 419:funsape/peripheral/twi.cpp **** 
 420:funsape/peripheral/twi.cpp ****     State twiState = (Twi::State)(TWSR & 0xFC);
 421:funsape/peripheral/twi.cpp **** 
 422:funsape/peripheral/twi.cpp ****     switch(twiState) {
 423:funsape/peripheral/twi.cpp ****     case Twi::State::START:             // START has been transmitted
 424:funsape/peripheral/twi.cpp ****     case Twi::State::REP_START:         // Repeated START has been transmitted
 425:funsape/peripheral/twi.cpp ****         twiBufferPointer = 0;           // Set buffer pointer to the TWI Address location
 426:funsape/peripheral/twi.cpp ****     case Twi::State::MTX_ADR_ACK:       // SLA+W has been transmitted and ACK received
 427:funsape/peripheral/twi.cpp ****     case Twi::State::MTX_DATA_ACK:      // Data byte has been transmitted and ACK received
 428:funsape/peripheral/twi.cpp ****         if(twiBufferPointer < this->_bufferLength) {
 429:funsape/peripheral/twi.cpp ****             TWDR = this->_bufferData[twiBufferPointer++];
 430:funsape/peripheral/twi.cpp ****             TWCR = (1 << TWEN) | (1 << TWIE) | (1 << TWINT);
 431:funsape/peripheral/twi.cpp ****         } else {                        // Send STOP after last byte
 432:funsape/peripheral/twi.cpp ****             this->_lastTransOk = true;  // Set status bits to completed successfully
 433:funsape/peripheral/twi.cpp ****             TWCR = (1 << TWEN) | (1 << TWINT) | (1 << TWSTO);
 434:funsape/peripheral/twi.cpp ****         }
 435:funsape/peripheral/twi.cpp ****         break;
 436:funsape/peripheral/twi.cpp ****     case Twi::State::MRX_DATA_ACK:      // Data byte has been received and ACK transmitted
 437:funsape/peripheral/twi.cpp ****         this->_bufferData[twiBufferPointer++] = TWDR;
 438:funsape/peripheral/twi.cpp ****     case Twi::State::MRX_ADR_ACK:       // SLA+R has been transmitted and ACK received
 439:funsape/peripheral/twi.cpp ****         if(twiBufferPointer < (this->_bufferLength - 1)) {  // Detect the last byte to NACK it
 440:funsape/peripheral/twi.cpp ****             TWCR = (1 << TWEN) | (1 << TWIE) | (1 << TWINT) | (1 << TWEA);
 441:funsape/peripheral/twi.cpp ****         } else {                        // Send NACK after next reception
 442:funsape/peripheral/twi.cpp ****             TWCR = (1 << TWEN) | (1 << TWIE) | (1 << TWINT);
 443:funsape/peripheral/twi.cpp ****         }
 444:funsape/peripheral/twi.cpp ****         break;
 445:funsape/peripheral/twi.cpp ****     case Twi::State::MRX_DATA_NACK:     // Data byte has been received and NACK transmitted
 446:funsape/peripheral/twi.cpp ****         this->_bufferData[twiBufferPointer] = TWDR;
 447:funsape/peripheral/twi.cpp ****         this->_lastTransOk = true;      // Set status bits to completed successfully
 448:funsape/peripheral/twi.cpp ****         TWCR = (1 << TWEN) | (1 << TWINT) | (1 << TWSTO);
 449:funsape/peripheral/twi.cpp ****         break;
 450:funsape/peripheral/twi.cpp ****     case Twi::State::ARB_LOST:          // Arbitration lost
 451:funsape/peripheral/twi.cpp ****         TWCR = (1 << TWEN) | (1 << TWIE) | (1 << TWINT) | (1 << TWSTA);
 452:funsape/peripheral/twi.cpp ****         break;
 453:funsape/peripheral/twi.cpp ****     case Twi::State::MTX_ADR_NACK:      // SLA+W has been transmitted and NACK received
 454:funsape/peripheral/twi.cpp ****     case Twi::State::MRX_ADR_NACK:      // SLA+R has been transmitted and NACK received
 455:funsape/peripheral/twi.cpp ****     case Twi::State::MTX_DATA_NACK:     // Data byte has been transmitted and NACK received
 456:funsape/peripheral/twi.cpp ****     case Twi::State::BUS_ERROR:         // Bus error due to an illegal START or STOP condition
GAS LISTING /tmp/ccQ8U2zo.s 			page 23


 457:funsape/peripheral/twi.cpp ****     default:
 458:funsape/peripheral/twi.cpp ****         this->_twiError = TWSR;         // Store TWSR and automatically sets clears noErrors bit
 459:funsape/peripheral/twi.cpp ****         TWCR = (1 << TWEN);             // Reset TWI Interface
 460:funsape/peripheral/twi.cpp ****         break;
 461:funsape/peripheral/twi.cpp ****     }
 462:funsape/peripheral/twi.cpp **** }
 463:funsape/peripheral/twi.cpp **** 
 464:funsape/peripheral/twi.cpp **** // =============================================================================
 465:funsape/peripheral/twi.cpp **** // Interrupt handlers
 466:funsape/peripheral/twi.cpp **** // =============================================================================
 467:funsape/peripheral/twi.cpp **** 
 468:funsape/peripheral/twi.cpp **** ISR(TWI_vect)
 469:funsape/peripheral/twi.cpp **** {
 470:funsape/peripheral/twi.cpp ****     twi.interruptHandler();
 471:funsape/peripheral/twi.cpp **** }
 483               		.loc 1 471 1 is_stmt 1 view -0
 484               		.cfi_startproc
 485               	/* prologue: function */
 486               	/* frame size = 0 */
 487               	/* stack size = 0 */
 488               	.L__stack_usage = 0
  44:funsape/peripheral/twi.cpp **** 
 489               		.loc 1 44 5 is_stmt 0 view .LVU119
 490 0000 80E0      		ldi r24,lo8(twi)
 491 0002 90E0      		ldi r25,hi8(twi)
 492 0004 0E94 0000 		call _ZN3TwiC1Ev
 493               	.LVL31:
 494               	/* epilogue start */
 495               		.loc 1 471 1 view .LVU120
 496 0008 0895      		ret
 497               		.cfi_endproc
 498               	.LFE170:
 500               		.section	.text._ZN3TwiD2Ev,"ax",@progbits
 501               	.global	_ZN3TwiD2Ev
 503               	_ZN3TwiD2Ev:
 504               	.LVL32:
 505               	.LFB155:
  77:funsape/peripheral/twi.cpp **** {
 506               		.loc 1 77 1 is_stmt 1 view -0
 507               		.cfi_startproc
 508               	/* prologue: function */
 509               	/* frame size = 0 */
 510               	/* stack size = 0 */
 511               	.L__stack_usage = 0
 512               	.LBB13:
  77:funsape/peripheral/twi.cpp **** {
 513               		.loc 1 77 15 is_stmt 0 view .LVU122
 514 0000 20E0      		ldi r18,lo8(_ZTV3Twi+4)
 515 0002 30E0      		ldi r19,hi8(_ZTV3Twi+4)
 516 0004 FC01      		movw r30,r24
 517 0006 3183      		std Z+1,r19
 518 0008 2083      		st Z,r18
  80:funsape/peripheral/twi.cpp **** }
 519               		.loc 1 80 5 is_stmt 1 view .LVU123
 520               	/* epilogue start */
 521               	.LBE13:
  81:funsape/peripheral/twi.cpp **** 
GAS LISTING /tmp/ccQ8U2zo.s 			page 24


 522               		.loc 1 81 1 is_stmt 0 view .LVU124
 523 000a 0895      		ret
 524               		.cfi_endproc
 525               	.LFE155:
 527               	.global	_ZN3TwiD1Ev
 528               		.set	_ZN3TwiD1Ev,_ZN3TwiD2Ev
 529               		.section	.text._Z41__static_initialization_and_destruction_1v,"ax",@progbits
 531               	_Z41__static_initialization_and_destruction_1v:
 532               	.LFB171:
 533               		.loc 1 471 1 is_stmt 1 view -0
 534               		.cfi_startproc
 535               	/* prologue: function */
 536               	/* frame size = 0 */
 537               	/* stack size = 0 */
 538               	.L__stack_usage = 0
  44:funsape/peripheral/twi.cpp **** 
 539               		.loc 1 44 5 is_stmt 0 view .LVU126
 540 0000 80E0      		ldi r24,lo8(twi)
 541 0002 90E0      		ldi r25,hi8(twi)
 542 0004 0E94 0000 		call _ZN3TwiD1Ev
 543               	.LVL33:
 544               	/* epilogue start */
 545               		.loc 1 471 1 view .LVU127
 546 0008 0895      		ret
 547               		.cfi_endproc
 548               	.LFE171:
 550               		.section	.text._ZN3Twi4initEmh,"ax",@progbits
 551               	.global	_ZN3Twi4initEmh
 553               	_ZN3Twi4initEmh:
 554               	.LVL34:
 555               	.LFB162:
 237:funsape/peripheral/twi.cpp ****     // Local variables
 556               		.loc 1 237 1 is_stmt 1 view -0
 557               		.cfi_startproc
 237:funsape/peripheral/twi.cpp ****     // Local variables
 558               		.loc 1 237 1 is_stmt 0 view .LVU129
 559 0000 BF92      		push r11
 560               	.LCFI0:
 561               		.cfi_def_cfa_offset 3
 562               		.cfi_offset 11, -2
 563 0002 CF92      		push r12
 564               	.LCFI1:
 565               		.cfi_def_cfa_offset 4
 566               		.cfi_offset 12, -3
 567 0004 DF92      		push r13
 568               	.LCFI2:
 569               		.cfi_def_cfa_offset 5
 570               		.cfi_offset 13, -4
 571 0006 EF92      		push r14
 572               	.LCFI3:
 573               		.cfi_def_cfa_offset 6
 574               		.cfi_offset 14, -5
 575 0008 FF92      		push r15
 576               	.LCFI4:
 577               		.cfi_def_cfa_offset 7
 578               		.cfi_offset 15, -6
 579 000a 0F93      		push r16
GAS LISTING /tmp/ccQ8U2zo.s 			page 25


 580               	.LCFI5:
 581               		.cfi_def_cfa_offset 8
 582               		.cfi_offset 16, -7
 583 000c 1F93      		push r17
 584               	.LCFI6:
 585               		.cfi_def_cfa_offset 9
 586               		.cfi_offset 17, -8
 587 000e CF93      		push r28
 588               	.LCFI7:
 589               		.cfi_def_cfa_offset 10
 590               		.cfi_offset 28, -9
 591 0010 DF93      		push r29
 592               	.LCFI8:
 593               		.cfi_def_cfa_offset 11
 594               		.cfi_offset 29, -10
 595 0012 00D0      		rcall .
 596 0014 00D0      		rcall .
 597               	.LCFI9:
 598               		.cfi_def_cfa_offset 15
 599 0016 CDB7      		in r28,__SP_L__
 600 0018 DEB7      		in r29,__SP_H__
 601               	.LCFI10:
 602               		.cfi_def_cfa_register 28
 603               	/* prologue: function */
 604               	/* frame size = 4 */
 605               	/* stack size = 13 */
 606               	.L__stack_usage = 13
 607 001a 8C01      		movw r16,r24
 608 001c 6A01      		movw r12,r20
 609 001e 7B01      		movw r14,r22
 610 0020 B22E      		mov r11,r18
 239:funsape/peripheral/twi.cpp ****     // uint16_t aux16 = 0;
 611               		.loc 1 239 5 is_stmt 1 view .LVU130
 239:funsape/peripheral/twi.cpp ****     // uint16_t aux16 = 0;
 612               		.loc 1 239 14 is_stmt 0 view .LVU131
 613 0022 1982      		std Y+1,__zero_reg__
 614 0024 1A82      		std Y+2,__zero_reg__
 615 0026 1B82      		std Y+3,__zero_reg__
 616 0028 1C82      		std Y+4,__zero_reg__
 241:funsape/peripheral/twi.cpp **** 
 617               		.loc 1 241 5 is_stmt 1 view .LVU132
 618               	.LVL35:
 244:funsape/peripheral/twi.cpp ****     TWCR = 0x00;
 619               		.loc 1 244 5 view .LVU133
 244:funsape/peripheral/twi.cpp ****     TWCR = 0x00;
 620               		.loc 1 244 5 view .LVU134
 621 002a ECEB      		ldi r30,lo8(-68)
 622 002c F0E0      		ldi r31,0
 623 002e 8081      		ld r24,Z
 624               	.LVL36:
 244:funsape/peripheral/twi.cpp ****     TWCR = 0x00;
 625               		.loc 1 244 5 is_stmt 0 view .LVU135
 626 0030 8B7F      		andi r24,lo8(-5)
 627 0032 8083      		st Z,r24
 244:funsape/peripheral/twi.cpp ****     TWCR = 0x00;
 628               		.loc 1 244 5 is_stmt 1 view .LVU136
 245:funsape/peripheral/twi.cpp ****     TWSR = 0x00;
GAS LISTING /tmp/ccQ8U2zo.s 			page 26


 629               		.loc 1 245 5 view .LVU137
 245:funsape/peripheral/twi.cpp ****     TWSR = 0x00;
 630               		.loc 1 245 10 is_stmt 0 view .LVU138
 631 0034 1082      		st Z,__zero_reg__
 246:funsape/peripheral/twi.cpp ****     TWBR = 0;
 632               		.loc 1 246 5 is_stmt 1 view .LVU139
 246:funsape/peripheral/twi.cpp ****     TWBR = 0;
 633               		.loc 1 246 10 is_stmt 0 view .LVU140
 634 0036 1092 B900 		sts 185,__zero_reg__
 247:funsape/peripheral/twi.cpp ****     TWAR = 0;
 635               		.loc 1 247 5 is_stmt 1 view .LVU141
 247:funsape/peripheral/twi.cpp ****     TWAR = 0;
 636               		.loc 1 247 10 is_stmt 0 view .LVU142
 637 003a 1092 B800 		sts 184,__zero_reg__
 248:funsape/peripheral/twi.cpp ****     TWAMR = 0;
 638               		.loc 1 248 5 is_stmt 1 view .LVU143
 248:funsape/peripheral/twi.cpp ****     TWAMR = 0;
 639               		.loc 1 248 10 is_stmt 0 view .LVU144
 640 003e 1092 BA00 		sts 186,__zero_reg__
 249:funsape/peripheral/twi.cpp **** 
 641               		.loc 1 249 5 is_stmt 1 view .LVU145
 249:funsape/peripheral/twi.cpp **** 
 642               		.loc 1 249 11 is_stmt 0 view .LVU146
 643 0042 1092 BD00 		sts 189,__zero_reg__
 252:funsape/peripheral/twi.cpp ****         // Returns error
 644               		.loc 1 252 5 is_stmt 1 view .LVU147
 645 0046 483E      		cpi r20,-24
 646 0048 83E0      		ldi r24,3
 647 004a 5807      		cpc r21,r24
 648 004c 6105      		cpc r22,__zero_reg__
 649 004e 7105      		cpc r23,__zero_reg__
 650 0050 00F4      		brsh .+2
 651 0052 00C0      		rjmp .L31
 256:funsape/peripheral/twi.cpp ****         // Returns error
 652               		.loc 1 256 12 view .LVU148
 653 0054 4138      		cpi r20,-127
 654 0056 5A41      		sbci r21,26
 655 0058 6640      		sbci r22,6
 656 005a 7040      		sbci r23,0
 657 005c 00F0      		brlo .+2
 658 005e 00C0      		rjmp .L32
 262:funsape/peripheral/twi.cpp ****         // Returns error
 659               		.loc 1 262 5 view .LVU149
 660 0060 2A30      		cpi r18,lo8(10)
 661 0062 00F4      		brsh .+2
 662 0064 00C0      		rjmp .L33
 266:funsape/peripheral/twi.cpp ****         // Returns error
 663               		.loc 1 266 12 view .LVU150
 664 0066 2536      		cpi r18,lo8(101)
 665 0068 00F0      		brlo .+2
 666 006a 00C0      		rjmp .L34
 273:funsape/peripheral/twi.cpp ****         free(this->_bufferData);
 667               		.loc 1 273 5 view .LVU151
 273:funsape/peripheral/twi.cpp ****         free(this->_bufferData);
 668               		.loc 1 273 8 is_stmt 0 view .LVU152
 669 006c F801      		movw r30,r16
 670 006e 8785      		ldd r24,Z+15
GAS LISTING /tmp/ccQ8U2zo.s 			page 27


 671 0070 9089      		ldd r25,Z+16
 273:funsape/peripheral/twi.cpp ****         free(this->_bufferData);
 672               		.loc 1 273 5 view .LVU153
 673 0072 0097      		sbiw r24,0
 674 0074 01F0      		breq .L23
 274:funsape/peripheral/twi.cpp ****         this->_bufferData = nullptr;
 675               		.loc 1 274 9 is_stmt 1 view .LVU154
 274:funsape/peripheral/twi.cpp ****         this->_bufferData = nullptr;
 676               		.loc 1 274 13 is_stmt 0 view .LVU155
 677 0076 0E94 0000 		call free
 678               	.LVL37:
 275:funsape/peripheral/twi.cpp ****     }
 679               		.loc 1 275 9 is_stmt 1 view .LVU156
 275:funsape/peripheral/twi.cpp ****     }
 680               		.loc 1 275 27 is_stmt 0 view .LVU157
 681 007a F801      		movw r30,r16
 682 007c 108A      		std Z+16,__zero_reg__
 683 007e 1786      		std Z+15,__zero_reg__
 684               	.L23:
 277:funsape/peripheral/twi.cpp ****     if(!isPointerValid(this->_bufferData)) {
 685               		.loc 1 277 5 is_stmt 1 view .LVU158
 277:funsape/peripheral/twi.cpp ****     if(!isPointerValid(this->_bufferData)) {
 686               		.loc 1 277 44 is_stmt 0 view .LVU159
 687 0080 8B2D      		mov r24,r11
 688 0082 90E0      		ldi r25,0
 277:funsape/peripheral/twi.cpp ****     if(!isPointerValid(this->_bufferData)) {
 689               		.loc 1 277 42 view .LVU160
 690 0084 61E0      		ldi r22,lo8(1)
 691 0086 70E0      		ldi r23,0
 692 0088 0296      		adiw r24,2
 693 008a 0E94 0000 		call calloc
 694               	.LVL38:
 277:funsape/peripheral/twi.cpp ****     if(!isPointerValid(this->_bufferData)) {
 695               		.loc 1 277 23 discriminator 1 view .LVU161
 696 008e F801      		movw r30,r16
 697 0090 908B      		std Z+16,r25
 698 0092 8787      		std Z+15,r24
 278:funsape/peripheral/twi.cpp ****         // Returns error
 699               		.loc 1 278 5 is_stmt 1 view .LVU162
 700 0094 892B      		or r24,r25
 701 0096 01F4      		brne .+2
 702 0098 00C0      		rjmp .L35
 283:funsape/peripheral/twi.cpp ****     this->_bufferIndex = 0;
 703               		.loc 1 283 5 view .LVU163
 283:funsape/peripheral/twi.cpp ****     this->_bufferIndex = 0;
 704               		.loc 1 283 41 is_stmt 0 view .LVU164
 705 009a 2B2D      		mov r18,r11
 706 009c 2E5F      		subi r18,lo8(-(2))
 283:funsape/peripheral/twi.cpp ****     this->_bufferIndex = 0;
 707               		.loc 1 283 26 view .LVU165
 708 009e B0FA      		bst r11,0
 709 00a0 8827      		clr r24
 710 00a2 87F9      		bld r24,7
 711 00a4 9189      		ldd r25,Z+17
 712 00a6 9F77      		andi r25,lo8(127)
 713 00a8 892B      		or r24,r25
 714 00aa 818B      		std Z+17,r24
GAS LISTING /tmp/ccQ8U2zo.s 			page 28


 715 00ac 2695      		lsr r18
 716 00ae 2F73      		andi r18,lo8(63)
 717 00b0 9289      		ldd r25,Z+18
 718 00b2 907C      		andi r25,lo8(-64)
 719 00b4 922B      		or r25,r18
 720 00b6 928B      		std Z+18,r25
 284:funsape/peripheral/twi.cpp ****     this->_bufferLength = 0;
 721               		.loc 1 284 5 is_stmt 1 view .LVU166
 284:funsape/peripheral/twi.cpp ****     this->_bufferLength = 0;
 722               		.loc 1 284 24 is_stmt 0 view .LVU167
 723 00b8 8078      		andi r24,lo8(-128)
 724 00ba 818B      		std Z+17,r24
 285:funsape/peripheral/twi.cpp **** 
 725               		.loc 1 285 5 is_stmt 1 view .LVU168
 285:funsape/peripheral/twi.cpp **** 
 726               		.loc 1 285 25 is_stmt 0 view .LVU169
 727 00bc 8585      		ldd r24,Z+13
 728 00be 8F70      		andi r24,lo8(15)
 729 00c0 8587      		std Z+13,r24
 730 00c2 8685      		ldd r24,Z+14
 731 00c4 887F      		andi r24,lo8(-8)
 732 00c6 8687      		std Z+14,r24
 288:funsape/peripheral/twi.cpp ****     aux32 /= clockSpeed_p;
 733               		.loc 1 288 5 is_stmt 1 view .LVU170
 288:funsape/peripheral/twi.cpp ****     aux32 /= clockSpeed_p;
 734               		.loc 1 288 29 is_stmt 0 view .LVU171
 735 00c8 BE01      		movw r22,r28
 736 00ca 6F5F      		subi r22,-1
 737 00cc 7F4F      		sbci r23,-1
 738 00ce 80E0      		ldi r24,lo8(systemStatus)
 739 00d0 90E0      		ldi r25,hi8(systemStatus)
 740 00d2 0E94 0000 		call _ZN12SystemStatus11getCpuClockEPm
 741               	.LVL39:
 289:funsape/peripheral/twi.cpp ****     // aux16 = (uint16_t)aux32;
 742               		.loc 1 289 5 is_stmt 1 view .LVU172
 289:funsape/peripheral/twi.cpp ****     // aux16 = (uint16_t)aux32;
 743               		.loc 1 289 11 is_stmt 0 view .LVU173
 744 00d6 6981      		ldd r22,Y+1
 745 00d8 7A81      		ldd r23,Y+2
 746 00da 8B81      		ldd r24,Y+3
 747 00dc 9C81      		ldd r25,Y+4
 748 00de A701      		movw r20,r14
 749 00e0 9601      		movw r18,r12
 750 00e2 0E94 0000 		call __udivmodsi4
 751 00e6 2983      		std Y+1,r18
 752 00e8 3A83      		std Y+2,r19
 753 00ea 4B83      		std Y+3,r20
 754 00ec 5C83      		std Y+4,r21
 291:funsape/peripheral/twi.cpp ****     aux32 /= 2;
 755               		.loc 1 291 5 is_stmt 1 view .LVU174
 291:funsape/peripheral/twi.cpp ****     aux32 /= 2;
 756               		.loc 1 291 11 is_stmt 0 view .LVU175
 757 00ee DA01      		movw r26,r20
 758 00f0 C901      		movw r24,r18
 759 00f2 4097      		sbiw r24,16
 760 00f4 A040      		sbci r26,0
 761 00f6 B040      		sbci r27,0
GAS LISTING /tmp/ccQ8U2zo.s 			page 29


 762 00f8 8983      		std Y+1,r24
 763 00fa 9A83      		std Y+2,r25
 764 00fc AB83      		std Y+3,r26
 765 00fe BC83      		std Y+4,r27
 292:funsape/peripheral/twi.cpp ****     if(aux32 <= 255) {                  // Prescaler 1
 766               		.loc 1 292 5 is_stmt 1 view .LVU176
 292:funsape/peripheral/twi.cpp ****     if(aux32 <= 255) {                  // Prescaler 1
 767               		.loc 1 292 11 is_stmt 0 view .LVU177
 768 0100 AC01      		movw r20,r24
 769 0102 BD01      		movw r22,r26
 770 0104 7695      		lsr r23
 771 0106 6795      		ror r22
 772 0108 5795      		ror r21
 773 010a 4795      		ror r20
 774 010c 4983      		std Y+1,r20
 775 010e 5A83      		std Y+2,r21
 776 0110 6B83      		std Y+3,r22
 777 0112 7C83      		std Y+4,r23
 293:funsape/peripheral/twi.cpp ****         aux8 = (uint8_t)aux32;
 778               		.loc 1 293 5 is_stmt 1 view .LVU178
 779 0114 052E      		mov r0,r21
 780 0116 062A      		or r0,r22
 781 0118 072A      		or r0,r23
 782 011a 01F0      		breq .L26
 295:funsape/peripheral/twi.cpp ****         aux8 = (uint8_t)(aux32 / 4);
 783               		.loc 1 295 12 view .LVU179
 784 011c 4D3F      		cpi r20,-3
 785 011e 23E0      		ldi r18,3
 786 0120 5207      		cpc r21,r18
 787 0122 6105      		cpc r22,__zero_reg__
 788 0124 7105      		cpc r23,__zero_reg__
 789 0126 00F0      		brlo .+2
 790 0128 00C0      		rjmp .L27
 296:funsape/peripheral/twi.cpp ****         TWSR |= (1 << TWPS0);
 791               		.loc 1 296 9 view .LVU180
 296:funsape/peripheral/twi.cpp ****         TWSR |= (1 << TWPS0);
 792               		.loc 1 296 32 is_stmt 0 view .LVU181
 793 012a 887F      		andi r24,-8
 794 012c 8460      		ori r24,4
 795               		1:
 796 012e B695      		lsr r27
 797 0130 A795      		ror r26
 798 0132 9795      		ror r25
 799 0134 8795      		ror r24
 800 0136 00F4      		brcc 1b
 296:funsape/peripheral/twi.cpp ****         TWSR |= (1 << TWPS0);
 801               		.loc 1 296 14 view .LVU182
 802 0138 482F      		mov r20,r24
 803               	.LVL40:
 297:funsape/peripheral/twi.cpp ****     } else if(aux32 <= 4080) {          // Prescaler 16
 804               		.loc 1 297 9 is_stmt 1 view .LVU183
 805 013a E9EB      		ldi r30,lo8(-71)
 806 013c F0E0      		ldi r31,0
 807 013e 8081      		ld r24,Z
 297:funsape/peripheral/twi.cpp ****     } else if(aux32 <= 4080) {          // Prescaler 16
 808               		.loc 1 297 14 is_stmt 0 view .LVU184
 809 0140 8160      		ori r24,lo8(1)
GAS LISTING /tmp/ccQ8U2zo.s 			page 30


 810 0142 8083      		st Z,r24
 811               	.LVL41:
 812               	.L26:
 307:funsape/peripheral/twi.cpp ****     TWDR                                = 0xFF;         // Release SDA
 813               		.loc 1 307 5 is_stmt 1 view .LVU185
 307:funsape/peripheral/twi.cpp ****     TWDR                                = 0xFF;         // Release SDA
 814               		.loc 1 307 41 is_stmt 0 view .LVU186
 815 0144 4093 B800 		sts 184,r20
 308:funsape/peripheral/twi.cpp ****     setBit(TWCR, TWEN);                 // Activate TWI interface
 816               		.loc 1 308 5 is_stmt 1 view .LVU187
 308:funsape/peripheral/twi.cpp ****     setBit(TWCR, TWEN);                 // Activate TWI interface
 817               		.loc 1 308 41 is_stmt 0 view .LVU188
 818 0148 8FEF      		ldi r24,lo8(-1)
 819 014a 8093 BB00 		sts 187,r24
 309:funsape/peripheral/twi.cpp ****     this->_initialized                  = true;
 820               		.loc 1 309 5 is_stmt 1 view .LVU189
 309:funsape/peripheral/twi.cpp ****     this->_initialized                  = true;
 821               		.loc 1 309 5 view .LVU190
 822 014e ECEB      		ldi r30,lo8(-68)
 823 0150 F0E0      		ldi r31,0
 824 0152 8081      		ld r24,Z
 825 0154 8460      		ori r24,lo8(4)
 826 0156 8083      		st Z,r24
 309:funsape/peripheral/twi.cpp ****     this->_initialized                  = true;
 827               		.loc 1 309 5 view .LVU191
 310:funsape/peripheral/twi.cpp **** 
 828               		.loc 1 310 5 view .LVU192
 310:funsape/peripheral/twi.cpp **** 
 829               		.loc 1 310 41 is_stmt 0 view .LVU193
 830 0158 F801      		movw r30,r16
 831 015a 8485      		ldd r24,Z+12
 832 015c 8160      		ori r24,lo8(1<<0)
 833 015e 8487      		std Z+12,r24
 313:funsape/peripheral/twi.cpp ****     return true;
 834               		.loc 1 313 5 is_stmt 1 view .LVU194
 313:funsape/peripheral/twi.cpp ****     return true;
 835               		.loc 1 313 22 is_stmt 0 view .LVU195
 836 0160 1582      		std Z+5,__zero_reg__
 837 0162 1482      		std Z+4,__zero_reg__
 314:funsape/peripheral/twi.cpp **** }
 838               		.loc 1 314 5 is_stmt 1 view .LVU196
 314:funsape/peripheral/twi.cpp **** }
 839               		.loc 1 314 12 is_stmt 0 view .LVU197
 840 0164 81E0      		ldi r24,lo8(1)
 841 0166 00C0      		rjmp .L16
 842               	.LVL42:
 843               	.L31:
 254:funsape/peripheral/twi.cpp ****         return false;
 844               		.loc 1 254 9 is_stmt 1 view .LVU198
 254:funsape/peripheral/twi.cpp ****         return false;
 845               		.loc 1 254 26 is_stmt 0 view .LVU199
 846 0168 82E7      		ldi r24,lo8(114)
 847 016a 90E0      		ldi r25,0
 848 016c F801      		movw r30,r16
 849 016e 9583      		std Z+5,r25
 850 0170 8483      		std Z+4,r24
 255:funsape/peripheral/twi.cpp ****     } else if(clockSpeed_p > constTwiBitRateMax) {
GAS LISTING /tmp/ccQ8U2zo.s 			page 31


 851               		.loc 1 255 9 is_stmt 1 view .LVU200
 852               	.L20:
 255:funsape/peripheral/twi.cpp ****     } else if(clockSpeed_p > constTwiBitRateMax) {
 853               		.loc 1 255 16 is_stmt 0 view .LVU201
 854 0172 80E0      		ldi r24,0
 855               	.LVL43:
 856               	.L16:
 857               	/* epilogue start */
 315:funsape/peripheral/twi.cpp **** 
 858               		.loc 1 315 1 view .LVU202
 859 0174 0F90      		pop __tmp_reg__
 860 0176 0F90      		pop __tmp_reg__
 861 0178 0F90      		pop __tmp_reg__
 862 017a 0F90      		pop __tmp_reg__
 863 017c DF91      		pop r29
 864 017e CF91      		pop r28
 865 0180 1F91      		pop r17
 866 0182 0F91      		pop r16
 867               	.LVL44:
 315:funsape/peripheral/twi.cpp **** 
 868               		.loc 1 315 1 view .LVU203
 869 0184 FF90      		pop r15
 870 0186 EF90      		pop r14
 871 0188 DF90      		pop r13
 872 018a CF90      		pop r12
 873               	.LVL45:
 315:funsape/peripheral/twi.cpp **** 
 874               		.loc 1 315 1 view .LVU204
 875 018c BF90      		pop r11
 876               	.LVL46:
 315:funsape/peripheral/twi.cpp **** 
 877               		.loc 1 315 1 view .LVU205
 878 018e 0895      		ret
 879               	.LVL47:
 880               	.L32:
 258:funsape/peripheral/twi.cpp ****         return false;
 881               		.loc 1 258 9 is_stmt 1 view .LVU206
 258:funsape/peripheral/twi.cpp ****         return false;
 882               		.loc 1 258 26 is_stmt 0 view .LVU207
 883 0190 81E7      		ldi r24,lo8(113)
 884 0192 90E0      		ldi r25,0
 885 0194 F801      		movw r30,r16
 886 0196 9583      		std Z+5,r25
 887 0198 8483      		std Z+4,r24
 259:funsape/peripheral/twi.cpp ****     }
 888               		.loc 1 259 9 is_stmt 1 view .LVU208
 259:funsape/peripheral/twi.cpp ****     }
 889               		.loc 1 259 16 is_stmt 0 view .LVU209
 890 019a 00C0      		rjmp .L20
 891               	.L33:
 264:funsape/peripheral/twi.cpp ****         return false;
 892               		.loc 1 264 9 is_stmt 1 view .LVU210
 264:funsape/peripheral/twi.cpp ****         return false;
 893               		.loc 1 264 26 is_stmt 0 view .LVU211
 894 019c 86E6      		ldi r24,lo8(102)
 895 019e 90E0      		ldi r25,0
 896 01a0 F801      		movw r30,r16
GAS LISTING /tmp/ccQ8U2zo.s 			page 32


 897 01a2 9583      		std Z+5,r25
 898 01a4 8483      		std Z+4,r24
 265:funsape/peripheral/twi.cpp ****     } else if(bufferSize_p > constTwiBufferSizeMax) {
 899               		.loc 1 265 9 is_stmt 1 view .LVU212
 265:funsape/peripheral/twi.cpp ****     } else if(bufferSize_p > constTwiBufferSizeMax) {
 900               		.loc 1 265 16 is_stmt 0 view .LVU213
 901 01a6 00C0      		rjmp .L20
 902               	.L34:
 268:funsape/peripheral/twi.cpp ****         return false;
 903               		.loc 1 268 9 is_stmt 1 view .LVU214
 268:funsape/peripheral/twi.cpp ****         return false;
 904               		.loc 1 268 26 is_stmt 0 view .LVU215
 905 01a8 85E6      		ldi r24,lo8(101)
 906 01aa 90E0      		ldi r25,0
 907 01ac F801      		movw r30,r16
 908 01ae 9583      		std Z+5,r25
 909 01b0 8483      		std Z+4,r24
 269:funsape/peripheral/twi.cpp ****     }
 910               		.loc 1 269 9 is_stmt 1 view .LVU216
 269:funsape/peripheral/twi.cpp ****     }
 911               		.loc 1 269 16 is_stmt 0 view .LVU217
 912 01b2 00C0      		rjmp .L20
 913               	.L35:
 280:funsape/peripheral/twi.cpp ****         return false;
 914               		.loc 1 280 9 is_stmt 1 view .LVU218
 280:funsape/peripheral/twi.cpp ****         return false;
 915               		.loc 1 280 26 is_stmt 0 view .LVU219
 916 01b4 84E0      		ldi r24,lo8(4)
 917 01b6 90E0      		ldi r25,0
 918 01b8 9583      		std Z+5,r25
 919 01ba 8483      		std Z+4,r24
 281:funsape/peripheral/twi.cpp ****     }
 920               		.loc 1 281 9 is_stmt 1 view .LVU220
 281:funsape/peripheral/twi.cpp ****     }
 921               		.loc 1 281 16 is_stmt 0 view .LVU221
 922 01bc 00C0      		rjmp .L20
 923               	.L27:
 298:funsape/peripheral/twi.cpp ****         aux8 = (uint8_t)(aux32 / 16);
 924               		.loc 1 298 12 is_stmt 1 view .LVU222
 925 01be 413F      		cpi r20,-15
 926 01c0 2FE0      		ldi r18,15
 927 01c2 5207      		cpc r21,r18
 928 01c4 6105      		cpc r22,__zero_reg__
 929 01c6 7105      		cpc r23,__zero_reg__
 930 01c8 00F4      		brsh .L28
 299:funsape/peripheral/twi.cpp ****         TWSR |= (2 << TWPS0);
 931               		.loc 1 299 9 view .LVU223
 299:funsape/peripheral/twi.cpp ****         TWSR |= (2 << TWPS0);
 932               		.loc 1 299 32 is_stmt 0 view .LVU224
 933 01ca 807E      		andi r24,-32
 934 01cc 8061      		ori r24,16
 935               		1:
 936 01ce B695      		lsr r27
 937 01d0 A795      		ror r26
 938 01d2 9795      		ror r25
 939 01d4 8795      		ror r24
 940 01d6 00F4      		brcc 1b
GAS LISTING /tmp/ccQ8U2zo.s 			page 33


 299:funsape/peripheral/twi.cpp ****         TWSR |= (2 << TWPS0);
 941               		.loc 1 299 14 view .LVU225
 942 01d8 482F      		mov r20,r24
 943               	.LVL48:
 300:funsape/peripheral/twi.cpp ****     } else if(aux32 <= 16320) {         // Prescaler 64
 944               		.loc 1 300 9 is_stmt 1 view .LVU226
 945 01da E9EB      		ldi r30,lo8(-71)
 946 01dc F0E0      		ldi r31,0
 947 01de 8081      		ld r24,Z
 300:funsape/peripheral/twi.cpp ****     } else if(aux32 <= 16320) {         // Prescaler 64
 948               		.loc 1 300 14 is_stmt 0 view .LVU227
 949 01e0 8260      		ori r24,lo8(2)
 950 01e2 8083      		st Z,r24
 951 01e4 00C0      		rjmp .L26
 952               	.LVL49:
 953               	.L28:
 301:funsape/peripheral/twi.cpp ****         aux8 = (uint8_t)(aux32 / 64);
 954               		.loc 1 301 12 is_stmt 1 view .LVU228
 955 01e6 413C      		cpi r20,-63
 956 01e8 5F43      		sbci r21,63
 957 01ea 6040      		sbci r22,0
 958 01ec 7040      		sbci r23,0
 959 01ee 00F4      		brsh .L29
 302:funsape/peripheral/twi.cpp ****         TWSR |= (3 << TWPS0);
 960               		.loc 1 302 9 view .LVU229
 302:funsape/peripheral/twi.cpp ****         TWSR |= (3 << TWPS0);
 961               		.loc 1 302 32 is_stmt 0 view .LVU230
 962 01f0 8078      		andi r24,-128
 963 01f2 8064      		ori r24,64
 964               		1:
 965 01f4 B695      		lsr r27
 966 01f6 A795      		ror r26
 967 01f8 9795      		ror r25
 968 01fa 8795      		ror r24
 969 01fc 00F4      		brcc 1b
 302:funsape/peripheral/twi.cpp ****         TWSR |= (3 << TWPS0);
 970               		.loc 1 302 14 view .LVU231
 971 01fe 482F      		mov r20,r24
 972               	.LVL50:
 303:funsape/peripheral/twi.cpp ****     }
 973               		.loc 1 303 9 is_stmt 1 view .LVU232
 974 0200 E9EB      		ldi r30,lo8(-71)
 975 0202 F0E0      		ldi r31,0
 976 0204 8081      		ld r24,Z
 303:funsape/peripheral/twi.cpp ****     }
 977               		.loc 1 303 14 is_stmt 0 view .LVU233
 978 0206 8360      		ori r24,lo8(3)
 979 0208 8083      		st Z,r24
 980 020a 00C0      		rjmp .L26
 981               	.LVL51:
 982               	.L29:
 241:funsape/peripheral/twi.cpp **** 
 983               		.loc 1 241 13 view .LVU234
 984 020c 40E0      		ldi r20,0
 985 020e 00C0      		rjmp .L26
 986               		.cfi_endproc
 987               	.LFE162:
GAS LISTING /tmp/ccQ8U2zo.s 			page 34


 989               		.section	.text._ZN3Twi10setTimeoutEj,"ax",@progbits
 990               	.global	_ZN3Twi10setTimeoutEj
 992               	_ZN3Twi10setTimeoutEj:
 993               	.LVL52:
 994               	.LFB163:
 318:funsape/peripheral/twi.cpp ****     // Updates data members
 995               		.loc 1 318 1 is_stmt 1 view -0
 996               		.cfi_startproc
 997               	/* prologue: function */
 998               	/* frame size = 0 */
 999               	/* stack size = 0 */
 1000               	.L__stack_usage = 0
 320:funsape/peripheral/twi.cpp **** 
 1001               		.loc 1 320 5 view .LVU236
 320:funsape/peripheral/twi.cpp **** 
 1002               		.loc 1 320 20 is_stmt 0 view .LVU237
 1003 0000 FC01      		movw r30,r24
 1004 0002 7387      		std Z+11,r23
 1005 0004 6287      		std Z+10,r22
 323:funsape/peripheral/twi.cpp ****     return true;
 1006               		.loc 1 323 5 is_stmt 1 view .LVU238
 323:funsape/peripheral/twi.cpp ****     return true;
 1007               		.loc 1 323 22 is_stmt 0 view .LVU239
 1008 0006 1582      		std Z+5,__zero_reg__
 1009 0008 1482      		std Z+4,__zero_reg__
 324:funsape/peripheral/twi.cpp **** }
 1010               		.loc 1 324 5 is_stmt 1 view .LVU240
 325:funsape/peripheral/twi.cpp **** 
 1011               		.loc 1 325 1 is_stmt 0 view .LVU241
 1012 000a 81E0      		ldi r24,lo8(1)
 1013               	.LVL53:
 1014               	/* epilogue start */
 325:funsape/peripheral/twi.cpp **** 
 1015               		.loc 1 325 1 view .LVU242
 1016 000c 0895      		ret
 1017               		.cfi_endproc
 1018               	.LFE163:
 1020               		.section	.text._ZN3Twi16_waitWhileIsBusyEv,"ax",@progbits
 1021               	.global	_ZN3Twi16_waitWhileIsBusyEv
 1023               	_ZN3Twi16_waitWhileIsBusyEv:
 1024               	.LVL54:
 1025               	.LFB165:
 338:funsape/peripheral/twi.cpp ****     // Local variables
 1026               		.loc 1 338 1 is_stmt 1 view -0
 1027               		.cfi_startproc
 338:funsape/peripheral/twi.cpp ****     // Local variables
 1028               		.loc 1 338 1 is_stmt 0 view .LVU244
 1029 0000 0F93      		push r16
 1030               	.LCFI11:
 1031               		.cfi_def_cfa_offset 3
 1032               		.cfi_offset 16, -2
 1033 0002 1F93      		push r17
 1034               	.LCFI12:
 1035               		.cfi_def_cfa_offset 4
 1036               		.cfi_offset 17, -3
 1037               	/* prologue: function */
 1038               	/* frame size = 0 */
GAS LISTING /tmp/ccQ8U2zo.s 			page 35


 1039               	/* stack size = 2 */
 1040               	.L__stack_usage = 2
 1041 0004 DC01      		movw r26,r24
 340:funsape/peripheral/twi.cpp ****     uint32_t stopwatchDeadline;
 1042               		.loc 1 340 5 is_stmt 1 view .LVU245
 341:funsape/peripheral/twi.cpp **** 
 1043               		.loc 1 341 5 view .LVU246
 344:funsape/peripheral/twi.cpp ****         stopwatchDeadline = 0xFFFFFFFF;
 1044               		.loc 1 344 5 view .LVU247
 344:funsape/peripheral/twi.cpp ****         stopwatchDeadline = 0xFFFFFFFF;
 1045               		.loc 1 344 14 is_stmt 0 view .LVU248
 1046 0006 1A96      		adiw r26,10
 1047 0008 8D91      		ld r24,X+
 1048 000a 9D91      		ld r25,X+
 1049               	.LVL55:
 344:funsape/peripheral/twi.cpp ****         stopwatchDeadline = 0xFFFFFFFF;
 1050               		.loc 1 344 14 view .LVU249
 1051 000c 1C97      		sbiw r26,12
 1052               	.LVL56:
 344:funsape/peripheral/twi.cpp ****         stopwatchDeadline = 0xFFFFFFFF;
 1053               		.loc 1 344 5 view .LVU250
 1054 000e 892B      		or r24,r25
 1055 0010 01F0      		breq .L45
 347:funsape/peripheral/twi.cpp ****         systemStatus.getStopwatchValue(&stopwatchDeadline);
 1056               		.loc 1 347 9 is_stmt 1 view .LVU251
 1057               	.LVL57:
 348:funsape/peripheral/twi.cpp ****         stopwatchDeadline += this->_timeout;
 1058               		.loc 1 348 9 view .LVU252
 1059               	.LBB14:
 1060               	.LBI14:
 1061               		.file 3 "funsape/peripheral/../util/systemStatus.hpp"
   1:funsape/peripheral/../util/systemStatus.hpp **** //!
   2:funsape/peripheral/../util/systemStatus.hpp **** //! \file           systemStatus.hpp
   3:funsape/peripheral/../util/systemStatus.hpp **** //! \brief          System function support to Funsape AVR8 Library
   4:funsape/peripheral/../util/systemStatus.hpp **** //! \author         Leandro Schwarz (bladabuska+funsapeavr8lib@gmail.com)
   5:funsape/peripheral/../util/systemStatus.hpp **** //! \date           2024-05-08
   6:funsape/peripheral/../util/systemStatus.hpp **** //! \version        24.05
   7:funsape/peripheral/../util/systemStatus.hpp **** //! \copyright      license
   8:funsape/peripheral/../util/systemStatus.hpp **** //! \details        This file provides support to system-wide features for all
   9:funsape/peripheral/../util/systemStatus.hpp **** //!                     modules of the Funsape AVR8 Library
  10:funsape/peripheral/../util/systemStatus.hpp **** //!
  11:funsape/peripheral/../util/systemStatus.hpp **** 
  12:funsape/peripheral/../util/systemStatus.hpp **** // =============================================================================
  13:funsape/peripheral/../util/systemStatus.hpp **** // Include guard (START)
  14:funsape/peripheral/../util/systemStatus.hpp **** // =============================================================================
  15:funsape/peripheral/../util/systemStatus.hpp **** 
  16:funsape/peripheral/../util/systemStatus.hpp **** #ifndef __SYSTEM_STATUS_HPP
  17:funsape/peripheral/../util/systemStatus.hpp **** #define __SYSTEM_STATUS_HPP         2604
  18:funsape/peripheral/../util/systemStatus.hpp **** 
  19:funsape/peripheral/../util/systemStatus.hpp **** // =============================================================================
  20:funsape/peripheral/../util/systemStatus.hpp **** // Dependencies
  21:funsape/peripheral/../util/systemStatus.hpp **** // =============================================================================
  22:funsape/peripheral/../util/systemStatus.hpp **** 
  23:funsape/peripheral/../util/systemStatus.hpp **** //     /////////////////     GLOBAL DEFINITIONS FILE    /////////////////     //
  24:funsape/peripheral/../util/systemStatus.hpp **** #include "../globalDefines.hpp"
  25:funsape/peripheral/../util/systemStatus.hpp **** #if !defined(__GLOBAL_DEFINES_HPP)
  26:funsape/peripheral/../util/systemStatus.hpp **** #   error "Global definitions file is corrupted!"
GAS LISTING /tmp/ccQ8U2zo.s 			page 36


  27:funsape/peripheral/../util/systemStatus.hpp **** #elif __GLOBAL_DEFINES_HPP != __SYSTEM_STATUS_HPP
  28:funsape/peripheral/../util/systemStatus.hpp **** #   error "Version mismatch between file header and global definitions file!"
  29:funsape/peripheral/../util/systemStatus.hpp **** #endif
  30:funsape/peripheral/../util/systemStatus.hpp **** 
  31:funsape/peripheral/../util/systemStatus.hpp **** 
  32:funsape/peripheral/../util/systemStatus.hpp **** // +++++++++++++++++++++++++++++++++++++++++++++++++++++++++++++++++++++++++++++
  33:funsape/peripheral/../util/systemStatus.hpp **** // Doxygen: Start main group "Peripherals"
  34:funsape/peripheral/../util/systemStatus.hpp **** // +++++++++++++++++++++++++++++++++++++++++++++++++++++++++++++++++++++++++++++
  35:funsape/peripheral/../util/systemStatus.hpp **** //!
  36:funsape/peripheral/../util/systemStatus.hpp **** //! \addtogroup     Peripherals
  37:funsape/peripheral/../util/systemStatus.hpp **** //! \brief          Microcontroller peripherals.
  38:funsape/peripheral/../util/systemStatus.hpp **** //! \{
  39:funsape/peripheral/../util/systemStatus.hpp **** //!
  40:funsape/peripheral/../util/systemStatus.hpp **** 
  41:funsape/peripheral/../util/systemStatus.hpp **** // +++++++++++++++++++++++++++++++++++++++++++++++++++++++++++++++++++++++++++++
  42:funsape/peripheral/../util/systemStatus.hpp **** // Doxygen: Start subgroup "Peripherals/System_Status"
  43:funsape/peripheral/../util/systemStatus.hpp **** // +++++++++++++++++++++++++++++++++++++++++++++++++++++++++++++++++++++++++++++
  44:funsape/peripheral/../util/systemStatus.hpp **** //!
  45:funsape/peripheral/../util/systemStatus.hpp **** //! \addtogroup     System_Status
  46:funsape/peripheral/../util/systemStatus.hpp **** //! \brief          System Status and Control controller module.
  47:funsape/peripheral/../util/systemStatus.hpp **** //! \{
  48:funsape/peripheral/../util/systemStatus.hpp **** //!
  49:funsape/peripheral/../util/systemStatus.hpp **** 
  50:funsape/peripheral/../util/systemStatus.hpp **** // =============================================================================
  51:funsape/peripheral/../util/systemStatus.hpp **** // Undefining previous definitions
  52:funsape/peripheral/../util/systemStatus.hpp **** // =============================================================================
  53:funsape/peripheral/../util/systemStatus.hpp **** 
  54:funsape/peripheral/../util/systemStatus.hpp **** // NONE
  55:funsape/peripheral/../util/systemStatus.hpp **** 
  56:funsape/peripheral/../util/systemStatus.hpp **** // =============================================================================
  57:funsape/peripheral/../util/systemStatus.hpp **** // Constant definitions
  58:funsape/peripheral/../util/systemStatus.hpp **** // =============================================================================
  59:funsape/peripheral/../util/systemStatus.hpp **** 
  60:funsape/peripheral/../util/systemStatus.hpp **** // NONE
  61:funsape/peripheral/../util/systemStatus.hpp **** 
  62:funsape/peripheral/../util/systemStatus.hpp **** // =============================================================================
  63:funsape/peripheral/../util/systemStatus.hpp **** // New data types
  64:funsape/peripheral/../util/systemStatus.hpp **** // =============================================================================
  65:funsape/peripheral/../util/systemStatus.hpp **** 
  66:funsape/peripheral/../util/systemStatus.hpp **** // NONE
  67:funsape/peripheral/../util/systemStatus.hpp **** 
  68:funsape/peripheral/../util/systemStatus.hpp **** // =============================================================================
  69:funsape/peripheral/../util/systemStatus.hpp **** // Interrupt callback functions
  70:funsape/peripheral/../util/systemStatus.hpp **** // =============================================================================
  71:funsape/peripheral/../util/systemStatus.hpp **** 
  72:funsape/peripheral/../util/systemStatus.hpp **** // NONE
  73:funsape/peripheral/../util/systemStatus.hpp **** 
  74:funsape/peripheral/../util/systemStatus.hpp **** // =============================================================================
  75:funsape/peripheral/../util/systemStatus.hpp **** // Public functions declarations
  76:funsape/peripheral/../util/systemStatus.hpp **** // =============================================================================
  77:funsape/peripheral/../util/systemStatus.hpp **** 
  78:funsape/peripheral/../util/systemStatus.hpp **** // NONE
  79:funsape/peripheral/../util/systemStatus.hpp **** 
  80:funsape/peripheral/../util/systemStatus.hpp **** // =============================================================================
  81:funsape/peripheral/../util/systemStatus.hpp **** // SystemStatus Class
  82:funsape/peripheral/../util/systemStatus.hpp **** // =============================================================================
  83:funsape/peripheral/../util/systemStatus.hpp **** 
GAS LISTING /tmp/ccQ8U2zo.s 			page 37


  84:funsape/peripheral/../util/systemStatus.hpp **** //!
  85:funsape/peripheral/../util/systemStatus.hpp **** //! \brief          SystemStatus class.
  86:funsape/peripheral/../util/systemStatus.hpp **** //! \details        This class manages the System Status and Controls the System
  87:funsape/peripheral/../util/systemStatus.hpp **** //!                     Clock.
  88:funsape/peripheral/../util/systemStatus.hpp **** //! \warning        An instance of this class is already defined as a global
  89:funsape/peripheral/../util/systemStatus.hpp **** //!                     object. Therefore, there is not necessary, neither
  90:funsape/peripheral/../util/systemStatus.hpp **** //!                     recommended to create another object of this class.
  91:funsape/peripheral/../util/systemStatus.hpp **** //!
  92:funsape/peripheral/../util/systemStatus.hpp **** class SystemStatus
  93:funsape/peripheral/../util/systemStatus.hpp **** {
  94:funsape/peripheral/../util/systemStatus.hpp ****     // -------------------------------------------------------------------------
  95:funsape/peripheral/../util/systemStatus.hpp ****     // New data types ----------------------------------------------------------
  96:funsape/peripheral/../util/systemStatus.hpp **** public:
  97:funsape/peripheral/../util/systemStatus.hpp ****     //     ///////////////    SYSTEM CLOCK PRESCALER    /////////////////     //
  98:funsape/peripheral/../util/systemStatus.hpp ****     //!
  99:funsape/peripheral/../util/systemStatus.hpp ****     //! \brief      System Clock prescaler enumeration.
 100:funsape/peripheral/../util/systemStatus.hpp ****     //! \details    Clock prescaler options associated with MCU System.
 101:funsape/peripheral/../util/systemStatus.hpp ****     //! \warning    The value associate with the symbolic names may change
 102:funsape/peripheral/../util/systemStatus.hpp ****     //!                 between builds and might not reflect the register/bits
 103:funsape/peripheral/../util/systemStatus.hpp ****     //!                 real values. In order to ensure compatibility between
 104:funsape/peripheral/../util/systemStatus.hpp ****     //!                 builds, always refer to the SYMBOLIC NAME, instead of
 105:funsape/peripheral/../util/systemStatus.hpp ****     //!                 the VALUE.
 106:funsape/peripheral/../util/systemStatus.hpp ****     //!
 107:funsape/peripheral/../util/systemStatus.hpp ****     enum class ClockPrescaler {
 108:funsape/peripheral/../util/systemStatus.hpp ****         PRESCALER_1                     = 0,    //!< Prescaler off. System clock is not divided.
 109:funsape/peripheral/../util/systemStatus.hpp ****         PRESCALER_2                     = 1,    //!< I/O clock frequency will be System Clock divid
 110:funsape/peripheral/../util/systemStatus.hpp ****         PRESCALER_4                     = 2,    //!< I/O clock frequency will be System Clock divid
 111:funsape/peripheral/../util/systemStatus.hpp ****         PRESCALER_8                     = 3,    //!< I/O clock frequency will be System Clock divid
 112:funsape/peripheral/../util/systemStatus.hpp ****         PRESCALER_32                    = 4,    //!< I/O clock frequency will be System Clock divid
 113:funsape/peripheral/../util/systemStatus.hpp ****         PRESCALER_64                    = 5,    //!< I/O clock frequency will be System Clock divid
 114:funsape/peripheral/../util/systemStatus.hpp ****         PRESCALER_128                   = 6,    //!< I/O clock frequency will be System Clock divid
 115:funsape/peripheral/../util/systemStatus.hpp ****         PRESCALER_256                   = 7,    //!< I/O clock frequency will be System Clock divid
 116:funsape/peripheral/../util/systemStatus.hpp ****     };
 117:funsape/peripheral/../util/systemStatus.hpp **** 
 118:funsape/peripheral/../util/systemStatus.hpp ****     // -------------------------------------------------------------------------
 119:funsape/peripheral/../util/systemStatus.hpp ****     // Constructors ------------------------------------------------------------
 120:funsape/peripheral/../util/systemStatus.hpp **** public:
 121:funsape/peripheral/../util/systemStatus.hpp **** 
 122:funsape/peripheral/../util/systemStatus.hpp ****     //!
 123:funsape/peripheral/../util/systemStatus.hpp ****     //! \brief      SystemStatus class constructor.
 124:funsape/peripheral/../util/systemStatus.hpp ****     //! \details    Creates a SystemStatus object. The object is loaded with the
 125:funsape/peripheral/../util/systemStatus.hpp ****     //!                 default configuration values (clock = F_CPU,
 126:funsape/peripheral/../util/systemStatus.hpp ****     //!                 ClockPrescaler::PRESCALER_1). The object starts
 127:funsape/peripheral/../util/systemStatus.hpp ****     //!                 initialized and is ready to use.
 128:funsape/peripheral/../util/systemStatus.hpp ****     //! \param[in]  mainClock_p         Value of the system main clock.
 129:funsape/peripheral/../util/systemStatus.hpp ****     //!
 130:funsape/peripheral/../util/systemStatus.hpp ****     SystemStatus(
 131:funsape/peripheral/../util/systemStatus.hpp ****             uint32_t mainClock_p = F_CPU
 132:funsape/peripheral/../util/systemStatus.hpp ****     );
 133:funsape/peripheral/../util/systemStatus.hpp **** 
 134:funsape/peripheral/../util/systemStatus.hpp ****     //!
 135:funsape/peripheral/../util/systemStatus.hpp ****     //! \brief      SystemStatus class destructor.
 136:funsape/peripheral/../util/systemStatus.hpp ****     //! \details    Destroys a SystemStatus object.
 137:funsape/peripheral/../util/systemStatus.hpp ****     //!
 138:funsape/peripheral/../util/systemStatus.hpp ****     ~SystemStatus(
 139:funsape/peripheral/../util/systemStatus.hpp ****             void
 140:funsape/peripheral/../util/systemStatus.hpp ****     );
GAS LISTING /tmp/ccQ8U2zo.s 			page 38


 141:funsape/peripheral/../util/systemStatus.hpp **** 
 142:funsape/peripheral/../util/systemStatus.hpp ****     // -------------------------------------------------------------------------
 143:funsape/peripheral/../util/systemStatus.hpp ****     // Operator overloading ----------------------------------------------------
 144:funsape/peripheral/../util/systemStatus.hpp **** public:
 145:funsape/peripheral/../util/systemStatus.hpp ****     // NONE
 146:funsape/peripheral/../util/systemStatus.hpp **** 
 147:funsape/peripheral/../util/systemStatus.hpp **** private:
 148:funsape/peripheral/../util/systemStatus.hpp ****     // NONE
 149:funsape/peripheral/../util/systemStatus.hpp **** 
 150:funsape/peripheral/../util/systemStatus.hpp **** protected:
 151:funsape/peripheral/../util/systemStatus.hpp ****     // NONE
 152:funsape/peripheral/../util/systemStatus.hpp **** 
 153:funsape/peripheral/../util/systemStatus.hpp ****     // -------------------------------------------------------------------------
 154:funsape/peripheral/../util/systemStatus.hpp ****     // Methods - Inherited methods ---------------------------------------------
 155:funsape/peripheral/../util/systemStatus.hpp **** public:
 156:funsape/peripheral/../util/systemStatus.hpp ****     // NONE
 157:funsape/peripheral/../util/systemStatus.hpp **** 
 158:funsape/peripheral/../util/systemStatus.hpp **** protected:
 159:funsape/peripheral/../util/systemStatus.hpp ****     // NONE
 160:funsape/peripheral/../util/systemStatus.hpp **** 
 161:funsape/peripheral/../util/systemStatus.hpp ****     // -------------------------------------------------------------------------
 162:funsape/peripheral/../util/systemStatus.hpp ****     // Methods - Class own methods ---------------------------------------------
 163:funsape/peripheral/../util/systemStatus.hpp **** public:
 164:funsape/peripheral/../util/systemStatus.hpp ****     //     /////////////     SYSTEM CLOCK AND PRESCALER     /////////////     //
 165:funsape/peripheral/../util/systemStatus.hpp ****     //!
 166:funsape/peripheral/../util/systemStatus.hpp ****     //! \brief          Returns CPU clock.
 167:funsape/peripheral/../util/systemStatus.hpp ****     //! \details        Returns the value of the main CPU clock.]
 168:funsape/peripheral/../util/systemStatus.hpp ****     //! \param[out]     cpuClockValue_p Pointer to store the clock value.
 169:funsape/peripheral/../util/systemStatus.hpp ****     //! \retval     true                Success.
 170:funsape/peripheral/../util/systemStatus.hpp ****     //! \retval     false               Retrieve the error using the \ref
 171:funsape/peripheral/../util/systemStatus.hpp ****     //!                                     getLastError() function.
 172:funsape/peripheral/../util/systemStatus.hpp ****     //!
 173:funsape/peripheral/../util/systemStatus.hpp ****     bool_t getCpuClock(
 174:funsape/peripheral/../util/systemStatus.hpp ****             uint32_t *cpuClockValue_p
 175:funsape/peripheral/../util/systemStatus.hpp ****     );
 176:funsape/peripheral/../util/systemStatus.hpp **** 
 177:funsape/peripheral/../util/systemStatus.hpp ****     //!
 178:funsape/peripheral/../util/systemStatus.hpp ****     //! \brief          Set system clock prescaler.
 179:funsape/peripheral/../util/systemStatus.hpp ****     //! \details        Set system clock prescaler.
 180:funsape/peripheral/../util/systemStatus.hpp ****     //! \param[in]      prescaler_p             Value of the system clock prescaler.
 181:funsape/peripheral/../util/systemStatus.hpp ****     //! \retval     true                Success.
 182:funsape/peripheral/../util/systemStatus.hpp ****     //! \retval     false               Retrieve the error using the \ref
 183:funsape/peripheral/../util/systemStatus.hpp ****     //!                                     getLastError() function.
 184:funsape/peripheral/../util/systemStatus.hpp ****     //!
 185:funsape/peripheral/../util/systemStatus.hpp ****     bool_t setClockPrescaler(
 186:funsape/peripheral/../util/systemStatus.hpp ****             ClockPrescaler prescaler_p
 187:funsape/peripheral/../util/systemStatus.hpp ****     );
 188:funsape/peripheral/../util/systemStatus.hpp **** 
 189:funsape/peripheral/../util/systemStatus.hpp ****     //     //////////////////////    STOPWATCH     //////////////////////     //
 190:funsape/peripheral/../util/systemStatus.hpp ****     //!
 191:funsape/peripheral/../util/systemStatus.hpp ****     //! \brief          Returns the elapsed time between marks.
 192:funsape/peripheral/../util/systemStatus.hpp ****     //! \details        Returns the elapsed time between marks.
 193:funsape/peripheral/../util/systemStatus.hpp ****     //! \param          setNewMark_p    Erase old time mark.
 194:funsape/peripheral/../util/systemStatus.hpp ****     //! \return         uint32_t        Elapsed time between marks.
 195:funsape/peripheral/../util/systemStatus.hpp ****     //!
 196:funsape/peripheral/../util/systemStatus.hpp ****     inlined uint32_t getElapsedTime(
 197:funsape/peripheral/../util/systemStatus.hpp ****             bool_t setNewMark_p = true
GAS LISTING /tmp/ccQ8U2zo.s 			page 39


 198:funsape/peripheral/../util/systemStatus.hpp ****     );
 199:funsape/peripheral/../util/systemStatus.hpp **** 
 200:funsape/peripheral/../util/systemStatus.hpp ****     //!
 201:funsape/peripheral/../util/systemStatus.hpp ****     //! \brief          Gets the value of the stopwatch counter.
 202:funsape/peripheral/../util/systemStatus.hpp ****     //! \details        Gets the value of the stopwatch counter.
 203:funsape/peripheral/../util/systemStatus.hpp ****     //! \param[out]     stopwatchValue_p    Pointer to store the clock value.
 204:funsape/peripheral/../util/systemStatus.hpp ****     //! \retval     true                Success.
 205:funsape/peripheral/../util/systemStatus.hpp ****     //! \retval     false               Retrieve the error using the \ref
 206:funsape/peripheral/../util/systemStatus.hpp ****     //!                                     getLastError() function.
 207:funsape/peripheral/../util/systemStatus.hpp ****     //!
 208:funsape/peripheral/../util/systemStatus.hpp ****     inlined bool_t getStopwatchValue(
 209:funsape/peripheral/../util/systemStatus.hpp ****             uint32_t *stopwatchValue_p
 210:funsape/peripheral/../util/systemStatus.hpp ****     );
 211:funsape/peripheral/../util/systemStatus.hpp **** 
 212:funsape/peripheral/../util/systemStatus.hpp ****     //!
 213:funsape/peripheral/../util/systemStatus.hpp ****     //! \brief          Increments the stopwatch counter.
 214:funsape/peripheral/../util/systemStatus.hpp ****     //! \details        Increments the stopwatch counter.
 215:funsape/peripheral/../util/systemStatus.hpp ****     //! \retval     true                Success.
 216:funsape/peripheral/../util/systemStatus.hpp ****     //! \retval     false               Retrieve the error using the \ref
 217:funsape/peripheral/../util/systemStatus.hpp ****     //!                                     getLastError() function.
 218:funsape/peripheral/../util/systemStatus.hpp ****     //!
 219:funsape/peripheral/../util/systemStatus.hpp ****     inlined bool_t incrementStopwatch(
 220:funsape/peripheral/../util/systemStatus.hpp ****             void
 221:funsape/peripheral/../util/systemStatus.hpp ****     );
 222:funsape/peripheral/../util/systemStatus.hpp **** 
 223:funsape/peripheral/../util/systemStatus.hpp ****     //!
 224:funsape/peripheral/../util/systemStatus.hpp ****     //! \brief          Resets the stopwatch counter.
 225:funsape/peripheral/../util/systemStatus.hpp ****     //! \details        Resets the stopwatch counter.
 226:funsape/peripheral/../util/systemStatus.hpp ****     //! \retval     true                Success.
 227:funsape/peripheral/../util/systemStatus.hpp ****     //! \retval     false               Retrieve the error using the \ref
 228:funsape/peripheral/../util/systemStatus.hpp ****     //!                                     getLastError() function.
 229:funsape/peripheral/../util/systemStatus.hpp ****     //!
 230:funsape/peripheral/../util/systemStatus.hpp ****     inlined bool_t resetStopwatch(
 231:funsape/peripheral/../util/systemStatus.hpp ****             void
 232:funsape/peripheral/../util/systemStatus.hpp ****     );
 233:funsape/peripheral/../util/systemStatus.hpp **** 
 234:funsape/peripheral/../util/systemStatus.hpp ****     //!
 235:funsape/peripheral/../util/systemStatus.hpp ****     //! \brief          Sets a time marker at the stopwatch.
 236:funsape/peripheral/../util/systemStatus.hpp ****     //! \details        Sets a time marker at the stopwatch.
 237:funsape/peripheral/../util/systemStatus.hpp ****     //! \retval     true                Success.
 238:funsape/peripheral/../util/systemStatus.hpp ****     //! \retval     false               Retrieve the error using the \ref
 239:funsape/peripheral/../util/systemStatus.hpp ****     //!                                     getLastError() function.
 240:funsape/peripheral/../util/systemStatus.hpp ****     //!
 241:funsape/peripheral/../util/systemStatus.hpp ****     inlined bool_t setStopwatchMark(
 242:funsape/peripheral/../util/systemStatus.hpp ****             void
 243:funsape/peripheral/../util/systemStatus.hpp ****     );
 244:funsape/peripheral/../util/systemStatus.hpp **** 
 245:funsape/peripheral/../util/systemStatus.hpp ****     //!
 246:funsape/peripheral/../util/systemStatus.hpp ****     //! \brief          Starts the stopwatch counter.
 247:funsape/peripheral/../util/systemStatus.hpp ****     //! \details        Starts the stopwatch counter.
 248:funsape/peripheral/../util/systemStatus.hpp ****     //! \retval     true                Success.
 249:funsape/peripheral/../util/systemStatus.hpp ****     //! \retval     false               Retrieve the error using the \ref
 250:funsape/peripheral/../util/systemStatus.hpp ****     //!                                     getLastError() function.
 251:funsape/peripheral/../util/systemStatus.hpp ****     //!
 252:funsape/peripheral/../util/systemStatus.hpp ****     inlined bool_t startStopwatch(
 253:funsape/peripheral/../util/systemStatus.hpp ****             void
 254:funsape/peripheral/../util/systemStatus.hpp ****     );
GAS LISTING /tmp/ccQ8U2zo.s 			page 40


 255:funsape/peripheral/../util/systemStatus.hpp **** 
 256:funsape/peripheral/../util/systemStatus.hpp ****     //!
 257:funsape/peripheral/../util/systemStatus.hpp ****     //! \brief          Stops the stopwatch counter.
 258:funsape/peripheral/../util/systemStatus.hpp ****     //! \details        Stops the stopwatch counter.
 259:funsape/peripheral/../util/systemStatus.hpp ****     //! \retval     true                Success.
 260:funsape/peripheral/../util/systemStatus.hpp ****     //! \retval     false               Retrieve the error using the \ref
 261:funsape/peripheral/../util/systemStatus.hpp ****     //!                                     getLastError() function.
 262:funsape/peripheral/../util/systemStatus.hpp ****     //!
 263:funsape/peripheral/../util/systemStatus.hpp ****     inlined bool_t stopStopwatch(
 264:funsape/peripheral/../util/systemStatus.hpp ****             void
 265:funsape/peripheral/../util/systemStatus.hpp ****     );
 266:funsape/peripheral/../util/systemStatus.hpp **** 
 267:funsape/peripheral/../util/systemStatus.hpp **** 
 268:funsape/peripheral/../util/systemStatus.hpp ****     //     ////////////////////     CHECK STATUS     ////////////////////     //
 269:funsape/peripheral/../util/systemStatus.hpp ****     //!
 270:funsape/peripheral/../util/systemStatus.hpp ****     //! \brief      Returns the last error.
 271:funsape/peripheral/../util/systemStatus.hpp ****     //! \details    Returns the last error.
 272:funsape/peripheral/../util/systemStatus.hpp ****     //! \return     Error               Error status of the last operation.
 273:funsape/peripheral/../util/systemStatus.hpp ****     //!
 274:funsape/peripheral/../util/systemStatus.hpp ****     Error getLastError(
 275:funsape/peripheral/../util/systemStatus.hpp ****             void
 276:funsape/peripheral/../util/systemStatus.hpp ****     );
 277:funsape/peripheral/../util/systemStatus.hpp **** 
 278:funsape/peripheral/../util/systemStatus.hpp **** // private:
 279:funsape/peripheral/../util/systemStatus.hpp **** //     uint32_t _elapsedTime(
 280:funsape/peripheral/../util/systemStatus.hpp **** //             uint32_t customMark_p
 281:funsape/peripheral/../util/systemStatus.hpp **** //     );
 282:funsape/peripheral/../util/systemStatus.hpp **** 
 283:funsape/peripheral/../util/systemStatus.hpp **** protected:
 284:funsape/peripheral/../util/systemStatus.hpp ****     // NONE
 285:funsape/peripheral/../util/systemStatus.hpp **** 
 286:funsape/peripheral/../util/systemStatus.hpp ****     // -------------------------------------------------------------------------
 287:funsape/peripheral/../util/systemStatus.hpp ****     // Properties --------------------------------------------------------------
 288:funsape/peripheral/../util/systemStatus.hpp **** public:
 289:funsape/peripheral/../util/systemStatus.hpp ****     // NONE
 290:funsape/peripheral/../util/systemStatus.hpp **** 
 291:funsape/peripheral/../util/systemStatus.hpp **** private:
 292:funsape/peripheral/../util/systemStatus.hpp ****     //     /////////////     SYSTEM CLOCK AND PRESCALER     /////////////     //
 293:funsape/peripheral/../util/systemStatus.hpp ****     uint32_t        _sourceClockValue;
 294:funsape/peripheral/../util/systemStatus.hpp ****     ClockPrescaler  _clockPrescaler;
 295:funsape/peripheral/../util/systemStatus.hpp ****     uint32_t        _cpuClockValue;
 296:funsape/peripheral/../util/systemStatus.hpp **** 
 297:funsape/peripheral/../util/systemStatus.hpp ****     //     //////////////////////    STOPWATCH     //////////////////////     //
 298:funsape/peripheral/../util/systemStatus.hpp ****     bool_t          _initialized                : 1;
 299:funsape/peripheral/../util/systemStatus.hpp ****     vuint32_t       _stopwatchValue;
 300:funsape/peripheral/../util/systemStatus.hpp ****     vuint32_t       _stopwatchMark;
 301:funsape/peripheral/../util/systemStatus.hpp ****     bool_t          _stopwatchHalted            : 1;
 302:funsape/peripheral/../util/systemStatus.hpp **** 
 303:funsape/peripheral/../util/systemStatus.hpp ****     //     ////////////////////     CHECK STATUS     ////////////////////     //
 304:funsape/peripheral/../util/systemStatus.hpp ****     Error           _lastError;
 305:funsape/peripheral/../util/systemStatus.hpp **** }; // class SystemStatus
 306:funsape/peripheral/../util/systemStatus.hpp **** 
 307:funsape/peripheral/../util/systemStatus.hpp **** // =============================================================================
 308:funsape/peripheral/../util/systemStatus.hpp **** // SystemStatus - Class overloading operators
 309:funsape/peripheral/../util/systemStatus.hpp **** // =============================================================================
 310:funsape/peripheral/../util/systemStatus.hpp **** 
 311:funsape/peripheral/../util/systemStatus.hpp **** // NONE
GAS LISTING /tmp/ccQ8U2zo.s 			page 41


 312:funsape/peripheral/../util/systemStatus.hpp **** 
 313:funsape/peripheral/../util/systemStatus.hpp **** // =============================================================================
 314:funsape/peripheral/../util/systemStatus.hpp **** // SystemStatus - Class inline function definitions
 315:funsape/peripheral/../util/systemStatus.hpp **** // =============================================================================
 316:funsape/peripheral/../util/systemStatus.hpp **** 
 317:funsape/peripheral/../util/systemStatus.hpp **** //!
 318:funsape/peripheral/../util/systemStatus.hpp **** //! \cond
 319:funsape/peripheral/../util/systemStatus.hpp **** //!
 320:funsape/peripheral/../util/systemStatus.hpp **** 
 321:funsape/peripheral/../util/systemStatus.hpp **** inlined bool_t SystemStatus::getStopwatchValue(uint32_t *stopwatchValue_p)
 1062               		.loc 3 321 16 view .LVU253
 1063               	.LBB15:
 322:funsape/peripheral/../util/systemStatus.hpp **** {
 323:funsape/peripheral/../util/systemStatus.hpp ****     // Checks for errors
 324:funsape/peripheral/../util/systemStatus.hpp ****     if(!this->_initialized) {
 1064               		.loc 3 324 5 view .LVU254
 1065               		.loc 3 324 15 is_stmt 0 view .LVU255
 1066 0012 8091 0000 		lds r24,systemStatus+10
 1067               		.loc 3 324 5 view .LVU256
 1068 0016 80FF      		sbrs r24,0
 1069 0018 00C0      		rjmp .L47
 325:funsape/peripheral/../util/systemStatus.hpp ****         // Returns error
 326:funsape/peripheral/../util/systemStatus.hpp ****         this->_lastError                = Error::NOT_INITIALIZED;
 327:funsape/peripheral/../util/systemStatus.hpp ****         return false;
 328:funsape/peripheral/../util/systemStatus.hpp ****     }
 329:funsape/peripheral/../util/systemStatus.hpp ****     if(!isPointerValid(stopwatchValue_p)) {
 1070               		.loc 3 329 5 is_stmt 1 view .LVU257
 330:funsape/peripheral/../util/systemStatus.hpp ****         // Returns error
 331:funsape/peripheral/../util/systemStatus.hpp ****         this->_lastError                = Error::ARGUMENT_POINTER_NULL;
 332:funsape/peripheral/../util/systemStatus.hpp ****         return false;
 333:funsape/peripheral/../util/systemStatus.hpp ****     }
 334:funsape/peripheral/../util/systemStatus.hpp **** 
 335:funsape/peripheral/../util/systemStatus.hpp ****     // Updates value
 336:funsape/peripheral/../util/systemStatus.hpp ****     *stopwatchValue_p                   = this->_stopwatchValue;
 1071               		.loc 3 336 5 view .LVU258
 1072               		.loc 3 336 49 is_stmt 0 view .LVU259
 1073 001a E0E0      		ldi r30,lo8(systemStatus)
 1074 001c F0E0      		ldi r31,hi8(systemStatus)
 1075 001e 0385      		ldd r16,Z+11
 1076 0020 1485      		ldd r17,Z+12
 1077 0022 2585      		ldd r18,Z+13
 1078 0024 3685      		ldd r19,Z+14
 1079               	.LVL58:
 337:funsape/peripheral/../util/systemStatus.hpp **** 
 338:funsape/peripheral/../util/systemStatus.hpp ****     // Returns successfully
 339:funsape/peripheral/../util/systemStatus.hpp ****     this->_lastError                    = Error::NONE;
 1080               		.loc 3 339 5 is_stmt 1 view .LVU260
 1081               		.loc 3 339 41 is_stmt 0 view .LVU261
 1082 0026 158A      		std Z+21,__zero_reg__
 1083 0028 148A      		std Z+20,__zero_reg__
 340:funsape/peripheral/../util/systemStatus.hpp ****     return true;
 1084               		.loc 3 340 5 is_stmt 1 view .LVU262
 1085               	.LVL59:
 1086               	.L40:
 1087               		.loc 3 340 5 is_stmt 0 view .LVU263
 1088               	.LBE15:
 1089               	.LBE14:
GAS LISTING /tmp/ccQ8U2zo.s 			page 42


 349:funsape/peripheral/twi.cpp ****     }
 1090               		.loc 1 349 9 is_stmt 1 view .LVU264
 349:funsape/peripheral/twi.cpp ****     }
 1091               		.loc 1 349 36 is_stmt 0 view .LVU265
 1092 002a 1A96      		adiw r26,10
 1093               	.LVL60:
 349:funsape/peripheral/twi.cpp ****     }
 1094               		.loc 1 349 36 view .LVU266
 1095 002c 8D91      		ld r24,X+
 1096 002e 9D91      		ld r25,X+
 1097               	.LVL61:
 349:funsape/peripheral/twi.cpp ****     }
 1098               		.loc 1 349 36 view .LVU267
 1099 0030 1C97      		sbiw r26,12
 1100               	.LVL62:
 349:funsape/peripheral/twi.cpp ****     }
 1101               		.loc 1 349 27 view .LVU268
 1102 0032 080F      		add r16,r24
 1103 0034 191F      		adc r17,r25
 1104 0036 211D      		adc r18,__zero_reg__
 1105 0038 311D      		adc r19,__zero_reg__
 1106               	.LVL63:
 349:funsape/peripheral/twi.cpp ****     }
 1107               		.loc 1 349 27 view .LVU269
 1108 003a 00C0      		rjmp .L44
 1109               	.LVL64:
 1110               	.L47:
 1111               	.LBB18:
 1112               	.LBB16:
 326:funsape/peripheral/../util/systemStatus.hpp ****         return false;
 1113               		.loc 3 326 9 is_stmt 1 view .LVU270
 326:funsape/peripheral/../util/systemStatus.hpp ****         return false;
 1114               		.loc 3 326 41 is_stmt 0 view .LVU271
 1115 003c 86E0      		ldi r24,lo8(6)
 1116 003e 90E0      		ldi r25,0
 1117 0040 9093 0000 		sts systemStatus+20+1,r25
 1118 0044 8093 0000 		sts systemStatus+20,r24
 327:funsape/peripheral/../util/systemStatus.hpp ****     }
 1119               		.loc 3 327 9 is_stmt 1 view .LVU272
 1120               	.LBE16:
 1121               	.LBE18:
 347:funsape/peripheral/twi.cpp ****         systemStatus.getStopwatchValue(&stopwatchDeadline);
 1122               		.loc 1 347 27 is_stmt 0 view .LVU273
 1123 0048 00E0      		ldi r16,0
 1124 004a 10E0      		ldi r17,0
 1125 004c 9801      		movw r18,r16
 1126               	.LBB19:
 1127               	.LBB17:
 327:funsape/peripheral/../util/systemStatus.hpp ****     }
 1128               		.loc 3 327 16 view .LVU274
 1129 004e 00C0      		rjmp .L40
 1130               	.LVL65:
 1131               	.L45:
 327:funsape/peripheral/../util/systemStatus.hpp ****     }
 1132               		.loc 3 327 16 view .LVU275
 1133               	.LBE17:
 1134               	.LBE19:
GAS LISTING /tmp/ccQ8U2zo.s 			page 43


 345:funsape/peripheral/twi.cpp ****     } else {
 1135               		.loc 1 345 27 view .LVU276
 1136 0050 0FEF      		ldi r16,lo8(-1)
 1137 0052 1FEF      		ldi r17,lo8(-1)
 1138 0054 9801      		movw r18,r16
 1139               	.LVL66:
 345:funsape/peripheral/twi.cpp ****     } else {
 1140               		.loc 1 345 27 view .LVU277
 1141 0056 00C0      		rjmp .L44
 1142               	.LVL67:
 1143               	.L49:
 1144               	.LBB20:
 1145               	.LBB21:
 326:funsape/peripheral/../util/systemStatus.hpp ****         return false;
 1146               		.loc 3 326 9 is_stmt 1 view .LVU278
 326:funsape/peripheral/../util/systemStatus.hpp ****         return false;
 1147               		.loc 3 326 41 is_stmt 0 view .LVU279
 1148 0058 86E0      		ldi r24,lo8(6)
 1149 005a 90E0      		ldi r25,0
 1150 005c 9093 0000 		sts systemStatus+20+1,r25
 1151 0060 8093 0000 		sts systemStatus+20,r24
 327:funsape/peripheral/../util/systemStatus.hpp ****     }
 1152               		.loc 3 327 9 is_stmt 1 view .LVU280
 1153               	.LVL68:
 327:funsape/peripheral/../util/systemStatus.hpp ****     }
 1154               		.loc 3 327 9 is_stmt 0 view .LVU281
 1155               	.LBE21:
 1156               	.LBE20:
 356:funsape/peripheral/twi.cpp ****             // Returns error
 1157               		.loc 1 356 9 is_stmt 1 view .LVU282
 1158               	.L42:
 361:funsape/peripheral/twi.cpp **** 
 1159               		.loc 1 361 13 view .LVU283
 1160 0064 9091 BC00 		lds r25,188
 1161 0068 90FF      		sbrs r25,0
 1162 006a 00C0      		rjmp .L48
 1163               	.L44:
 353:funsape/peripheral/twi.cpp ****         stopwatchMark = 0;
 1164               		.loc 1 353 5 view .LVU284
 354:funsape/peripheral/twi.cpp ****         systemStatus.getStopwatchValue(&stopwatchMark);
 1165               		.loc 1 354 9 view .LVU285
 1166               	.LVL69:
 355:funsape/peripheral/twi.cpp ****         if(stopwatchMark > stopwatchDeadline) {
 1167               		.loc 1 355 9 view .LVU286
 1168               	.LBB23:
 1169               	.LBI20:
 321:funsape/peripheral/../util/systemStatus.hpp **** {
 1170               		.loc 3 321 16 view .LVU287
 1171               	.LBB22:
 324:funsape/peripheral/../util/systemStatus.hpp ****         // Returns error
 1172               		.loc 3 324 5 view .LVU288
 324:funsape/peripheral/../util/systemStatus.hpp ****         // Returns error
 1173               		.loc 3 324 15 is_stmt 0 view .LVU289
 1174 006c 9091 0000 		lds r25,systemStatus+10
 324:funsape/peripheral/../util/systemStatus.hpp ****         // Returns error
 1175               		.loc 3 324 5 view .LVU290
 1176 0070 90FF      		sbrs r25,0
GAS LISTING /tmp/ccQ8U2zo.s 			page 44


 1177 0072 00C0      		rjmp .L49
 329:funsape/peripheral/../util/systemStatus.hpp ****         // Returns error
 1178               		.loc 3 329 5 is_stmt 1 view .LVU291
 336:funsape/peripheral/../util/systemStatus.hpp **** 
 1179               		.loc 3 336 5 view .LVU292
 336:funsape/peripheral/../util/systemStatus.hpp **** 
 1180               		.loc 3 336 49 is_stmt 0 view .LVU293
 1181 0074 E0E0      		ldi r30,lo8(systemStatus)
 1182 0076 F0E0      		ldi r31,hi8(systemStatus)
 1183 0078 4385      		ldd r20,Z+11
 1184 007a 5485      		ldd r21,Z+12
 1185 007c 6585      		ldd r22,Z+13
 1186 007e 7685      		ldd r23,Z+14
 1187               	.LVL70:
 339:funsape/peripheral/../util/systemStatus.hpp ****     return true;
 1188               		.loc 3 339 5 is_stmt 1 view .LVU294
 339:funsape/peripheral/../util/systemStatus.hpp ****     return true;
 1189               		.loc 3 339 41 is_stmt 0 view .LVU295
 1190 0080 158A      		std Z+21,__zero_reg__
 1191 0082 148A      		std Z+20,__zero_reg__
 1192               		.loc 3 340 5 is_stmt 1 view .LVU296
 1193               	.LVL71:
 1194               		.loc 3 340 5 is_stmt 0 view .LVU297
 1195               	.LBE22:
 1196               	.LBE23:
 356:funsape/peripheral/twi.cpp ****             // Returns error
 1197               		.loc 1 356 9 is_stmt 1 view .LVU298
 1198 0084 0417      		cp r16,r20
 1199 0086 1507      		cpc r17,r21
 1200 0088 2607      		cpc r18,r22
 1201 008a 3707      		cpc r19,r23
 1202 008c 00F4      		brsh .L42
 358:funsape/peripheral/twi.cpp ****             return false;
 1203               		.loc 1 358 13 view .LVU299
 358:funsape/peripheral/twi.cpp ****             return false;
 1204               		.loc 1 358 30 is_stmt 0 view .LVU300
 1205 008e 89E0      		ldi r24,lo8(9)
 1206 0090 90E0      		ldi r25,0
 1207 0092 1496      		adiw r26,4
 1208 0094 8D93      		st X+,r24
 1209 0096 9D93      		st X+,r25
 359:funsape/peripheral/twi.cpp ****         }
 1210               		.loc 1 359 13 is_stmt 1 view .LVU301
 359:funsape/peripheral/twi.cpp ****         }
 1211               		.loc 1 359 20 is_stmt 0 view .LVU302
 1212 0098 80E0      		ldi r24,0
 1213 009a 00C0      		rjmp .L37
 1214               	.LVL72:
 1215               	.L48:
 364:funsape/peripheral/twi.cpp ****     return true;
 1216               		.loc 1 364 5 is_stmt 1 view .LVU303
 364:funsape/peripheral/twi.cpp ****     return true;
 1217               		.loc 1 364 22 is_stmt 0 view .LVU304
 1218 009c 1496      		adiw r26,4
 1219 009e 1D92      		st X+,__zero_reg__
 1220 00a0 1D92      		st X+,__zero_reg__
 365:funsape/peripheral/twi.cpp **** }
GAS LISTING /tmp/ccQ8U2zo.s 			page 45


 1221               		.loc 1 365 5 is_stmt 1 view .LVU305
 365:funsape/peripheral/twi.cpp **** }
 1222               		.loc 1 365 12 is_stmt 0 view .LVU306
 1223 00a2 81E0      		ldi r24,lo8(1)
 1224               	.LVL73:
 1225               	.L37:
 1226               	/* epilogue start */
 366:funsape/peripheral/twi.cpp **** 
 1227               		.loc 1 366 1 view .LVU307
 1228 00a4 1F91      		pop r17
 1229 00a6 0F91      		pop r16
 1230 00a8 0895      		ret
 1231               		.cfi_endproc
 1232               	.LFE165:
 1234               		.section	.text._ZN3Twi18_startTransmissionEv,"ax",@progbits
 1235               	.global	_ZN3Twi18_startTransmissionEv
 1237               	_ZN3Twi18_startTransmissionEv:
 1238               	.LVL74:
 1239               	.LFB166:
 369:funsape/peripheral/twi.cpp ****     this->_lastTransOk = false;
 1240               		.loc 1 369 1 is_stmt 1 view -0
 1241               		.cfi_startproc
 1242               	/* prologue: function */
 1243               	/* frame size = 0 */
 1244               	/* stack size = 0 */
 1245               	.L__stack_usage = 0
 369:funsape/peripheral/twi.cpp ****     this->_lastTransOk = false;
 1246               		.loc 1 369 1 is_stmt 0 view .LVU309
 1247 0000 FC01      		movw r30,r24
 370:funsape/peripheral/twi.cpp ****     this->_state = State::NO_STATE;
 1248               		.loc 1 370 5 is_stmt 1 view .LVU310
 370:funsape/peripheral/twi.cpp ****     this->_state = State::NO_STATE;
 1249               		.loc 1 370 24 is_stmt 0 view .LVU311
 1250 0002 8681      		ldd r24,Z+6
 1251               	.LVL75:
 370:funsape/peripheral/twi.cpp ****     this->_state = State::NO_STATE;
 1252               		.loc 1 370 24 view .LVU312
 1253 0004 8D7F      		andi r24,lo8(~(1<<1))
 1254 0006 8683      		std Z+6,r24
 371:funsape/peripheral/twi.cpp ****     TWCR = 0 |
 1255               		.loc 1 371 5 is_stmt 1 view .LVU313
 371:funsape/peripheral/twi.cpp ****     TWCR = 0 |
 1256               		.loc 1 371 18 is_stmt 0 view .LVU314
 1257 0008 88EF      		ldi r24,lo8(-8)
 1258 000a 90E0      		ldi r25,0
 1259 000c 9187      		std Z+9,r25
 1260 000e 8087      		std Z+8,r24
 372:funsape/peripheral/twi.cpp ****             (1 << TWEN) |
 1261               		.loc 1 372 5 is_stmt 1 view .LVU315
 372:funsape/peripheral/twi.cpp ****             (1 << TWEN) |
 1262               		.loc 1 372 10 is_stmt 0 view .LVU316
 1263 0010 85EA      		ldi r24,lo8(-91)
 1264 0012 8093 BC00 		sts 188,r24
 379:funsape/peripheral/twi.cpp ****     return true;
 1265               		.loc 1 379 5 is_stmt 1 view .LVU317
 379:funsape/peripheral/twi.cpp ****     return true;
 1266               		.loc 1 379 22 is_stmt 0 view .LVU318
GAS LISTING /tmp/ccQ8U2zo.s 			page 46


 1267 0016 1582      		std Z+5,__zero_reg__
 1268 0018 1482      		std Z+4,__zero_reg__
 380:funsape/peripheral/twi.cpp **** }
 1269               		.loc 1 380 5 is_stmt 1 view .LVU319
 381:funsape/peripheral/twi.cpp **** 
 1270               		.loc 1 381 1 is_stmt 0 view .LVU320
 1271 001a 81E0      		ldi r24,lo8(1)
 1272               	/* epilogue start */
 1273 001c 0895      		ret
 1274               		.cfi_endproc
 1275               	.LFE166:
 1277               		.section	.text._ZN3Twi15_readFromBufferEPhh,"ax",@progbits
 1278               	.global	_ZN3Twi15_readFromBufferEPhh
 1280               	_ZN3Twi15_readFromBufferEPhh:
 1281               	.LVL76:
 1282               	.LFB167:
 384:funsape/peripheral/twi.cpp ****     // Check for errors
 1283               		.loc 1 384 1 is_stmt 1 view -0
 1284               		.cfi_startproc
 384:funsape/peripheral/twi.cpp ****     // Check for errors
 1285               		.loc 1 384 1 is_stmt 0 view .LVU322
 1286 0000 CF93      		push r28
 1287               	.LCFI13:
 1288               		.cfi_def_cfa_offset 3
 1289               		.cfi_offset 28, -2
 1290 0002 DF93      		push r29
 1291               	.LCFI14:
 1292               		.cfi_def_cfa_offset 4
 1293               		.cfi_offset 29, -3
 1294               	/* prologue: function */
 1295               	/* frame size = 0 */
 1296               	/* stack size = 2 */
 1297               	.L__stack_usage = 2
 1298 0004 EC01      		movw r28,r24
 386:funsape/peripheral/twi.cpp ****         // Returns error
 1299               		.loc 1 386 5 is_stmt 1 view .LVU323
 386:funsape/peripheral/twi.cpp ****         // Returns error
 1300               		.loc 1 386 15 is_stmt 0 view .LVU324
 1301 0006 9E81      		ldd r25,Y+6
 1302 0008 91FB      		bst r25,1
 1303 000a 8827      		clr r24
 1304 000c 80F9      		bld r24,0
 1305               	.LVL77:
 386:funsape/peripheral/twi.cpp ****         // Returns error
 1306               		.loc 1 386 5 view .LVU325
 1307 000e 91FF      		sbrs r25,1
 1308 0010 00C0      		rjmp .L56
 1309               	.LBB24:
 391:funsape/peripheral/twi.cpp ****         msg_p[i] = this->_bufferData[i + 1];
 1310               		.loc 1 391 17 view .LVU326
 1311 0012 90E0      		ldi r25,0
 1312 0014 00C0      		rjmp .L52
 1313               	.L56:
 1314               	.LBE24:
 388:funsape/peripheral/twi.cpp ****         return false;
 1315               		.loc 1 388 9 is_stmt 1 view .LVU327
 388:funsape/peripheral/twi.cpp ****         return false;
GAS LISTING /tmp/ccQ8U2zo.s 			page 47


 1316               		.loc 1 388 26 is_stmt 0 view .LVU328
 1317 0016 24EA      		ldi r18,lo8(-92)
 1318 0018 30E0      		ldi r19,0
 1319 001a 3D83      		std Y+5,r19
 1320 001c 2C83      		std Y+4,r18
 389:funsape/peripheral/twi.cpp ****     }
 1321               		.loc 1 389 9 is_stmt 1 view .LVU329
 389:funsape/peripheral/twi.cpp ****     }
 1322               		.loc 1 389 16 is_stmt 0 view .LVU330
 1323 001e 00C0      		rjmp .L51
 1324               	.LVL78:
 1325               	.L54:
 1326               	.LBB25:
 392:funsape/peripheral/twi.cpp ****     }
 1327               		.loc 1 392 9 is_stmt 1 view .LVU331
 392:funsape/peripheral/twi.cpp ****     }
 1328               		.loc 1 392 26 is_stmt 0 view .LVU332
 1329 0020 EF85      		ldd r30,Y+15
 1330 0022 F889      		ldd r31,Y+16
 392:funsape/peripheral/twi.cpp ****     }
 1331               		.loc 1 392 38 view .LVU333
 1332 0024 292F      		mov r18,r25
 1333 0026 30E0      		ldi r19,0
 392:funsape/peripheral/twi.cpp ****     }
 1334               		.loc 1 392 40 view .LVU334
 1335 0028 D901      		movw r26,r18
 1336 002a 1196      		adiw r26,1
 392:funsape/peripheral/twi.cpp ****     }
 1337               		.loc 1 392 16 view .LVU335
 1338 002c 260F      		add r18,r22
 1339 002e 371F      		adc r19,r23
 392:funsape/peripheral/twi.cpp ****     }
 1340               		.loc 1 392 43 view .LVU336
 1341 0030 EA0F      		add r30,r26
 1342 0032 FB1F      		adc r31,r27
 1343 0034 5081      		ld r21,Z
 392:funsape/peripheral/twi.cpp ****     }
 1344               		.loc 1 392 18 view .LVU337
 1345 0036 F901      		movw r30,r18
 1346 0038 5083      		st Z,r21
 391:funsape/peripheral/twi.cpp ****         msg_p[i] = this->_bufferData[i + 1];
 1347               		.loc 1 391 5 is_stmt 1 discriminator 1 view .LVU338
 1348 003a 9F5F      		subi r25,lo8(-(1))
 1349               	.LVL79:
 1350               	.L52:
 391:funsape/peripheral/twi.cpp ****         msg_p[i] = this->_bufferData[i + 1];
 1351               		.loc 1 391 26 discriminator 2 view .LVU339
 1352 003c 9417      		cp r25,r20
 1353 003e 00F0      		brlo .L54
 1354               	.LBE25:
 396:funsape/peripheral/twi.cpp ****     return true;
 1355               		.loc 1 396 5 view .LVU340
 396:funsape/peripheral/twi.cpp ****     return true;
 1356               		.loc 1 396 22 is_stmt 0 view .LVU341
 1357 0040 1D82      		std Y+5,__zero_reg__
 1358 0042 1C82      		std Y+4,__zero_reg__
 397:funsape/peripheral/twi.cpp **** }
GAS LISTING /tmp/ccQ8U2zo.s 			page 48


 1359               		.loc 1 397 5 is_stmt 1 view .LVU342
 1360               	.LVL80:
 1361               	.L51:
 1362               	/* epilogue start */
 398:funsape/peripheral/twi.cpp **** 
 1363               		.loc 1 398 1 is_stmt 0 view .LVU343
 1364 0044 DF91      		pop r29
 1365 0046 CF91      		pop r28
 1366               	.LVL81:
 398:funsape/peripheral/twi.cpp **** 
 1367               		.loc 1 398 1 view .LVU344
 1368 0048 0895      		ret
 1369               		.cfi_endproc
 1370               	.LFE167:
 1372               		.section	.text._ZN3Twi8sendDataEhNS_9OperationEhPhh,"ax",@progbits
 1373               	.global	_ZN3Twi8sendDataEhNS_9OperationEhPhh
 1375               	_ZN3Twi8sendDataEhNS_9OperationEhPhh:
 1376               	.LVL82:
 1377               	.LFB160:
 166:funsape/peripheral/twi.cpp ****     // Check for errors - NOT Initialized
 1378               		.loc 1 166 1 is_stmt 1 view -0
 1379               		.cfi_startproc
 166:funsape/peripheral/twi.cpp ****     // Check for errors - NOT Initialized
 1380               		.loc 1 166 1 is_stmt 0 view .LVU346
 1381 0000 BF92      		push r11
 1382               	.LCFI15:
 1383               		.cfi_def_cfa_offset 3
 1384               		.cfi_offset 11, -2
 1385 0002 CF92      		push r12
 1386               	.LCFI16:
 1387               		.cfi_def_cfa_offset 4
 1388               		.cfi_offset 12, -3
 1389 0004 DF92      		push r13
 1390               	.LCFI17:
 1391               		.cfi_def_cfa_offset 5
 1392               		.cfi_offset 13, -4
 1393 0006 EF92      		push r14
 1394               	.LCFI18:
 1395               		.cfi_def_cfa_offset 6
 1396               		.cfi_offset 14, -5
 1397 0008 FF92      		push r15
 1398               	.LCFI19:
 1399               		.cfi_def_cfa_offset 7
 1400               		.cfi_offset 15, -6
 1401 000a 0F93      		push r16
 1402               	.LCFI20:
 1403               		.cfi_def_cfa_offset 8
 1404               		.cfi_offset 16, -7
 1405 000c 1F93      		push r17
 1406               	.LCFI21:
 1407               		.cfi_def_cfa_offset 9
 1408               		.cfi_offset 17, -8
 1409 000e CF93      		push r28
 1410               	.LCFI22:
 1411               		.cfi_def_cfa_offset 10
 1412               		.cfi_offset 28, -9
 1413 0010 DF93      		push r29
GAS LISTING /tmp/ccQ8U2zo.s 			page 49


 1414               	.LCFI23:
 1415               		.cfi_def_cfa_offset 11
 1416               		.cfi_offset 29, -10
 1417               	/* prologue: function */
 1418               	/* frame size = 0 */
 1419               	/* stack size = 9 */
 1420               	.L__stack_usage = 9
 1421 0012 EC01      		movw r28,r24
 1422 0014 D62E      		mov r13,r22
 1423 0016 C42E      		mov r12,r20
 1424 0018 B22E      		mov r11,r18
 168:funsape/peripheral/twi.cpp ****         // Returns error
 1425               		.loc 1 168 5 is_stmt 1 view .LVU347
 168:funsape/peripheral/twi.cpp ****         // Returns error
 1426               		.loc 1 168 15 is_stmt 0 view .LVU348
 1427 001a 8C85      		ldd r24,Y+12
 1428               	.LVL83:
 168:funsape/peripheral/twi.cpp ****         // Returns error
 1429               		.loc 1 168 15 view .LVU349
 1430 001c 80FB      		bst r24,0
 1431 001e FF24      		clr r15
 1432 0020 F0F8      		bld r15,0
 168:funsape/peripheral/twi.cpp ****         // Returns error
 1433               		.loc 1 168 5 view .LVU350
 1434 0022 80FF      		sbrs r24,0
 1435 0024 00C0      		rjmp .L71
 174:funsape/peripheral/twi.cpp ****         // Returns error
 1436               		.loc 1 174 5 is_stmt 1 view .LVU351
 1437 0026 E114      		cp r14,__zero_reg__
 1438 0028 01F0      		breq .L60
 174:funsape/peripheral/twi.cpp ****         // Returns error
 1439               		.loc 1 174 24 is_stmt 0 discriminator 1 view .LVU352
 1440 002a 0030      		cpi r16,0
 1441 002c 1007      		cpc r17,r16
 1442 002e 01F0      		breq .L72
 1443               	.L60:
 181:funsape/peripheral/twi.cpp ****         // Returns error
 1444               		.loc 1 181 5 is_stmt 1 view .LVU353
 181:funsape/peripheral/twi.cpp ****         // Returns error
 1445               		.loc 1 181 31 is_stmt 0 view .LVU354
 1446 0030 CE01      		movw r24,r28
 1447 0032 0E94 0000 		call _ZN3Twi16_waitWhileIsBusyEv
 1448               	.LVL84:
 181:funsape/peripheral/twi.cpp ****         // Returns error
 1449               		.loc 1 181 31 view .LVU355
 1450 0036 F82E      		mov r15,r24
 181:funsape/peripheral/twi.cpp ****         // Returns error
 1451               		.loc 1 181 5 discriminator 1 view .LVU356
 1452 0038 8030      		cpi r24,lo8(0)
 1453 003a 01F0      		breq .L57
 187:funsape/peripheral/twi.cpp ****         this->_bufferData[0] = (devAddress_p << 1) | (uint8_t)(Operation::WRITE);
 1454               		.loc 1 187 5 is_stmt 1 view .LVU357
 1455               	.LBB26:
 1456 003c 8C2D      		mov r24,r12
 1457 003e 8111      		cpse r24,__zero_reg__
 1458 0040 00C0      		rjmp .L62
 1459               	.LBB27:
GAS LISTING /tmp/ccQ8U2zo.s 			page 50


 188:funsape/peripheral/twi.cpp ****         this->_bufferData[1] = reg_p;
 1460               		.loc 1 188 9 view .LVU358
 188:funsape/peripheral/twi.cpp ****         this->_bufferData[1] = reg_p;
 1461               		.loc 1 188 15 is_stmt 0 view .LVU359
 1462 0042 EF85      		ldd r30,Y+15
 1463 0044 F889      		ldd r31,Y+16
 188:funsape/peripheral/twi.cpp ****         this->_bufferData[1] = reg_p;
 1464               		.loc 1 188 46 view .LVU360
 1465 0046 8D2D      		mov r24,r13
 1466 0048 880F      		lsl r24
 188:funsape/peripheral/twi.cpp ****         this->_bufferData[1] = reg_p;
 1467               		.loc 1 188 30 view .LVU361
 1468 004a 8083      		st Z,r24
 189:funsape/peripheral/twi.cpp ****         for(uint8_t i = 0; i < msgSize_p; i++) {
 1469               		.loc 1 189 9 is_stmt 1 view .LVU362
 189:funsape/peripheral/twi.cpp ****         for(uint8_t i = 0; i < msgSize_p; i++) {
 1470               		.loc 1 189 15 is_stmt 0 view .LVU363
 1471 004c EF85      		ldd r30,Y+15
 1472 004e F889      		ldd r31,Y+16
 189:funsape/peripheral/twi.cpp ****         for(uint8_t i = 0; i < msgSize_p; i++) {
 1473               		.loc 1 189 30 view .LVU364
 1474 0050 B182      		std Z+1,r11
 190:funsape/peripheral/twi.cpp ****             this->_bufferData[i + 2] = msg_p[i];
 1475               		.loc 1 190 9 is_stmt 1 view .LVU365
 1476               	.LVL85:
 1477               	.LBB28:
 190:funsape/peripheral/twi.cpp ****             this->_bufferData[i + 2] = msg_p[i];
 1478               		.loc 1 190 21 is_stmt 0 view .LVU366
 1479 0052 20E0      		ldi r18,0
 190:funsape/peripheral/twi.cpp ****             this->_bufferData[i + 2] = msg_p[i];
 1480               		.loc 1 190 9 view .LVU367
 1481 0054 00C0      		rjmp .L63
 1482               	.LVL86:
 1483               	.L71:
 190:funsape/peripheral/twi.cpp ****             this->_bufferData[i + 2] = msg_p[i];
 1484               		.loc 1 190 9 view .LVU368
 1485               	.LBE28:
 1486               	.LBE27:
 1487               	.LBE26:
 170:funsape/peripheral/twi.cpp ****         return false;
 1488               		.loc 1 170 9 is_stmt 1 view .LVU369
 170:funsape/peripheral/twi.cpp ****         return false;
 1489               		.loc 1 170 26 is_stmt 0 view .LVU370
 1490 0056 86E0      		ldi r24,lo8(6)
 1491 0058 90E0      		ldi r25,0
 1492 005a 9D83      		std Y+5,r25
 1493 005c 8C83      		std Y+4,r24
 171:funsape/peripheral/twi.cpp ****     }
 1494               		.loc 1 171 9 is_stmt 1 view .LVU371
 1495               	.LVL87:
 1496               	.L57:
 224:funsape/peripheral/twi.cpp **** 
 1497               		.loc 1 224 1 is_stmt 0 view .LVU372
 1498 005e 8F2D      		mov r24,r15
 1499               	/* epilogue start */
 1500 0060 DF91      		pop r29
 1501 0062 CF91      		pop r28
GAS LISTING /tmp/ccQ8U2zo.s 			page 51


 1502               	.LVL88:
 224:funsape/peripheral/twi.cpp **** 
 1503               		.loc 1 224 1 view .LVU373
 1504 0064 1F91      		pop r17
 1505 0066 0F91      		pop r16
 1506               	.LVL89:
 224:funsape/peripheral/twi.cpp **** 
 1507               		.loc 1 224 1 view .LVU374
 1508 0068 FF90      		pop r15
 1509 006a EF90      		pop r14
 1510 006c DF90      		pop r13
 1511               	.LVL90:
 224:funsape/peripheral/twi.cpp **** 
 1512               		.loc 1 224 1 view .LVU375
 1513 006e CF90      		pop r12
 1514               	.LVL91:
 224:funsape/peripheral/twi.cpp **** 
 1515               		.loc 1 224 1 view .LVU376
 1516 0070 BF90      		pop r11
 1517               	.LVL92:
 224:funsape/peripheral/twi.cpp **** 
 1518               		.loc 1 224 1 view .LVU377
 1519 0072 0895      		ret
 1520               	.LVL93:
 1521               	.L72:
 176:funsape/peripheral/twi.cpp ****         return false;
 1522               		.loc 1 176 9 is_stmt 1 view .LVU378
 176:funsape/peripheral/twi.cpp ****         return false;
 1523               		.loc 1 176 26 is_stmt 0 view .LVU379
 1524 0074 81E5      		ldi r24,lo8(81)
 1525 0076 90E0      		ldi r25,0
 1526 0078 9D83      		std Y+5,r25
 1527 007a 8C83      		std Y+4,r24
 177:funsape/peripheral/twi.cpp ****     }
 1528               		.loc 1 177 9 is_stmt 1 view .LVU380
 177:funsape/peripheral/twi.cpp ****     }
 1529               		.loc 1 177 16 is_stmt 0 view .LVU381
 1530 007c F12C      		mov r15,__zero_reg__
 1531 007e 00C0      		rjmp .L57
 1532               	.LVL94:
 1533               	.L64:
 1534               	.LBB31:
 1535               	.LBB30:
 1536               	.LBB29:
 191:funsape/peripheral/twi.cpp ****         }
 1537               		.loc 1 191 13 is_stmt 1 view .LVU382
 191:funsape/peripheral/twi.cpp ****         }
 1538               		.loc 1 191 46 is_stmt 0 view .LVU383
 1539 0080 822F      		mov r24,r18
 1540 0082 90E0      		ldi r25,0
 191:funsape/peripheral/twi.cpp ****         }
 1541               		.loc 1 191 19 view .LVU384
 1542 0084 EF85      		ldd r30,Y+15
 1543 0086 F889      		ldd r31,Y+16
 191:funsape/peripheral/twi.cpp ****         }
 1544               		.loc 1 191 33 view .LVU385
 1545 0088 AC01      		movw r20,r24
GAS LISTING /tmp/ccQ8U2zo.s 			page 52


 1546 008a 4E5F      		subi r20,-2
 1547 008c 5F4F      		sbci r21,-1
 191:funsape/peripheral/twi.cpp ****         }
 1548               		.loc 1 191 36 view .LVU386
 1549 008e E40F      		add r30,r20
 1550 0090 F51F      		adc r31,r21
 191:funsape/peripheral/twi.cpp ****         }
 1551               		.loc 1 191 47 view .LVU387
 1552 0092 800F      		add r24,r16
 1553 0094 911F      		adc r25,r17
 1554 0096 DC01      		movw r26,r24
 1555 0098 8C91      		ld r24,X
 191:funsape/peripheral/twi.cpp ****         }
 1556               		.loc 1 191 38 view .LVU388
 1557 009a 8083      		st Z,r24
 190:funsape/peripheral/twi.cpp ****             this->_bufferData[i + 2] = msg_p[i];
 1558               		.loc 1 190 9 is_stmt 1 discriminator 1 view .LVU389
 1559 009c 2F5F      		subi r18,lo8(-(1))
 1560               	.LVL95:
 1561               	.L63:
 190:funsape/peripheral/twi.cpp ****             this->_bufferData[i + 2] = msg_p[i];
 1562               		.loc 1 190 30 discriminator 2 view .LVU390
 1563 009e 2E15      		cp r18,r14
 1564 00a0 00F0      		brlo .L64
 1565               	.LBE29:
 193:funsape/peripheral/twi.cpp ****         this->_startTransmission();
 1566               		.loc 1 193 9 view .LVU391
 193:funsape/peripheral/twi.cpp ****         this->_startTransmission();
 1567               		.loc 1 193 41 is_stmt 0 view .LVU392
 1568 00a2 E394      		inc r14
 1569 00a4 E394      		inc r14
 1570               	.LVL96:
 193:funsape/peripheral/twi.cpp ****         this->_startTransmission();
 1571               		.loc 1 193 29 view .LVU393
 1572 00a6 8E2D      		mov r24,r14
 1573 00a8 8295      		swap r24
 1574 00aa 807F      		andi r24,lo8(-16)
 1575 00ac 9D85      		ldd r25,Y+13
 1576 00ae 9F70      		andi r25,lo8(15)
 1577 00b0 892B      		or r24,r25
 1578 00b2 8D87      		std Y+13,r24
 1579 00b4 8E2D      		mov r24,r14
 1580 00b6 8295      		swap r24
 1581 00b8 8F70      		andi r24,lo8(15)
 1582 00ba 8770      		andi r24,lo8(7)
 1583 00bc 9E85      		ldd r25,Y+14
 1584 00be 987F      		andi r25,lo8(-8)
 1585 00c0 892B      		or r24,r25
 1586 00c2 8E87      		std Y+14,r24
 194:funsape/peripheral/twi.cpp ****     } else {                            // Read operation
 1587               		.loc 1 194 9 is_stmt 1 view .LVU394
 194:funsape/peripheral/twi.cpp ****     } else {                            // Read operation
 1588               		.loc 1 194 33 is_stmt 0 view .LVU395
 1589 00c4 CE01      		movw r24,r28
 1590 00c6 0E94 0000 		call _ZN3Twi18_startTransmissionEv
 1591               	.LVL97:
 1592               	.L65:
GAS LISTING /tmp/ccQ8U2zo.s 			page 53


 194:funsape/peripheral/twi.cpp ****     } else {                            // Read operation
 1593               		.loc 1 194 33 view .LVU396
 1594               	.LBE30:
 1595               	.LBE31:
 222:funsape/peripheral/twi.cpp ****     return true;
 1596               		.loc 1 222 5 is_stmt 1 view .LVU397
 222:funsape/peripheral/twi.cpp ****     return true;
 1597               		.loc 1 222 22 is_stmt 0 view .LVU398
 1598 00ca 1D82      		std Y+5,__zero_reg__
 1599 00cc 1C82      		std Y+4,__zero_reg__
 223:funsape/peripheral/twi.cpp **** }
 1600               		.loc 1 223 5 is_stmt 1 view .LVU399
 223:funsape/peripheral/twi.cpp **** }
 1601               		.loc 1 223 12 is_stmt 0 view .LVU400
 1602 00ce 00C0      		rjmp .L57
 1603               	.LVL98:
 1604               	.L62:
 1605               	.LBB32:
 197:funsape/peripheral/twi.cpp ****         this->_bufferData[1] = reg_p;
 1606               		.loc 1 197 9 is_stmt 1 view .LVU401
 197:funsape/peripheral/twi.cpp ****         this->_bufferData[1] = reg_p;
 1607               		.loc 1 197 15 is_stmt 0 view .LVU402
 1608 00d0 EF85      		ldd r30,Y+15
 1609 00d2 F889      		ldd r31,Y+16
 197:funsape/peripheral/twi.cpp ****         this->_bufferData[1] = reg_p;
 1610               		.loc 1 197 46 view .LVU403
 1611 00d4 8D2D      		mov r24,r13
 1612 00d6 880F      		lsl r24
 197:funsape/peripheral/twi.cpp ****         this->_bufferData[1] = reg_p;
 1613               		.loc 1 197 30 view .LVU404
 1614 00d8 8083      		st Z,r24
 198:funsape/peripheral/twi.cpp ****         this->_bufferLength = 2;
 1615               		.loc 1 198 9 is_stmt 1 view .LVU405
 198:funsape/peripheral/twi.cpp ****         this->_bufferLength = 2;
 1616               		.loc 1 198 15 is_stmt 0 view .LVU406
 1617 00da EF85      		ldd r30,Y+15
 1618 00dc F889      		ldd r31,Y+16
 198:funsape/peripheral/twi.cpp ****         this->_bufferLength = 2;
 1619               		.loc 1 198 30 view .LVU407
 1620 00de B182      		std Z+1,r11
 199:funsape/peripheral/twi.cpp ****         this->_startTransmission();
 1621               		.loc 1 199 9 is_stmt 1 view .LVU408
 199:funsape/peripheral/twi.cpp ****         this->_startTransmission();
 1622               		.loc 1 199 29 is_stmt 0 view .LVU409
 1623 00e0 8D85      		ldd r24,Y+13
 1624 00e2 8F70      		andi r24,lo8(15)
 1625 00e4 8062      		ori r24,lo8(32)
 1626 00e6 8D87      		std Y+13,r24
 1627 00e8 8E85      		ldd r24,Y+14
 1628 00ea 887F      		andi r24,lo8(-8)
 1629 00ec 8E87      		std Y+14,r24
 200:funsape/peripheral/twi.cpp ****         // Wait last transmission ends
 1630               		.loc 1 200 9 is_stmt 1 view .LVU410
 200:funsape/peripheral/twi.cpp ****         // Wait last transmission ends
 1631               		.loc 1 200 33 is_stmt 0 view .LVU411
 1632 00ee CE01      		movw r24,r28
 1633 00f0 0E94 0000 		call _ZN3Twi18_startTransmissionEv
GAS LISTING /tmp/ccQ8U2zo.s 			page 54


 1634               	.LVL99:
 202:funsape/peripheral/twi.cpp ****             // Returns error
 1635               		.loc 1 202 9 is_stmt 1 view .LVU412
 202:funsape/peripheral/twi.cpp ****             // Returns error
 1636               		.loc 1 202 35 is_stmt 0 view .LVU413
 1637 00f4 CE01      		movw r24,r28
 1638 00f6 0E94 0000 		call _ZN3Twi16_waitWhileIsBusyEv
 1639               	.LVL100:
 202:funsape/peripheral/twi.cpp ****             // Returns error
 1640               		.loc 1 202 9 discriminator 1 view .LVU414
 1641 00fa 8111      		cpse r24,__zero_reg__
 1642 00fc 00C0      		rjmp .L73
 204:funsape/peripheral/twi.cpp ****         }
 1643               		.loc 1 204 20 view .LVU415
 1644 00fe F82E      		mov r15,r24
 1645 0100 00C0      		rjmp .L57
 1646               	.L73:
 207:funsape/peripheral/twi.cpp ****         this->_bufferLength = msgSize_p + 1;
 1647               		.loc 1 207 9 is_stmt 1 view .LVU416
 207:funsape/peripheral/twi.cpp ****         this->_bufferLength = msgSize_p + 1;
 1648               		.loc 1 207 15 is_stmt 0 view .LVU417
 1649 0102 EF85      		ldd r30,Y+15
 1650 0104 F889      		ldd r31,Y+16
 207:funsape/peripheral/twi.cpp ****         this->_bufferLength = msgSize_p + 1;
 1651               		.loc 1 207 52 view .LVU418
 1652 0106 8D2D      		mov r24,r13
 1653 0108 880F      		lsl r24
 1654 010a 8160      		ori r24,lo8(1)
 207:funsape/peripheral/twi.cpp ****         this->_bufferLength = msgSize_p + 1;
 1655               		.loc 1 207 30 view .LVU419
 1656 010c 8083      		st Z,r24
 208:funsape/peripheral/twi.cpp ****         this->_startTransmission();
 1657               		.loc 1 208 9 is_stmt 1 view .LVU420
 208:funsape/peripheral/twi.cpp ****         this->_startTransmission();
 1658               		.loc 1 208 41 is_stmt 0 view .LVU421
 1659 010e 8E2D      		mov r24,r14
 1660 0110 8F5F      		subi r24,lo8(-(1))
 208:funsape/peripheral/twi.cpp ****         this->_startTransmission();
 1661               		.loc 1 208 29 view .LVU422
 1662 0112 982F      		mov r25,r24
 1663 0114 9295      		swap r25
 1664 0116 907F      		andi r25,lo8(-16)
 1665 0118 2D85      		ldd r18,Y+13
 1666 011a 2F70      		andi r18,lo8(15)
 1667 011c 922B      		or r25,r18
 1668 011e 9D87      		std Y+13,r25
 1669 0120 8295      		swap r24
 1670 0122 8F70      		andi r24,lo8(15)
 1671 0124 8770      		andi r24,lo8(7)
 1672 0126 9E85      		ldd r25,Y+14
 1673 0128 987F      		andi r25,lo8(-8)
 1674 012a 892B      		or r24,r25
 1675 012c 8E87      		std Y+14,r24
 209:funsape/peripheral/twi.cpp ****         if(!this->_waitWhileIsBusy()) {
 1676               		.loc 1 209 9 is_stmt 1 view .LVU423
 209:funsape/peripheral/twi.cpp ****         if(!this->_waitWhileIsBusy()) {
 1677               		.loc 1 209 33 is_stmt 0 view .LVU424
GAS LISTING /tmp/ccQ8U2zo.s 			page 55


 1678 012e CE01      		movw r24,r28
 1679 0130 0E94 0000 		call _ZN3Twi18_startTransmissionEv
 1680               	.LVL101:
 210:funsape/peripheral/twi.cpp ****             // Returns error
 1681               		.loc 1 210 9 is_stmt 1 view .LVU425
 210:funsape/peripheral/twi.cpp ****             // Returns error
 1682               		.loc 1 210 35 is_stmt 0 view .LVU426
 1683 0134 CE01      		movw r24,r28
 1684 0136 0E94 0000 		call _ZN3Twi16_waitWhileIsBusyEv
 1685               	.LVL102:
 210:funsape/peripheral/twi.cpp ****             // Returns error
 1686               		.loc 1 210 9 discriminator 1 view .LVU427
 1687 013a 8111      		cpse r24,__zero_reg__
 1688 013c 00C0      		rjmp .L74
 212:funsape/peripheral/twi.cpp ****         }
 1689               		.loc 1 212 20 view .LVU428
 1690 013e F82E      		mov r15,r24
 1691 0140 00C0      		rjmp .L57
 1692               	.L74:
 215:funsape/peripheral/twi.cpp ****             // Returns error
 1693               		.loc 1 215 9 is_stmt 1 view .LVU429
 215:funsape/peripheral/twi.cpp ****             // Returns error
 1694               		.loc 1 215 34 is_stmt 0 view .LVU430
 1695 0142 4E2D      		mov r20,r14
 1696 0144 B801      		movw r22,r16
 1697 0146 CE01      		movw r24,r28
 1698 0148 0E94 0000 		call _ZN3Twi15_readFromBufferEPhh
 1699               	.LVL103:
 215:funsape/peripheral/twi.cpp ****             // Returns error
 1700               		.loc 1 215 9 discriminator 1 view .LVU431
 1701 014c 8111      		cpse r24,__zero_reg__
 1702 014e 00C0      		rjmp .L65
 217:funsape/peripheral/twi.cpp ****         }
 1703               		.loc 1 217 20 view .LVU432
 1704 0150 F82E      		mov r15,r24
 1705 0152 00C0      		rjmp .L57
 1706               	.LBE32:
 1707               		.cfi_endproc
 1708               	.LFE160:
 1710               		.section	.text._ZN3Twi7readRegEhPhj,"ax",@progbits
 1711               	.global	_ZN3Twi7readRegEhPhj
 1713               	_ZN3Twi7readRegEhPhj:
 1714               	.LVL104:
 1715               	.LFB157:
  88:funsape/peripheral/twi.cpp ****     // Local variables
 1716               		.loc 1 88 1 is_stmt 1 view -0
 1717               		.cfi_startproc
  88:funsape/peripheral/twi.cpp ****     // Local variables
 1718               		.loc 1 88 1 is_stmt 0 view .LVU434
 1719 0000 EF92      		push r14
 1720               	.LCFI24:
 1721               		.cfi_def_cfa_offset 3
 1722               		.cfi_offset 14, -2
 1723 0002 0F93      		push r16
 1724               	.LCFI25:
 1725               		.cfi_def_cfa_offset 4
 1726               		.cfi_offset 16, -3
GAS LISTING /tmp/ccQ8U2zo.s 			page 56


 1727 0004 1F93      		push r17
 1728               	.LCFI26:
 1729               		.cfi_def_cfa_offset 5
 1730               		.cfi_offset 17, -4
 1731 0006 CF93      		push r28
 1732               	.LCFI27:
 1733               		.cfi_def_cfa_offset 6
 1734               		.cfi_offset 28, -5
 1735 0008 DF93      		push r29
 1736               	.LCFI28:
 1737               		.cfi_def_cfa_offset 7
 1738               		.cfi_offset 29, -6
 1739               	/* prologue: function */
 1740               	/* frame size = 0 */
 1741               	/* stack size = 5 */
 1742               	.L__stack_usage = 5
 1743 000a EC01      		movw r28,r24
  90:funsape/peripheral/twi.cpp **** 
 1744               		.loc 1 90 5 is_stmt 1 view .LVU435
 1745               	.LVL105:
  93:funsape/peripheral/twi.cpp ****         // Returns error
 1746               		.loc 1 93 5 view .LVU436
  93:funsape/peripheral/twi.cpp ****         // Returns error
 1747               		.loc 1 93 15 is_stmt 0 view .LVU437
 1748 000c 9E81      		ldd r25,Y+6
 1749 000e 892F      		mov r24,r25
 1750 0010 8170      		andi r24,1
 1751               	.LVL106:
  93:funsape/peripheral/twi.cpp ****         // Returns error
 1752               		.loc 1 93 5 view .LVU438
 1753 0012 90FF      		sbrs r25,0
 1754 0014 00C0      		rjmp .L81
 100:funsape/peripheral/twi.cpp ****         // FIXME - implement support to 10-bit address
 1755               		.loc 1 100 5 is_stmt 1 view .LVU439
 100:funsape/peripheral/twi.cpp ****         // FIXME - implement support to 10-bit address
 1756               		.loc 1 100 14 is_stmt 0 view .LVU440
 1757 0016 8D85      		ldd r24,Y+13
 100:funsape/peripheral/twi.cpp ****         // FIXME - implement support to 10-bit address
 1758               		.loc 1 100 5 view .LVU441
 1759 0018 83FF      		sbrs r24,3
 1760 001a 00C0      		rjmp .L78
 103:funsape/peripheral/twi.cpp ****         return false;
 1761               		.loc 1 103 9 is_stmt 1 view .LVU442
 103:funsape/peripheral/twi.cpp ****         return false;
 1762               		.loc 1 103 26 is_stmt 0 view .LVU443
 1763 001c 85E0      		ldi r24,lo8(5)
 1764 001e 90E0      		ldi r25,0
 1765 0020 9D83      		std Y+5,r25
 1766 0022 8C83      		std Y+4,r24
 104:funsape/peripheral/twi.cpp ****     } else {
 1767               		.loc 1 104 9 is_stmt 1 view .LVU444
 104:funsape/peripheral/twi.cpp ****     } else {
 1768               		.loc 1 104 16 is_stmt 0 view .LVU445
 1769 0024 80E0      		ldi r24,0
 1770 0026 00C0      		rjmp .L75
 1771               	.L81:
  95:funsape/peripheral/twi.cpp ****         return false;
GAS LISTING /tmp/ccQ8U2zo.s 			page 57


 1772               		.loc 1 95 9 is_stmt 1 view .LVU446
  95:funsape/peripheral/twi.cpp ****         return false;
 1773               		.loc 1 95 26 is_stmt 0 view .LVU447
 1774 0028 27EA      		ldi r18,lo8(-89)
 1775 002a 30E0      		ldi r19,0
 1776               	.LVL107:
  95:funsape/peripheral/twi.cpp ****         return false;
 1777               		.loc 1 95 26 view .LVU448
 1778 002c 3D83      		std Y+5,r19
 1779 002e 2C83      		std Y+4,r18
  96:funsape/peripheral/twi.cpp ****     }
 1780               		.loc 1 96 9 is_stmt 1 view .LVU449
 1781               	.LVL108:
 1782               	.L75:
 1783               	/* epilogue start */
 118:funsape/peripheral/twi.cpp **** 
 1784               		.loc 1 118 1 is_stmt 0 view .LVU450
 1785 0030 DF91      		pop r29
 1786 0032 CF91      		pop r28
 1787               	.LVL109:
 118:funsape/peripheral/twi.cpp **** 
 1788               		.loc 1 118 1 view .LVU451
 1789 0034 1F91      		pop r17
 1790 0036 0F91      		pop r16
 1791 0038 EF90      		pop r14
 1792 003a 0895      		ret
 1793               	.LVL110:
 1794               	.L78:
 106:funsape/peripheral/twi.cpp ****     }
 1795               		.loc 1 106 9 is_stmt 1 view .LVU452
 106:funsape/peripheral/twi.cpp ****     }
 1796               		.loc 1 106 49 is_stmt 0 view .LVU453
 1797 003c 9C85      		ldd r25,Y+12
 1798 003e 9695      		lsr r25
 1799 0040 8D85      		ldd r24,Y+13
 1800 0042 80FB      		bst r24,0
 1801 0044 8827      		clr r24
 1802 0046 87F9      		bld r24,7
 1803 0048 892B      		or r24,r25
 106:funsape/peripheral/twi.cpp ****     }
 1804               		.loc 1 106 33 view .LVU454
 1805 004a E22E      		mov r14,r18
 1806 004c 8A01      		movw r16,r20
 1807 004e 262F      		mov r18,r22
 1808               	.LVL111:
 106:funsape/peripheral/twi.cpp ****     }
 1809               		.loc 1 106 33 view .LVU455
 1810 0050 41E0      		ldi r20,lo8(1)
 1811               	.LVL112:
 106:funsape/peripheral/twi.cpp ****     }
 1812               		.loc 1 106 33 view .LVU456
 1813 0052 682F      		mov r22,r24
 1814               	.LVL113:
 106:funsape/peripheral/twi.cpp ****     }
 1815               		.loc 1 106 33 view .LVU457
 1816 0054 CE01      		movw r24,r28
 1817 0056 0E94 0000 		call _ZN3Twi8sendDataEhNS_9OperationEhPhh
GAS LISTING /tmp/ccQ8U2zo.s 			page 58


 1818               	.LVL114:
 110:funsape/peripheral/twi.cpp ****         // Returns error
 1819               		.loc 1 110 5 is_stmt 1 view .LVU458
 1820 005a 8030      		cpi r24,lo8(0)
 1821 005c 01F0      		breq .L75
 116:funsape/peripheral/twi.cpp ****     return true;
 1822               		.loc 1 116 5 view .LVU459
 116:funsape/peripheral/twi.cpp ****     return true;
 1823               		.loc 1 116 22 is_stmt 0 view .LVU460
 1824 005e 1D82      		std Y+5,__zero_reg__
 1825 0060 1C82      		std Y+4,__zero_reg__
 117:funsape/peripheral/twi.cpp **** }
 1826               		.loc 1 117 5 is_stmt 1 view .LVU461
 117:funsape/peripheral/twi.cpp **** }
 1827               		.loc 1 117 12 is_stmt 0 view .LVU462
 1828 0062 00C0      		rjmp .L75
 1829               		.cfi_endproc
 1830               	.LFE157:
 1832               		.section	.text._ZN3Twi8writeRegEhPKhj,"ax",@progbits
 1833               	.global	_ZN3Twi8writeRegEhPKhj
 1835               	_ZN3Twi8writeRegEhPKhj:
 1836               	.LVL115:
 1837               	.LFB158:
 121:funsape/peripheral/twi.cpp ****     // Local variables
 1838               		.loc 1 121 1 is_stmt 1 view -0
 1839               		.cfi_startproc
 121:funsape/peripheral/twi.cpp ****     // Local variables
 1840               		.loc 1 121 1 is_stmt 0 view .LVU464
 1841 0000 EF92      		push r14
 1842               	.LCFI29:
 1843               		.cfi_def_cfa_offset 3
 1844               		.cfi_offset 14, -2
 1845 0002 0F93      		push r16
 1846               	.LCFI30:
 1847               		.cfi_def_cfa_offset 4
 1848               		.cfi_offset 16, -3
 1849 0004 1F93      		push r17
 1850               	.LCFI31:
 1851               		.cfi_def_cfa_offset 5
 1852               		.cfi_offset 17, -4
 1853 0006 CF93      		push r28
 1854               	.LCFI32:
 1855               		.cfi_def_cfa_offset 6
 1856               		.cfi_offset 28, -5
 1857 0008 DF93      		push r29
 1858               	.LCFI33:
 1859               		.cfi_def_cfa_offset 7
 1860               		.cfi_offset 29, -6
 1861               	/* prologue: function */
 1862               	/* frame size = 0 */
 1863               	/* stack size = 5 */
 1864               	.L__stack_usage = 5
 1865 000a EC01      		movw r28,r24
 123:funsape/peripheral/twi.cpp **** 
 1866               		.loc 1 123 5 is_stmt 1 view .LVU465
 1867               	.LVL116:
 126:funsape/peripheral/twi.cpp ****         // Returns error
GAS LISTING /tmp/ccQ8U2zo.s 			page 59


 1868               		.loc 1 126 5 view .LVU466
 126:funsape/peripheral/twi.cpp ****         // Returns error
 1869               		.loc 1 126 15 is_stmt 0 view .LVU467
 1870 000c 9E81      		ldd r25,Y+6
 1871 000e 892F      		mov r24,r25
 1872 0010 8170      		andi r24,1
 1873               	.LVL117:
 126:funsape/peripheral/twi.cpp ****         // Returns error
 1874               		.loc 1 126 5 view .LVU468
 1875 0012 90FF      		sbrs r25,0
 1876 0014 00C0      		rjmp .L88
 133:funsape/peripheral/twi.cpp ****         // FIXME - implement support to 10-bit address
 1877               		.loc 1 133 5 is_stmt 1 view .LVU469
 133:funsape/peripheral/twi.cpp ****         // FIXME - implement support to 10-bit address
 1878               		.loc 1 133 14 is_stmt 0 view .LVU470
 1879 0016 8D85      		ldd r24,Y+13
 133:funsape/peripheral/twi.cpp ****         // FIXME - implement support to 10-bit address
 1880               		.loc 1 133 5 view .LVU471
 1881 0018 83FF      		sbrs r24,3
 1882 001a 00C0      		rjmp .L85
 136:funsape/peripheral/twi.cpp ****         return false;
 1883               		.loc 1 136 9 is_stmt 1 view .LVU472
 136:funsape/peripheral/twi.cpp ****         return false;
 1884               		.loc 1 136 26 is_stmt 0 view .LVU473
 1885 001c 85E0      		ldi r24,lo8(5)
 1886 001e 90E0      		ldi r25,0
 1887 0020 9D83      		std Y+5,r25
 1888 0022 8C83      		std Y+4,r24
 137:funsape/peripheral/twi.cpp ****     } else {
 1889               		.loc 1 137 9 is_stmt 1 view .LVU474
 137:funsape/peripheral/twi.cpp ****     } else {
 1890               		.loc 1 137 16 is_stmt 0 view .LVU475
 1891 0024 80E0      		ldi r24,0
 1892 0026 00C0      		rjmp .L82
 1893               	.L88:
 128:funsape/peripheral/twi.cpp ****         return false;
 1894               		.loc 1 128 9 is_stmt 1 view .LVU476
 128:funsape/peripheral/twi.cpp ****         return false;
 1895               		.loc 1 128 26 is_stmt 0 view .LVU477
 1896 0028 27EA      		ldi r18,lo8(-89)
 1897 002a 30E0      		ldi r19,0
 1898               	.LVL118:
 128:funsape/peripheral/twi.cpp ****         return false;
 1899               		.loc 1 128 26 view .LVU478
 1900 002c 3D83      		std Y+5,r19
 1901 002e 2C83      		std Y+4,r18
 129:funsape/peripheral/twi.cpp ****     }
 1902               		.loc 1 129 9 is_stmt 1 view .LVU479
 1903               	.LVL119:
 1904               	.L82:
 1905               	/* epilogue start */
 151:funsape/peripheral/twi.cpp **** 
 1906               		.loc 1 151 1 is_stmt 0 view .LVU480
 1907 0030 DF91      		pop r29
 1908 0032 CF91      		pop r28
 1909               	.LVL120:
 151:funsape/peripheral/twi.cpp **** 
GAS LISTING /tmp/ccQ8U2zo.s 			page 60


 1910               		.loc 1 151 1 view .LVU481
 1911 0034 1F91      		pop r17
 1912 0036 0F91      		pop r16
 1913 0038 EF90      		pop r14
 1914 003a 0895      		ret
 1915               	.LVL121:
 1916               	.L85:
 139:funsape/peripheral/twi.cpp ****     }
 1917               		.loc 1 139 9 is_stmt 1 view .LVU482
 139:funsape/peripheral/twi.cpp ****     }
 1918               		.loc 1 139 49 is_stmt 0 view .LVU483
 1919 003c 9C85      		ldd r25,Y+12
 1920 003e 9695      		lsr r25
 1921 0040 8D85      		ldd r24,Y+13
 1922 0042 80FB      		bst r24,0
 1923 0044 8827      		clr r24
 1924 0046 87F9      		bld r24,7
 1925 0048 892B      		or r24,r25
 139:funsape/peripheral/twi.cpp ****     }
 1926               		.loc 1 139 33 view .LVU484
 1927 004a E22E      		mov r14,r18
 1928 004c 8A01      		movw r16,r20
 1929 004e 262F      		mov r18,r22
 1930               	.LVL122:
 139:funsape/peripheral/twi.cpp ****     }
 1931               		.loc 1 139 33 view .LVU485
 1932 0050 40E0      		ldi r20,0
 1933               	.LVL123:
 139:funsape/peripheral/twi.cpp ****     }
 1934               		.loc 1 139 33 view .LVU486
 1935 0052 682F      		mov r22,r24
 1936               	.LVL124:
 139:funsape/peripheral/twi.cpp ****     }
 1937               		.loc 1 139 33 view .LVU487
 1938 0054 CE01      		movw r24,r28
 1939 0056 0E94 0000 		call _ZN3Twi8sendDataEhNS_9OperationEhPhh
 1940               	.LVL125:
 143:funsape/peripheral/twi.cpp ****         // Returns error
 1941               		.loc 1 143 5 is_stmt 1 view .LVU488
 1942 005a 8030      		cpi r24,lo8(0)
 1943 005c 01F0      		breq .L82
 149:funsape/peripheral/twi.cpp ****     return true;
 1944               		.loc 1 149 5 view .LVU489
 149:funsape/peripheral/twi.cpp ****     return true;
 1945               		.loc 1 149 22 is_stmt 0 view .LVU490
 1946 005e 1D82      		std Y+5,__zero_reg__
 1947 0060 1C82      		std Y+4,__zero_reg__
 150:funsape/peripheral/twi.cpp **** }
 1948               		.loc 1 150 5 is_stmt 1 view .LVU491
 150:funsape/peripheral/twi.cpp **** }
 1949               		.loc 1 150 12 is_stmt 0 view .LVU492
 1950 0062 00C0      		rjmp .L82
 1951               		.cfi_endproc
 1952               	.LFE158:
 1954               		.section	.text._ZN3Twi16interruptHandlerEv,"ax",@progbits
 1955               	.global	_ZN3Twi16interruptHandlerEv
 1957               	_ZN3Twi16interruptHandlerEv:
GAS LISTING /tmp/ccQ8U2zo.s 			page 61


 1958               	.LVL126:
 1959               	.LFB168:
 417:funsape/peripheral/twi.cpp ****     static uint8_t twiBufferPointer;
 1960               		.loc 1 417 1 is_stmt 1 view -0
 1961               		.cfi_startproc
 1962               	/* prologue: function */
 1963               	/* frame size = 0 */
 1964               	/* stack size = 0 */
 1965               	.L__stack_usage = 0
 417:funsape/peripheral/twi.cpp ****     static uint8_t twiBufferPointer;
 1966               		.loc 1 417 1 is_stmt 0 view .LVU494
 1967 0000 FC01      		movw r30,r24
 418:funsape/peripheral/twi.cpp **** 
 1968               		.loc 1 418 5 is_stmt 1 view .LVU495
 420:funsape/peripheral/twi.cpp **** 
 1969               		.loc 1 420 5 view .LVU496
 420:funsape/peripheral/twi.cpp **** 
 1970               		.loc 1 420 35 is_stmt 0 view .LVU497
 1971 0002 9091 B900 		lds r25,185
 1972 0006 9C7F      		andi r25,lo8(-4)
 1973               	.LVL127:
 422:funsape/peripheral/twi.cpp ****     case Twi::State::START:             // START has been transmitted
 1974               		.loc 1 422 5 is_stmt 1 view .LVU498
 1975 0008 9833      		cpi r25,lo8(56)
 1976 000a 01F4      		brne .+2
 1977 000c 00C0      		rjmp .L90
 1978 000e 00F0      		brlo .L102
 1979 0010 9035      		cpi r25,lo8(80)
 1980 0012 01F0      		breq .L96
 1981 0014 9835      		cpi r25,lo8(88)
 1982 0016 01F4      		brne .+2
 1983 0018 00C0      		rjmp .L97
 1984 001a 9034      		cpi r25,lo8(64)
 1985 001c 01F4      		brne .+2
 1986 001e 00C0      		rjmp .L98
 1987               	.L95:
 453:funsape/peripheral/twi.cpp ****     case Twi::State::MRX_ADR_NACK:      // SLA+R has been transmitted and NACK received
 1988               		.loc 1 453 5 view .LVU499
 454:funsape/peripheral/twi.cpp ****     case Twi::State::MTX_DATA_NACK:     // Data byte has been transmitted and NACK received
 1989               		.loc 1 454 5 view .LVU500
 455:funsape/peripheral/twi.cpp ****     case Twi::State::BUS_ERROR:         // Bus error due to an illegal START or STOP condition
 1990               		.loc 1 455 5 view .LVU501
 456:funsape/peripheral/twi.cpp ****     default:
 1991               		.loc 1 456 5 view .LVU502
 457:funsape/peripheral/twi.cpp ****         this->_twiError = TWSR;         // Store TWSR and automatically sets clears noErrors bit
 1992               		.loc 1 457 5 view .LVU503
 458:funsape/peripheral/twi.cpp ****         TWCR = (1 << TWEN);             // Reset TWI Interface
 1993               		.loc 1 458 9 view .LVU504
 458:funsape/peripheral/twi.cpp ****         TWCR = (1 << TWEN);             // Reset TWI Interface
 1994               		.loc 1 458 27 is_stmt 0 view .LVU505
 1995 0020 8091 B900 		lds r24,185
 1996               	.LVL128:
 458:funsape/peripheral/twi.cpp ****         TWCR = (1 << TWEN);             // Reset TWI Interface
 1997               		.loc 1 458 25 view .LVU506
 1998 0024 8783      		std Z+7,r24
 459:funsape/peripheral/twi.cpp ****         break;
 1999               		.loc 1 459 9 is_stmt 1 view .LVU507
GAS LISTING /tmp/ccQ8U2zo.s 			page 62


 459:funsape/peripheral/twi.cpp ****         break;
 2000               		.loc 1 459 14 is_stmt 0 view .LVU508
 2001 0026 84E0      		ldi r24,lo8(4)
 2002 0028 8093 BC00 		sts 188,r24
 460:funsape/peripheral/twi.cpp ****     }
 2003               		.loc 1 460 9 is_stmt 1 view .LVU509
 2004               	/* epilogue start */
 462:funsape/peripheral/twi.cpp **** 
 2005               		.loc 1 462 1 is_stmt 0 view .LVU510
 2006 002c 0895      		ret
 2007               	.LVL129:
 2008               	.L102:
 422:funsape/peripheral/twi.cpp ****     case Twi::State::START:             // START has been transmitted
 2009               		.loc 1 422 5 view .LVU511
 2010 002e 9831      		cpi r25,lo8(24)
 2011 0030 01F0      		breq .L92
 2012 0032 00F4      		brsh .L93
 2013 0034 9830      		cpi r25,lo8(8)
 2014 0036 01F0      		breq .L94
 2015 0038 9031      		cpi r25,lo8(16)
 2016 003a 01F4      		brne .L95
 2017               	.L94:
 423:funsape/peripheral/twi.cpp ****     case Twi::State::REP_START:         // Repeated START has been transmitted
 2018               		.loc 1 423 5 is_stmt 1 view .LVU512
 424:funsape/peripheral/twi.cpp ****         twiBufferPointer = 0;           // Set buffer pointer to the TWI Address location
 2019               		.loc 1 424 5 view .LVU513
 425:funsape/peripheral/twi.cpp ****     case Twi::State::MTX_ADR_ACK:       // SLA+W has been transmitted and ACK received
 2020               		.loc 1 425 9 view .LVU514
 425:funsape/peripheral/twi.cpp ****     case Twi::State::MTX_ADR_ACK:       // SLA+W has been transmitted and ACK received
 2021               		.loc 1 425 26 is_stmt 0 view .LVU515
 2022 003c 1092 0000 		sts _ZZN3Twi16interruptHandlerEvE16twiBufferPointer,__zero_reg__
 2023               	.L92:
 426:funsape/peripheral/twi.cpp ****     case Twi::State::MTX_DATA_ACK:      // Data byte has been transmitted and ACK received
 2024               		.loc 1 426 5 is_stmt 1 view .LVU516
 427:funsape/peripheral/twi.cpp ****         if(twiBufferPointer < this->_bufferLength) {
 2025               		.loc 1 427 5 view .LVU517
 428:funsape/peripheral/twi.cpp ****             TWDR = this->_bufferData[twiBufferPointer++];
 2026               		.loc 1 428 9 view .LVU518
 428:funsape/peripheral/twi.cpp ****             TWDR = this->_bufferData[twiBufferPointer++];
 2027               		.loc 1 428 37 is_stmt 0 view .LVU519
 2028 0040 9585      		ldd r25,Z+13
 2029               	.LVL130:
 428:funsape/peripheral/twi.cpp ****             TWDR = this->_bufferData[twiBufferPointer++];
 2030               		.loc 1 428 37 view .LVU520
 2031 0042 9295      		swap r25
 2032 0044 9F70      		andi r25,lo8(15)
 2033 0046 8685      		ldd r24,Z+14
 2034               	.LVL131:
 428:funsape/peripheral/twi.cpp ****             TWDR = this->_bufferData[twiBufferPointer++];
 2035               		.loc 1 428 37 view .LVU521
 2036 0048 8770      		andi r24,lo8(7)
 2037 004a 8295      		swap r24
 2038 004c 807F      		andi r24,lo8(-16)
 2039 004e 892B      		or r24,r25
 428:funsape/peripheral/twi.cpp ****             TWDR = this->_bufferData[twiBufferPointer++];
 2040               		.loc 1 428 29 view .LVU522
 2041 0050 9091 0000 		lds r25,_ZZN3Twi16interruptHandlerEvE16twiBufferPointer
GAS LISTING /tmp/ccQ8U2zo.s 			page 63


 428:funsape/peripheral/twi.cpp ****             TWDR = this->_bufferData[twiBufferPointer++];
 2042               		.loc 1 428 9 view .LVU523
 2043 0054 9817      		cp r25,r24
 2044 0056 00F4      		brsh .L99
 429:funsape/peripheral/twi.cpp ****             TWCR = (1 << TWEN) | (1 << TWIE) | (1 << TWINT);
 2045               		.loc 1 429 13 is_stmt 1 view .LVU524
 429:funsape/peripheral/twi.cpp ****             TWCR = (1 << TWEN) | (1 << TWIE) | (1 << TWINT);
 2046               		.loc 1 429 26 is_stmt 0 view .LVU525
 2047 0058 0784      		ldd __tmp_reg__,Z+15
 2048 005a F089      		ldd r31,Z+16
 2049 005c E02D      		mov r30,__tmp_reg__
 2050               	.LVL132:
 429:funsape/peripheral/twi.cpp ****             TWCR = (1 << TWEN) | (1 << TWIE) | (1 << TWINT);
 2051               		.loc 1 429 54 view .LVU526
 2052 005e 892F      		mov r24,r25
 2053 0060 8F5F      		subi r24,lo8(-(1))
 2054 0062 8093 0000 		sts _ZZN3Twi16interruptHandlerEvE16twiBufferPointer,r24
 429:funsape/peripheral/twi.cpp ****             TWCR = (1 << TWEN) | (1 << TWIE) | (1 << TWINT);
 2055               		.loc 1 429 56 view .LVU527
 2056 0066 E90F      		add r30,r25
 2057 0068 F11D      		adc r31,__zero_reg__
 2058 006a 8081      		ld r24,Z
 429:funsape/peripheral/twi.cpp ****             TWCR = (1 << TWEN) | (1 << TWIE) | (1 << TWINT);
 2059               		.loc 1 429 18 view .LVU528
 2060 006c 8093 BB00 		sts 187,r24
 430:funsape/peripheral/twi.cpp ****         } else {                        // Send STOP after last byte
 2061               		.loc 1 430 13 is_stmt 1 view .LVU529
 430:funsape/peripheral/twi.cpp ****         } else {                        // Send STOP after last byte
 2062               		.loc 1 430 18 is_stmt 0 view .LVU530
 2063 0070 85E8      		ldi r24,lo8(-123)
 2064 0072 8093 BC00 		sts 188,r24
 2065 0076 0895      		ret
 2066               	.LVL133:
 2067               	.L93:
 422:funsape/peripheral/twi.cpp ****     case Twi::State::START:             // START has been transmitted
 2068               		.loc 1 422 5 view .LVU531
 2069 0078 9832      		cpi r25,lo8(40)
 2070 007a 01F0      		breq .L92
 2071 007c 00C0      		rjmp .L95
 2072               	.LVL134:
 2073               	.L99:
 432:funsape/peripheral/twi.cpp ****             TWCR = (1 << TWEN) | (1 << TWINT) | (1 << TWSTO);
 2074               		.loc 1 432 13 is_stmt 1 view .LVU532
 432:funsape/peripheral/twi.cpp ****             TWCR = (1 << TWEN) | (1 << TWINT) | (1 << TWSTO);
 2075               		.loc 1 432 32 is_stmt 0 view .LVU533
 2076 007e 8681      		ldd r24,Z+6
 2077 0080 8260      		ori r24,lo8(1<<1)
 2078 0082 8683      		std Z+6,r24
 433:funsape/peripheral/twi.cpp ****         }
 2079               		.loc 1 433 13 is_stmt 1 view .LVU534
 433:funsape/peripheral/twi.cpp ****         }
 2080               		.loc 1 433 18 is_stmt 0 view .LVU535
 2081 0084 84E9      		ldi r24,lo8(-108)
 2082 0086 8093 BC00 		sts 188,r24
 2083 008a 0895      		ret
 2084               	.LVL135:
 2085               	.L96:
GAS LISTING /tmp/ccQ8U2zo.s 			page 64


 436:funsape/peripheral/twi.cpp ****         this->_bufferData[twiBufferPointer++] = TWDR;
 2086               		.loc 1 436 5 is_stmt 1 view .LVU536
 437:funsape/peripheral/twi.cpp ****     case Twi::State::MRX_ADR_ACK:       // SLA+R has been transmitted and ACK received
 2087               		.loc 1 437 9 view .LVU537
 437:funsape/peripheral/twi.cpp ****     case Twi::State::MRX_ADR_ACK:       // SLA+R has been transmitted and ACK received
 2088               		.loc 1 437 49 is_stmt 0 view .LVU538
 2089 008c 9091 BB00 		lds r25,187
 2090               	.LVL136:
 437:funsape/peripheral/twi.cpp ****     case Twi::State::MRX_ADR_ACK:       // SLA+R has been transmitted and ACK received
 2091               		.loc 1 437 15 view .LVU539
 2092 0090 A785      		ldd r26,Z+15
 2093 0092 B089      		ldd r27,Z+16
 437:funsape/peripheral/twi.cpp ****     case Twi::State::MRX_ADR_ACK:       // SLA+R has been transmitted and ACK received
 2094               		.loc 1 437 43 view .LVU540
 2095 0094 8091 0000 		lds r24,_ZZN3Twi16interruptHandlerEvE16twiBufferPointer
 2096               	.LVL137:
 437:funsape/peripheral/twi.cpp ****     case Twi::State::MRX_ADR_ACK:       // SLA+R has been transmitted and ACK received
 2097               		.loc 1 437 43 view .LVU541
 2098 0098 282F      		mov r18,r24
 2099 009a 2F5F      		subi r18,lo8(-(1))
 2100 009c 2093 0000 		sts _ZZN3Twi16interruptHandlerEvE16twiBufferPointer,r18
 437:funsape/peripheral/twi.cpp ****     case Twi::State::MRX_ADR_ACK:       // SLA+R has been transmitted and ACK received
 2101               		.loc 1 437 45 view .LVU542
 2102 00a0 A80F      		add r26,r24
 2103 00a2 B11D      		adc r27,__zero_reg__
 437:funsape/peripheral/twi.cpp ****     case Twi::State::MRX_ADR_ACK:       // SLA+R has been transmitted and ACK received
 2104               		.loc 1 437 47 view .LVU543
 2105 00a4 9C93      		st X,r25
 2106               	.L98:
 438:funsape/peripheral/twi.cpp ****         if(twiBufferPointer < (this->_bufferLength - 1)) {  // Detect the last byte to NACK it
 2107               		.loc 1 438 5 is_stmt 1 view .LVU544
 439:funsape/peripheral/twi.cpp ****             TWCR = (1 << TWEN) | (1 << TWIE) | (1 << TWINT) | (1 << TWEA);
 2108               		.loc 1 439 9 view .LVU545
 439:funsape/peripheral/twi.cpp ****             TWCR = (1 << TWEN) | (1 << TWIE) | (1 << TWINT) | (1 << TWEA);
 2109               		.loc 1 439 12 is_stmt 0 view .LVU546
 2110 00a6 2091 0000 		lds r18,_ZZN3Twi16interruptHandlerEvE16twiBufferPointer
 439:funsape/peripheral/twi.cpp ****             TWCR = (1 << TWEN) | (1 << TWIE) | (1 << TWINT) | (1 << TWEA);
 2111               		.loc 1 439 38 view .LVU547
 2112 00aa 9585      		ldd r25,Z+13
 2113 00ac 9295      		swap r25
 2114 00ae 9F70      		andi r25,lo8(15)
 2115 00b0 8685      		ldd r24,Z+14
 2116 00b2 8770      		andi r24,lo8(7)
 2117 00b4 8295      		swap r24
 2118 00b6 807F      		andi r24,lo8(-16)
 2119 00b8 892B      		or r24,r25
 439:funsape/peripheral/twi.cpp ****             TWCR = (1 << TWEN) | (1 << TWIE) | (1 << TWINT) | (1 << TWEA);
 2120               		.loc 1 439 52 view .LVU548
 2121 00ba 8150      		subi r24,1
 2122 00bc 990B      		sbc r25,r25
 439:funsape/peripheral/twi.cpp ****             TWCR = (1 << TWEN) | (1 << TWIE) | (1 << TWINT) | (1 << TWEA);
 2123               		.loc 1 439 9 view .LVU549
 2124 00be 2817      		cp r18,r24
 2125 00c0 1906      		cpc __zero_reg__,r25
 2126 00c2 04F4      		brge .L101
 440:funsape/peripheral/twi.cpp ****         } else {                        // Send NACK after next reception
 2127               		.loc 1 440 13 is_stmt 1 view .LVU550
GAS LISTING /tmp/ccQ8U2zo.s 			page 65


 440:funsape/peripheral/twi.cpp ****         } else {                        // Send NACK after next reception
 2128               		.loc 1 440 18 is_stmt 0 view .LVU551
 2129 00c4 85EC      		ldi r24,lo8(-59)
 2130 00c6 8093 BC00 		sts 188,r24
 2131 00ca 0895      		ret
 2132               	.L101:
 442:funsape/peripheral/twi.cpp ****         }
 2133               		.loc 1 442 13 is_stmt 1 view .LVU552
 442:funsape/peripheral/twi.cpp ****         }
 2134               		.loc 1 442 18 is_stmt 0 view .LVU553
 2135 00cc 85E8      		ldi r24,lo8(-123)
 2136 00ce 8093 BC00 		sts 188,r24
 2137 00d2 0895      		ret
 2138               	.LVL138:
 2139               	.L97:
 445:funsape/peripheral/twi.cpp ****         this->_bufferData[twiBufferPointer] = TWDR;
 2140               		.loc 1 445 5 is_stmt 1 view .LVU554
 446:funsape/peripheral/twi.cpp ****         this->_lastTransOk = true;      // Set status bits to completed successfully
 2141               		.loc 1 446 9 view .LVU555
 446:funsape/peripheral/twi.cpp ****         this->_lastTransOk = true;      // Set status bits to completed successfully
 2142               		.loc 1 446 15 is_stmt 0 view .LVU556
 2143 00d4 A785      		ldd r26,Z+15
 2144 00d6 B089      		ldd r27,Z+16
 446:funsape/peripheral/twi.cpp ****         this->_lastTransOk = true;      // Set status bits to completed successfully
 2145               		.loc 1 446 27 view .LVU557
 2146 00d8 8091 0000 		lds r24,_ZZN3Twi16interruptHandlerEvE16twiBufferPointer
 2147               	.LVL139:
 446:funsape/peripheral/twi.cpp ****         this->_lastTransOk = true;      // Set status bits to completed successfully
 2148               		.loc 1 446 43 view .LVU558
 2149 00dc A80F      		add r26,r24
 2150 00de B11D      		adc r27,__zero_reg__
 446:funsape/peripheral/twi.cpp ****         this->_lastTransOk = true;      // Set status bits to completed successfully
 2151               		.loc 1 446 47 view .LVU559
 2152 00e0 8091 BB00 		lds r24,187
 446:funsape/peripheral/twi.cpp ****         this->_lastTransOk = true;      // Set status bits to completed successfully
 2153               		.loc 1 446 45 view .LVU560
 2154 00e4 8C93      		st X,r24
 447:funsape/peripheral/twi.cpp ****         TWCR = (1 << TWEN) | (1 << TWINT) | (1 << TWSTO);
 2155               		.loc 1 447 9 is_stmt 1 view .LVU561
 447:funsape/peripheral/twi.cpp ****         TWCR = (1 << TWEN) | (1 << TWINT) | (1 << TWSTO);
 2156               		.loc 1 447 28 is_stmt 0 view .LVU562
 2157 00e6 8681      		ldd r24,Z+6
 2158 00e8 8260      		ori r24,lo8(1<<1)
 2159 00ea 8683      		std Z+6,r24
 448:funsape/peripheral/twi.cpp ****         break;
 2160               		.loc 1 448 9 is_stmt 1 view .LVU563
 448:funsape/peripheral/twi.cpp ****         break;
 2161               		.loc 1 448 14 is_stmt 0 view .LVU564
 2162 00ec 84E9      		ldi r24,lo8(-108)
 2163 00ee 8093 BC00 		sts 188,r24
 449:funsape/peripheral/twi.cpp ****     case Twi::State::ARB_LOST:          // Arbitration lost
 2164               		.loc 1 449 9 is_stmt 1 view .LVU565
 2165 00f2 0895      		ret
 2166               	.LVL140:
 2167               	.L90:
 450:funsape/peripheral/twi.cpp ****         TWCR = (1 << TWEN) | (1 << TWIE) | (1 << TWINT) | (1 << TWSTA);
 2168               		.loc 1 450 5 view .LVU566
GAS LISTING /tmp/ccQ8U2zo.s 			page 66


 451:funsape/peripheral/twi.cpp ****         break;
 2169               		.loc 1 451 9 view .LVU567
 451:funsape/peripheral/twi.cpp ****         break;
 2170               		.loc 1 451 14 is_stmt 0 view .LVU568
 2171 00f4 85EA      		ldi r24,lo8(-91)
 2172               	.LVL141:
 451:funsape/peripheral/twi.cpp ****         break;
 2173               		.loc 1 451 14 view .LVU569
 2174 00f6 8093 BC00 		sts 188,r24
 452:funsape/peripheral/twi.cpp ****     case Twi::State::MTX_ADR_NACK:      // SLA+W has been transmitted and NACK received
 2175               		.loc 1 452 9 is_stmt 1 view .LVU570
 2176 00fa 0895      		ret
 2177               		.cfi_endproc
 2178               	.LFE168:
 2180               		.section	.text.__vector_24,"ax",@progbits
 2181               	.global	__vector_24
 2183               	__vector_24:
 2184               	.LFB169:
 469:funsape/peripheral/twi.cpp ****     twi.interruptHandler();
 2185               		.loc 1 469 1 view -0
 2186               		.cfi_startproc
 2187 0000 1F92      		push r1
 2188               	.LCFI34:
 2189               		.cfi_def_cfa_offset 3
 2190               		.cfi_offset 1, -2
 2191 0002 0F92      		push r0
 2192               	.LCFI35:
 2193               		.cfi_def_cfa_offset 4
 2194               		.cfi_offset 0, -3
 2195 0004 0FB6      		in r0,__SREG__
 2196 0006 0F92      		push r0
 2197 0008 1124      		clr __zero_reg__
 2198 000a 2F93      		push r18
 2199               	.LCFI36:
 2200               		.cfi_def_cfa_offset 5
 2201               		.cfi_offset 18, -4
 2202 000c 3F93      		push r19
 2203               	.LCFI37:
 2204               		.cfi_def_cfa_offset 6
 2205               		.cfi_offset 19, -5
 2206 000e 4F93      		push r20
 2207               	.LCFI38:
 2208               		.cfi_def_cfa_offset 7
 2209               		.cfi_offset 20, -6
 2210 0010 5F93      		push r21
 2211               	.LCFI39:
 2212               		.cfi_def_cfa_offset 8
 2213               		.cfi_offset 21, -7
 2214 0012 6F93      		push r22
 2215               	.LCFI40:
 2216               		.cfi_def_cfa_offset 9
 2217               		.cfi_offset 22, -8
 2218 0014 7F93      		push r23
 2219               	.LCFI41:
 2220               		.cfi_def_cfa_offset 10
 2221               		.cfi_offset 23, -9
 2222 0016 8F93      		push r24
GAS LISTING /tmp/ccQ8U2zo.s 			page 67


 2223               	.LCFI42:
 2224               		.cfi_def_cfa_offset 11
 2225               		.cfi_offset 24, -10
 2226 0018 9F93      		push r25
 2227               	.LCFI43:
 2228               		.cfi_def_cfa_offset 12
 2229               		.cfi_offset 25, -11
 2230 001a AF93      		push r26
 2231               	.LCFI44:
 2232               		.cfi_def_cfa_offset 13
 2233               		.cfi_offset 26, -12
 2234 001c BF93      		push r27
 2235               	.LCFI45:
 2236               		.cfi_def_cfa_offset 14
 2237               		.cfi_offset 27, -13
 2238 001e EF93      		push r30
 2239               	.LCFI46:
 2240               		.cfi_def_cfa_offset 15
 2241               		.cfi_offset 30, -14
 2242 0020 FF93      		push r31
 2243               	.LCFI47:
 2244               		.cfi_def_cfa_offset 16
 2245               		.cfi_offset 31, -15
 2246               	/* prologue: Signal */
 2247               	/* frame size = 0 */
 2248               	/* stack size = 15 */
 2249               	.L__stack_usage = 15
 470:funsape/peripheral/twi.cpp **** }
 2250               		.loc 1 470 5 view .LVU572
 470:funsape/peripheral/twi.cpp **** }
 2251               		.loc 1 470 25 is_stmt 0 view .LVU573
 2252 0022 80E0      		ldi r24,lo8(twi)
 2253 0024 90E0      		ldi r25,hi8(twi)
 2254 0026 0E94 0000 		call _ZN3Twi16interruptHandlerEv
 2255               	.LVL142:
 2256               	/* epilogue start */
 2257               		.loc 1 471 1 view .LVU574
 2258 002a FF91      		pop r31
 2259 002c EF91      		pop r30
 2260 002e BF91      		pop r27
 2261 0030 AF91      		pop r26
 2262 0032 9F91      		pop r25
 2263 0034 8F91      		pop r24
 2264 0036 7F91      		pop r23
 2265 0038 6F91      		pop r22
 2266 003a 5F91      		pop r21
 2267 003c 4F91      		pop r20
 2268 003e 3F91      		pop r19
 2269 0040 2F91      		pop r18
 2270 0042 0F90      		pop r0
 2271 0044 0FBE      		out __SREG__,r0
 2272 0046 0F90      		pop r0
 2273 0048 1F90      		pop r1
 2274 004a 1895      		reti
 2275               		.cfi_endproc
 2276               	.LFE169:
 2278               		.section	.text._GLOBAL__sub_I_twi,"ax",@progbits
GAS LISTING /tmp/ccQ8U2zo.s 			page 68


 2280               	_GLOBAL__sub_I_twi:
 2281               	.LFB172:
 2282               		.loc 1 471 1 is_stmt 1 view -0
 2283               		.cfi_startproc
 2284               	/* prologue: function */
 2285               	/* frame size = 0 */
 2286               	/* stack size = 0 */
 2287               	.L__stack_usage = 0
 2288               		.loc 1 471 1 is_stmt 0 view .LVU576
 2289 0000 0E94 0000 		call _Z41__static_initialization_and_destruction_0v
 2290               	.LVL143:
 2291               	/* epilogue start */
 2292 0004 0895      		ret
 2293               		.cfi_endproc
 2294               	.LFE172:
 2296               		.global __do_global_ctors
 2297               		.section .ctors,"a",@progbits
 2298               		.p2align	1
 2299 0000 0000      		.word	gs(_GLOBAL__sub_I_twi)
 2300               		.section	.text._GLOBAL__sub_D_twi,"ax",@progbits
 2302               	_GLOBAL__sub_D_twi:
 2303               	.LFB173:
 2304               		.loc 1 471 1 is_stmt 1 view -0
 2305               		.cfi_startproc
 2306               	/* prologue: function */
 2307               	/* frame size = 0 */
 2308               	/* stack size = 0 */
 2309               	.L__stack_usage = 0
 2310               		.loc 1 471 1 is_stmt 0 view .LVU578
 2311 0000 0E94 0000 		call _Z41__static_initialization_and_destruction_1v
 2312               	.LVL144:
 2313               	/* epilogue start */
 2314 0004 0895      		ret
 2315               		.cfi_endproc
 2316               	.LFE173:
 2318               		.global __do_global_dtors
 2319               		.section .dtors,"a",@progbits
 2320               		.p2align	1
 2321 0000 0000      		.word	gs(_GLOBAL__sub_D_twi)
 2322               		.weak	_ZTV3Bus
 2323               		.section	.rodata._ZTV3Bus,"aG",@progbits,_ZTV3Bus,comdat
 2326               	_ZTV3Bus:
 2327 0000 0000      		.word	0
 2328 0002 0000      		.word	0
 2329 0004 0000      		.word	gs(_ZN3Bus7readRegEhPhj)
 2330 0006 0000      		.word	gs(_ZN3Bus8sendDataEPhj)
 2331 0008 0000      		.word	gs(_ZN3Bus8sendDataEPKhPhj)
 2332 000a 0000      		.word	gs(_ZN3Bus8writeRegEhPKhj)
 2333 000c 0000      		.word	gs(_ZN3Bus9setDeviceEjb)
 2334 000e 0000      		.word	gs(_ZN3Bus9setDeviceEPFvvES1_)
 2335 0010 0000      		.word	gs(_ZN3Bus10getBusTypeEv)
 2336 0012 0000      		.word	gs(_ZN3Bus12getLastErrorEv)
 2337               		.weak	_ZTV3Twi
 2338               		.section	.rodata._ZTV3Twi,"aG",@progbits,_ZTV3Twi,comdat
 2341               	_ZTV3Twi:
 2342 0000 0000      		.word	0
 2343 0002 0000      		.word	0
GAS LISTING /tmp/ccQ8U2zo.s 			page 69


 2344 0004 0000      		.word	gs(_ZN3Twi7readRegEhPhj)
 2345 0006 0000      		.word	gs(_ZN3Bus8sendDataEPhj)
 2346 0008 0000      		.word	gs(_ZN3Bus8sendDataEPKhPhj)
 2347 000a 0000      		.word	gs(_ZN3Twi8writeRegEhPKhj)
 2348 000c 0000      		.word	gs(_ZN3Twi9setDeviceEjb)
 2349 000e 0000      		.word	gs(_ZN3Bus9setDeviceEPFvvES1_)
 2350 0010 0000      		.word	gs(_ZN3Twi10getBusTypeEv)
 2351 0012 0000      		.word	gs(_ZN3Twi12getLastErrorEv)
 2352               		.section	.bss._ZZN3Twi16interruptHandlerEvE16twiBufferPointer,"aw",@nobits
 2355               	_ZZN3Twi16interruptHandlerEvE16twiBufferPointer:
 2356 0000 00        		.zero	1
 2357               	.global	twi
 2358               		.section	.bss.twi,"aw",@nobits
 2361               	twi:
 2362 0000 0000 0000 		.zero	19
 2362      0000 0000 
 2362      0000 0000 
 2362      0000 0000 
 2362      0000 00
 2363               		.text
 2364               	.Letext0:
 2365               		.file 4 "/usr/avr/include/stdint.h"
 2366               		.file 5 "funsape/peripheral/../config/atmega328p.hpp"
 2367               		.file 6 "/usr/lib/gcc/avr/16.1.0/include/stddef.h"
 2368               		.file 7 "funsape/peripheral/../globalDefines.hpp"
 2369               		.file 8 "funsape/peripheral/twi.hpp"
 2370               		.file 9 "/usr/avr/include/stdlib.h"
GAS LISTING /tmp/ccQ8U2zo.s 			page 70

