GAS LISTING /tmp/ccgDjIOO.s 			page 1


   1               		.file	"usart0.cpp"
   2               	__SP_H__ = 0x3e
   3               	__SP_L__ = 0x3d
   4               	__SREG__ = 0x3f
   5               	__tmp_reg__ = 0
   6               	__zero_reg__ = 1
   7               		.text
   8               	.Ltext0:
   9               		.cfi_sections	.debug_frame
  10               		.file 1 "funsape/peripheral/usart0.cpp"
  11               		.section	.text._ZN6Usart0D2Ev,"ax",@progbits
  12               	.global	_ZN6Usart0D2Ev
  14               	_ZN6Usart0D2Ev:
  15               	.LVL0:
  16               	.LFB156:
   1:funsape/peripheral/usart0.cpp **** 
   2:funsape/peripheral/usart0.cpp **** 
   3:funsape/peripheral/usart0.cpp **** #include "usart0.hpp"
   4:funsape/peripheral/usart0.cpp **** 
   5:funsape/peripheral/usart0.cpp **** Usart0 *usartDefaultHandler;
   6:funsape/peripheral/usart0.cpp **** Usart0 usart0;
   7:funsape/peripheral/usart0.cpp **** FILE usartStream;
   8:funsape/peripheral/usart0.cpp **** 
   9:funsape/peripheral/usart0.cpp **** int usartTransmitStdWrapper(char data, FILE *stream);
  10:funsape/peripheral/usart0.cpp **** 
  11:funsape/peripheral/usart0.cpp **** Usart0::Usart0(BaudRate baudRate_p, Mode mode_p, FrameFormat format_p)
  12:funsape/peripheral/usart0.cpp **** {
  13:funsape/peripheral/usart0.cpp ****     if(!this->setBaudRate(baudRate_p)) {
  14:funsape/peripheral/usart0.cpp ****         // Returns error
  15:funsape/peripheral/usart0.cpp ****         return;
  16:funsape/peripheral/usart0.cpp ****     }
  17:funsape/peripheral/usart0.cpp ****     if(!this->setMode(mode_p)) {
  18:funsape/peripheral/usart0.cpp ****         // Returns error
  19:funsape/peripheral/usart0.cpp ****         return;
  20:funsape/peripheral/usart0.cpp ****     }
  21:funsape/peripheral/usart0.cpp ****     if(!this->setFrameFormat(format_p)) {
  22:funsape/peripheral/usart0.cpp ****         // Returns error
  23:funsape/peripheral/usart0.cpp ****         return;
  24:funsape/peripheral/usart0.cpp ****     }
  25:funsape/peripheral/usart0.cpp **** 
  26:funsape/peripheral/usart0.cpp ****     fdev_setup_stream(&usartStream, usartTransmitStdWrapper, NULL, _FDEV_SETUP_WRITE);
  27:funsape/peripheral/usart0.cpp **** 
  28:funsape/peripheral/usart0.cpp ****     // Returns successfully
  29:funsape/peripheral/usart0.cpp ****     this->_lastError = Error::NONE;
  30:funsape/peripheral/usart0.cpp ****     return;
  31:funsape/peripheral/usart0.cpp **** }
  32:funsape/peripheral/usart0.cpp **** 
  33:funsape/peripheral/usart0.cpp **** Usart0::~Usart0(void)
  17               		.loc 1 33 1 view -0
  18               		.cfi_startproc
  19               	/* prologue: function */
  20               	/* frame size = 0 */
  21               	/* stack size = 0 */
  22               	.L__stack_usage = 0
  23               	.LBB18:
  34:funsape/peripheral/usart0.cpp **** {
  35:funsape/peripheral/usart0.cpp ****     return;
GAS LISTING /tmp/ccgDjIOO.s 			page 2


  24               		.loc 1 35 5 view .LVU1
  25               	/* epilogue start */
  26               	.LBE18:
  36:funsape/peripheral/usart0.cpp **** }
  27               		.loc 1 36 1 is_stmt 0 view .LVU2
  28 0000 0895      		ret
  29               		.cfi_endproc
  30               	.LFE156:
  32               	.global	_ZN6Usart0D1Ev
  33               		.set	_ZN6Usart0D1Ev,_ZN6Usart0D2Ev
  34               		.section	.text._ZN6Usart04initEv,"ax",@progbits
  35               	.global	_ZN6Usart04initEv
  37               	_ZN6Usart04initEv:
  38               	.LVL1:
  39               	.LFB158:
  37:funsape/peripheral/usart0.cpp **** 
  38:funsape/peripheral/usart0.cpp **** bool_t Usart0::init(void)
  39:funsape/peripheral/usart0.cpp **** {
  40               		.loc 1 39 1 is_stmt 1 view -0
  41               		.cfi_startproc
  42               		.loc 1 39 1 is_stmt 0 view .LVU4
  43 0000 8F92      		push r8
  44               	.LCFI0:
  45               		.cfi_def_cfa_offset 3
  46               		.cfi_offset 8, -2
  47 0002 9F92      		push r9
  48               	.LCFI1:
  49               		.cfi_def_cfa_offset 4
  50               		.cfi_offset 9, -3
  51 0004 AF92      		push r10
  52               	.LCFI2:
  53               		.cfi_def_cfa_offset 5
  54               		.cfi_offset 10, -4
  55 0006 BF92      		push r11
  56               	.LCFI3:
  57               		.cfi_def_cfa_offset 6
  58               		.cfi_offset 11, -5
  59 0008 DF92      		push r13
  60               	.LCFI4:
  61               		.cfi_def_cfa_offset 7
  62               		.cfi_offset 13, -6
  63 000a EF92      		push r14
  64               	.LCFI5:
  65               		.cfi_def_cfa_offset 8
  66               		.cfi_offset 14, -7
  67 000c FF92      		push r15
  68               	.LCFI6:
  69               		.cfi_def_cfa_offset 9
  70               		.cfi_offset 15, -8
  71 000e 0F93      		push r16
  72               	.LCFI7:
  73               		.cfi_def_cfa_offset 10
  74               		.cfi_offset 16, -9
  75 0010 1F93      		push r17
  76               	.LCFI8:
  77               		.cfi_def_cfa_offset 11
  78               		.cfi_offset 17, -10
GAS LISTING /tmp/ccgDjIOO.s 			page 3


  79 0012 CF93      		push r28
  80               	.LCFI9:
  81               		.cfi_def_cfa_offset 12
  82               		.cfi_offset 28, -11
  83 0014 DF93      		push r29
  84               	.LCFI10:
  85               		.cfi_def_cfa_offset 13
  86               		.cfi_offset 29, -12
  87 0016 CDB7      		in r28,__SP_L__
  88 0018 DEB7      		in r29,__SP_H__
  89               	.LCFI11:
  90               		.cfi_def_cfa_register 28
  91 001a 2C97      		sbiw r28,12
  92               	.LCFI12:
  93               		.cfi_def_cfa_offset 25
  94 001c 0FB6      		in __tmp_reg__,__SREG__
  95 001e F894      		cli
  96 0020 DEBF      		out __SP_H__,r29
  97 0022 0FBE      		out __SREG__,__tmp_reg__
  98 0024 CDBF      		out __SP_L__,r28
  99               	/* prologue: function */
 100               	/* frame size = 12 */
 101               	/* stack size = 23 */
 102               	.L__stack_usage = 23
 103 0026 7C01      		movw r14,r24
  40:funsape/peripheral/usart0.cpp ****     // Local variables
  41:funsape/peripheral/usart0.cpp ****     uint8_t ucsr0a = UCSR0A;
 104               		.loc 1 41 5 is_stmt 1 view .LVU5
 105               		.loc 1 41 22 is_stmt 0 view .LVU6
 106 0028 0091 C000 		lds r16,192
 107               	.LVL2:
  42:funsape/peripheral/usart0.cpp ****     uint8_t ucsr0b = UCSR0B;
 108               		.loc 1 42 5 is_stmt 1 view .LVU7
 109               		.loc 1 42 22 is_stmt 0 view .LVU8
 110 002c 3091 C100 		lds r19,193
 111               	.LVL3:
  43:funsape/peripheral/usart0.cpp ****     uint8_t ucsr0c = UCSR0C;
 112               		.loc 1 43 5 is_stmt 1 view .LVU9
 113               		.loc 1 43 22 is_stmt 0 view .LVU10
 114 0030 8091 C200 		lds r24,194
 115               	.LVL4:
  44:funsape/peripheral/usart0.cpp ****     uint64_t ubrr0 = (uint64_t)UBRR0;
 116               		.loc 1 44 5 is_stmt 1 view .LVU11
 117               		.loc 1 44 32 is_stmt 0 view .LVU12
 118 0034 4091 C400 		lds r20,196
 119 0038 5091 C500 		lds r21,196+1
  45:funsape/peripheral/usart0.cpp ****     uint8_t auxPrescaler = 1;
 120               		.loc 1 45 5 is_stmt 1 view .LVU13
 121               	.LVL5:
  46:funsape/peripheral/usart0.cpp ****     uint32_t aux32 = 0;
 122               		.loc 1 46 5 view .LVU14
 123               		.loc 1 46 14 is_stmt 0 view .LVU15
 124 003c 1982      		std Y+1,__zero_reg__
 125 003e 1A82      		std Y+2,__zero_reg__
 126 0040 1B82      		std Y+3,__zero_reg__
 127 0042 1C82      		std Y+4,__zero_reg__
  47:funsape/peripheral/usart0.cpp **** 
GAS LISTING /tmp/ccgDjIOO.s 			page 4


  48:funsape/peripheral/usart0.cpp ****     // Clear errors
  49:funsape/peripheral/usart0.cpp ****     ucsr0a &= ~((1 << FE0) | (1 << DOR0) | (1 << UPE0));
 128               		.loc 1 49 5 is_stmt 1 view .LVU16
 129               	.LVL6:
  50:funsape/peripheral/usart0.cpp **** 
  51:funsape/peripheral/usart0.cpp ****     // Configure stop bit
  52:funsape/peripheral/usart0.cpp ****     switch(this->_stopBits) {
 130               		.loc 1 52 5 view .LVU17
 131               		.loc 1 52 18 is_stmt 0 view .LVU18
 132 0044 F701      		movw r30,r14
 133 0046 9385      		ldd r25,Z+11
 134               		.loc 1 52 5 view .LVU19
 135 0048 9130      		cpi r25,lo8(1)
 136 004a 00F0      		brlo .L3
 137 004c 01F4      		brne .L5
  53:funsape/peripheral/usart0.cpp ****     case Usart0::StopBits::SINGLE:
  54:funsape/peripheral/usart0.cpp ****         clrBit(ucsr0c, USBS0);
  55:funsape/peripheral/usart0.cpp ****         break;
  56:funsape/peripheral/usart0.cpp ****     case Usart0::StopBits::DOUBLE:
 138               		.loc 1 56 5 is_stmt 1 view .LVU20
  57:funsape/peripheral/usart0.cpp ****         setBit(ucsr0c, USBS0);
 139               		.loc 1 57 9 view .LVU21
 140               		.loc 1 57 9 view .LVU22
 141 004e 8860      		ori r24,lo8(8)
 142               	.LVL7:
 143               		.loc 1 57 9 view .LVU23
  58:funsape/peripheral/usart0.cpp ****         break;
 144               		.loc 1 58 9 view .LVU24
 145 0050 00C0      		rjmp .L5
 146               	.L3:
  53:funsape/peripheral/usart0.cpp ****     case Usart0::StopBits::SINGLE:
 147               		.loc 1 53 5 view .LVU25
  54:funsape/peripheral/usart0.cpp ****         break;
 148               		.loc 1 54 9 view .LVU26
  54:funsape/peripheral/usart0.cpp ****         break;
 149               		.loc 1 54 9 view .LVU27
 150 0052 877F      		andi r24,lo8(-9)
 151               	.LVL8:
  54:funsape/peripheral/usart0.cpp ****         break;
 152               		.loc 1 54 9 view .LVU28
  55:funsape/peripheral/usart0.cpp ****     case Usart0::StopBits::DOUBLE:
 153               		.loc 1 55 9 view .LVU29
 154               	.L5:
  59:funsape/peripheral/usart0.cpp ****     }
  60:funsape/peripheral/usart0.cpp **** 
  61:funsape/peripheral/usart0.cpp ****     // Configure parity
  62:funsape/peripheral/usart0.cpp ****     clrMaskOffset(ucsr0c, 0x03, UPM00);
 155               		.loc 1 62 5 view .LVU30
 156               		.loc 1 62 5 view .LVU31
 157 0054 282F      		mov r18,r24
 158 0056 2F7C      		andi r18,lo8(-49)
 159               	.LVL9:
 160               		.loc 1 62 5 view .LVU32
  63:funsape/peripheral/usart0.cpp ****     switch(this->_parityMode) {
 161               		.loc 1 63 5 view .LVU33
 162               		.loc 1 63 18 is_stmt 0 view .LVU34
 163 0058 F701      		movw r30,r14
GAS LISTING /tmp/ccgDjIOO.s 			page 5


 164 005a 9285      		ldd r25,Z+10
 165               		.loc 1 63 5 view .LVU35
 166 005c 9130      		cpi r25,lo8(1)
 167 005e 01F0      		breq .L6
 168               		.loc 1 63 5 view .LVU36
 169 0060 9230      		cpi r25,lo8(2)
 170 0062 01F4      		brne .L8
  64:funsape/peripheral/usart0.cpp ****     case Usart0::ParityMode::NONE:
  65:funsape/peripheral/usart0.cpp ****         break;
  66:funsape/peripheral/usart0.cpp ****     case Usart0::ParityMode::ODD:
  67:funsape/peripheral/usart0.cpp ****         setMaskOffset(ucsr0c, 0x03, UPM00);
  68:funsape/peripheral/usart0.cpp ****         break;
  69:funsape/peripheral/usart0.cpp ****     case Usart0::ParityMode::EVEN:
 171               		.loc 1 69 5 is_stmt 1 view .LVU37
  70:funsape/peripheral/usart0.cpp ****         setMaskOffset(ucsr0c, 0x02, UPM00);
 172               		.loc 1 70 9 view .LVU38
 173               		.loc 1 70 9 view .LVU39
 174 0064 2062      		ori r18,lo8(32)
 175               	.LVL10:
 176               		.loc 1 70 9 view .LVU40
  71:funsape/peripheral/usart0.cpp ****         break;
 177               		.loc 1 71 9 view .LVU41
 178 0066 00C0      		rjmp .L8
 179               	.L6:
  66:funsape/peripheral/usart0.cpp ****         setMaskOffset(ucsr0c, 0x03, UPM00);
 180               		.loc 1 66 5 view .LVU42
  67:funsape/peripheral/usart0.cpp ****         break;
 181               		.loc 1 67 9 view .LVU43
  67:funsape/peripheral/usart0.cpp ****         break;
 182               		.loc 1 67 9 view .LVU44
 183 0068 8063      		ori r24,lo8(48)
 184 006a 282F      		mov r18,r24
 185               	.LVL11:
  67:funsape/peripheral/usart0.cpp ****         break;
 186               		.loc 1 67 9 view .LVU45
  68:funsape/peripheral/usart0.cpp ****     case Usart0::ParityMode::EVEN:
 187               		.loc 1 68 9 view .LVU46
 188               	.L8:
  72:funsape/peripheral/usart0.cpp ****     }
  73:funsape/peripheral/usart0.cpp **** 
  74:funsape/peripheral/usart0.cpp ****     // Configure data bits
  75:funsape/peripheral/usart0.cpp ****     clrBit(ucsr0b, UCSZ02);
 189               		.loc 1 75 5 view .LVU47
 190               		.loc 1 75 5 view .LVU48
 191 006c 832F      		mov r24,r19
 192 006e 8B7F      		andi r24,lo8(-5)
 193 0070 D82E      		mov r13,r24
 194               	.LVL12:
 195               		.loc 1 75 5 view .LVU49
  76:funsape/peripheral/usart0.cpp ****     clrMaskOffset(ucsr0c, 0x03, UCSZ00);
 196               		.loc 1 76 5 view .LVU50
 197               		.loc 1 76 5 view .LVU51
 198 0072 822F      		mov r24,r18
 199 0074 897F      		andi r24,lo8(-7)
 200               	.LVL13:
 201               		.loc 1 76 5 view .LVU52
  77:funsape/peripheral/usart0.cpp ****     switch(this->_dataSize) {
GAS LISTING /tmp/ccgDjIOO.s 			page 6


 202               		.loc 1 77 5 view .LVU53
 203               		.loc 1 77 18 is_stmt 0 view .LVU54
 204 0076 F701      		movw r30,r14
 205 0078 9481      		ldd r25,Z+4
 206               		.loc 1 77 5 view .LVU55
 207 007a 9330      		cpi r25,lo8(3)
 208 007c 01F0      		breq .L9
 209               		.loc 1 77 5 view .LVU56
 210 007e 00F4      		brsh .L10
 211 0080 9130      		cpi r25,lo8(1)
 212 0082 01F0      		breq .L11
 213 0084 9230      		cpi r25,lo8(2)
 214 0086 01F4      		brne .L13
  78:funsape/peripheral/usart0.cpp ****     case Usart0::DataSize::DATA_5_BITS:
  79:funsape/peripheral/usart0.cpp ****         break;
  80:funsape/peripheral/usart0.cpp ****     case Usart0::DataSize::DATA_6_BITS:
  81:funsape/peripheral/usart0.cpp ****         setMaskOffset(ucsr0c, 0x01, UCSZ00);
  82:funsape/peripheral/usart0.cpp ****         break;
  83:funsape/peripheral/usart0.cpp ****     case Usart0::DataSize::DATA_7_BITS:
 215               		.loc 1 83 5 is_stmt 1 view .LVU57
  84:funsape/peripheral/usart0.cpp ****         setMaskOffset(ucsr0c, 0x02, UCSZ00);
 216               		.loc 1 84 9 view .LVU58
 217               		.loc 1 84 9 view .LVU59
 218 0088 8460      		ori r24,lo8(4)
 219               	.LVL14:
 220               		.loc 1 84 9 view .LVU60
  85:funsape/peripheral/usart0.cpp ****         break;
 221               		.loc 1 85 9 view .LVU61
 222 008a 00C0      		rjmp .L13
 223               	.L10:
  77:funsape/peripheral/usart0.cpp ****     case Usart0::DataSize::DATA_5_BITS:
 224               		.loc 1 77 5 is_stmt 0 view .LVU62
 225 008c 9730      		cpi r25,lo8(7)
 226 008e 01F4      		brne .L13
  86:funsape/peripheral/usart0.cpp ****     case Usart0::DataSize::DATA_8_BITS:
  87:funsape/peripheral/usart0.cpp ****         setMaskOffset(ucsr0c, 0x03, UCSZ00);
  88:funsape/peripheral/usart0.cpp ****         break;
  89:funsape/peripheral/usart0.cpp ****     case Usart0::DataSize::DATA_9_BITS:
 227               		.loc 1 89 5 is_stmt 1 view .LVU63
  90:funsape/peripheral/usart0.cpp ****         setBit(ucsr0b, UCSZ02);
 228               		.loc 1 90 9 view .LVU64
 229               		.loc 1 90 9 view .LVU65
 230 0090 3460      		ori r19,lo8(4)
 231 0092 D32E      		mov r13,r19
 232               	.LVL15:
 233               		.loc 1 90 9 view .LVU66
  91:funsape/peripheral/usart0.cpp ****         setMaskOffset(ucsr0c, 0x03, UCSZ00);
 234               		.loc 1 91 9 view .LVU67
 235               		.loc 1 91 9 view .LVU68
 236 0094 822F      		mov r24,r18
 237               	.LVL16:
 238               		.loc 1 91 9 is_stmt 0 view .LVU69
 239 0096 8660      		ori r24,lo8(6)
 240               	.LVL17:
 241               		.loc 1 91 9 is_stmt 1 view .LVU70
  92:funsape/peripheral/usart0.cpp ****         break;
 242               		.loc 1 92 9 view .LVU71
GAS LISTING /tmp/ccgDjIOO.s 			page 7


 243 0098 00C0      		rjmp .L13
 244               	.L11:
  80:funsape/peripheral/usart0.cpp ****         setMaskOffset(ucsr0c, 0x01, UCSZ00);
 245               		.loc 1 80 5 view .LVU72
  81:funsape/peripheral/usart0.cpp ****         break;
 246               		.loc 1 81 9 view .LVU73
  81:funsape/peripheral/usart0.cpp ****         break;
 247               		.loc 1 81 9 view .LVU74
 248 009a 8260      		ori r24,lo8(2)
 249               	.LVL18:
  81:funsape/peripheral/usart0.cpp ****         break;
 250               		.loc 1 81 9 view .LVU75
  82:funsape/peripheral/usart0.cpp ****     case Usart0::DataSize::DATA_7_BITS:
 251               		.loc 1 82 9 view .LVU76
 252 009c 00C0      		rjmp .L13
 253               	.L9:
  86:funsape/peripheral/usart0.cpp ****         setMaskOffset(ucsr0c, 0x03, UCSZ00);
 254               		.loc 1 86 5 view .LVU77
  87:funsape/peripheral/usart0.cpp ****         break;
 255               		.loc 1 87 9 view .LVU78
  87:funsape/peripheral/usart0.cpp ****         break;
 256               		.loc 1 87 9 view .LVU79
 257 009e 822F      		mov r24,r18
 258               	.LVL19:
  87:funsape/peripheral/usart0.cpp ****         break;
 259               		.loc 1 87 9 is_stmt 0 view .LVU80
 260 00a0 8660      		ori r24,lo8(6)
 261               	.LVL20:
  87:funsape/peripheral/usart0.cpp ****         break;
 262               		.loc 1 87 9 is_stmt 1 view .LVU81
  88:funsape/peripheral/usart0.cpp ****     case Usart0::DataSize::DATA_9_BITS:
 263               		.loc 1 88 9 view .LVU82
 264               	.L13:
  93:funsape/peripheral/usart0.cpp ****     }
  94:funsape/peripheral/usart0.cpp **** 
  95:funsape/peripheral/usart0.cpp ****     // Configure mode
  96:funsape/peripheral/usart0.cpp ****     clrMaskOffset(ucsr0c, 0x03, UMSEL00);
 265               		.loc 1 96 5 view .LVU83
 266               		.loc 1 96 5 view .LVU84
  97:funsape/peripheral/usart0.cpp ****     clrBit(ucsr0a, U2X0);               // Single Speed
 267               		.loc 1 97 5 view .LVU85
 268               		.loc 1 97 5 view .LVU86
 269 00a2 017E      		andi r16,lo8(-31)
 270               	.LVL21:
 271               		.loc 1 97 5 view .LVU87
  98:funsape/peripheral/usart0.cpp ****     clrBit(ucsr0c, UCPOL0);             // Polarity
 272               		.loc 1 98 5 view .LVU88
 273               		.loc 1 98 5 view .LVU89
 274 00a4 182F      		mov r17,r24
 275 00a6 1E73      		andi r17,lo8(62)
 276               	.LVL22:
 277               		.loc 1 98 5 view .LVU90
  99:funsape/peripheral/usart0.cpp ****     switch(this->_mode) {
 278               		.loc 1 99 5 view .LVU91
 279               		.loc 1 99 18 is_stmt 0 view .LVU92
 280 00a8 F701      		movw r30,r14
 281 00aa B580      		ldd r11,Z+5
GAS LISTING /tmp/ccgDjIOO.s 			page 8


 282               		.loc 1 99 5 view .LVU93
 283 00ac 9B2D      		mov r25,r11
 284 00ae 9830      		cpi r25,lo8(8)
 285 00b0 00F4      		brsh .L15
 286               		.loc 1 99 5 view .LVU94
 287 00b2 EB2D      		mov r30,r11
 288 00b4 F0E0      		ldi r31,0
 289 00b6 E050      		subi r30,lo8(-(gs(.L17)))
 290 00b8 F040      		sbci r31,hi8(-(gs(.L17)))
 291 00ba 0C94 0000 		jmp __tablejump2__
 292               		.section	.jumptables.gcc._ZN6Usart04initEv,"a",@progbits
 293               		.p2align	1
 295               	.L17:
 296 0000 0000      		.word gs(.L25)
 297 0002 0000      		.word gs(.L23)
 298 0004 0000      		.word gs(.L22)
 299 0006 0000      		.word gs(.L21)
 300 0008 0000      		.word gs(.L20)
 301 000a 0000      		.word gs(.L19)
 302 000c 0000      		.word gs(.L18)
 303 000e 0000      		.word gs(.L16)
 304               		.section	.text._ZN6Usart04initEv
 305               	.L15:
 306               		.loc 1 99 5 view .LVU95
 307 00be BB24      		clr r11
 308 00c0 B394      		inc r11
 309 00c2 00C0      		rjmp .L24
 310               	.L23:
 100:funsape/peripheral/usart0.cpp ****     case Usart0::Mode::ASYNCHRONOUS:
 101:funsape/peripheral/usart0.cpp ****         auxPrescaler = 16;
 102:funsape/peripheral/usart0.cpp ****         break;
 103:funsape/peripheral/usart0.cpp ****     case Usart0::Mode::ASYNCHRONOUS_DOUBLE_SPEED:
 311               		.loc 1 103 5 is_stmt 1 view .LVU96
 104:funsape/peripheral/usart0.cpp ****         setBit(ucsr0a, U2X0);           // Double Speed
 312               		.loc 1 104 9 view .LVU97
 313               		.loc 1 104 9 view .LVU98
 314 00c4 0260      		ori r16,lo8(2)
 315               	.LVL23:
 316               		.loc 1 104 9 view .LVU99
 105:funsape/peripheral/usart0.cpp ****         auxPrescaler = 8;
 317               		.loc 1 105 9 view .LVU100
 106:funsape/peripheral/usart0.cpp ****         break;
 318               		.loc 1 106 9 view .LVU101
 105:funsape/peripheral/usart0.cpp ****         auxPrescaler = 8;
 319               		.loc 1 105 22 is_stmt 0 view .LVU102
 320 00c6 6894      		set
 321 00c8 BB24      		clr r11
 322 00ca B3F8      		bld r11,3
 323               	.LVL24:
 324               	.L24:
 107:funsape/peripheral/usart0.cpp ****     case Usart0::Mode::SYNCHRONOUS_TX_RISING_RX_FALLING:
 108:funsape/peripheral/usart0.cpp ****         setMaskOffset(ucsr0c, 1, UMSEL00);      // Synchronous Mode Tx rising edge
 109:funsape/peripheral/usart0.cpp ****         clrBit(ucsr0c, UCPOL0);
 110:funsape/peripheral/usart0.cpp ****         auxPrescaler = 2;
 111:funsape/peripheral/usart0.cpp ****         break;
 112:funsape/peripheral/usart0.cpp ****     case Usart0::Mode::SYNCHRONOUS_TX_FALLING_RX_RISING:
 113:funsape/peripheral/usart0.cpp ****         setMaskOffset(ucsr0c, 1, UMSEL00);      // Synchronous Mode Tx falling edge
GAS LISTING /tmp/ccgDjIOO.s 			page 9


 114:funsape/peripheral/usart0.cpp ****         setBit(ucsr0c, UCPOL0);
 115:funsape/peripheral/usart0.cpp ****         auxPrescaler = 2;
 116:funsape/peripheral/usart0.cpp ****         break;
 117:funsape/peripheral/usart0.cpp ****     case Usart0::Mode::MASTER_SPI_MODE_0:
 118:funsape/peripheral/usart0.cpp ****         setMaskOffset(ucsr0c, 3, UMSEL00);      // Synchronous SPI Mode
 119:funsape/peripheral/usart0.cpp ****         clrBit(ucsr0c, UCPOL0);         // Polarity
 120:funsape/peripheral/usart0.cpp ****         clrBit(ucsr0c, UCPHA0);         // Phase
 121:funsape/peripheral/usart0.cpp ****         auxPrescaler = 2;
 122:funsape/peripheral/usart0.cpp ****         break;
 123:funsape/peripheral/usart0.cpp ****     case Usart0::Mode::MASTER_SPI_MODE_1:
 124:funsape/peripheral/usart0.cpp ****         setMaskOffset(ucsr0c, 3, UMSEL00);      // Synchronous SPI Mode
 125:funsape/peripheral/usart0.cpp ****         clrBit(ucsr0c, UCPOL0);         // Polarity
 126:funsape/peripheral/usart0.cpp ****         setBit(ucsr0c, UCPHA0);         // Phase
 127:funsape/peripheral/usart0.cpp ****         auxPrescaler = 2;
 128:funsape/peripheral/usart0.cpp ****         break;
 129:funsape/peripheral/usart0.cpp ****     case Usart0::Mode::MASTER_SPI_MODE_2:
 130:funsape/peripheral/usart0.cpp ****         setMaskOffset(ucsr0c, 3, UMSEL00);      // Synchronous SPI Mode
 131:funsape/peripheral/usart0.cpp ****         setBit(ucsr0c, UCPOL0);         // Polarity
 132:funsape/peripheral/usart0.cpp ****         clrBit(ucsr0c, UCPHA0);         // Phase
 133:funsape/peripheral/usart0.cpp ****         auxPrescaler = 2;
 134:funsape/peripheral/usart0.cpp ****         break;
 135:funsape/peripheral/usart0.cpp ****     case Usart0::Mode::MASTER_SPI_MODE_3:
 136:funsape/peripheral/usart0.cpp ****         setMaskOffset(ucsr0c, 3, UMSEL00);      // Synchronous SPI Mode
 137:funsape/peripheral/usart0.cpp ****         setBit(ucsr0c, UCPOL0);         // Polarity
 138:funsape/peripheral/usart0.cpp ****         setBit(ucsr0c, UCPHA0);         // Phase
 139:funsape/peripheral/usart0.cpp ****         auxPrescaler = 2;
 140:funsape/peripheral/usart0.cpp ****         break;
 141:funsape/peripheral/usart0.cpp ****     }
 142:funsape/peripheral/usart0.cpp **** 
 143:funsape/peripheral/usart0.cpp ****     // Configure baud rate
 144:funsape/peripheral/usart0.cpp ****     systemStatus.getCpuClock(&aux32);
 325               		.loc 1 144 5 is_stmt 1 view .LVU103
 326               		.loc 1 144 29 is_stmt 0 view .LVU104
 327 00cc BE01      		movw r22,r28
 328 00ce 6F5F      		subi r22,-1
 329 00d0 7F4F      		sbci r23,-1
 330 00d2 80E0      		ldi r24,lo8(systemStatus)
 331 00d4 90E0      		ldi r25,hi8(systemStatus)
 332 00d6 0E94 0000 		call _ZN12SystemStatus11getCpuClockEPm
 333               	.LVL25:
 145:funsape/peripheral/usart0.cpp ****     ubrr0 = (aux32 / (auxPrescaler * (uint32_t)this->_baudRate) - 1);
 334               		.loc 1 145 5 is_stmt 1 view .LVU105
 335               		.loc 1 145 54 is_stmt 0 view .LVU106
 336 00da F701      		movw r30,r14
 337 00dc 2681      		ldd r18,Z+6
 338 00de 3781      		ldd r19,Z+7
 339 00e0 4085      		ldd r20,Z+8
 340 00e2 5185      		ldd r21,Z+9
 341               		.loc 1 145 36 view .LVU107
 342 00e4 AB2D      		mov r26,r11
 343 00e6 B0E0      		ldi r27,0
 344 00e8 0E94 0000 		call __muluhisi3
 345 00ec 9B01      		movw r18,r22
 346 00ee AC01      		movw r20,r24
 347               		.loc 1 145 20 view .LVU108
 348 00f0 6981      		ldd r22,Y+1
 349 00f2 7A81      		ldd r23,Y+2
GAS LISTING /tmp/ccgDjIOO.s 			page 10


 350 00f4 8B81      		ldd r24,Y+3
 351 00f6 9C81      		ldd r25,Y+4
 352 00f8 0E94 0000 		call __udivmodsi4
 353               		.loc 1 145 65 view .LVU109
 354 00fc 2150      		subi r18,1
 355 00fe 3040      		sbci r19,0
 356 0100 4040      		sbci r20,0
 357 0102 5040      		sbci r21,0
 358 0104 4901      		movw r8,r18
 359 0106 5A01      		movw r10,r20
 360               		.loc 1 145 11 view .LVU110
 361 0108 60E0      		ldi r22,0
 362 010a 70E0      		ldi r23,0
 363 010c CB01      		movw r24,r22
 364 010e 2D83      		std Y+5,r18
 365 0110 3E83      		std Y+6,r19
 366 0112 4F83      		std Y+7,r20
 367 0114 5887      		std Y+8,r21
 368 0116 6987      		std Y+9,r22
 369 0118 7A87      		std Y+10,r23
 370 011a 8B87      		std Y+11,r24
 371 011c 9C87      		std Y+12,r25
 372               	.LVL26:
 146:funsape/peripheral/usart0.cpp **** 
 147:funsape/peripheral/usart0.cpp ****     // Configures USART registers
 148:funsape/peripheral/usart0.cpp ****     UCSR0A = ucsr0a;
 373               		.loc 1 148 5 is_stmt 1 view .LVU111
 374               		.loc 1 148 12 is_stmt 0 view .LVU112
 375 011e 0093 C000 		sts 192,r16
 376               	.LVL27:
 149:funsape/peripheral/usart0.cpp ****     UCSR0B = ucsr0b;
 377               		.loc 1 149 5 is_stmt 1 view .LVU113
 378               		.loc 1 149 12 is_stmt 0 view .LVU114
 379 0122 D092 C100 		sts 193,r13
 150:funsape/peripheral/usart0.cpp ****     UCSR0C = ucsr0c;
 380               		.loc 1 150 5 is_stmt 1 view .LVU115
 381               		.loc 1 150 12 is_stmt 0 view .LVU116
 382 0126 1093 C200 		sts 194,r17
 151:funsape/peripheral/usart0.cpp ****     UBRR0H = (uint8_t)(0x0F & (ubrr0 >> 8));
 383               		.loc 1 151 5 is_stmt 1 view .LVU117
 384               		.loc 1 151 38 is_stmt 0 view .LVU118
 385 012a 2D81      		ldd r18,Y+5
 386 012c 3E81      		ldd r19,Y+6
 387 012e 4F81      		ldd r20,Y+7
 388 0130 5885      		ldd r21,Y+8
 389 0132 60E0      		ldi r22,0
 390 0134 70E0      		ldi r23,0
 391 0136 80E0      		ldi r24,0
 392 0138 90E0      		ldi r25,0
 393 013a 08E0      		ldi r16,lo8(8)
 394               	.LVL28:
 395               		.loc 1 151 38 view .LVU119
 396 013c 0E94 0000 		call __lshrdi3
 397               		.loc 1 151 29 view .LVU120
 398 0140 2F70      		andi r18,lo8(15)
 399               		.loc 1 151 12 view .LVU121
 400 0142 2093 C500 		sts 197,r18
GAS LISTING /tmp/ccgDjIOO.s 			page 11


 152:funsape/peripheral/usart0.cpp ****     UBRR0L = (uint8_t)(0xFF & ubrr0);
 401               		.loc 1 152 5 is_stmt 1 view .LVU122
 402               		.loc 1 152 12 is_stmt 0 view .LVU123
 403 0146 8092 C400 		sts 196,r8
 153:funsape/peripheral/usart0.cpp **** 
 154:funsape/peripheral/usart0.cpp ****     // Returns successfully
 155:funsape/peripheral/usart0.cpp ****     this->_lastError = Error::NONE;
 404               		.loc 1 155 5 is_stmt 1 view .LVU124
 405               		.loc 1 155 22 is_stmt 0 view .LVU125
 406 014a F701      		movw r30,r14
 407 014c 1382      		std Z+3,__zero_reg__
 408 014e 1282      		std Z+2,__zero_reg__
 156:funsape/peripheral/usart0.cpp ****     return true;
 409               		.loc 1 156 5 is_stmt 1 view .LVU126
 157:funsape/peripheral/usart0.cpp **** }
 410               		.loc 1 157 1 is_stmt 0 view .LVU127
 411 0150 81E0      		ldi r24,lo8(1)
 412               	/* epilogue start */
 413 0152 2C96      		adiw r28,12
 414 0154 0FB6      		in __tmp_reg__,__SREG__
 415 0156 F894      		cli
 416 0158 DEBF      		out __SP_H__,r29
 417 015a 0FBE      		out __SREG__,__tmp_reg__
 418 015c CDBF      		out __SP_L__,r28
 419 015e DF91      		pop r29
 420 0160 CF91      		pop r28
 421 0162 1F91      		pop r17
 422               	.LVL29:
 423               		.loc 1 157 1 view .LVU128
 424 0164 0F91      		pop r16
 425 0166 FF90      		pop r15
 426 0168 EF90      		pop r14
 427               	.LVL30:
 428               		.loc 1 157 1 view .LVU129
 429 016a DF90      		pop r13
 430               	.LVL31:
 431               		.loc 1 157 1 view .LVU130
 432 016c BF90      		pop r11
 433               	.LVL32:
 434               		.loc 1 157 1 view .LVU131
 435 016e AF90      		pop r10
 436 0170 9F90      		pop r9
 437 0172 8F90      		pop r8
 438 0174 0895      		ret
 439               	.LVL33:
 440               	.L22:
 107:funsape/peripheral/usart0.cpp ****         setMaskOffset(ucsr0c, 1, UMSEL00);      // Synchronous Mode Tx rising edge
 441               		.loc 1 107 5 is_stmt 1 view .LVU132
 108:funsape/peripheral/usart0.cpp ****         clrBit(ucsr0c, UCPOL0);
 442               		.loc 1 108 9 view .LVU133
 108:funsape/peripheral/usart0.cpp ****         clrBit(ucsr0c, UCPOL0);
 443               		.loc 1 108 9 view .LVU134
 109:funsape/peripheral/usart0.cpp ****         auxPrescaler = 2;
 444               		.loc 1 109 9 view .LVU135
 109:funsape/peripheral/usart0.cpp ****         auxPrescaler = 2;
 445               		.loc 1 109 9 view .LVU136
 109:funsape/peripheral/usart0.cpp ****         auxPrescaler = 2;
GAS LISTING /tmp/ccgDjIOO.s 			page 12


 446               		.loc 1 109 9 is_stmt 0 view .LVU137
 447 0176 1064      		ori r17,lo8(64)
 448               	.LVL34:
 109:funsape/peripheral/usart0.cpp ****         auxPrescaler = 2;
 449               		.loc 1 109 9 is_stmt 1 view .LVU138
 110:funsape/peripheral/usart0.cpp ****         break;
 450               		.loc 1 110 9 view .LVU139
 111:funsape/peripheral/usart0.cpp ****     case Usart0::Mode::SYNCHRONOUS_TX_FALLING_RX_RISING:
 451               		.loc 1 111 9 view .LVU140
 452 0178 00C0      		rjmp .L24
 453               	.LVL35:
 454               	.L21:
 112:funsape/peripheral/usart0.cpp ****         setMaskOffset(ucsr0c, 1, UMSEL00);      // Synchronous Mode Tx falling edge
 455               		.loc 1 112 5 view .LVU141
 113:funsape/peripheral/usart0.cpp ****         setBit(ucsr0c, UCPOL0);
 456               		.loc 1 113 9 view .LVU142
 113:funsape/peripheral/usart0.cpp ****         setBit(ucsr0c, UCPOL0);
 457               		.loc 1 113 9 view .LVU143
 114:funsape/peripheral/usart0.cpp ****         auxPrescaler = 2;
 458               		.loc 1 114 9 view .LVU144
 114:funsape/peripheral/usart0.cpp ****         auxPrescaler = 2;
 459               		.loc 1 114 9 view .LVU145
 114:funsape/peripheral/usart0.cpp ****         auxPrescaler = 2;
 460               		.loc 1 114 9 is_stmt 0 view .LVU146
 461 017a 1164      		ori r17,lo8(65)
 462               	.LVL36:
 114:funsape/peripheral/usart0.cpp ****         auxPrescaler = 2;
 463               		.loc 1 114 9 is_stmt 1 view .LVU147
 115:funsape/peripheral/usart0.cpp ****         break;
 464               		.loc 1 115 9 view .LVU148
 116:funsape/peripheral/usart0.cpp ****     case Usart0::Mode::MASTER_SPI_MODE_0:
 465               		.loc 1 116 9 view .LVU149
 115:funsape/peripheral/usart0.cpp ****         break;
 466               		.loc 1 115 22 is_stmt 0 view .LVU150
 467 017c 6894      		set
 468 017e BB24      		clr r11
 469 0180 B1F8      		bld r11,1
 116:funsape/peripheral/usart0.cpp ****     case Usart0::Mode::MASTER_SPI_MODE_0:
 470               		.loc 1 116 9 view .LVU151
 471 0182 00C0      		rjmp .L24
 472               	.LVL37:
 473               	.L20:
 117:funsape/peripheral/usart0.cpp ****         setMaskOffset(ucsr0c, 3, UMSEL00);      // Synchronous SPI Mode
 474               		.loc 1 117 5 is_stmt 1 view .LVU152
 118:funsape/peripheral/usart0.cpp ****         clrBit(ucsr0c, UCPOL0);         // Polarity
 475               		.loc 1 118 9 view .LVU153
 118:funsape/peripheral/usart0.cpp ****         clrBit(ucsr0c, UCPOL0);         // Polarity
 476               		.loc 1 118 9 view .LVU154
 119:funsape/peripheral/usart0.cpp ****         clrBit(ucsr0c, UCPHA0);         // Phase
 477               		.loc 1 119 9 view .LVU155
 119:funsape/peripheral/usart0.cpp ****         clrBit(ucsr0c, UCPHA0);         // Phase
 478               		.loc 1 119 9 view .LVU156
 120:funsape/peripheral/usart0.cpp ****         auxPrescaler = 2;
 479               		.loc 1 120 9 view .LVU157
 120:funsape/peripheral/usart0.cpp ****         auxPrescaler = 2;
 480               		.loc 1 120 9 view .LVU158
 481 0184 8C73      		andi r24,lo8(60)
GAS LISTING /tmp/ccgDjIOO.s 			page 13


 482               	.LVL38:
 120:funsape/peripheral/usart0.cpp ****         auxPrescaler = 2;
 483               		.loc 1 120 9 is_stmt 0 view .LVU159
 484 0186 806C      		ori r24,lo8(-64)
 120:funsape/peripheral/usart0.cpp ****         auxPrescaler = 2;
 485               		.loc 1 120 9 view .LVU160
 486 0188 182F      		mov r17,r24
 487               	.LVL39:
 120:funsape/peripheral/usart0.cpp ****         auxPrescaler = 2;
 488               		.loc 1 120 9 is_stmt 1 view .LVU161
 121:funsape/peripheral/usart0.cpp ****         break;
 489               		.loc 1 121 9 view .LVU162
 122:funsape/peripheral/usart0.cpp ****     case Usart0::Mode::MASTER_SPI_MODE_1:
 490               		.loc 1 122 9 view .LVU163
 121:funsape/peripheral/usart0.cpp ****         break;
 491               		.loc 1 121 22 is_stmt 0 view .LVU164
 492 018a 6894      		set
 493 018c BB24      		clr r11
 494 018e B1F8      		bld r11,1
 122:funsape/peripheral/usart0.cpp ****     case Usart0::Mode::MASTER_SPI_MODE_1:
 495               		.loc 1 122 9 view .LVU165
 496 0190 00C0      		rjmp .L24
 497               	.LVL40:
 498               	.L19:
 123:funsape/peripheral/usart0.cpp ****         setMaskOffset(ucsr0c, 3, UMSEL00);      // Synchronous SPI Mode
 499               		.loc 1 123 5 is_stmt 1 view .LVU166
 124:funsape/peripheral/usart0.cpp ****         clrBit(ucsr0c, UCPOL0);         // Polarity
 500               		.loc 1 124 9 view .LVU167
 124:funsape/peripheral/usart0.cpp ****         clrBit(ucsr0c, UCPOL0);         // Polarity
 501               		.loc 1 124 9 view .LVU168
 125:funsape/peripheral/usart0.cpp ****         setBit(ucsr0c, UCPHA0);         // Phase
 502               		.loc 1 125 9 view .LVU169
 125:funsape/peripheral/usart0.cpp ****         setBit(ucsr0c, UCPHA0);         // Phase
 503               		.loc 1 125 9 view .LVU170
 126:funsape/peripheral/usart0.cpp ****         auxPrescaler = 2;
 504               		.loc 1 126 9 view .LVU171
 126:funsape/peripheral/usart0.cpp ****         auxPrescaler = 2;
 505               		.loc 1 126 9 view .LVU172
 126:funsape/peripheral/usart0.cpp ****         auxPrescaler = 2;
 506               		.loc 1 126 9 is_stmt 0 view .LVU173
 507 0192 126C      		ori r17,lo8(-62)
 508               	.LVL41:
 126:funsape/peripheral/usart0.cpp ****         auxPrescaler = 2;
 509               		.loc 1 126 9 is_stmt 1 view .LVU174
 127:funsape/peripheral/usart0.cpp ****         break;
 510               		.loc 1 127 9 view .LVU175
 128:funsape/peripheral/usart0.cpp ****     case Usart0::Mode::MASTER_SPI_MODE_2:
 511               		.loc 1 128 9 view .LVU176
 127:funsape/peripheral/usart0.cpp ****         break;
 512               		.loc 1 127 22 is_stmt 0 view .LVU177
 513 0194 6894      		set
 514 0196 BB24      		clr r11
 515 0198 B1F8      		bld r11,1
 128:funsape/peripheral/usart0.cpp ****     case Usart0::Mode::MASTER_SPI_MODE_2:
 516               		.loc 1 128 9 view .LVU178
 517 019a 00C0      		rjmp .L24
 518               	.LVL42:
GAS LISTING /tmp/ccgDjIOO.s 			page 14


 519               	.L18:
 129:funsape/peripheral/usart0.cpp ****         setMaskOffset(ucsr0c, 3, UMSEL00);      // Synchronous SPI Mode
 520               		.loc 1 129 5 is_stmt 1 view .LVU179
 130:funsape/peripheral/usart0.cpp ****         setBit(ucsr0c, UCPOL0);         // Polarity
 521               		.loc 1 130 9 view .LVU180
 130:funsape/peripheral/usart0.cpp ****         setBit(ucsr0c, UCPOL0);         // Polarity
 522               		.loc 1 130 9 view .LVU181
 131:funsape/peripheral/usart0.cpp ****         clrBit(ucsr0c, UCPHA0);         // Phase
 523               		.loc 1 131 9 view .LVU182
 131:funsape/peripheral/usart0.cpp ****         clrBit(ucsr0c, UCPHA0);         // Phase
 524               		.loc 1 131 9 view .LVU183
 132:funsape/peripheral/usart0.cpp ****         auxPrescaler = 2;
 525               		.loc 1 132 9 view .LVU184
 132:funsape/peripheral/usart0.cpp ****         auxPrescaler = 2;
 526               		.loc 1 132 9 view .LVU185
 527 019c 8D7F      		andi r24,lo8(-3)
 528               	.LVL43:
 132:funsape/peripheral/usart0.cpp ****         auxPrescaler = 2;
 529               		.loc 1 132 9 is_stmt 0 view .LVU186
 530 019e 816C      		ori r24,lo8(-63)
 531 01a0 182F      		mov r17,r24
 532               	.LVL44:
 132:funsape/peripheral/usart0.cpp ****         auxPrescaler = 2;
 533               		.loc 1 132 9 is_stmt 1 view .LVU187
 133:funsape/peripheral/usart0.cpp ****         break;
 534               		.loc 1 133 9 view .LVU188
 134:funsape/peripheral/usart0.cpp ****     case Usart0::Mode::MASTER_SPI_MODE_3:
 535               		.loc 1 134 9 view .LVU189
 133:funsape/peripheral/usart0.cpp ****         break;
 536               		.loc 1 133 22 is_stmt 0 view .LVU190
 537 01a2 6894      		set
 538 01a4 BB24      		clr r11
 539 01a6 B1F8      		bld r11,1
 134:funsape/peripheral/usart0.cpp ****     case Usart0::Mode::MASTER_SPI_MODE_3:
 540               		.loc 1 134 9 view .LVU191
 541 01a8 00C0      		rjmp .L24
 542               	.LVL45:
 543               	.L16:
 135:funsape/peripheral/usart0.cpp ****         setMaskOffset(ucsr0c, 3, UMSEL00);      // Synchronous SPI Mode
 544               		.loc 1 135 5 is_stmt 1 view .LVU192
 136:funsape/peripheral/usart0.cpp ****         setBit(ucsr0c, UCPOL0);         // Polarity
 545               		.loc 1 136 9 view .LVU193
 136:funsape/peripheral/usart0.cpp ****         setBit(ucsr0c, UCPOL0);         // Polarity
 546               		.loc 1 136 9 view .LVU194
 137:funsape/peripheral/usart0.cpp ****         setBit(ucsr0c, UCPHA0);         // Phase
 547               		.loc 1 137 9 view .LVU195
 137:funsape/peripheral/usart0.cpp ****         setBit(ucsr0c, UCPHA0);         // Phase
 548               		.loc 1 137 9 view .LVU196
 138:funsape/peripheral/usart0.cpp ****         auxPrescaler = 2;
 549               		.loc 1 138 9 view .LVU197
 138:funsape/peripheral/usart0.cpp ****         auxPrescaler = 2;
 550               		.loc 1 138 9 view .LVU198
 551 01aa 836C      		ori r24,lo8(-61)
 552               	.LVL46:
 138:funsape/peripheral/usart0.cpp ****         auxPrescaler = 2;
 553               		.loc 1 138 9 is_stmt 0 view .LVU199
 554 01ac 182F      		mov r17,r24
GAS LISTING /tmp/ccgDjIOO.s 			page 15


 555               	.LVL47:
 138:funsape/peripheral/usart0.cpp ****         auxPrescaler = 2;
 556               		.loc 1 138 9 is_stmt 1 view .LVU200
 139:funsape/peripheral/usart0.cpp ****         break;
 557               		.loc 1 139 9 view .LVU201
 140:funsape/peripheral/usart0.cpp ****     }
 558               		.loc 1 140 9 view .LVU202
 139:funsape/peripheral/usart0.cpp ****         break;
 559               		.loc 1 139 22 is_stmt 0 view .LVU203
 560 01ae 6894      		set
 561 01b0 BB24      		clr r11
 562 01b2 B1F8      		bld r11,1
 140:funsape/peripheral/usart0.cpp ****     }
 563               		.loc 1 140 9 view .LVU204
 564 01b4 00C0      		rjmp .L24
 565               	.LVL48:
 566               	.L25:
 101:funsape/peripheral/usart0.cpp ****         break;
 567               		.loc 1 101 22 view .LVU205
 568 01b6 6894      		set
 569 01b8 BB24      		clr r11
 570 01ba B4F8      		bld r11,4
 571 01bc 00C0      		rjmp .L24
 572               		.cfi_endproc
 573               	.LFE158:
 575               		.section	.text._ZN6Usart07setModeENS_4ModeE,"ax",@progbits
 576               	.global	_ZN6Usart07setModeENS_4ModeE
 578               	_ZN6Usart07setModeENS_4ModeE:
 579               	.LVL49:
 580               	.LFB159:
 158:funsape/peripheral/usart0.cpp **** 
 159:funsape/peripheral/usart0.cpp **** bool_t Usart0::setMode(const Mode mode_p)
 160:funsape/peripheral/usart0.cpp **** {
 581               		.loc 1 160 1 is_stmt 1 view -0
 582               		.cfi_startproc
 583               	/* prologue: function */
 584               	/* frame size = 0 */
 585               	/* stack size = 0 */
 586               	.L__stack_usage = 0
 587               		.loc 1 160 1 is_stmt 0 view .LVU207
 588 0000 FC01      		movw r30,r24
 161:funsape/peripheral/usart0.cpp ****     // Resets data members
 162:funsape/peripheral/usart0.cpp ****     this->_isInitialized = false;
 589               		.loc 1 162 5 is_stmt 1 view .LVU208
 590               		.loc 1 162 26 is_stmt 0 view .LVU209
 591 0002 8081      		ld r24,Z
 592               	.LVL50:
 593               		.loc 1 162 26 view .LVU210
 594 0004 877F      		andi r24,lo8(~(1<<3))
 595 0006 8083      		st Z,r24
 163:funsape/peripheral/usart0.cpp **** 
 164:funsape/peripheral/usart0.cpp ****     // Checks for errors
 165:funsape/peripheral/usart0.cpp ****     switch(mode_p) {
 596               		.loc 1 165 5 is_stmt 1 view .LVU211
 597 0008 6830      		cpi r22,lo8(8)
 598 000a 00F0      		brlo .L27
 166:funsape/peripheral/usart0.cpp ****     case Usart0::Mode::ASYNCHRONOUS:
GAS LISTING /tmp/ccgDjIOO.s 			page 16


 167:funsape/peripheral/usart0.cpp ****     case Usart0::Mode::ASYNCHRONOUS_DOUBLE_SPEED:
 168:funsape/peripheral/usart0.cpp ****     case Usart0::Mode::SYNCHRONOUS_TX_RISING_RX_FALLING:
 169:funsape/peripheral/usart0.cpp ****     case Usart0::Mode::SYNCHRONOUS_TX_FALLING_RX_RISING:
 170:funsape/peripheral/usart0.cpp ****     case Usart0::Mode::MASTER_SPI_MODE_0:
 171:funsape/peripheral/usart0.cpp ****     case Usart0::Mode::MASTER_SPI_MODE_1:
 172:funsape/peripheral/usart0.cpp ****     case Usart0::Mode::MASTER_SPI_MODE_2:
 173:funsape/peripheral/usart0.cpp ****     case Usart0::Mode::MASTER_SPI_MODE_3:
 174:funsape/peripheral/usart0.cpp ****         break;
 175:funsape/peripheral/usart0.cpp ****     default:
 599               		.loc 1 175 5 view .LVU212
 176:funsape/peripheral/usart0.cpp ****         // Returns error
 177:funsape/peripheral/usart0.cpp ****         this->_lastError = Error::MODE_NOT_SUPPORTED;
 600               		.loc 1 177 9 view .LVU213
 601               		.loc 1 177 26 is_stmt 0 view .LVU214
 602 000c 83E4      		ldi r24,lo8(67)
 603 000e 90E0      		ldi r25,0
 604 0010 9383      		std Z+3,r25
 605 0012 8283      		std Z+2,r24
 178:funsape/peripheral/usart0.cpp ****         return false;
 606               		.loc 1 178 9 is_stmt 1 view .LVU215
 607               		.loc 1 178 16 is_stmt 0 view .LVU216
 608 0014 80E0      		ldi r24,0
 609 0016 0895      		ret
 610               	.L27:
 166:funsape/peripheral/usart0.cpp ****     case Usart0::Mode::ASYNCHRONOUS:
 611               		.loc 1 166 5 is_stmt 1 view .LVU217
 167:funsape/peripheral/usart0.cpp ****     case Usart0::Mode::SYNCHRONOUS_TX_RISING_RX_FALLING:
 612               		.loc 1 167 5 view .LVU218
 168:funsape/peripheral/usart0.cpp ****     case Usart0::Mode::SYNCHRONOUS_TX_FALLING_RX_RISING:
 613               		.loc 1 168 5 view .LVU219
 169:funsape/peripheral/usart0.cpp ****     case Usart0::Mode::MASTER_SPI_MODE_0:
 614               		.loc 1 169 5 view .LVU220
 170:funsape/peripheral/usart0.cpp ****     case Usart0::Mode::MASTER_SPI_MODE_1:
 615               		.loc 1 170 5 view .LVU221
 171:funsape/peripheral/usart0.cpp ****     case Usart0::Mode::MASTER_SPI_MODE_2:
 616               		.loc 1 171 5 view .LVU222
 172:funsape/peripheral/usart0.cpp ****     case Usart0::Mode::MASTER_SPI_MODE_3:
 617               		.loc 1 172 5 view .LVU223
 173:funsape/peripheral/usart0.cpp ****         break;
 618               		.loc 1 173 5 view .LVU224
 174:funsape/peripheral/usart0.cpp ****     default:
 619               		.loc 1 174 9 view .LVU225
 179:funsape/peripheral/usart0.cpp ****     }
 180:funsape/peripheral/usart0.cpp **** 
 181:funsape/peripheral/usart0.cpp ****     // Updates class member
 182:funsape/peripheral/usart0.cpp ****     this->_mode = mode_p;
 620               		.loc 1 182 5 view .LVU226
 621               		.loc 1 182 17 is_stmt 0 view .LVU227
 622 0018 6583      		std Z+5,r22
 183:funsape/peripheral/usart0.cpp **** 
 184:funsape/peripheral/usart0.cpp ****     // Returns successfully
 185:funsape/peripheral/usart0.cpp ****     this->_lastError = Error::NONE;
 623               		.loc 1 185 5 is_stmt 1 view .LVU228
 624               		.loc 1 185 22 is_stmt 0 view .LVU229
 625 001a 1382      		std Z+3,__zero_reg__
 626 001c 1282      		std Z+2,__zero_reg__
 186:funsape/peripheral/usart0.cpp ****     return true;
GAS LISTING /tmp/ccgDjIOO.s 			page 17


 627               		.loc 1 186 5 is_stmt 1 view .LVU230
 628               		.loc 1 186 12 is_stmt 0 view .LVU231
 629 001e 81E0      		ldi r24,lo8(1)
 630               	/* epilogue start */
 187:funsape/peripheral/usart0.cpp **** }
 631               		.loc 1 187 1 view .LVU232
 632 0020 0895      		ret
 633               		.cfi_endproc
 634               	.LFE159:
 636               		.section	.text._ZN6Usart011setDataSizeENS_8DataSizeE,"ax",@progbits
 637               	.global	_ZN6Usart011setDataSizeENS_8DataSizeE
 639               	_ZN6Usart011setDataSizeENS_8DataSizeE:
 640               	.LVL51:
 641               	.LFB160:
 188:funsape/peripheral/usart0.cpp **** 
 189:funsape/peripheral/usart0.cpp **** bool_t Usart0::setDataSize(const DataSize dataSize_p)
 190:funsape/peripheral/usart0.cpp **** {
 642               		.loc 1 190 1 is_stmt 1 view -0
 643               		.cfi_startproc
 644               	/* prologue: function */
 645               	/* frame size = 0 */
 646               	/* stack size = 0 */
 647               	.L__stack_usage = 0
 648               		.loc 1 190 1 is_stmt 0 view .LVU234
 649 0000 FC01      		movw r30,r24
 191:funsape/peripheral/usart0.cpp ****     // Resets data members
 192:funsape/peripheral/usart0.cpp ****     this->_isInitialized = false;
 650               		.loc 1 192 5 is_stmt 1 view .LVU235
 651               		.loc 1 192 26 is_stmt 0 view .LVU236
 652 0002 8081      		ld r24,Z
 653               	.LVL52:
 654               		.loc 1 192 26 view .LVU237
 655 0004 877F      		andi r24,lo8(~(1<<3))
 656 0006 8083      		st Z,r24
 193:funsape/peripheral/usart0.cpp **** 
 194:funsape/peripheral/usart0.cpp ****     // Checks for errors
 195:funsape/peripheral/usart0.cpp ****     switch(dataSize_p) {
 657               		.loc 1 195 5 is_stmt 1 view .LVU238
 658 0008 6430      		cpi r22,lo8(4)
 659 000a 00F0      		brlo .L30
 660 000c 6730      		cpi r22,lo8(7)
 661 000e 01F0      		breq .L30
 196:funsape/peripheral/usart0.cpp ****     case Usart0::DataSize::DATA_5_BITS:
 197:funsape/peripheral/usart0.cpp ****     case Usart0::DataSize::DATA_6_BITS:
 198:funsape/peripheral/usart0.cpp ****     case Usart0::DataSize::DATA_7_BITS:
 199:funsape/peripheral/usart0.cpp ****     case Usart0::DataSize::DATA_8_BITS:
 200:funsape/peripheral/usart0.cpp ****     case Usart0::DataSize::DATA_9_BITS:
 201:funsape/peripheral/usart0.cpp ****         break;
 202:funsape/peripheral/usart0.cpp ****     default:
 662               		.loc 1 202 5 view .LVU239
 203:funsape/peripheral/usart0.cpp ****         // Returns error
 204:funsape/peripheral/usart0.cpp ****         this->_lastError = Error::DATA_SIZE_NOT_SUPPORTED;
 663               		.loc 1 204 9 view .LVU240
 664               		.loc 1 204 26 is_stmt 0 view .LVU241
 665 0010 85EA      		ldi r24,lo8(-91)
 666 0012 90E0      		ldi r25,0
 667 0014 9383      		std Z+3,r25
GAS LISTING /tmp/ccgDjIOO.s 			page 18


 668 0016 8283      		std Z+2,r24
 205:funsape/peripheral/usart0.cpp ****         return false;
 669               		.loc 1 205 9 is_stmt 1 view .LVU242
 670               		.loc 1 205 16 is_stmt 0 view .LVU243
 671 0018 80E0      		ldi r24,0
 672 001a 0895      		ret
 673               	.L30:
 196:funsape/peripheral/usart0.cpp ****     case Usart0::DataSize::DATA_5_BITS:
 674               		.loc 1 196 5 is_stmt 1 view .LVU244
 197:funsape/peripheral/usart0.cpp ****     case Usart0::DataSize::DATA_7_BITS:
 675               		.loc 1 197 5 view .LVU245
 198:funsape/peripheral/usart0.cpp ****     case Usart0::DataSize::DATA_8_BITS:
 676               		.loc 1 198 5 view .LVU246
 199:funsape/peripheral/usart0.cpp ****     case Usart0::DataSize::DATA_9_BITS:
 677               		.loc 1 199 5 view .LVU247
 200:funsape/peripheral/usart0.cpp ****         break;
 678               		.loc 1 200 5 view .LVU248
 201:funsape/peripheral/usart0.cpp ****     default:
 679               		.loc 1 201 9 view .LVU249
 206:funsape/peripheral/usart0.cpp ****     }
 207:funsape/peripheral/usart0.cpp **** 
 208:funsape/peripheral/usart0.cpp ****     // Updates data members
 209:funsape/peripheral/usart0.cpp ****     this->_dataSize = dataSize_p;
 680               		.loc 1 209 5 view .LVU250
 681               		.loc 1 209 21 is_stmt 0 view .LVU251
 682 001c 6483      		std Z+4,r22
 210:funsape/peripheral/usart0.cpp **** 
 211:funsape/peripheral/usart0.cpp ****     // Returns successfully
 212:funsape/peripheral/usart0.cpp ****     this->_lastError = Error::NONE;
 683               		.loc 1 212 5 is_stmt 1 view .LVU252
 684               		.loc 1 212 22 is_stmt 0 view .LVU253
 685 001e 1382      		std Z+3,__zero_reg__
 686 0020 1282      		std Z+2,__zero_reg__
 213:funsape/peripheral/usart0.cpp ****     return true;
 687               		.loc 1 213 5 is_stmt 1 view .LVU254
 688               		.loc 1 213 12 is_stmt 0 view .LVU255
 689 0022 81E0      		ldi r24,lo8(1)
 690               	/* epilogue start */
 214:funsape/peripheral/usart0.cpp **** }
 691               		.loc 1 214 1 view .LVU256
 692 0024 0895      		ret
 693               		.cfi_endproc
 694               	.LFE160:
 696               		.section	.text._ZN6Usart011setStopBitsENS_8StopBitsE,"ax",@progbits
 697               	.global	_ZN6Usart011setStopBitsENS_8StopBitsE
 699               	_ZN6Usart011setStopBitsENS_8StopBitsE:
 700               	.LVL53:
 701               	.LFB161:
 215:funsape/peripheral/usart0.cpp **** 
 216:funsape/peripheral/usart0.cpp **** bool_t Usart0::setStopBits(const StopBits stopBits_p)
 217:funsape/peripheral/usart0.cpp **** {
 702               		.loc 1 217 1 is_stmt 1 view -0
 703               		.cfi_startproc
 704               	/* prologue: function */
 705               	/* frame size = 0 */
 706               	/* stack size = 0 */
 707               	.L__stack_usage = 0
GAS LISTING /tmp/ccgDjIOO.s 			page 19


 708               		.loc 1 217 1 is_stmt 0 view .LVU258
 709 0000 FC01      		movw r30,r24
 218:funsape/peripheral/usart0.cpp ****     // Resets data members
 219:funsape/peripheral/usart0.cpp ****     this->_isInitialized = false;
 710               		.loc 1 219 5 is_stmt 1 view .LVU259
 711               		.loc 1 219 26 is_stmt 0 view .LVU260
 712 0002 8081      		ld r24,Z
 713               	.LVL54:
 714               		.loc 1 219 26 view .LVU261
 715 0004 877F      		andi r24,lo8(~(1<<3))
 716 0006 8083      		st Z,r24
 220:funsape/peripheral/usart0.cpp **** 
 221:funsape/peripheral/usart0.cpp ****     // Checks for errors
 222:funsape/peripheral/usart0.cpp ****     switch(stopBits_p) {
 717               		.loc 1 222 5 is_stmt 1 view .LVU262
 718 0008 6230      		cpi r22,lo8(2)
 719 000a 00F0      		brlo .L33
 223:funsape/peripheral/usart0.cpp ****     case Usart0::StopBits::SINGLE:
 224:funsape/peripheral/usart0.cpp ****     case Usart0::StopBits::DOUBLE:
 225:funsape/peripheral/usart0.cpp ****         break;
 226:funsape/peripheral/usart0.cpp ****     default:
 720               		.loc 1 226 5 view .LVU263
 227:funsape/peripheral/usart0.cpp ****         // Returns error
 228:funsape/peripheral/usart0.cpp ****         this->_lastError = Error::STOP_BIT_CONFIG_NOT_SUPPORTED;
 721               		.loc 1 228 9 view .LVU264
 722               		.loc 1 228 26 is_stmt 0 view .LVU265
 723 000c 8DEA      		ldi r24,lo8(-83)
 724 000e 90E0      		ldi r25,0
 725 0010 9383      		std Z+3,r25
 726 0012 8283      		std Z+2,r24
 229:funsape/peripheral/usart0.cpp ****         return false;
 727               		.loc 1 229 9 is_stmt 1 view .LVU266
 728               		.loc 1 229 16 is_stmt 0 view .LVU267
 729 0014 80E0      		ldi r24,0
 730 0016 0895      		ret
 731               	.L33:
 223:funsape/peripheral/usart0.cpp ****     case Usart0::StopBits::SINGLE:
 732               		.loc 1 223 5 is_stmt 1 view .LVU268
 224:funsape/peripheral/usart0.cpp ****         break;
 733               		.loc 1 224 5 view .LVU269
 225:funsape/peripheral/usart0.cpp ****     default:
 734               		.loc 1 225 9 view .LVU270
 230:funsape/peripheral/usart0.cpp ****     }
 231:funsape/peripheral/usart0.cpp **** 
 232:funsape/peripheral/usart0.cpp ****     // Updates data members
 233:funsape/peripheral/usart0.cpp ****     this->_stopBits = stopBits_p;
 735               		.loc 1 233 5 view .LVU271
 736               		.loc 1 233 21 is_stmt 0 view .LVU272
 737 0018 6387      		std Z+11,r22
 234:funsape/peripheral/usart0.cpp **** 
 235:funsape/peripheral/usart0.cpp ****     // Returns successfully
 236:funsape/peripheral/usart0.cpp ****     this->_lastError = Error::NONE;
 738               		.loc 1 236 5 is_stmt 1 view .LVU273
 739               		.loc 1 236 22 is_stmt 0 view .LVU274
 740 001a 1382      		std Z+3,__zero_reg__
 741 001c 1282      		std Z+2,__zero_reg__
 237:funsape/peripheral/usart0.cpp ****     return true;
GAS LISTING /tmp/ccgDjIOO.s 			page 20


 742               		.loc 1 237 5 is_stmt 1 view .LVU275
 743               		.loc 1 237 12 is_stmt 0 view .LVU276
 744 001e 81E0      		ldi r24,lo8(1)
 745               	/* epilogue start */
 238:funsape/peripheral/usart0.cpp **** }
 746               		.loc 1 238 1 view .LVU277
 747 0020 0895      		ret
 748               		.cfi_endproc
 749               	.LFE161:
 751               		.section	.text._ZN6Usart013setParityModeENS_10ParityModeE,"ax",@progbits
 752               	.global	_ZN6Usart013setParityModeENS_10ParityModeE
 754               	_ZN6Usart013setParityModeENS_10ParityModeE:
 755               	.LVL55:
 756               	.LFB162:
 239:funsape/peripheral/usart0.cpp **** 
 240:funsape/peripheral/usart0.cpp **** bool_t Usart0::setParityMode(const ParityMode parityMode_p)
 241:funsape/peripheral/usart0.cpp **** {
 757               		.loc 1 241 1 is_stmt 1 view -0
 758               		.cfi_startproc
 759               	/* prologue: function */
 760               	/* frame size = 0 */
 761               	/* stack size = 0 */
 762               	.L__stack_usage = 0
 763               		.loc 1 241 1 is_stmt 0 view .LVU279
 764 0000 FC01      		movw r30,r24
 242:funsape/peripheral/usart0.cpp ****     // Resets data members
 243:funsape/peripheral/usart0.cpp ****     this->_isInitialized = false;
 765               		.loc 1 243 5 is_stmt 1 view .LVU280
 766               		.loc 1 243 26 is_stmt 0 view .LVU281
 767 0002 8081      		ld r24,Z
 768               	.LVL56:
 769               		.loc 1 243 26 view .LVU282
 770 0004 877F      		andi r24,lo8(~(1<<3))
 771 0006 8083      		st Z,r24
 244:funsape/peripheral/usart0.cpp **** 
 245:funsape/peripheral/usart0.cpp ****     // Checks for errors
 246:funsape/peripheral/usart0.cpp ****     switch(parityMode_p) {
 772               		.loc 1 246 5 is_stmt 1 view .LVU283
 773 0008 6330      		cpi r22,lo8(3)
 774 000a 00F0      		brlo .L36
 247:funsape/peripheral/usart0.cpp ****     case Usart0::ParityMode::NONE:
 248:funsape/peripheral/usart0.cpp ****     case Usart0::ParityMode::ODD:
 249:funsape/peripheral/usart0.cpp ****     case Usart0::ParityMode::EVEN:
 250:funsape/peripheral/usart0.cpp ****         break;
 251:funsape/peripheral/usart0.cpp ****     default:
 775               		.loc 1 251 5 view .LVU284
 252:funsape/peripheral/usart0.cpp ****         // Returns error
 253:funsape/peripheral/usart0.cpp ****         this->_lastError = Error::PARITY_MODE_NOT_SUPPORTED;
 776               		.loc 1 253 9 view .LVU285
 777               		.loc 1 253 26 is_stmt 0 view .LVU286
 778 000c 8CEA      		ldi r24,lo8(-84)
 779 000e 90E0      		ldi r25,0
 780 0010 9383      		std Z+3,r25
 781 0012 8283      		std Z+2,r24
 254:funsape/peripheral/usart0.cpp ****         return false;
 782               		.loc 1 254 9 is_stmt 1 view .LVU287
 783               		.loc 1 254 16 is_stmt 0 view .LVU288
GAS LISTING /tmp/ccgDjIOO.s 			page 21


 784 0014 80E0      		ldi r24,0
 785 0016 0895      		ret
 786               	.L36:
 247:funsape/peripheral/usart0.cpp ****     case Usart0::ParityMode::NONE:
 787               		.loc 1 247 5 is_stmt 1 view .LVU289
 248:funsape/peripheral/usart0.cpp ****     case Usart0::ParityMode::EVEN:
 788               		.loc 1 248 5 view .LVU290
 249:funsape/peripheral/usart0.cpp ****         break;
 789               		.loc 1 249 5 view .LVU291
 250:funsape/peripheral/usart0.cpp ****     default:
 790               		.loc 1 250 9 view .LVU292
 255:funsape/peripheral/usart0.cpp ****     }
 256:funsape/peripheral/usart0.cpp **** 
 257:funsape/peripheral/usart0.cpp ****     // Updates data members
 258:funsape/peripheral/usart0.cpp ****     this->_parityMode = parityMode_p;
 791               		.loc 1 258 5 view .LVU293
 792               		.loc 1 258 23 is_stmt 0 view .LVU294
 793 0018 6287      		std Z+10,r22
 259:funsape/peripheral/usart0.cpp **** 
 260:funsape/peripheral/usart0.cpp ****     // Returns successfully
 261:funsape/peripheral/usart0.cpp ****     this->_lastError = Error::NONE;
 794               		.loc 1 261 5 is_stmt 1 view .LVU295
 795               		.loc 1 261 22 is_stmt 0 view .LVU296
 796 001a 1382      		std Z+3,__zero_reg__
 797 001c 1282      		std Z+2,__zero_reg__
 262:funsape/peripheral/usart0.cpp ****     return true;
 798               		.loc 1 262 5 is_stmt 1 view .LVU297
 799               		.loc 1 262 12 is_stmt 0 view .LVU298
 800 001e 81E0      		ldi r24,lo8(1)
 801               	/* epilogue start */
 263:funsape/peripheral/usart0.cpp **** }
 802               		.loc 1 263 1 view .LVU299
 803 0020 0895      		ret
 804               		.cfi_endproc
 805               	.LFE162:
 807               		.section	.text._ZN6Usart011setBaudRateENS_8BaudRateE,"ax",@progbits
 808               	.global	_ZN6Usart011setBaudRateENS_8BaudRateE
 810               	_ZN6Usart011setBaudRateENS_8BaudRateE:
 811               	.LVL57:
 812               	.LFB163:
 264:funsape/peripheral/usart0.cpp **** 
 265:funsape/peripheral/usart0.cpp **** bool_t Usart0::setBaudRate(const BaudRate baudRate_p)
 266:funsape/peripheral/usart0.cpp **** {
 813               		.loc 1 266 1 is_stmt 1 view -0
 814               		.cfi_startproc
 815               	/* prologue: function */
 816               	/* frame size = 0 */
 817               	/* stack size = 0 */
 818               	.L__stack_usage = 0
 819               		.loc 1 266 1 is_stmt 0 view .LVU301
 820 0000 FC01      		movw r30,r24
 267:funsape/peripheral/usart0.cpp ****     // Resets data members
 268:funsape/peripheral/usart0.cpp ****     this->_isInitialized = false;
 821               		.loc 1 268 5 is_stmt 1 view .LVU302
 822               		.loc 1 268 26 is_stmt 0 view .LVU303
 823 0002 8081      		ld r24,Z
 824               	.LVL58:
GAS LISTING /tmp/ccgDjIOO.s 			page 22


 825               		.loc 1 268 26 view .LVU304
 826 0004 877F      		andi r24,lo8(~(1<<3))
 827 0006 8083      		st Z,r24
 269:funsape/peripheral/usart0.cpp **** 
 270:funsape/peripheral/usart0.cpp ****     // Checks for errors
 271:funsape/peripheral/usart0.cpp ****     switch(baudRate_p) {
 828               		.loc 1 271 5 is_stmt 1 view .LVU305
 829 0008 4038      		cpi r20,-128
 830 000a 80E7      		ldi r24,112
 831 000c 5807      		cpc r21,r24
 832 000e 6105      		cpc r22,__zero_reg__
 833 0010 7105      		cpc r23,__zero_reg__
 834 0012 01F4      		brne .+2
 835 0014 00C0      		rjmp .L39
 836 0016 00F4      		brsh .L40
 837 0018 403C      		cpi r20,-64
 838 001a 82E1      		ldi r24,18
 839 001c 5807      		cpc r21,r24
 840 001e 6105      		cpc r22,__zero_reg__
 841 0020 7105      		cpc r23,__zero_reg__
 842 0022 01F4      		brne .+2
 843 0024 00C0      		rjmp .L39
 844 0026 00F4      		brsh .L41
 845 0028 4830      		cpi r20,8
 846 002a 87E0      		ldi r24,7
 847 002c 5807      		cpc r21,r24
 848 002e 6105      		cpc r22,__zero_reg__
 849 0030 7105      		cpc r23,__zero_reg__
 850 0032 01F4      		brne .+2
 851 0034 00C0      		rjmp .L39
 852 0036 00F4      		brsh .L42
 853 0038 4835      		cpi r20,88
 854 003a 82E0      		ldi r24,2
 855 003c 5807      		cpc r21,r24
 856 003e 6105      		cpc r22,__zero_reg__
 857 0040 7607      		cpc r23,r22
 858 0042 01F4      		brne .+2
 859 0044 00C0      		rjmp .L39
 860 0046 403B      		cpi r20,-80
 861 0048 84E0      		ldi r24,4
 862 004a 5807      		cpc r21,r24
 863 004c 6105      		cpc r22,__zero_reg__
 864 004e 7607      		cpc r23,r22
 865 0050 01F4      		brne .L43
 866 0052 00C0      		rjmp .L39
 867               	.L42:
 868 0054 4036      		cpi r20,96
 869 0056 89E0      		ldi r24,9
 870 0058 5807      		cpc r21,r24
 871 005a 6105      		cpc r22,__zero_reg__
 872 005c 7607      		cpc r23,r22
 873 005e 01F4      		brne .L43
 874 0060 00C0      		rjmp .L39
 875               	.L41:
 876               		.loc 1 271 5 is_stmt 0 view .LVU306
 877 0062 4034      		cpi r20,64
 878 0064 88E3      		ldi r24,56
GAS LISTING /tmp/ccgDjIOO.s 			page 23


 879 0066 5807      		cpc r21,r24
 880 0068 6105      		cpc r22,__zero_reg__
 881 006a 7607      		cpc r23,r22
 882 006c 01F0      		breq .L39
 883 006e 4030      		cpi r20,0
 884 0070 8BE4      		ldi r24,75
 885 0072 5807      		cpc r21,r24
 886 0074 6407      		cpc r22,r20
 887 0076 7407      		cpc r23,r20
 888 0078 01F0      		breq .L39
 889 007a 4038      		cpi r20,-128
 890 007c 85E2      		ldi r24,37
 891 007e 5807      		cpc r21,r24
 892 0080 6105      		cpc r22,__zero_reg__
 893 0082 7607      		cpc r23,r22
 894 0084 01F0      		breq .L39
 895               	.L43:
 272:funsape/peripheral/usart0.cpp ****     case Usart0::BaudRate::BAUD_RATE_600:
 273:funsape/peripheral/usart0.cpp ****     case Usart0::BaudRate::BAUD_RATE_1200:
 274:funsape/peripheral/usart0.cpp ****     case Usart0::BaudRate::BAUD_RATE_1800:
 275:funsape/peripheral/usart0.cpp ****     case Usart0::BaudRate::BAUD_RATE_2400:
 276:funsape/peripheral/usart0.cpp ****     case Usart0::BaudRate::BAUD_RATE_4800:
 277:funsape/peripheral/usart0.cpp ****     case Usart0::BaudRate::BAUD_RATE_9600:
 278:funsape/peripheral/usart0.cpp ****     case Usart0::BaudRate::BAUD_RATE_14400:
 279:funsape/peripheral/usart0.cpp ****     case Usart0::BaudRate::BAUD_RATE_19200:
 280:funsape/peripheral/usart0.cpp ****     case Usart0::BaudRate::BAUD_RATE_28800:
 281:funsape/peripheral/usart0.cpp ****     case Usart0::BaudRate::BAUD_RATE_38400:
 282:funsape/peripheral/usart0.cpp ****     case Usart0::BaudRate::BAUD_RATE_56000:
 283:funsape/peripheral/usart0.cpp ****     case Usart0::BaudRate::BAUD_RATE_57600:
 284:funsape/peripheral/usart0.cpp ****     case Usart0::BaudRate::BAUD_RATE_115200:
 285:funsape/peripheral/usart0.cpp ****     case Usart0::BaudRate::BAUD_RATE_128000:
 286:funsape/peripheral/usart0.cpp ****     case Usart0::BaudRate::BAUD_RATE_230400:
 287:funsape/peripheral/usart0.cpp ****     case Usart0::BaudRate::BAUD_RATE_256000:
 288:funsape/peripheral/usart0.cpp ****         break;
 289:funsape/peripheral/usart0.cpp ****     default:
 896               		.loc 1 289 5 is_stmt 1 view .LVU307
 290:funsape/peripheral/usart0.cpp ****         // Returns error
 291:funsape/peripheral/usart0.cpp ****         this->_lastError = Error::BAUD_RATE_NOT_SUPPORTED;
 897               		.loc 1 291 9 view .LVU308
 898               		.loc 1 291 26 is_stmt 0 view .LVU309
 899 0086 80EA      		ldi r24,lo8(-96)
 900 0088 90E0      		ldi r25,0
 901 008a 9383      		std Z+3,r25
 902 008c 8283      		std Z+2,r24
 292:funsape/peripheral/usart0.cpp ****         return false;
 903               		.loc 1 292 9 is_stmt 1 view .LVU310
 904               		.loc 1 292 16 is_stmt 0 view .LVU311
 905 008e 80E0      		ldi r24,0
 906 0090 0895      		ret
 907               	.L40:
 271:funsape/peripheral/usart0.cpp ****     case Usart0::BaudRate::BAUD_RATE_600:
 908               		.loc 1 271 5 view .LVU312
 909 0092 4030      		cpi r20,0
 910 0094 82EC      		ldi r24,-62
 911 0096 5807      		cpc r21,r24
 912 0098 81E0      		ldi r24,1
 913 009a 6807      		cpc r22,r24
GAS LISTING /tmp/ccgDjIOO.s 			page 24


 914 009c 7105      		cpc r23,__zero_reg__
 915 009e 01F0      		breq .L39
 916 00a0 00F4      		brsh .L44
 917 00a2 403C      		cpi r20,-64
 918 00a4 8AED      		ldi r24,-38
 919 00a6 5807      		cpc r21,r24
 920 00a8 6105      		cpc r22,__zero_reg__
 921 00aa 7607      		cpc r23,r22
 922 00ac 01F0      		breq .L39
 923 00ae 4030      		cpi r20,0
 924 00b0 81EE      		ldi r24,-31
 925 00b2 5807      		cpc r21,r24
 926 00b4 6407      		cpc r22,r20
 927 00b6 7407      		cpc r23,r20
 928 00b8 01F0      		breq .L39
 929 00ba 4030      		cpi r20,0
 930 00bc 86E9      		ldi r24,-106
 931 00be 5807      		cpc r21,r24
 932 00c0 6407      		cpc r22,r20
 933 00c2 7407      		cpc r23,r20
 934 00c4 01F4      		brne .L43
 935               	.L39:
 272:funsape/peripheral/usart0.cpp ****     case Usart0::BaudRate::BAUD_RATE_1200:
 936               		.loc 1 272 5 is_stmt 1 view .LVU313
 273:funsape/peripheral/usart0.cpp ****     case Usart0::BaudRate::BAUD_RATE_1800:
 937               		.loc 1 273 5 view .LVU314
 274:funsape/peripheral/usart0.cpp ****     case Usart0::BaudRate::BAUD_RATE_2400:
 938               		.loc 1 274 5 view .LVU315
 275:funsape/peripheral/usart0.cpp ****     case Usart0::BaudRate::BAUD_RATE_4800:
 939               		.loc 1 275 5 view .LVU316
 276:funsape/peripheral/usart0.cpp ****     case Usart0::BaudRate::BAUD_RATE_9600:
 940               		.loc 1 276 5 view .LVU317
 277:funsape/peripheral/usart0.cpp ****     case Usart0::BaudRate::BAUD_RATE_14400:
 941               		.loc 1 277 5 view .LVU318
 278:funsape/peripheral/usart0.cpp ****     case Usart0::BaudRate::BAUD_RATE_19200:
 942               		.loc 1 278 5 view .LVU319
 279:funsape/peripheral/usart0.cpp ****     case Usart0::BaudRate::BAUD_RATE_28800:
 943               		.loc 1 279 5 view .LVU320
 280:funsape/peripheral/usart0.cpp ****     case Usart0::BaudRate::BAUD_RATE_38400:
 944               		.loc 1 280 5 view .LVU321
 281:funsape/peripheral/usart0.cpp ****     case Usart0::BaudRate::BAUD_RATE_56000:
 945               		.loc 1 281 5 view .LVU322
 282:funsape/peripheral/usart0.cpp ****     case Usart0::BaudRate::BAUD_RATE_57600:
 946               		.loc 1 282 5 view .LVU323
 283:funsape/peripheral/usart0.cpp ****     case Usart0::BaudRate::BAUD_RATE_115200:
 947               		.loc 1 283 5 view .LVU324
 284:funsape/peripheral/usart0.cpp ****     case Usart0::BaudRate::BAUD_RATE_128000:
 948               		.loc 1 284 5 view .LVU325
 285:funsape/peripheral/usart0.cpp ****     case Usart0::BaudRate::BAUD_RATE_230400:
 949               		.loc 1 285 5 view .LVU326
 286:funsape/peripheral/usart0.cpp ****     case Usart0::BaudRate::BAUD_RATE_256000:
 950               		.loc 1 286 5 view .LVU327
 287:funsape/peripheral/usart0.cpp ****         break;
 951               		.loc 1 287 5 view .LVU328
 288:funsape/peripheral/usart0.cpp ****     default:
 952               		.loc 1 288 9 view .LVU329
 293:funsape/peripheral/usart0.cpp ****     }
GAS LISTING /tmp/ccgDjIOO.s 			page 25


 294:funsape/peripheral/usart0.cpp **** 
 295:funsape/peripheral/usart0.cpp ****     // Updates data members
 296:funsape/peripheral/usart0.cpp ****     this->_baudRate = baudRate_p;
 953               		.loc 1 296 5 view .LVU330
 954               		.loc 1 296 21 is_stmt 0 view .LVU331
 955 00c6 4683      		std Z+6,r20
 956 00c8 5783      		std Z+7,r21
 957 00ca 6087      		std Z+8,r22
 958 00cc 7187      		std Z+9,r23
 297:funsape/peripheral/usart0.cpp **** 
 298:funsape/peripheral/usart0.cpp ****     // Returns successfully
 299:funsape/peripheral/usart0.cpp ****     this->_lastError = Error::NONE;
 959               		.loc 1 299 5 is_stmt 1 view .LVU332
 960               		.loc 1 299 22 is_stmt 0 view .LVU333
 961 00ce 1382      		std Z+3,__zero_reg__
 962 00d0 1282      		std Z+2,__zero_reg__
 300:funsape/peripheral/usart0.cpp ****     return true;
 963               		.loc 1 300 5 is_stmt 1 view .LVU334
 964               		.loc 1 300 12 is_stmt 0 view .LVU335
 965 00d2 81E0      		ldi r24,lo8(1)
 966               	/* epilogue start */
 301:funsape/peripheral/usart0.cpp **** }
 967               		.loc 1 301 1 view .LVU336
 968 00d4 0895      		ret
 969               	.L44:
 271:funsape/peripheral/usart0.cpp ****     case Usart0::BaudRate::BAUD_RATE_600:
 970               		.loc 1 271 5 view .LVU337
 971 00d6 4030      		cpi r20,0
 972 00d8 84E8      		ldi r24,-124
 973 00da 5807      		cpc r21,r24
 974 00dc 83E0      		ldi r24,3
 975 00de 6807      		cpc r22,r24
 976 00e0 7407      		cpc r23,r20
 977 00e2 01F0      		breq .L39
 978 00e4 4030      		cpi r20,0
 979 00e6 88EE      		ldi r24,-24
 980 00e8 5807      		cpc r21,r24
 981 00ea 83E0      		ldi r24,3
 982 00ec 6807      		cpc r22,r24
 983 00ee 7407      		cpc r23,r20
 984 00f0 01F0      		breq .L39
 985 00f2 4030      		cpi r20,0
 986 00f4 84EF      		ldi r24,-12
 987 00f6 5807      		cpc r21,r24
 988 00f8 81E0      		ldi r24,1
 989 00fa 6807      		cpc r22,r24
 990 00fc 7407      		cpc r23,r20
 991 00fe 01F4      		brne .L43
 992 0100 00C0      		rjmp .L39
 993               		.cfi_endproc
 994               	.LFE163:
 996               		.section	.text._ZN6Usart014setFrameFormatENS_11FrameFormatE,"ax",@progbits
 997               	.global	_ZN6Usart014setFrameFormatENS_11FrameFormatE
 999               	_ZN6Usart014setFrameFormatENS_11FrameFormatE:
 1000               	.LVL59:
 1001               	.LFB164:
 302:funsape/peripheral/usart0.cpp **** 
GAS LISTING /tmp/ccgDjIOO.s 			page 26


 303:funsape/peripheral/usart0.cpp **** bool_t Usart0::setFrameFormat(const FrameFormat frameFormat_p)
 304:funsape/peripheral/usart0.cpp **** {
 1002               		.loc 1 304 1 is_stmt 1 view -0
 1003               		.cfi_startproc
 1004               	/* prologue: function */
 1005               	/* frame size = 0 */
 1006               	/* stack size = 0 */
 1007               	.L__stack_usage = 0
 1008               		.loc 1 304 1 is_stmt 0 view .LVU339
 1009 0000 DC01      		movw r26,r24
 305:funsape/peripheral/usart0.cpp ****     // Local variables
 306:funsape/peripheral/usart0.cpp ****     uint8_t auxFrame = 0;
 1010               		.loc 1 306 5 is_stmt 1 view .LVU340
 1011               	.LVL60:
 307:funsape/peripheral/usart0.cpp **** 
 308:funsape/peripheral/usart0.cpp ****     // Resets data members
 309:funsape/peripheral/usart0.cpp ****     this->_isInitialized = false;
 1012               		.loc 1 309 5 view .LVU341
 1013               		.loc 1 309 26 is_stmt 0 view .LVU342
 1014 0002 8C91      		ld r24,X
 1015               	.LVL61:
 1016               		.loc 1 309 26 view .LVU343
 1017 0004 877F      		andi r24,lo8(~(1<<3))
 1018 0006 8C93      		st X,r24
 310:funsape/peripheral/usart0.cpp **** 
 311:funsape/peripheral/usart0.cpp ****     // Checks for errors
 312:funsape/peripheral/usart0.cpp ****     switch(frameFormat_p) {
 1019               		.loc 1 312 5 is_stmt 1 view .LVU344
 1020 0008 E62F      		mov r30,r22
 1021 000a E155      		subi r30,lo8(-(-81))
 1022 000c EA34      		cpi r30,lo8(74)
 1023 000e 00F4      		brsh .L63
 1024 0010 F0E0      		ldi r31,0
 1025 0012 E050      		subi r30,lo8(-(gs(.L65)))
 1026 0014 F040      		sbci r31,hi8(-(gs(.L65)))
 1027 0016 0C94 0000 		jmp __tablejump2__
 1028               		.section	.jumptables.gcc._ZN6Usart014setFrameFormatENS_11FrameFormatE,"a",@progbits
 1029               		.p2align	1
 1031               	.L65:
 1032 0000 0000      		.word gs(.L64)
 1033 0002 0000      		.word gs(.L64)
 1034 0004 0000      		.word gs(.L63)
 1035 0006 0000      		.word gs(.L63)
 1036 0008 0000      		.word gs(.L64)
 1037 000a 0000      		.word gs(.L64)
 1038 000c 0000      		.word gs(.L63)
 1039 000e 0000      		.word gs(.L63)
 1040 0010 0000      		.word gs(.L64)
 1041 0012 0000      		.word gs(.L64)
 1042 0014 0000      		.word gs(.L63)
 1043 0016 0000      		.word gs(.L63)
 1044 0018 0000      		.word gs(.L63)
 1045 001a 0000      		.word gs(.L63)
 1046 001c 0000      		.word gs(.L63)
 1047 001e 0000      		.word gs(.L63)
 1048 0020 0000      		.word gs(.L64)
 1049 0022 0000      		.word gs(.L64)
GAS LISTING /tmp/ccgDjIOO.s 			page 27


 1050 0024 0000      		.word gs(.L63)
 1051 0026 0000      		.word gs(.L63)
 1052 0028 0000      		.word gs(.L64)
 1053 002a 0000      		.word gs(.L64)
 1054 002c 0000      		.word gs(.L63)
 1055 002e 0000      		.word gs(.L63)
 1056 0030 0000      		.word gs(.L64)
 1057 0032 0000      		.word gs(.L64)
 1058 0034 0000      		.word gs(.L63)
 1059 0036 0000      		.word gs(.L63)
 1060 0038 0000      		.word gs(.L63)
 1061 003a 0000      		.word gs(.L63)
 1062 003c 0000      		.word gs(.L63)
 1063 003e 0000      		.word gs(.L63)
 1064 0040 0000      		.word gs(.L64)
 1065 0042 0000      		.word gs(.L64)
 1066 0044 0000      		.word gs(.L63)
 1067 0046 0000      		.word gs(.L63)
 1068 0048 0000      		.word gs(.L64)
 1069 004a 0000      		.word gs(.L64)
 1070 004c 0000      		.word gs(.L63)
 1071 004e 0000      		.word gs(.L63)
 1072 0050 0000      		.word gs(.L64)
 1073 0052 0000      		.word gs(.L64)
 1074 0054 0000      		.word gs(.L63)
 1075 0056 0000      		.word gs(.L63)
 1076 0058 0000      		.word gs(.L63)
 1077 005a 0000      		.word gs(.L63)
 1078 005c 0000      		.word gs(.L63)
 1079 005e 0000      		.word gs(.L63)
 1080 0060 0000      		.word gs(.L64)
 1081 0062 0000      		.word gs(.L64)
 1082 0064 0000      		.word gs(.L63)
 1083 0066 0000      		.word gs(.L63)
 1084 0068 0000      		.word gs(.L64)
 1085 006a 0000      		.word gs(.L64)
 1086 006c 0000      		.word gs(.L63)
 1087 006e 0000      		.word gs(.L63)
 1088 0070 0000      		.word gs(.L64)
 1089 0072 0000      		.word gs(.L64)
 1090 0074 0000      		.word gs(.L63)
 1091 0076 0000      		.word gs(.L63)
 1092 0078 0000      		.word gs(.L63)
 1093 007a 0000      		.word gs(.L63)
 1094 007c 0000      		.word gs(.L63)
 1095 007e 0000      		.word gs(.L63)
 1096 0080 0000      		.word gs(.L64)
 1097 0082 0000      		.word gs(.L64)
 1098 0084 0000      		.word gs(.L63)
 1099 0086 0000      		.word gs(.L63)
 1100 0088 0000      		.word gs(.L64)
 1101 008a 0000      		.word gs(.L64)
 1102 008c 0000      		.word gs(.L63)
 1103 008e 0000      		.word gs(.L63)
 1104 0090 0000      		.word gs(.L64)
 1105 0092 0000      		.word gs(.L64)
 1106               		.section	.text._ZN6Usart014setFrameFormatENS_11FrameFormatE
GAS LISTING /tmp/ccgDjIOO.s 			page 28


 1107               	.L63:
 313:funsape/peripheral/usart0.cpp ****     case Usart0::FrameFormat::FRAME_FORMAT_8_N_1:
 314:funsape/peripheral/usart0.cpp ****     case Usart0::FrameFormat::FRAME_FORMAT_8_O_1:
 315:funsape/peripheral/usart0.cpp ****     case Usart0::FrameFormat::FRAME_FORMAT_8_E_1:
 316:funsape/peripheral/usart0.cpp ****     case Usart0::FrameFormat::FRAME_FORMAT_8_N_2:
 317:funsape/peripheral/usart0.cpp ****     case Usart0::FrameFormat::FRAME_FORMAT_8_O_2:
 318:funsape/peripheral/usart0.cpp ****     case Usart0::FrameFormat::FRAME_FORMAT_8_E_2:
 319:funsape/peripheral/usart0.cpp ****     case Usart0::FrameFormat::FRAME_FORMAT_9_N_1:
 320:funsape/peripheral/usart0.cpp ****     case Usart0::FrameFormat::FRAME_FORMAT_9_O_1:
 321:funsape/peripheral/usart0.cpp ****     case Usart0::FrameFormat::FRAME_FORMAT_9_E_1:
 322:funsape/peripheral/usart0.cpp ****     case Usart0::FrameFormat::FRAME_FORMAT_9_N_2:
 323:funsape/peripheral/usart0.cpp ****     case Usart0::FrameFormat::FRAME_FORMAT_9_O_2:
 324:funsape/peripheral/usart0.cpp ****     case Usart0::FrameFormat::FRAME_FORMAT_9_E_2:
 325:funsape/peripheral/usart0.cpp ****     case Usart0::FrameFormat::FRAME_FORMAT_5_N_1:
 326:funsape/peripheral/usart0.cpp ****     case Usart0::FrameFormat::FRAME_FORMAT_5_O_1:
 327:funsape/peripheral/usart0.cpp ****     case Usart0::FrameFormat::FRAME_FORMAT_5_E_1:
 328:funsape/peripheral/usart0.cpp ****     case Usart0::FrameFormat::FRAME_FORMAT_5_N_2:
 329:funsape/peripheral/usart0.cpp ****     case Usart0::FrameFormat::FRAME_FORMAT_5_O_2:
 330:funsape/peripheral/usart0.cpp ****     case Usart0::FrameFormat::FRAME_FORMAT_5_E_2:
 331:funsape/peripheral/usart0.cpp ****     case Usart0::FrameFormat::FRAME_FORMAT_6_N_1:
 332:funsape/peripheral/usart0.cpp ****     case Usart0::FrameFormat::FRAME_FORMAT_6_O_1:
 333:funsape/peripheral/usart0.cpp ****     case Usart0::FrameFormat::FRAME_FORMAT_6_E_1:
 334:funsape/peripheral/usart0.cpp ****     case Usart0::FrameFormat::FRAME_FORMAT_6_N_2:
 335:funsape/peripheral/usart0.cpp ****     case Usart0::FrameFormat::FRAME_FORMAT_6_O_2:
 336:funsape/peripheral/usart0.cpp ****     case Usart0::FrameFormat::FRAME_FORMAT_6_E_2:
 337:funsape/peripheral/usart0.cpp ****     case Usart0::FrameFormat::FRAME_FORMAT_7_N_1:
 338:funsape/peripheral/usart0.cpp ****     case Usart0::FrameFormat::FRAME_FORMAT_7_O_1:
 339:funsape/peripheral/usart0.cpp ****     case Usart0::FrameFormat::FRAME_FORMAT_7_E_1:
 340:funsape/peripheral/usart0.cpp ****     case Usart0::FrameFormat::FRAME_FORMAT_7_N_2:
 341:funsape/peripheral/usart0.cpp ****     case Usart0::FrameFormat::FRAME_FORMAT_7_O_2:
 342:funsape/peripheral/usart0.cpp ****     case Usart0::FrameFormat::FRAME_FORMAT_7_E_2:
 343:funsape/peripheral/usart0.cpp ****         break;
 344:funsape/peripheral/usart0.cpp ****     default:
 1108               		.loc 1 344 5 view .LVU345
 345:funsape/peripheral/usart0.cpp ****         // Returns error
 346:funsape/peripheral/usart0.cpp ****         this->_lastError = Error::FRAME_FORMAT_NOT_SUPPORTED;
 1109               		.loc 1 346 9 view .LVU346
 1110               		.loc 1 346 26 is_stmt 0 view .LVU347
 1111 001a 89EA      		ldi r24,lo8(-87)
 1112 001c 90E0      		ldi r25,0
 1113 001e 1296      		adiw r26,2
 1114               	.LVL62:
 1115               		.loc 1 346 26 view .LVU348
 1116 0020 8D93      		st X+,r24
 1117 0022 9D93      		st X+,r25
 1118               	.LVL63:
 347:funsape/peripheral/usart0.cpp ****         return false;
 1119               		.loc 1 347 9 is_stmt 1 view .LVU349
 1120               	.L71:
 1121               		.loc 1 347 16 is_stmt 0 view .LVU350
 1122 0024 80E0      		ldi r24,0
 1123 0026 0895      		ret
 1124               	.LVL64:
 1125               	.L64:
 313:funsape/peripheral/usart0.cpp ****     case Usart0::FrameFormat::FRAME_FORMAT_8_N_1:
 1126               		.loc 1 313 5 is_stmt 1 view .LVU351
 314:funsape/peripheral/usart0.cpp ****     case Usart0::FrameFormat::FRAME_FORMAT_8_E_1:
GAS LISTING /tmp/ccgDjIOO.s 			page 29


 1127               		.loc 1 314 5 view .LVU352
 315:funsape/peripheral/usart0.cpp ****     case Usart0::FrameFormat::FRAME_FORMAT_8_N_2:
 1128               		.loc 1 315 5 view .LVU353
 316:funsape/peripheral/usart0.cpp ****     case Usart0::FrameFormat::FRAME_FORMAT_8_O_2:
 1129               		.loc 1 316 5 view .LVU354
 317:funsape/peripheral/usart0.cpp ****     case Usart0::FrameFormat::FRAME_FORMAT_8_E_2:
 1130               		.loc 1 317 5 view .LVU355
 318:funsape/peripheral/usart0.cpp ****     case Usart0::FrameFormat::FRAME_FORMAT_9_N_1:
 1131               		.loc 1 318 5 view .LVU356
 319:funsape/peripheral/usart0.cpp ****     case Usart0::FrameFormat::FRAME_FORMAT_9_O_1:
 1132               		.loc 1 319 5 view .LVU357
 320:funsape/peripheral/usart0.cpp ****     case Usart0::FrameFormat::FRAME_FORMAT_9_E_1:
 1133               		.loc 1 320 5 view .LVU358
 321:funsape/peripheral/usart0.cpp ****     case Usart0::FrameFormat::FRAME_FORMAT_9_N_2:
 1134               		.loc 1 321 5 view .LVU359
 322:funsape/peripheral/usart0.cpp ****     case Usart0::FrameFormat::FRAME_FORMAT_9_O_2:
 1135               		.loc 1 322 5 view .LVU360
 323:funsape/peripheral/usart0.cpp ****     case Usart0::FrameFormat::FRAME_FORMAT_9_E_2:
 1136               		.loc 1 323 5 view .LVU361
 324:funsape/peripheral/usart0.cpp ****     case Usart0::FrameFormat::FRAME_FORMAT_5_N_1:
 1137               		.loc 1 324 5 view .LVU362
 325:funsape/peripheral/usart0.cpp ****     case Usart0::FrameFormat::FRAME_FORMAT_5_O_1:
 1138               		.loc 1 325 5 view .LVU363
 326:funsape/peripheral/usart0.cpp ****     case Usart0::FrameFormat::FRAME_FORMAT_5_E_1:
 1139               		.loc 1 326 5 view .LVU364
 327:funsape/peripheral/usart0.cpp ****     case Usart0::FrameFormat::FRAME_FORMAT_5_N_2:
 1140               		.loc 1 327 5 view .LVU365
 328:funsape/peripheral/usart0.cpp ****     case Usart0::FrameFormat::FRAME_FORMAT_5_O_2:
 1141               		.loc 1 328 5 view .LVU366
 329:funsape/peripheral/usart0.cpp ****     case Usart0::FrameFormat::FRAME_FORMAT_5_E_2:
 1142               		.loc 1 329 5 view .LVU367
 330:funsape/peripheral/usart0.cpp ****     case Usart0::FrameFormat::FRAME_FORMAT_6_N_1:
 1143               		.loc 1 330 5 view .LVU368
 331:funsape/peripheral/usart0.cpp ****     case Usart0::FrameFormat::FRAME_FORMAT_6_O_1:
 1144               		.loc 1 331 5 view .LVU369
 332:funsape/peripheral/usart0.cpp ****     case Usart0::FrameFormat::FRAME_FORMAT_6_E_1:
 1145               		.loc 1 332 5 view .LVU370
 333:funsape/peripheral/usart0.cpp ****     case Usart0::FrameFormat::FRAME_FORMAT_6_N_2:
 1146               		.loc 1 333 5 view .LVU371
 334:funsape/peripheral/usart0.cpp ****     case Usart0::FrameFormat::FRAME_FORMAT_6_O_2:
 1147               		.loc 1 334 5 view .LVU372
 335:funsape/peripheral/usart0.cpp ****     case Usart0::FrameFormat::FRAME_FORMAT_6_E_2:
 1148               		.loc 1 335 5 view .LVU373
 336:funsape/peripheral/usart0.cpp ****     case Usart0::FrameFormat::FRAME_FORMAT_7_N_1:
 1149               		.loc 1 336 5 view .LVU374
 337:funsape/peripheral/usart0.cpp ****     case Usart0::FrameFormat::FRAME_FORMAT_7_O_1:
 1150               		.loc 1 337 5 view .LVU375
 338:funsape/peripheral/usart0.cpp ****     case Usart0::FrameFormat::FRAME_FORMAT_7_E_1:
 1151               		.loc 1 338 5 view .LVU376
 339:funsape/peripheral/usart0.cpp ****     case Usart0::FrameFormat::FRAME_FORMAT_7_N_2:
 1152               		.loc 1 339 5 view .LVU377
 340:funsape/peripheral/usart0.cpp ****     case Usart0::FrameFormat::FRAME_FORMAT_7_O_2:
 1153               		.loc 1 340 5 view .LVU378
 341:funsape/peripheral/usart0.cpp ****     case Usart0::FrameFormat::FRAME_FORMAT_7_E_2:
 1154               		.loc 1 341 5 view .LVU379
 342:funsape/peripheral/usart0.cpp ****         break;
 1155               		.loc 1 342 5 view .LVU380
GAS LISTING /tmp/ccgDjIOO.s 			page 30


 343:funsape/peripheral/usart0.cpp ****     default:
 1156               		.loc 1 343 9 view .LVU381
 348:funsape/peripheral/usart0.cpp ****     }
 349:funsape/peripheral/usart0.cpp **** 
 350:funsape/peripheral/usart0.cpp ****     // Decodes frame format
 351:funsape/peripheral/usart0.cpp ****     auxFrame = (uint8_t)frameFormat_p;
 1157               		.loc 1 351 5 view .LVU382
 352:funsape/peripheral/usart0.cpp ****     switch(auxFrame & 0x03) {
 1158               		.loc 1 352 5 view .LVU383
 1159 0028 862F      		mov r24,r22
 1160 002a 8370      		andi r24,lo8(3)
 1161 002c 8130      		cpi r24,lo8(1)
 1162 002e 01F0      		breq .L67
 1163 0030 8230      		cpi r24,lo8(2)
 1164 0032 01F0      		breq .L68
 353:funsape/peripheral/usart0.cpp ****     case 1: this->_stopBits = StopBits::SINGLE; break;
 354:funsape/peripheral/usart0.cpp ****     case 2: this->_stopBits = StopBits::DOUBLE; break;
 355:funsape/peripheral/usart0.cpp ****     default:
 1165               		.loc 1 355 5 view .LVU384
 356:funsape/peripheral/usart0.cpp ****         // Returns error
 357:funsape/peripheral/usart0.cpp ****         this->_lastError = Error::UNKNOWN;
 1166               		.loc 1 357 9 view .LVU385
 1167               		.loc 1 357 26 is_stmt 0 view .LVU386
 1168 0034 8FEF      		ldi r24,lo8(-1)
 1169 0036 9FEF      		ldi r25,lo8(-1)
 1170 0038 1296      		adiw r26,2
 1171               	.LVL65:
 1172               		.loc 1 357 26 view .LVU387
 1173 003a 8D93      		st X+,r24
 1174 003c 9D93      		st X+,r25
 1175               	.LVL66:
 358:funsape/peripheral/usart0.cpp ****         return false;
 1176               		.loc 1 358 9 is_stmt 1 view .LVU388
 1177               		.loc 1 358 16 is_stmt 0 view .LVU389
 1178 003e 00C0      		rjmp .L71
 1179               	.LVL67:
 1180               	.L67:
 353:funsape/peripheral/usart0.cpp ****     case 1: this->_stopBits = StopBits::SINGLE; break;
 1181               		.loc 1 353 5 is_stmt 1 view .LVU390
 353:funsape/peripheral/usart0.cpp ****     case 1: this->_stopBits = StopBits::SINGLE; break;
 1182               		.loc 1 353 13 view .LVU391
 353:funsape/peripheral/usart0.cpp ****     case 1: this->_stopBits = StopBits::SINGLE; break;
 1183               		.loc 1 353 29 is_stmt 0 view .LVU392
 1184 0040 1B96      		adiw r26,11
 1185               	.LVL68:
 353:funsape/peripheral/usart0.cpp ****     case 1: this->_stopBits = StopBits::SINGLE; break;
 1186               		.loc 1 353 29 view .LVU393
 1187 0042 1C92      		st X,__zero_reg__
 1188 0044 1B97      		sbiw r26,11
 1189               	.LVL69:
 353:funsape/peripheral/usart0.cpp ****     case 1: this->_stopBits = StopBits::SINGLE; break;
 1190               		.loc 1 353 49 is_stmt 1 view .LVU394
 1191               	.L70:
 359:funsape/peripheral/usart0.cpp ****     }
 360:funsape/peripheral/usart0.cpp ****     auxFrame >>= 2;
 1192               		.loc 1 360 5 view .LVU395
 1193               		.loc 1 360 14 is_stmt 0 view .LVU396
GAS LISTING /tmp/ccgDjIOO.s 			page 31


 1194 0046 862F      		mov r24,r22
 1195 0048 8695      		lsr r24
 1196 004a 8695      		lsr r24
 1197               	.LVL70:
 361:funsape/peripheral/usart0.cpp ****     switch(auxFrame & 0x03) {
 1198               		.loc 1 361 5 is_stmt 1 view .LVU397
 1199 004c 8370      		andi r24,lo8(3)
 1200               	.LVL71:
 1201               		.loc 1 361 5 is_stmt 0 view .LVU398
 1202 004e 8130      		cpi r24,lo8(1)
 1203 0050 01F0      		breq .L72
 1204 0052 8230      		cpi r24,lo8(2)
 1205 0054 01F0      		breq .L73
 1206 0056 8111      		cpse r24,__zero_reg__
 1207 0058 00C0      		rjmp .L74
 362:funsape/peripheral/usart0.cpp ****     case 0: this->_parityMode = ParityMode::NONE; break;
 1208               		.loc 1 362 5 is_stmt 1 view .LVU399
 1209               		.loc 1 362 13 view .LVU400
 1210               		.loc 1 362 31 is_stmt 0 view .LVU401
 1211 005a 1A96      		adiw r26,10
 1212 005c 1C92      		st X,__zero_reg__
 1213 005e 1A97      		sbiw r26,10
 1214               		.loc 1 362 51 is_stmt 1 view .LVU402
 1215               	.L75:
 363:funsape/peripheral/usart0.cpp ****     case 1: this->_parityMode = ParityMode::ODD; break;
 364:funsape/peripheral/usart0.cpp ****     case 2: this->_parityMode = ParityMode::EVEN; break;
 365:funsape/peripheral/usart0.cpp ****     default:
 366:funsape/peripheral/usart0.cpp ****         // Returns error
 367:funsape/peripheral/usart0.cpp ****         this->_lastError = Error::UNKNOWN;
 368:funsape/peripheral/usart0.cpp ****         return false;
 369:funsape/peripheral/usart0.cpp ****     }
 370:funsape/peripheral/usart0.cpp ****     auxFrame >>= 2;
 1216               		.loc 1 370 5 view .LVU403
 1217               		.loc 1 370 14 is_stmt 0 view .LVU404
 1218 0060 6295      		swap r22
 1219               	.LVL72:
 1220               		.loc 1 370 14 view .LVU405
 1221 0062 6F70      		andi r22,lo8(15)
 1222               	.LVL73:
 371:funsape/peripheral/usart0.cpp ****     switch(auxFrame & 0x0F) {
 1223               		.loc 1 371 5 is_stmt 1 view .LVU406
 1224 0064 6730      		cpi r22,lo8(7)
 1225 0066 01F0      		breq .L76
 1226 0068 00F0      		brlo .L86
 1227 006a 6830      		cpi r22,lo8(8)
 1228 006c 01F0      		breq .L81
 1229 006e 6930      		cpi r22,lo8(9)
 1230 0070 01F4      		brne .L80
 372:funsape/peripheral/usart0.cpp ****     case 5: this->_dataSize = DataSize::DATA_5_BITS; break;
 373:funsape/peripheral/usart0.cpp ****     case 6: this->_dataSize = DataSize::DATA_6_BITS; break;
 374:funsape/peripheral/usart0.cpp ****     case 7: this->_dataSize = DataSize::DATA_7_BITS; break;
 375:funsape/peripheral/usart0.cpp ****     case 8: this->_dataSize = DataSize::DATA_8_BITS; break;
 376:funsape/peripheral/usart0.cpp ****     case 9: this->_dataSize = DataSize::DATA_9_BITS; break;
 1231               		.loc 1 376 5 view .LVU407
 1232               		.loc 1 376 13 view .LVU408
 1233               		.loc 1 376 29 is_stmt 0 view .LVU409
 1234 0072 87E0      		ldi r24,lo8(7)
GAS LISTING /tmp/ccgDjIOO.s 			page 32


 1235 0074 1496      		adiw r26,4
 1236 0076 8C93      		st X,r24
 1237 0078 1497      		sbiw r26,4
 1238               		.loc 1 376 54 is_stmt 1 view .LVU410
 1239 007a 00C0      		rjmp .L83
 1240               	.LVL74:
 1241               	.L68:
 354:funsape/peripheral/usart0.cpp ****     default:
 1242               		.loc 1 354 5 view .LVU411
 354:funsape/peripheral/usart0.cpp ****     default:
 1243               		.loc 1 354 13 view .LVU412
 354:funsape/peripheral/usart0.cpp ****     default:
 1244               		.loc 1 354 29 is_stmt 0 view .LVU413
 1245 007c 81E0      		ldi r24,lo8(1)
 1246 007e 1B96      		adiw r26,11
 1247               	.LVL75:
 354:funsape/peripheral/usart0.cpp ****     default:
 1248               		.loc 1 354 29 view .LVU414
 1249 0080 8C93      		st X,r24
 1250 0082 1B97      		sbiw r26,11
 1251               	.LVL76:
 354:funsape/peripheral/usart0.cpp ****     default:
 1252               		.loc 1 354 49 is_stmt 1 view .LVU415
 1253 0084 00C0      		rjmp .L70
 1254               	.LVL77:
 1255               	.L72:
 363:funsape/peripheral/usart0.cpp ****     case 2: this->_parityMode = ParityMode::EVEN; break;
 1256               		.loc 1 363 5 view .LVU416
 363:funsape/peripheral/usart0.cpp ****     case 2: this->_parityMode = ParityMode::EVEN; break;
 1257               		.loc 1 363 13 view .LVU417
 363:funsape/peripheral/usart0.cpp ****     case 2: this->_parityMode = ParityMode::EVEN; break;
 1258               		.loc 1 363 31 is_stmt 0 view .LVU418
 1259 0086 1A96      		adiw r26,10
 1260 0088 8C93      		st X,r24
 1261 008a 1A97      		sbiw r26,10
 363:funsape/peripheral/usart0.cpp ****     case 2: this->_parityMode = ParityMode::EVEN; break;
 1262               		.loc 1 363 50 is_stmt 1 view .LVU419
 1263 008c 00C0      		rjmp .L75
 1264               	.L73:
 364:funsape/peripheral/usart0.cpp ****     default:
 1265               		.loc 1 364 5 view .LVU420
 364:funsape/peripheral/usart0.cpp ****     default:
 1266               		.loc 1 364 13 view .LVU421
 364:funsape/peripheral/usart0.cpp ****     default:
 1267               		.loc 1 364 31 is_stmt 0 view .LVU422
 1268 008e 1A96      		adiw r26,10
 1269 0090 8C93      		st X,r24
 1270 0092 1A97      		sbiw r26,10
 364:funsape/peripheral/usart0.cpp ****     default:
 1271               		.loc 1 364 51 is_stmt 1 view .LVU423
 1272 0094 00C0      		rjmp .L75
 1273               	.L74:
 365:funsape/peripheral/usart0.cpp ****         // Returns error
 1274               		.loc 1 365 5 view .LVU424
 367:funsape/peripheral/usart0.cpp ****         return false;
 1275               		.loc 1 367 9 view .LVU425
 367:funsape/peripheral/usart0.cpp ****         return false;
GAS LISTING /tmp/ccgDjIOO.s 			page 33


 1276               		.loc 1 367 26 is_stmt 0 view .LVU426
 1277 0096 8FEF      		ldi r24,lo8(-1)
 1278 0098 9FEF      		ldi r25,lo8(-1)
 1279 009a 1296      		adiw r26,2
 1280 009c 8D93      		st X+,r24
 1281 009e 9D93      		st X+,r25
 368:funsape/peripheral/usart0.cpp ****     }
 1282               		.loc 1 368 9 is_stmt 1 view .LVU427
 368:funsape/peripheral/usart0.cpp ****     }
 1283               		.loc 1 368 16 is_stmt 0 view .LVU428
 1284 00a0 00C0      		rjmp .L71
 1285               	.LVL78:
 1286               	.L86:
 371:funsape/peripheral/usart0.cpp ****     case 5: this->_dataSize = DataSize::DATA_5_BITS; break;
 1287               		.loc 1 371 5 view .LVU429
 1288 00a2 6530      		cpi r22,lo8(5)
 1289 00a4 01F0      		breq .L78
 1290 00a6 6630      		cpi r22,lo8(6)
 1291 00a8 01F4      		brne .L80
 373:funsape/peripheral/usart0.cpp ****     case 7: this->_dataSize = DataSize::DATA_7_BITS; break;
 1292               		.loc 1 373 5 is_stmt 1 view .LVU430
 373:funsape/peripheral/usart0.cpp ****     case 7: this->_dataSize = DataSize::DATA_7_BITS; break;
 1293               		.loc 1 373 13 view .LVU431
 373:funsape/peripheral/usart0.cpp ****     case 7: this->_dataSize = DataSize::DATA_7_BITS; break;
 1294               		.loc 1 373 29 is_stmt 0 view .LVU432
 1295 00aa 81E0      		ldi r24,lo8(1)
 1296 00ac 1496      		adiw r26,4
 1297 00ae 8C93      		st X,r24
 1298 00b0 1497      		sbiw r26,4
 373:funsape/peripheral/usart0.cpp ****     case 7: this->_dataSize = DataSize::DATA_7_BITS; break;
 1299               		.loc 1 373 54 is_stmt 1 view .LVU433
 1300 00b2 00C0      		rjmp .L83
 1301               	.L78:
 372:funsape/peripheral/usart0.cpp ****     case 6: this->_dataSize = DataSize::DATA_6_BITS; break;
 1302               		.loc 1 372 5 view .LVU434
 372:funsape/peripheral/usart0.cpp ****     case 6: this->_dataSize = DataSize::DATA_6_BITS; break;
 1303               		.loc 1 372 13 view .LVU435
 372:funsape/peripheral/usart0.cpp ****     case 6: this->_dataSize = DataSize::DATA_6_BITS; break;
 1304               		.loc 1 372 29 is_stmt 0 view .LVU436
 1305 00b4 1496      		adiw r26,4
 1306 00b6 1C92      		st X,__zero_reg__
 1307 00b8 1497      		sbiw r26,4
 372:funsape/peripheral/usart0.cpp ****     case 6: this->_dataSize = DataSize::DATA_6_BITS; break;
 1308               		.loc 1 372 54 is_stmt 1 view .LVU437
 1309 00ba 00C0      		rjmp .L83
 1310               	.L76:
 374:funsape/peripheral/usart0.cpp ****     case 8: this->_dataSize = DataSize::DATA_8_BITS; break;
 1311               		.loc 1 374 5 view .LVU438
 374:funsape/peripheral/usart0.cpp ****     case 8: this->_dataSize = DataSize::DATA_8_BITS; break;
 1312               		.loc 1 374 13 view .LVU439
 374:funsape/peripheral/usart0.cpp ****     case 8: this->_dataSize = DataSize::DATA_8_BITS; break;
 1313               		.loc 1 374 29 is_stmt 0 view .LVU440
 1314 00bc 82E0      		ldi r24,lo8(2)
 1315 00be 1496      		adiw r26,4
 1316 00c0 8C93      		st X,r24
 1317 00c2 1497      		sbiw r26,4
 374:funsape/peripheral/usart0.cpp ****     case 8: this->_dataSize = DataSize::DATA_8_BITS; break;
GAS LISTING /tmp/ccgDjIOO.s 			page 34


 1318               		.loc 1 374 54 is_stmt 1 view .LVU441
 1319 00c4 00C0      		rjmp .L83
 1320               	.L81:
 375:funsape/peripheral/usart0.cpp ****     case 9: this->_dataSize = DataSize::DATA_9_BITS; break;
 1321               		.loc 1 375 5 view .LVU442
 375:funsape/peripheral/usart0.cpp ****     case 9: this->_dataSize = DataSize::DATA_9_BITS; break;
 1322               		.loc 1 375 13 view .LVU443
 375:funsape/peripheral/usart0.cpp ****     case 9: this->_dataSize = DataSize::DATA_9_BITS; break;
 1323               		.loc 1 375 29 is_stmt 0 view .LVU444
 1324 00c6 83E0      		ldi r24,lo8(3)
 1325 00c8 1496      		adiw r26,4
 1326 00ca 8C93      		st X,r24
 1327 00cc 1497      		sbiw r26,4
 375:funsape/peripheral/usart0.cpp ****     case 9: this->_dataSize = DataSize::DATA_9_BITS; break;
 1328               		.loc 1 375 54 is_stmt 1 view .LVU445
 1329               	.L83:
 377:funsape/peripheral/usart0.cpp ****     default:
 378:funsape/peripheral/usart0.cpp ****         // Returns error
 379:funsape/peripheral/usart0.cpp ****         this->_lastError = Error::UNKNOWN;
 380:funsape/peripheral/usart0.cpp ****         return false;
 381:funsape/peripheral/usart0.cpp ****     }
 382:funsape/peripheral/usart0.cpp **** 
 383:funsape/peripheral/usart0.cpp ****     // Returns successfully
 384:funsape/peripheral/usart0.cpp ****     this->_lastError = Error::NONE;
 1330               		.loc 1 384 5 view .LVU446
 1331               		.loc 1 384 22 is_stmt 0 view .LVU447
 1332 00ce 1296      		adiw r26,2
 1333 00d0 1D92      		st X+,__zero_reg__
 1334 00d2 1D92      		st X+,__zero_reg__
 385:funsape/peripheral/usart0.cpp ****     return true;
 1335               		.loc 1 385 5 is_stmt 1 view .LVU448
 1336               		.loc 1 385 12 is_stmt 0 view .LVU449
 1337 00d4 81E0      		ldi r24,lo8(1)
 1338               	/* epilogue start */
 386:funsape/peripheral/usart0.cpp **** }
 1339               		.loc 1 386 1 view .LVU450
 1340 00d6 0895      		ret
 1341               	.L80:
 377:funsape/peripheral/usart0.cpp ****     default:
 1342               		.loc 1 377 5 is_stmt 1 view .LVU451
 379:funsape/peripheral/usart0.cpp ****         return false;
 1343               		.loc 1 379 9 view .LVU452
 379:funsape/peripheral/usart0.cpp ****         return false;
 1344               		.loc 1 379 26 is_stmt 0 view .LVU453
 1345 00d8 8FEF      		ldi r24,lo8(-1)
 1346 00da 9FEF      		ldi r25,lo8(-1)
 1347 00dc 1296      		adiw r26,2
 1348 00de 8D93      		st X+,r24
 1349 00e0 9D93      		st X+,r25
 380:funsape/peripheral/usart0.cpp ****     }
 1350               		.loc 1 380 9 is_stmt 1 view .LVU454
 380:funsape/peripheral/usart0.cpp ****     }
 1351               		.loc 1 380 16 is_stmt 0 view .LVU455
 1352 00e2 00C0      		rjmp .L71
 1353               		.cfi_endproc
 1354               	.LFE164:
 1356               		.section	.text._ZN6Usart0C2ENS_8BaudRateENS_4ModeENS_11FrameFormatE,"ax",@progbits
GAS LISTING /tmp/ccgDjIOO.s 			page 35


 1357               	.global	_ZN6Usart0C2ENS_8BaudRateENS_4ModeENS_11FrameFormatE
 1359               	_ZN6Usart0C2ENS_8BaudRateENS_4ModeENS_11FrameFormatE:
 1360               	.LVL79:
 1361               	.LFB153:
  11:funsape/peripheral/usart0.cpp **** {
 1362               		.loc 1 11 1 is_stmt 1 view -0
 1363               		.cfi_startproc
  11:funsape/peripheral/usart0.cpp **** {
 1364               		.loc 1 11 1 is_stmt 0 view .LVU457
 1365 0000 0F93      		push r16
 1366               	.LCFI13:
 1367               		.cfi_def_cfa_offset 3
 1368               		.cfi_offset 16, -2
 1369 0002 1F93      		push r17
 1370               	.LCFI14:
 1371               		.cfi_def_cfa_offset 4
 1372               		.cfi_offset 17, -3
 1373 0004 CF93      		push r28
 1374               	.LCFI15:
 1375               		.cfi_def_cfa_offset 5
 1376               		.cfi_offset 28, -4
 1377 0006 DF93      		push r29
 1378               	.LCFI16:
 1379               		.cfi_def_cfa_offset 6
 1380               		.cfi_offset 29, -5
 1381               	/* prologue: function */
 1382               	/* frame size = 0 */
 1383               	/* stack size = 4 */
 1384               	.L__stack_usage = 4
 1385 0008 EC01      		movw r28,r24
 1386 000a 122F      		mov r17,r18
 1387               	.LBB19:
  13:funsape/peripheral/usart0.cpp ****         // Returns error
 1388               		.loc 1 13 5 is_stmt 1 view .LVU458
  13:funsape/peripheral/usart0.cpp ****         // Returns error
 1389               		.loc 1 13 26 is_stmt 0 view .LVU459
 1390 000c 0E94 0000 		call _ZN6Usart011setBaudRateENS_8BaudRateE
 1391               	.LVL80:
  13:funsape/peripheral/usart0.cpp ****         // Returns error
 1392               		.loc 1 13 5 discriminator 1 view .LVU460
 1393 0010 8111      		cpse r24,__zero_reg__
 1394 0012 00C0      		rjmp .L89
 1395               	.L87:
 1396               	/* epilogue start */
 1397               	.LBE19:
  31:funsape/peripheral/usart0.cpp **** 
 1398               		.loc 1 31 1 view .LVU461
 1399 0014 DF91      		pop r29
 1400 0016 CF91      		pop r28
 1401               	.LVL81:
  31:funsape/peripheral/usart0.cpp **** 
 1402               		.loc 1 31 1 view .LVU462
 1403 0018 1F91      		pop r17
 1404               	.LVL82:
  31:funsape/peripheral/usart0.cpp **** 
 1405               		.loc 1 31 1 view .LVU463
 1406 001a 0F91      		pop r16
GAS LISTING /tmp/ccgDjIOO.s 			page 36


 1407               	.LVL83:
  31:funsape/peripheral/usart0.cpp **** 
 1408               		.loc 1 31 1 view .LVU464
 1409 001c 0895      		ret
 1410               	.LVL84:
 1411               	.L89:
 1412               	.LBB20:
  17:funsape/peripheral/usart0.cpp ****         // Returns error
 1413               		.loc 1 17 5 is_stmt 1 view .LVU465
  17:funsape/peripheral/usart0.cpp ****         // Returns error
 1414               		.loc 1 17 22 is_stmt 0 view .LVU466
 1415 001e 612F      		mov r22,r17
 1416 0020 CE01      		movw r24,r28
 1417 0022 0E94 0000 		call _ZN6Usart07setModeENS_4ModeE
 1418               	.LVL85:
  17:funsape/peripheral/usart0.cpp ****         // Returns error
 1419               		.loc 1 17 5 discriminator 1 view .LVU467
 1420 0026 8030      		cpi r24,lo8(0)
 1421 0028 01F0      		breq .L87
  21:funsape/peripheral/usart0.cpp ****         // Returns error
 1422               		.loc 1 21 5 is_stmt 1 view .LVU468
  21:funsape/peripheral/usart0.cpp ****         // Returns error
 1423               		.loc 1 21 29 is_stmt 0 view .LVU469
 1424 002a 602F      		mov r22,r16
 1425 002c CE01      		movw r24,r28
 1426 002e 0E94 0000 		call _ZN6Usart014setFrameFormatENS_11FrameFormatE
 1427               	.LVL86:
  21:funsape/peripheral/usart0.cpp ****         // Returns error
 1428               		.loc 1 21 5 discriminator 1 view .LVU470
 1429 0032 8030      		cpi r24,lo8(0)
 1430 0034 01F0      		breq .L87
  26:funsape/peripheral/usart0.cpp **** 
 1431               		.loc 1 26 5 is_stmt 1 view .LVU471
  26:funsape/peripheral/usart0.cpp **** 
 1432               		.loc 1 26 5 view .LVU472
 1433 0036 E0E0      		ldi r30,lo8(usartStream)
 1434 0038 F0E0      		ldi r31,hi8(usartStream)
 1435 003a 80E0      		ldi r24,lo8(gs(_Z23usartTransmitStdWrappercP6__file))
 1436 003c 90E0      		ldi r25,hi8(gs(_Z23usartTransmitStdWrappercP6__file))
 1437 003e 9187      		std Z+9,r25
 1438 0040 8087      		std Z+8,r24
  26:funsape/peripheral/usart0.cpp **** 
 1439               		.loc 1 26 5 view .LVU473
 1440 0042 1386      		std Z+11,__zero_reg__
 1441 0044 1286      		std Z+10,__zero_reg__
  26:funsape/peripheral/usart0.cpp **** 
 1442               		.loc 1 26 5 view .LVU474
 1443 0046 82E0      		ldi r24,lo8(2)
 1444 0048 8383      		std Z+3,r24
  26:funsape/peripheral/usart0.cpp **** 
 1445               		.loc 1 26 5 view .LVU475
 1446 004a 1586      		std Z+13,__zero_reg__
 1447 004c 1486      		std Z+12,__zero_reg__
  26:funsape/peripheral/usart0.cpp **** 
 1448               		.loc 1 26 5 view .LVU476
  29:funsape/peripheral/usart0.cpp ****     return;
 1449               		.loc 1 29 5 view .LVU477
GAS LISTING /tmp/ccgDjIOO.s 			page 37


  29:funsape/peripheral/usart0.cpp ****     return;
 1450               		.loc 1 29 22 is_stmt 0 view .LVU478
 1451 004e 1B82      		std Y+3,__zero_reg__
 1452 0050 1A82      		std Y+2,__zero_reg__
  30:funsape/peripheral/usart0.cpp **** }
 1453               		.loc 1 30 5 is_stmt 1 view .LVU479
 1454 0052 00C0      		rjmp .L87
 1455               	.LBE20:
 1456               		.cfi_endproc
 1457               	.LFE153:
 1459               	.global	_ZN6Usart0C1ENS_8BaudRateENS_4ModeENS_11FrameFormatE
 1460               		.set	_ZN6Usart0C1ENS_8BaudRateENS_4ModeENS_11FrameFormatE,_ZN6Usart0C2ENS_8BaudRateENS_4ModeENS_11
 1461               		.section	.text._Z41__static_initialization_and_destruction_0v,"ax",@progbits
 1463               	_Z41__static_initialization_and_destruction_0v:
 1464               	.LFB182:
 387:funsape/peripheral/usart0.cpp **** 
 388:funsape/peripheral/usart0.cpp **** bool_t Usart0::getReceptionErrors(ReceptionError *errorCode_p)
 389:funsape/peripheral/usart0.cpp **** {
 390:funsape/peripheral/usart0.cpp ****     // Checks for errors
 391:funsape/peripheral/usart0.cpp ****     if(!isPointerValid(errorCode_p)) {
 392:funsape/peripheral/usart0.cpp ****         // Returns error
 393:funsape/peripheral/usart0.cpp ****         this->_lastError = Error::ARGUMENT_POINTER_NULL;
 394:funsape/peripheral/usart0.cpp ****         return false;
 395:funsape/peripheral/usart0.cpp ****     }
 396:funsape/peripheral/usart0.cpp **** 
 397:funsape/peripheral/usart0.cpp ****     // Gets errors
 398:funsape/peripheral/usart0.cpp ****     *errorCode_p = ReceptionError::NONE;
 399:funsape/peripheral/usart0.cpp ****     if(this->_isDataOverrunError) {
 400:funsape/peripheral/usart0.cpp ****         *errorCode_p |= Usart0::ReceptionError::DATA_OVERRUN_ERROR;
 401:funsape/peripheral/usart0.cpp ****     }
 402:funsape/peripheral/usart0.cpp ****     if(this->_isFrameError) {
 403:funsape/peripheral/usart0.cpp ****         *errorCode_p |= Usart0::ReceptionError::FRAME_ERROR;
 404:funsape/peripheral/usart0.cpp ****     }
 405:funsape/peripheral/usart0.cpp ****     if(this->_isParityError) {
 406:funsape/peripheral/usart0.cpp ****         *errorCode_p |= Usart0::ReceptionError::PARITY_ERROR;
 407:funsape/peripheral/usart0.cpp ****     }
 408:funsape/peripheral/usart0.cpp **** 
 409:funsape/peripheral/usart0.cpp ****     // Returns successfully
 410:funsape/peripheral/usart0.cpp ****     this->_lastError = Error::NONE;
 411:funsape/peripheral/usart0.cpp ****     return true;
 412:funsape/peripheral/usart0.cpp **** }
 413:funsape/peripheral/usart0.cpp **** 
 414:funsape/peripheral/usart0.cpp **** char Usart0::_receiveDataStd(FILE *stream)
 415:funsape/peripheral/usart0.cpp **** {
 416:funsape/peripheral/usart0.cpp ****     char auxChar = 0;
 417:funsape/peripheral/usart0.cpp **** 
 418:funsape/peripheral/usart0.cpp ****     return auxChar;
 419:funsape/peripheral/usart0.cpp **** }
 420:funsape/peripheral/usart0.cpp **** 
 421:funsape/peripheral/usart0.cpp **** void Usart0::_clearDataOverrunError(void)
 422:funsape/peripheral/usart0.cpp **** {
 423:funsape/peripheral/usart0.cpp ****     clrBit(UCSR0A, DOR0);
 424:funsape/peripheral/usart0.cpp ****     return;
 425:funsape/peripheral/usart0.cpp **** }
 426:funsape/peripheral/usart0.cpp **** 
 427:funsape/peripheral/usart0.cpp **** void Usart0::_clearFrameError(void)
 428:funsape/peripheral/usart0.cpp **** {
GAS LISTING /tmp/ccgDjIOO.s 			page 38


 429:funsape/peripheral/usart0.cpp ****     clrBit(UCSR0A, FE0);
 430:funsape/peripheral/usart0.cpp ****     return;
 431:funsape/peripheral/usart0.cpp **** }
 432:funsape/peripheral/usart0.cpp **** 
 433:funsape/peripheral/usart0.cpp **** void Usart0::_clearParityError(void)
 434:funsape/peripheral/usart0.cpp **** {
 435:funsape/peripheral/usart0.cpp ****     clrBit(UCSR0A, UPE0);
 436:funsape/peripheral/usart0.cpp ****     return;
 437:funsape/peripheral/usart0.cpp **** }
 438:funsape/peripheral/usart0.cpp **** 
 439:funsape/peripheral/usart0.cpp **** bool_t Usart0::sendData(cuint16_t data_p)
 440:funsape/peripheral/usart0.cpp **** {
 441:funsape/peripheral/usart0.cpp ****     // Checks initialization
 442:funsape/peripheral/usart0.cpp ****     if(!this->_isInitialized) {
 443:funsape/peripheral/usart0.cpp ****         // Returns error
 444:funsape/peripheral/usart0.cpp ****         this->_lastError = Error::NOT_INITIALIZED;
 445:funsape/peripheral/usart0.cpp ****         return false;
 446:funsape/peripheral/usart0.cpp ****     }
 447:funsape/peripheral/usart0.cpp **** 
 448:funsape/peripheral/usart0.cpp ****     // Waits until last transmission ends
 449:funsape/peripheral/usart0.cpp ****     waitUntilBitIsSet(UCSR0A, UDRE0);
 450:funsape/peripheral/usart0.cpp **** 
 451:funsape/peripheral/usart0.cpp ****     // Stores 8th bit (if data size in 9 bits)
 452:funsape/peripheral/usart0.cpp ****     if(this->_dataSize == DataSize::DATA_9_BITS) {
 453:funsape/peripheral/usart0.cpp ****         if(isBitSet(data_p, 8)) {
 454:funsape/peripheral/usart0.cpp ****             setBit(UCSR0B, TXB80);
 455:funsape/peripheral/usart0.cpp ****         } else {
 456:funsape/peripheral/usart0.cpp ****             clrBit(UCSR0B, TXB80);
 457:funsape/peripheral/usart0.cpp ****         }
 458:funsape/peripheral/usart0.cpp ****     }
 459:funsape/peripheral/usart0.cpp ****     UDR0 = (uint8_t)data_p;
 460:funsape/peripheral/usart0.cpp **** 
 461:funsape/peripheral/usart0.cpp ****     // Returns sucessfully
 462:funsape/peripheral/usart0.cpp ****     this->_lastError = Error::NONE;
 463:funsape/peripheral/usart0.cpp ****     return true;
 464:funsape/peripheral/usart0.cpp **** }
 465:funsape/peripheral/usart0.cpp **** 
 466:funsape/peripheral/usart0.cpp **** bool_t Usart0::receiveData(uint16_t *data_p)
 467:funsape/peripheral/usart0.cpp **** {
 468:funsape/peripheral/usart0.cpp ****     // Local variables
 469:funsape/peripheral/usart0.cpp ****     uint8_t aux8;
 470:funsape/peripheral/usart0.cpp **** 
 471:funsape/peripheral/usart0.cpp ****     // Checks initialization
 472:funsape/peripheral/usart0.cpp ****     if(!this->_isInitialized) {
 473:funsape/peripheral/usart0.cpp ****         // Returns error
 474:funsape/peripheral/usart0.cpp ****         this->_lastError = Error::NOT_INITIALIZED;
 475:funsape/peripheral/usart0.cpp ****         return false;
 476:funsape/peripheral/usart0.cpp ****     }
 477:funsape/peripheral/usart0.cpp **** 
 478:funsape/peripheral/usart0.cpp ****     // Waits until last reception ends
 479:funsape/peripheral/usart0.cpp ****     waitUntilBitIsSet(UCSR0A, RXC0);
 480:funsape/peripheral/usart0.cpp **** 
 481:funsape/peripheral/usart0.cpp ****     // Checks reception erros
 482:funsape/peripheral/usart0.cpp ****     aux8 = UCSR0A;
 483:funsape/peripheral/usart0.cpp ****     this->_isDataOverrunError = isBitSet(aux8, DOR0);
 484:funsape/peripheral/usart0.cpp ****     this->_isFrameError = isBitSet(aux8, FE0);
 485:funsape/peripheral/usart0.cpp ****     this->_isParityError = isBitSet(aux8, UPE0);
GAS LISTING /tmp/ccgDjIOO.s 			page 39


 486:funsape/peripheral/usart0.cpp **** 
 487:funsape/peripheral/usart0.cpp ****     // Stores 8th bit (if data size in 9 bits)
 488:funsape/peripheral/usart0.cpp ****     *data_p = 0;
 489:funsape/peripheral/usart0.cpp ****     if(this->_dataSize == DataSize::DATA_9_BITS) {
 490:funsape/peripheral/usart0.cpp ****         *data_p = (isBitSet(UCSR0B, RXB80)) ? (1 << 8) : 0;
 491:funsape/peripheral/usart0.cpp ****     }
 492:funsape/peripheral/usart0.cpp **** 
 493:funsape/peripheral/usart0.cpp ****     // Gets received byte
 494:funsape/peripheral/usart0.cpp ****     *data_p |= UDR0;
 495:funsape/peripheral/usart0.cpp **** 
 496:funsape/peripheral/usart0.cpp ****     // Returns successfully
 497:funsape/peripheral/usart0.cpp ****     this->_lastError = Error::NONE;
 498:funsape/peripheral/usart0.cpp ****     return true;
 499:funsape/peripheral/usart0.cpp **** }
 500:funsape/peripheral/usart0.cpp **** 
 501:funsape/peripheral/usart0.cpp **** void Usart0::flushReceptionBuffer(void)
 502:funsape/peripheral/usart0.cpp **** {
 503:funsape/peripheral/usart0.cpp ****     __attribute__((unused)) uint8_t aux8;
 504:funsape/peripheral/usart0.cpp **** 
 505:funsape/peripheral/usart0.cpp ****     while(this->isReceptionComplete()) {
 506:funsape/peripheral/usart0.cpp ****         aux8 = UDR0;
 507:funsape/peripheral/usart0.cpp ****     }
 508:funsape/peripheral/usart0.cpp **** 
 509:funsape/peripheral/usart0.cpp ****     return;
 510:funsape/peripheral/usart0.cpp **** }
 511:funsape/peripheral/usart0.cpp **** 
 512:funsape/peripheral/usart0.cpp **** char Usart0::receiveDataStd(FILE *stream_p)
 513:funsape/peripheral/usart0.cpp **** {
 514:funsape/peripheral/usart0.cpp ****     waitUntilBitIsSet(UCSR0A, RXC0);	// Waits until last reception ends
 515:funsape/peripheral/usart0.cpp **** 
 516:funsape/peripheral/usart0.cpp ****     return (int16_t)UDR0;
 517:funsape/peripheral/usart0.cpp **** }
 518:funsape/peripheral/usart0.cpp **** 
 519:funsape/peripheral/usart0.cpp **** int16_t Usart0::sendDataStd(char data_p, FILE *stream_p)
 520:funsape/peripheral/usart0.cpp **** {
 521:funsape/peripheral/usart0.cpp ****     waitUntilBitIsSet(UCSR0A, UDRE0);	// Waits until last transmission ends
 522:funsape/peripheral/usart0.cpp ****     UDR0 = data_p;
 523:funsape/peripheral/usart0.cpp **** 
 524:funsape/peripheral/usart0.cpp ****     return 0;
 525:funsape/peripheral/usart0.cpp **** }
 526:funsape/peripheral/usart0.cpp **** 
 527:funsape/peripheral/usart0.cpp **** int usartTransmitStdWrapper(char c, FILE *f)
 528:funsape/peripheral/usart0.cpp **** {
 529:funsape/peripheral/usart0.cpp ****     return usartDefaultHandler->sendDataStd(c, f);
 530:funsape/peripheral/usart0.cpp **** }
 531:funsape/peripheral/usart0.cpp **** 
 532:funsape/peripheral/usart0.cpp **** // =============================================================================
 533:funsape/peripheral/usart0.cpp **** // Interrupt callback functions
 534:funsape/peripheral/usart0.cpp **** // =============================================================================
 535:funsape/peripheral/usart0.cpp **** 
 536:funsape/peripheral/usart0.cpp **** weakened void usartReceptionCompleteCallback(void)
 537:funsape/peripheral/usart0.cpp **** {
 538:funsape/peripheral/usart0.cpp ****     return;
 539:funsape/peripheral/usart0.cpp **** }
 540:funsape/peripheral/usart0.cpp **** 
 541:funsape/peripheral/usart0.cpp **** weakened void usartTransmissionBufferEmptyCallback(void)
 542:funsape/peripheral/usart0.cpp **** {
GAS LISTING /tmp/ccgDjIOO.s 			page 40


 543:funsape/peripheral/usart0.cpp ****     return;
 544:funsape/peripheral/usart0.cpp **** }
 545:funsape/peripheral/usart0.cpp **** 
 546:funsape/peripheral/usart0.cpp **** weakened void usartTransmissionCompleteCallback(void)
 547:funsape/peripheral/usart0.cpp **** {
 548:funsape/peripheral/usart0.cpp ****     return;
 549:funsape/peripheral/usart0.cpp **** }
 550:funsape/peripheral/usart0.cpp **** 
 551:funsape/peripheral/usart0.cpp **** // =============================================================================
 552:funsape/peripheral/usart0.cpp **** // Interrupt handlers
 553:funsape/peripheral/usart0.cpp **** // =============================================================================
 554:funsape/peripheral/usart0.cpp **** 
 555:funsape/peripheral/usart0.cpp **** //!
 556:funsape/peripheral/usart0.cpp **** //! \brief          USART_RX interrupt service routine
 557:funsape/peripheral/usart0.cpp **** //! \details        USART_RX interrupt service routine.
 558:funsape/peripheral/usart0.cpp **** //!
 559:funsape/peripheral/usart0.cpp **** ISR(USART_RX_vect)
 560:funsape/peripheral/usart0.cpp **** {
 561:funsape/peripheral/usart0.cpp ****     usartReceptionCompleteCallback();
 562:funsape/peripheral/usart0.cpp **** }
 563:funsape/peripheral/usart0.cpp **** 
 564:funsape/peripheral/usart0.cpp **** //!
 565:funsape/peripheral/usart0.cpp **** //! \brief          USART_TX interrupt service routine
 566:funsape/peripheral/usart0.cpp **** //! \details        USART_TX interrupt service routine.
 567:funsape/peripheral/usart0.cpp **** //!
 568:funsape/peripheral/usart0.cpp **** ISR(USART_TX_vect)
 569:funsape/peripheral/usart0.cpp **** {
 570:funsape/peripheral/usart0.cpp ****     usartTransmissionCompleteCallback();
 571:funsape/peripheral/usart0.cpp **** }
 572:funsape/peripheral/usart0.cpp **** 
 573:funsape/peripheral/usart0.cpp **** //!
 574:funsape/peripheral/usart0.cpp **** //! \brief          USART_UDRE interrupt service routine
 575:funsape/peripheral/usart0.cpp **** //! \details        USART_UDRE interrupt service routine.
 576:funsape/peripheral/usart0.cpp **** //!
 577:funsape/peripheral/usart0.cpp **** ISR(USART_UDRE_vect)
 578:funsape/peripheral/usart0.cpp **** {
 579:funsape/peripheral/usart0.cpp ****     usartTransmissionBufferEmptyCallback();
 580:funsape/peripheral/usart0.cpp **** }
 1465               		.loc 1 580 1 view -0
 1466               		.cfi_startproc
 1467 0000 0F93      		push r16
 1468               	.LCFI17:
 1469               		.cfi_def_cfa_offset 3
 1470               		.cfi_offset 16, -2
 1471               	/* prologue: function */
 1472               	/* frame size = 0 */
 1473               	/* stack size = 1 */
 1474               	.L__stack_usage = 1
   6:funsape/peripheral/usart0.cpp **** FILE usartStream;
 1475               		.loc 1 6 8 is_stmt 0 view .LVU481
 1476 0002 01E8      		ldi r16,lo8(-127)
 1477 0004 20E0      		ldi r18,0
 1478 0006 40E8      		ldi r20,lo8(-128)
 1479 0008 55E2      		ldi r21,lo8(37)
 1480 000a 60E0      		ldi r22,0
 1481 000c 70E0      		ldi r23,0
 1482 000e 80E0      		ldi r24,lo8(usart0)
GAS LISTING /tmp/ccgDjIOO.s 			page 41


 1483 0010 90E0      		ldi r25,hi8(usart0)
 1484 0012 0E94 0000 		call _ZN6Usart0C1ENS_8BaudRateENS_4ModeENS_11FrameFormatE
 1485               	.LVL87:
 1486               	/* epilogue start */
 1487               		.loc 1 580 1 view .LVU482
 1488 0016 0F91      		pop r16
 1489 0018 0895      		ret
 1490               		.cfi_endproc
 1491               	.LFE182:
 1493               		.section	.text._ZN6Usart018getReceptionErrorsEPNS_14ReceptionErrorE,"ax",@progbits
 1494               	.global	_ZN6Usart018getReceptionErrorsEPNS_14ReceptionErrorE
 1496               	_ZN6Usart018getReceptionErrorsEPNS_14ReceptionErrorE:
 1497               	.LVL88:
 1498               	.LFB165:
 389:funsape/peripheral/usart0.cpp ****     // Checks for errors
 1499               		.loc 1 389 1 is_stmt 1 view -0
 1500               		.cfi_startproc
 1501               	/* prologue: function */
 1502               	/* frame size = 0 */
 1503               	/* stack size = 0 */
 1504               	.L__stack_usage = 0
 389:funsape/peripheral/usart0.cpp ****     // Checks for errors
 1505               		.loc 1 389 1 is_stmt 0 view .LVU484
 1506 0000 DC01      		movw r26,r24
 1507 0002 FB01      		movw r30,r22
 391:funsape/peripheral/usart0.cpp ****         // Returns error
 1508               		.loc 1 391 5 is_stmt 1 view .LVU485
 1509 0004 3097      		sbiw r30,0
 1510 0006 01F0      		breq .L97
 398:funsape/peripheral/usart0.cpp ****     if(this->_isDataOverrunError) {
 1511               		.loc 1 398 5 view .LVU486
 398:funsape/peripheral/usart0.cpp ****     if(this->_isDataOverrunError) {
 1512               		.loc 1 398 18 is_stmt 0 view .LVU487
 1513 0008 1082      		st Z,__zero_reg__
 399:funsape/peripheral/usart0.cpp ****         *errorCode_p |= Usart0::ReceptionError::DATA_OVERRUN_ERROR;
 1514               		.loc 1 399 5 is_stmt 1 view .LVU488
 399:funsape/peripheral/usart0.cpp ****         *errorCode_p |= Usart0::ReceptionError::DATA_OVERRUN_ERROR;
 1515               		.loc 1 399 14 is_stmt 0 view .LVU489
 1516 000a 8C91      		ld r24,X
 1517               	.LVL89:
 399:funsape/peripheral/usart0.cpp ****         *errorCode_p |= Usart0::ReceptionError::DATA_OVERRUN_ERROR;
 1518               		.loc 1 399 5 view .LVU490
 1519 000c 80FF      		sbrs r24,0
 1520 000e 00C0      		rjmp .L94
 400:funsape/peripheral/usart0.cpp ****     }
 1521               		.loc 1 400 9 is_stmt 1 view .LVU491
 1522               	.LVL90:
 1523               	.LBB21:
 1524               	.LBI21:
 1525               		.file 2 "funsape/peripheral/usart0.hpp"
   1:funsape/peripheral/usart0.hpp **** //!
   2:funsape/peripheral/usart0.hpp **** //! \file           usart0.hpp
   3:funsape/peripheral/usart0.hpp **** //! \brief          UART/USART communication peripheral control for the FunSAPE AVR8 Library
   4:funsape/peripheral/usart0.hpp **** //! \author         Leandro Schwarz (bladabuska+funsapeavr8lib@gmail.com)
   5:funsape/peripheral/usart0.hpp **** //! \date           2024-05-08
   6:funsape/peripheral/usart0.hpp **** //! \version        24.05
   7:funsape/peripheral/usart0.hpp **** //! \copyright      license
GAS LISTING /tmp/ccgDjIOO.s 			page 42


   8:funsape/peripheral/usart0.hpp **** //! \details        UART/USART communication peripheral control for the FunSAPE AVR8 Library
   9:funsape/peripheral/usart0.hpp **** //! \todo           USART and USART in SPI mode
  10:funsape/peripheral/usart0.hpp **** //!
  11:funsape/peripheral/usart0.hpp **** 
  12:funsape/peripheral/usart0.hpp **** // =============================================================================
  13:funsape/peripheral/usart0.hpp **** // Include guard (START)
  14:funsape/peripheral/usart0.hpp **** // =============================================================================
  15:funsape/peripheral/usart0.hpp **** 
  16:funsape/peripheral/usart0.hpp **** #ifndef __USART0_HPP
  17:funsape/peripheral/usart0.hpp **** #define __USART0_HPP                2604
  18:funsape/peripheral/usart0.hpp **** 
  19:funsape/peripheral/usart0.hpp **** // =============================================================================
  20:funsape/peripheral/usart0.hpp **** // Dependencies
  21:funsape/peripheral/usart0.hpp **** // =============================================================================
  22:funsape/peripheral/usart0.hpp **** 
  23:funsape/peripheral/usart0.hpp **** //     /////////////////     GLOBAL DEFINITIONS FILE    /////////////////     //
  24:funsape/peripheral/usart0.hpp **** #include "../globalDefines.hpp"
  25:funsape/peripheral/usart0.hpp **** #if !defined(__GLOBAL_DEFINES_HPP)
  26:funsape/peripheral/usart0.hpp **** #    error "Global definitions file is corrupted!"
  27:funsape/peripheral/usart0.hpp **** #elif __GLOBAL_DEFINES_HPP != __USART0_HPP
  28:funsape/peripheral/usart0.hpp **** #    error "Version mismatch between file header and global definitions file!"
  29:funsape/peripheral/usart0.hpp **** #endif
  30:funsape/peripheral/usart0.hpp **** 
  31:funsape/peripheral/usart0.hpp **** //     //////////////////     LIBRARY DEPENDENCIES     //////////////////     //
  32:funsape/peripheral/usart0.hpp **** #include "../util/debug.hpp"
  33:funsape/peripheral/usart0.hpp **** #if !defined(__DEBUG_HPP)
  34:funsape/peripheral/usart0.hpp **** #   error "Header file (debug.hpp) is corrupted!"
  35:funsape/peripheral/usart0.hpp **** #elif __DEBUG_HPP != __USART0_HPP
  36:funsape/peripheral/usart0.hpp **** #   error "Version mismatch between header file and library dependency (debug.hpp)!"
  37:funsape/peripheral/usart0.hpp **** #endif
  38:funsape/peripheral/usart0.hpp **** 
  39:funsape/peripheral/usart0.hpp **** #include "../util/systemStatus.hpp"
  40:funsape/peripheral/usart0.hpp **** #if !defined(__SYSTEM_STATUS_HPP)
  41:funsape/peripheral/usart0.hpp **** #   error "Header file (systemStatus.hpp) is corrupted!"
  42:funsape/peripheral/usart0.hpp **** #elif __SYSTEM_STATUS_HPP != __USART0_HPP
  43:funsape/peripheral/usart0.hpp **** #   error "Version mismatch between header file and library dependency (systemStatus.hpp)!"
  44:funsape/peripheral/usart0.hpp **** #endif
  45:funsape/peripheral/usart0.hpp **** 
  46:funsape/peripheral/usart0.hpp **** // +++++++++++++++++++++++++++++++++++++++++++++++++++++++++++++++++++++++++++++
  47:funsape/peripheral/usart0.hpp **** // Doxygen: Start main group "Peripherals"
  48:funsape/peripheral/usart0.hpp **** // +++++++++++++++++++++++++++++++++++++++++++++++++++++++++++++++++++++++++++++
  49:funsape/peripheral/usart0.hpp **** //!
  50:funsape/peripheral/usart0.hpp **** //! \addtogroup     Peripherals
  51:funsape/peripheral/usart0.hpp **** //! \brief          Microcontroller peripherals.
  52:funsape/peripheral/usart0.hpp **** //! \{
  53:funsape/peripheral/usart0.hpp **** //!
  54:funsape/peripheral/usart0.hpp **** 
  55:funsape/peripheral/usart0.hpp **** // +++++++++++++++++++++++++++++++++++++++++++++++++++++++++++++++++++++++++++++
  56:funsape/peripheral/usart0.hpp **** // Doxygen: Start subgroup "Peripherals/Usart0"
  57:funsape/peripheral/usart0.hpp **** // +++++++++++++++++++++++++++++++++++++++++++++++++++++++++++++++++++++++++++++
  58:funsape/peripheral/usart0.hpp **** //!
  59:funsape/peripheral/usart0.hpp **** //! \addtogroup     Usart0
  60:funsape/peripheral/usart0.hpp **** //! \brief          Universal Synchronous/Asynchronous Receiver/Transmitter 0
  61:funsape/peripheral/usart0.hpp **** //!                     (USART0) controller module.
  62:funsape/peripheral/usart0.hpp **** //! \{
  63:funsape/peripheral/usart0.hpp **** //!
  64:funsape/peripheral/usart0.hpp **** 
GAS LISTING /tmp/ccgDjIOO.s 			page 43


  65:funsape/peripheral/usart0.hpp **** // =============================================================================
  66:funsape/peripheral/usart0.hpp **** // External global variables
  67:funsape/peripheral/usart0.hpp **** // =============================================================================
  68:funsape/peripheral/usart0.hpp **** 
  69:funsape/peripheral/usart0.hpp **** //!
  70:funsape/peripheral/usart0.hpp **** //! \cond
  71:funsape/peripheral/usart0.hpp **** //!
  72:funsape/peripheral/usart0.hpp **** 
  73:funsape/peripheral/usart0.hpp **** extern FILE usartStream;
  74:funsape/peripheral/usart0.hpp **** 
  75:funsape/peripheral/usart0.hpp **** //!
  76:funsape/peripheral/usart0.hpp **** //! \endcond
  77:funsape/peripheral/usart0.hpp **** //!
  78:funsape/peripheral/usart0.hpp **** 
  79:funsape/peripheral/usart0.hpp **** // =============================================================================
  80:funsape/peripheral/usart0.hpp **** // Undefining previous definitions
  81:funsape/peripheral/usart0.hpp **** // =============================================================================
  82:funsape/peripheral/usart0.hpp **** 
  83:funsape/peripheral/usart0.hpp **** // NONE
  84:funsape/peripheral/usart0.hpp **** 
  85:funsape/peripheral/usart0.hpp **** // =============================================================================
  86:funsape/peripheral/usart0.hpp **** // Constant definitions
  87:funsape/peripheral/usart0.hpp **** // =============================================================================
  88:funsape/peripheral/usart0.hpp **** 
  89:funsape/peripheral/usart0.hpp **** // NONE
  90:funsape/peripheral/usart0.hpp **** 
  91:funsape/peripheral/usart0.hpp **** // =============================================================================
  92:funsape/peripheral/usart0.hpp **** // New data types
  93:funsape/peripheral/usart0.hpp **** // =============================================================================
  94:funsape/peripheral/usart0.hpp **** 
  95:funsape/peripheral/usart0.hpp **** // NONE
  96:funsape/peripheral/usart0.hpp **** 
  97:funsape/peripheral/usart0.hpp **** // =============================================================================
  98:funsape/peripheral/usart0.hpp **** // Interrupt callback functions
  99:funsape/peripheral/usart0.hpp **** // =============================================================================
 100:funsape/peripheral/usart0.hpp **** 
 101:funsape/peripheral/usart0.hpp **** //!
 102:funsape/peripheral/usart0.hpp **** //! \brief          USART Reception Complete interrupt callback function.
 103:funsape/peripheral/usart0.hpp **** //! \details        This function is called when the USART Reception Complete
 104:funsape/peripheral/usart0.hpp **** //!                     interrupt is treated. It is a weak function that can be
 105:funsape/peripheral/usart0.hpp **** //!                     overwritten by user code.
 106:funsape/peripheral/usart0.hpp **** //!
 107:funsape/peripheral/usart0.hpp **** void usartReceptionCompleteCallback(void);
 108:funsape/peripheral/usart0.hpp **** 
 109:funsape/peripheral/usart0.hpp **** //!
 110:funsape/peripheral/usart0.hpp **** //! \brief          USART Transmission Buffer Empty interrupt callback function.
 111:funsape/peripheral/usart0.hpp **** //! \details        This function is called when the USART Transmission Buffer
 112:funsape/peripheral/usart0.hpp **** //!                     Empty interrupt is treated. It is a weak function that
 113:funsape/peripheral/usart0.hpp **** //!                     can be overwritten by user code.
 114:funsape/peripheral/usart0.hpp **** //!
 115:funsape/peripheral/usart0.hpp **** void usartTransmissionBufferEmptyCallback(void);
 116:funsape/peripheral/usart0.hpp **** 
 117:funsape/peripheral/usart0.hpp **** //!
 118:funsape/peripheral/usart0.hpp **** //! \brief          USART Transmission Complete interrupt callback function.
 119:funsape/peripheral/usart0.hpp **** //! \details        This function is called when the USART Transmission Complete
 120:funsape/peripheral/usart0.hpp **** //!                     interrupt is treated. It is a weak function that can be
 121:funsape/peripheral/usart0.hpp **** //!                     overwritten by user code.
GAS LISTING /tmp/ccgDjIOO.s 			page 44


 122:funsape/peripheral/usart0.hpp **** //!
 123:funsape/peripheral/usart0.hpp **** void usartTransmissionCompleteCallback(void);
 124:funsape/peripheral/usart0.hpp **** 
 125:funsape/peripheral/usart0.hpp **** // =============================================================================
 126:funsape/peripheral/usart0.hpp **** // Usart Class
 127:funsape/peripheral/usart0.hpp **** // =============================================================================
 128:funsape/peripheral/usart0.hpp **** 
 129:funsape/peripheral/usart0.hpp **** //!
 130:funsape/peripheral/usart0.hpp **** //! \brief          Usart0 class.
 131:funsape/peripheral/usart0.hpp **** //! \details        This class manages the Universal Synchronous/Asynchronous
 132:funsape/peripheral/usart0.hpp **** //!                     Receiver/Transmitter 0 (USART0) peripheral.
 133:funsape/peripheral/usart0.hpp **** //! \warning        An instance of this class is already defined as a global
 134:funsape/peripheral/usart0.hpp **** //!                     object. Therefore, there is not necessary, neither
 135:funsape/peripheral/usart0.hpp **** //!                     recommended to create another object of this class.
 136:funsape/peripheral/usart0.hpp **** //!
 137:funsape/peripheral/usart0.hpp **** class Usart0
 138:funsape/peripheral/usart0.hpp **** {
 139:funsape/peripheral/usart0.hpp ****     // -------------------------------------------------------------------------
 140:funsape/peripheral/usart0.hpp ****     // New data types ----------------------------------------------------------
 141:funsape/peripheral/usart0.hpp **** public:
 142:funsape/peripheral/usart0.hpp **** 
 143:funsape/peripheral/usart0.hpp ****     //     ///////////////     USART0 Operation Mode     ////////////////     //
 144:funsape/peripheral/usart0.hpp ****     //!
 145:funsape/peripheral/usart0.hpp ****     //! \brief      USART0 Operation Mode enumeration.
 146:funsape/peripheral/usart0.hpp ****     //! \details    Operation mode associated with the USART0.
 147:funsape/peripheral/usart0.hpp ****     //! \warning    The value associate with the symbolic names may change
 148:funsape/peripheral/usart0.hpp ****     //!                 between builds and might not reflect the register/bits
 149:funsape/peripheral/usart0.hpp ****     //!                 real values. In order to ensure compatibility between
 150:funsape/peripheral/usart0.hpp ****     //!                 builds, always refer to the SYMBOLIC NAME, instead of
 151:funsape/peripheral/usart0.hpp ****     //!                 the VALUE.
 152:funsape/peripheral/usart0.hpp ****     //!
 153:funsape/peripheral/usart0.hpp ****     enum class Mode : uint8_t {
 154:funsape/peripheral/usart0.hpp ****         ASYNCHRONOUS                            = 0,    //!< Peripheral in UART without double spee
 155:funsape/peripheral/usart0.hpp ****         ASYNCHRONOUS_DOUBLE_SPEED               = 1,    //!< Peripheral in UART with double speed m
 156:funsape/peripheral/usart0.hpp ****         SYNCHRONOUS_TX_RISING_RX_FALLING        = 2,    //!< Peripheral in USART mode on falling ed
 157:funsape/peripheral/usart0.hpp ****         SYNCHRONOUS_TX_FALLING_RX_RISING        = 3,    //!< Peripheral in USART mode on rising edg
 158:funsape/peripheral/usart0.hpp ****         MASTER_SPI_MODE_0                       = 4,    //!< Peripheral in master SPI mode 0.
 159:funsape/peripheral/usart0.hpp ****         MASTER_SPI_MODE_1                       = 5,    //!< Peripheral in master SPI mode 1.
 160:funsape/peripheral/usart0.hpp ****         MASTER_SPI_MODE_2                       = 6,    //!< Peripheral in master SPI mode 2.
 161:funsape/peripheral/usart0.hpp ****         MASTER_SPI_MODE_3                       = 7,    //!< Peripheral in master SPI mode 3.
 162:funsape/peripheral/usart0.hpp ****     };
 163:funsape/peripheral/usart0.hpp **** 
 164:funsape/peripheral/usart0.hpp ****     //     ///////////////    USART0 Reception Error     ////////////////     //
 165:funsape/peripheral/usart0.hpp ****     //!
 166:funsape/peripheral/usart0.hpp ****     //! \brief      USART0 Reception Error enumeration.
 167:funsape/peripheral/usart0.hpp ****     //! \details    Reception error associated with the USART0.
 168:funsape/peripheral/usart0.hpp ****     //! \warning    The value associate with the symbolic names may change
 169:funsape/peripheral/usart0.hpp ****     //!                 between builds and might not reflect the register/bits
 170:funsape/peripheral/usart0.hpp ****     //!                 real values. In order to ensure compatibility between
 171:funsape/peripheral/usart0.hpp ****     //!                 builds, always refer to the SYMBOLIC NAME, instead of
 172:funsape/peripheral/usart0.hpp ****     //!                 the VALUE.
 173:funsape/peripheral/usart0.hpp ****     //!
 174:funsape/peripheral/usart0.hpp ****     enum class ReceptionError : uint8_t {
 175:funsape/peripheral/usart0.hpp ****         NONE                            = 0,            //!< No reception errors occurred.
 176:funsape/peripheral/usart0.hpp ****         FRAME_ERROR                     = (1 << 0),     //!< Frame format invalid.
 177:funsape/peripheral/usart0.hpp ****         PARITY_ERROR                    = (1 << 1),     //!< Parity check failed.
 178:funsape/peripheral/usart0.hpp ****         DATA_OVERRUN_ERROR              = (1 << 2),     //!< Data lost.
GAS LISTING /tmp/ccgDjIOO.s 			page 45


 179:funsape/peripheral/usart0.hpp ****         ALL                             = (1 << 0) | (1 << 1) | (1 << 2) //!< All errors
 180:funsape/peripheral/usart0.hpp ****     };
 181:funsape/peripheral/usart0.hpp **** 
 182:funsape/peripheral/usart0.hpp ****     // friend inlined ReceptionError operator|(ReceptionError a, ReceptionError b);
 183:funsape/peripheral/usart0.hpp ****     // friend inlined ReceptionError &operator|=(ReceptionError &a, ReceptionError b);
 184:funsape/peripheral/usart0.hpp ****     // friend inlined ReceptionError operator&(ReceptionError a, ReceptionError b);
 185:funsape/peripheral/usart0.hpp ****     // friend inlined ReceptionError &operator&=(ReceptionError &a, ReceptionError b);
 186:funsape/peripheral/usart0.hpp ****     // friend inlined ReceptionError operator~(ReceptionError a);
 187:funsape/peripheral/usart0.hpp **** 
 188:funsape/peripheral/usart0.hpp ****     //     /////////////////    USART0 Parity Mode     //////////////////     //
 189:funsape/peripheral/usart0.hpp ****     //!
 190:funsape/peripheral/usart0.hpp ****     //! \brief      USART0 Parity Mode enumeration.
 191:funsape/peripheral/usart0.hpp ****     //! \details    Parity mode associated with the USART0.
 192:funsape/peripheral/usart0.hpp ****     //! \warning    The value associate with the symbolic names may change
 193:funsape/peripheral/usart0.hpp ****     //!                 between builds and might not reflect the register/bits
 194:funsape/peripheral/usart0.hpp ****     //!                 real values. In order to ensure compatibility between
 195:funsape/peripheral/usart0.hpp ****     //!                 builds, always refer to the SYMBOLIC NAME, instead of
 196:funsape/peripheral/usart0.hpp ****     //!                 the VALUE.
 197:funsape/peripheral/usart0.hpp ****     //!
 198:funsape/peripheral/usart0.hpp ****     enum class ParityMode : uint8_t {
 199:funsape/peripheral/usart0.hpp ****         NONE                            = 0,    //!< No parity.
 200:funsape/peripheral/usart0.hpp ****         ODD                             = 1,    //!< Odd parity.
 201:funsape/peripheral/usart0.hpp ****         EVEN                            = 2     //!< Even parity.
 202:funsape/peripheral/usart0.hpp ****     };
 203:funsape/peripheral/usart0.hpp **** 
 204:funsape/peripheral/usart0.hpp ****     //     //////////////////     USART0 StopBits     ///////////////////     //
 205:funsape/peripheral/usart0.hpp ****     //!
 206:funsape/peripheral/usart0.hpp ****     //! \brief      USART0 StopBits enumeration.
 207:funsape/peripheral/usart0.hpp ****     //! \details    Number of stop bits associated with the USART0.
 208:funsape/peripheral/usart0.hpp ****     //! \warning    The value associate with the symbolic names may change
 209:funsape/peripheral/usart0.hpp ****     //!                 between builds and might not reflect the register/bits
 210:funsape/peripheral/usart0.hpp ****     //!                 real values. In order to ensure compatibility between
 211:funsape/peripheral/usart0.hpp ****     //!                 builds, always refer to the SYMBOLIC NAME, instead of
 212:funsape/peripheral/usart0.hpp ****     //!                 the VALUE.
 213:funsape/peripheral/usart0.hpp ****     //!
 214:funsape/peripheral/usart0.hpp ****     enum class StopBits : uint8_t {
 215:funsape/peripheral/usart0.hpp ****         SINGLE                          = 0,    //!< One stop bit.
 216:funsape/peripheral/usart0.hpp ****         DOUBLE                          = 1     //|< Two stop bits.
 217:funsape/peripheral/usart0.hpp ****     };
 218:funsape/peripheral/usart0.hpp **** 
 219:funsape/peripheral/usart0.hpp ****     //     //////////////////     USART0 DataSize     ///////////////////     //
 220:funsape/peripheral/usart0.hpp ****     //!
 221:funsape/peripheral/usart0.hpp ****     //! \brief      USART0 DataSize enumeration.
 222:funsape/peripheral/usart0.hpp ****     //! \details    Data size associated with the USART0.
 223:funsape/peripheral/usart0.hpp ****     //! \warning    The value associate with the symbolic names may change
 224:funsape/peripheral/usart0.hpp ****     //!                 between builds and might not reflect the register/bits
 225:funsape/peripheral/usart0.hpp ****     //!                 real values. In order to ensure compatibility between
 226:funsape/peripheral/usart0.hpp ****     //!                 builds, always refer to the SYMBOLIC NAME, instead of
 227:funsape/peripheral/usart0.hpp ****     //!                 the VALUE.
 228:funsape/peripheral/usart0.hpp ****     //!
 229:funsape/peripheral/usart0.hpp ****     enum class DataSize : uint8_t {
 230:funsape/peripheral/usart0.hpp ****         DATA_5_BITS                     = 0,    //!< 5 data bits.
 231:funsape/peripheral/usart0.hpp ****         DATA_6_BITS                     = 1,    //!< 6 data bits.
 232:funsape/peripheral/usart0.hpp ****         DATA_7_BITS                     = 2,    //!< 7 data bits.
 233:funsape/peripheral/usart0.hpp ****         DATA_8_BITS                     = 3,    //!< 8 data bits.
 234:funsape/peripheral/usart0.hpp ****         DATA_9_BITS                     = 7,    //!< 9 data bits.
 235:funsape/peripheral/usart0.hpp ****     };
GAS LISTING /tmp/ccgDjIOO.s 			page 46


 236:funsape/peripheral/usart0.hpp **** 
 237:funsape/peripheral/usart0.hpp ****     //     /////////////////    USART0 FrameFormat     //////////////////     //
 238:funsape/peripheral/usart0.hpp ****     //!
 239:funsape/peripheral/usart0.hpp ****     //! \brief      USART0 FrameFormat enumeration.
 240:funsape/peripheral/usart0.hpp ****     //! \details    Frame format mode associated with the USART0.
 241:funsape/peripheral/usart0.hpp ****     //! \warning    The value associate with the symbolic names may change
 242:funsape/peripheral/usart0.hpp ****     //!                 between builds and might not reflect the register/bits
 243:funsape/peripheral/usart0.hpp ****     //!                 real values. In order to ensure compatibility between
 244:funsape/peripheral/usart0.hpp ****     //!                 builds, always refer to the SYMBOLIC NAME, instead of
 245:funsape/peripheral/usart0.hpp ****     //!                 the VALUE.
 246:funsape/peripheral/usart0.hpp ****     //!
 247:funsape/peripheral/usart0.hpp ****     enum class FrameFormat : uint8_t {
 248:funsape/peripheral/usart0.hpp ****         //                      = 0bDDDDPPSS
 249:funsape/peripheral/usart0.hpp ****         // DDDD -> Number of data bits (5-8)
 250:funsape/peripheral/usart0.hpp ****         // PP   -> Parity (NONE / ODD / EVEN)
 251:funsape/peripheral/usart0.hpp ****         // SS   -> Number of stop bits (1-2)
 252:funsape/peripheral/usart0.hpp ****         FRAME_FORMAT_8_N_1        = 0b10000001,    //!< 8 data bits / Parity NONE / 1 stop bit.
 253:funsape/peripheral/usart0.hpp ****         FRAME_FORMAT_8_O_1        = 0b10000101,    //!< 8 data bits / Parity ODD / 1 stop bit.
 254:funsape/peripheral/usart0.hpp ****         FRAME_FORMAT_8_E_1        = 0b10001001,    //!< 8 data bits / Parity EVEN / 1 stop bit.
 255:funsape/peripheral/usart0.hpp ****         FRAME_FORMAT_8_N_2        = 0b10000010,    //!< 8 data bits / Parity NONE / 2 stop bit.
 256:funsape/peripheral/usart0.hpp ****         FRAME_FORMAT_8_O_2        = 0b10000110,    //!< 8 data bits / Parity ODD / 2 stop bit.
 257:funsape/peripheral/usart0.hpp ****         FRAME_FORMAT_8_E_2        = 0b10001010,    //!< 8 data bits / Parity EVEN / 2 stop bit.
 258:funsape/peripheral/usart0.hpp ****         FRAME_FORMAT_9_N_1        = 0b10010001,    //!< 9 data bits / Parity NONE / 1 stop bit.
 259:funsape/peripheral/usart0.hpp ****         FRAME_FORMAT_9_O_1        = 0b10010101,    //!< 9 data bits / Parity ODD / 1 stop bit.
 260:funsape/peripheral/usart0.hpp ****         FRAME_FORMAT_9_E_1        = 0b10011001,    //!< 9 data bits / Parity EVEN / 1 stop bit.
 261:funsape/peripheral/usart0.hpp ****         FRAME_FORMAT_9_N_2        = 0b10010010,    //!< 9 data bits / Parity NONE / 2 stop bit.
 262:funsape/peripheral/usart0.hpp ****         FRAME_FORMAT_9_O_2        = 0b10010110,    //!< 9 data bits / Parity ODD / 2 stop bit.
 263:funsape/peripheral/usart0.hpp ****         FRAME_FORMAT_9_E_2        = 0b10011010,    //!< 9 data bits / Parity EVEN / 2 stop bit.
 264:funsape/peripheral/usart0.hpp ****         FRAME_FORMAT_5_N_1        = 0b01010001,    //!< 5 data bits / Parity NONE / 1 stop bit.
 265:funsape/peripheral/usart0.hpp ****         FRAME_FORMAT_5_O_1        = 0b01010101,    //!< 5 data bits / Parity ODD / 1 stop bit.
 266:funsape/peripheral/usart0.hpp ****         FRAME_FORMAT_5_E_1        = 0b01011001,    //!< 5 data bits / Parity EVEN / 1 stop bit.
 267:funsape/peripheral/usart0.hpp ****         FRAME_FORMAT_5_N_2        = 0b01010010,    //!< 5 data bits / Parity NONE / 2 stop bit.
 268:funsape/peripheral/usart0.hpp ****         FRAME_FORMAT_5_O_2        = 0b01010110,    //!< 5 data bits / Parity ODD / 2 stop bit.
 269:funsape/peripheral/usart0.hpp ****         FRAME_FORMAT_5_E_2        = 0b01011010,    //!< 5 data bits / Parity EVEN / 2 stop bit.
 270:funsape/peripheral/usart0.hpp ****         FRAME_FORMAT_6_N_1        = 0b01100001,    //!< 7 data bits / Parity NONE / 1 stop bit.
 271:funsape/peripheral/usart0.hpp ****         FRAME_FORMAT_6_O_1        = 0b01100101,    //!< 7 data bits / Parity ODD / 1 stop bit.
 272:funsape/peripheral/usart0.hpp ****         FRAME_FORMAT_6_E_1        = 0b01101001,    //!< 7 data bits / Parity EVEN / 1 stop bit.
 273:funsape/peripheral/usart0.hpp ****         FRAME_FORMAT_6_N_2        = 0b01100010,    //!< 7 data bits / Parity NONE / 2 stop bit.
 274:funsape/peripheral/usart0.hpp ****         FRAME_FORMAT_6_O_2        = 0b01100110,    //!< 7 data bits / Parity ODD / 2 stop bit.
 275:funsape/peripheral/usart0.hpp ****         FRAME_FORMAT_6_E_2        = 0b01101010,    //!< 7 data bits / Parity EVEN / 2 stop bit.
 276:funsape/peripheral/usart0.hpp ****         FRAME_FORMAT_7_N_1        = 0b01110001,    //!< 7 data bits / Parity NONE / 1 stop bit.
 277:funsape/peripheral/usart0.hpp ****         FRAME_FORMAT_7_O_1        = 0b01110101,    //!< 7 data bits / Parity ODD / 1 stop bit.
 278:funsape/peripheral/usart0.hpp ****         FRAME_FORMAT_7_E_1        = 0b01111001,    //!< 7 data bits / Parity EVEN / 1 stop bit.
 279:funsape/peripheral/usart0.hpp ****         FRAME_FORMAT_7_N_2        = 0b01110010,    //!< 7 data bits / Parity NONE / 2 stop bit.
 280:funsape/peripheral/usart0.hpp ****         FRAME_FORMAT_7_O_2        = 0b01110110,    //!< 7 data bits / Parity ODD / 2 stop bit.
 281:funsape/peripheral/usart0.hpp ****         FRAME_FORMAT_7_E_2        = 0b01111010,    //!< 7 data bits / Parity EVEN / 2 stop bit.
 282:funsape/peripheral/usart0.hpp ****     };
 283:funsape/peripheral/usart0.hpp **** 
 284:funsape/peripheral/usart0.hpp ****     //     //////////////////    USART0 Baud Rate     ///////////////////     //
 285:funsape/peripheral/usart0.hpp ****     //!
 286:funsape/peripheral/usart0.hpp ****     //! \brief      USART0 Baud Rate enumeration.
 287:funsape/peripheral/usart0.hpp ****     //! \details    Baud rate speed associated with the USART0.
 288:funsape/peripheral/usart0.hpp ****     //! \warning    The value associate with the symbolic names may change
 289:funsape/peripheral/usart0.hpp ****     //!                 between builds and might not reflect the register/bits
 290:funsape/peripheral/usart0.hpp ****     //!                 real values. In order to ensure compatibility between
 291:funsape/peripheral/usart0.hpp ****     //!                 builds, always refer to the SYMBOLIC NAME, instead of
 292:funsape/peripheral/usart0.hpp ****     //!                 the VALUE.
GAS LISTING /tmp/ccgDjIOO.s 			page 47


 293:funsape/peripheral/usart0.hpp ****     //!
 294:funsape/peripheral/usart0.hpp ****     enum class BaudRate : uint32_t {
 295:funsape/peripheral/usart0.hpp ****         BAUD_RATE_600                   = 600UL,        //!< Baud rate = 600 bps.
 296:funsape/peripheral/usart0.hpp ****         BAUD_RATE_1200                  = 1200UL,       //!< Baud rate = 1,200 bps.
 297:funsape/peripheral/usart0.hpp ****         BAUD_RATE_1800                  = 1800UL,       //!< Baud rate = 1,800 bps.
 298:funsape/peripheral/usart0.hpp ****         BAUD_RATE_2400                  = 2400UL,       //!< Baud rate = 2,400 bps.
 299:funsape/peripheral/usart0.hpp ****         BAUD_RATE_4800                  = 4800UL,       //!< Baud rate = 4,800 bps.
 300:funsape/peripheral/usart0.hpp ****         BAUD_RATE_9600                  = 9600UL,       //!< Baud rate = 9,600 bps.
 301:funsape/peripheral/usart0.hpp ****         BAUD_RATE_14400                 = 14400UL,      //!< Baud rate = 14,400 bps.
 302:funsape/peripheral/usart0.hpp ****         BAUD_RATE_19200                 = 19200UL,      //!< Baud rate = 19,200 bps.
 303:funsape/peripheral/usart0.hpp ****         BAUD_RATE_28800                 = 28800UL,      //!< Baud rate = 28,800 bps.
 304:funsape/peripheral/usart0.hpp ****         BAUD_RATE_38400                 = 38400UL,      //!< Baud rate = 38,400 bps.
 305:funsape/peripheral/usart0.hpp ****         BAUD_RATE_56000                 = 56000UL,      //!< Baud rate = 56,000 bps.
 306:funsape/peripheral/usart0.hpp ****         BAUD_RATE_57600                 = 57600UL,      //!< Baud rate = 57,600 bps.
 307:funsape/peripheral/usart0.hpp ****         BAUD_RATE_115200                = 115200UL,     //!< Baud rate = 115,200 bps.
 308:funsape/peripheral/usart0.hpp ****         BAUD_RATE_128000                = 128000UL,     //!< Baud rate = 128,000 bps.
 309:funsape/peripheral/usart0.hpp ****         BAUD_RATE_230400                = 230400UL,     //!< Baud rate = 230,400 bps.
 310:funsape/peripheral/usart0.hpp ****         BAUD_RATE_256000                = 256000UL      //!< Baud rate = 256,000 bps.
 311:funsape/peripheral/usart0.hpp ****     };
 312:funsape/peripheral/usart0.hpp ****     // -------------------------------------------------------------------------
 313:funsape/peripheral/usart0.hpp ****     // Constructors ------------------------------------------------------------
 314:funsape/peripheral/usart0.hpp **** public:
 315:funsape/peripheral/usart0.hpp ****     //!
 316:funsape/peripheral/usart0.hpp ****     //! \brief      Usart0 class constructor.
 317:funsape/peripheral/usart0.hpp ****     //! \details    Creates an Usart0 object. The object is loaded with the
 318:funsape/peripheral/usart0.hpp ****     //!                 default register values (BaudRate::BAUD_RATE_9600,
 319:funsape/peripheral/usart0.hpp ****     //!                 Mode::ASYNCHRONOUS and FrameFormat::FRAME_FORMAT_8_N_1).
 320:funsape/peripheral/usart0.hpp ****     //!                 The object still must be initialized before use.
 321:funsape/peripheral/usart0.hpp ****     //! \see        init(void).
 322:funsape/peripheral/usart0.hpp ****     //!
 323:funsape/peripheral/usart0.hpp ****     Usart0(
 324:funsape/peripheral/usart0.hpp ****             BaudRate baudRate_p = BaudRate::BAUD_RATE_9600,
 325:funsape/peripheral/usart0.hpp ****             Mode mode_p = Mode::ASYNCHRONOUS,
 326:funsape/peripheral/usart0.hpp ****             FrameFormat format = FrameFormat::FRAME_FORMAT_8_N_1
 327:funsape/peripheral/usart0.hpp ****     );
 328:funsape/peripheral/usart0.hpp **** 
 329:funsape/peripheral/usart0.hpp ****     //!
 330:funsape/peripheral/usart0.hpp ****     //! \brief      Usart0 class destructor.
 331:funsape/peripheral/usart0.hpp ****     //! \details    Destroys an Usart0 object.
 332:funsape/peripheral/usart0.hpp ****     //!
 333:funsape/peripheral/usart0.hpp ****     ~Usart0(
 334:funsape/peripheral/usart0.hpp ****             void
 335:funsape/peripheral/usart0.hpp ****     );
 336:funsape/peripheral/usart0.hpp **** 
 337:funsape/peripheral/usart0.hpp ****     // -------------------------------------------------------------------------
 338:funsape/peripheral/usart0.hpp ****     // Methods -----------------------------------------------------------------
 339:funsape/peripheral/usart0.hpp **** public:
 340:funsape/peripheral/usart0.hpp ****     //     ///////////////////     CONFIGURATION     ////////////////////     //
 341:funsape/peripheral/usart0.hpp **** 
 342:funsape/peripheral/usart0.hpp ****     //!
 343:funsape/peripheral/usart0.hpp ****     //! \brief      Initializes the USART0 module
 344:funsape/peripheral/usart0.hpp ****     //! \details    Initializes the USART0 module.
 345:funsape/peripheral/usart0.hpp ****     //! \retval     true                Success.
 346:funsape/peripheral/usart0.hpp ****     //! \retval     false               Retrieve the error using the \ref
 347:funsape/peripheral/usart0.hpp ****     //!                                     getLastError() function.
 348:funsape/peripheral/usart0.hpp ****     //!
 349:funsape/peripheral/usart0.hpp ****     bool_t init(
GAS LISTING /tmp/ccgDjIOO.s 			page 48


 350:funsape/peripheral/usart0.hpp ****             void
 351:funsape/peripheral/usart0.hpp ****     );
 352:funsape/peripheral/usart0.hpp **** 
 353:funsape/peripheral/usart0.hpp ****     //!
 354:funsape/peripheral/usart0.hpp ****     //! \brief      Disables the USART receiver.
 355:funsape/peripheral/usart0.hpp ****     //! \details    Disables the USART receiver.
 356:funsape/peripheral/usart0.hpp ****     //!
 357:funsape/peripheral/usart0.hpp ****     void inlined disableReceiver(
 358:funsape/peripheral/usart0.hpp ****             void
 359:funsape/peripheral/usart0.hpp ****     );
 360:funsape/peripheral/usart0.hpp **** 
 361:funsape/peripheral/usart0.hpp ****     //!
 362:funsape/peripheral/usart0.hpp ****     //! \brief      Disables the USART transmitter.
 363:funsape/peripheral/usart0.hpp ****     //! \details    Disables the USART transmitter.
 364:funsape/peripheral/usart0.hpp ****     //!
 365:funsape/peripheral/usart0.hpp ****     void inlined disableTransmitter(
 366:funsape/peripheral/usart0.hpp ****             void
 367:funsape/peripheral/usart0.hpp ****     );
 368:funsape/peripheral/usart0.hpp **** 
 369:funsape/peripheral/usart0.hpp ****     //!
 370:funsape/peripheral/usart0.hpp ****     //! \brief      Enables the USART receiver.
 371:funsape/peripheral/usart0.hpp ****     //! \details    Enables the USART receiver.
 372:funsape/peripheral/usart0.hpp ****     //!
 373:funsape/peripheral/usart0.hpp ****     void inlined enableReceiver(
 374:funsape/peripheral/usart0.hpp ****             void
 375:funsape/peripheral/usart0.hpp ****     );
 376:funsape/peripheral/usart0.hpp **** 
 377:funsape/peripheral/usart0.hpp ****     //!
 378:funsape/peripheral/usart0.hpp ****     //! \brief      Enables the USART transmitter.
 379:funsape/peripheral/usart0.hpp ****     //! \details    Enables the USART transmitter.
 380:funsape/peripheral/usart0.hpp ****     //!
 381:funsape/peripheral/usart0.hpp ****     void inlined enableTransmitter(
 382:funsape/peripheral/usart0.hpp ****             void
 383:funsape/peripheral/usart0.hpp ****     );
 384:funsape/peripheral/usart0.hpp **** 
 385:funsape/peripheral/usart0.hpp ****     //!
 386:funsape/peripheral/usart0.hpp ****     //! \brief      Sets data size.
 387:funsape/peripheral/usart0.hpp ****     //! \details    Sets data size.
 388:funsape/peripheral/usart0.hpp ****     //! \param[in]  dataSize_p      Data size.
 389:funsape/peripheral/usart0.hpp ****     //! \retval     true                Success.
 390:funsape/peripheral/usart0.hpp ****     //! \retval     false               Retrieve the error using the \ref
 391:funsape/peripheral/usart0.hpp ****     //!                                     getLastError() function.
 392:funsape/peripheral/usart0.hpp ****     //!
 393:funsape/peripheral/usart0.hpp ****     bool_t setDataSize(
 394:funsape/peripheral/usart0.hpp ****             const DataSize dataSize_p
 395:funsape/peripheral/usart0.hpp ****     );
 396:funsape/peripheral/usart0.hpp **** 
 397:funsape/peripheral/usart0.hpp ****     //!
 398:funsape/peripheral/usart0.hpp ****     //! \brief      Sets operation mode.
 399:funsape/peripheral/usart0.hpp ****     //! \details    Sets operation mode.
 400:funsape/peripheral/usart0.hpp ****     //! \param[in]  operationMode_p     Operation mode.
 401:funsape/peripheral/usart0.hpp ****     //! \retval     true                Success.
 402:funsape/peripheral/usart0.hpp ****     //! \retval     false               Retrieve the error using the \ref
 403:funsape/peripheral/usart0.hpp ****     //!                                     getLastError() function.
 404:funsape/peripheral/usart0.hpp ****     //!
 405:funsape/peripheral/usart0.hpp ****     bool_t setMode(
 406:funsape/peripheral/usart0.hpp ****             const Mode operationMode_p
GAS LISTING /tmp/ccgDjIOO.s 			page 49


 407:funsape/peripheral/usart0.hpp ****     );
 408:funsape/peripheral/usart0.hpp **** 
 409:funsape/peripheral/usart0.hpp ****     //!
 410:funsape/peripheral/usart0.hpp ****     //! \brief      Sets number of stop bits.
 411:funsape/peripheral/usart0.hpp ****     //! \details    Sets number of stop bits.
 412:funsape/peripheral/usart0.hpp ****     //! \param[in]  stopBits_p          Number of stop bits.
 413:funsape/peripheral/usart0.hpp ****     //! \retval     true                Success.
 414:funsape/peripheral/usart0.hpp ****     //! \retval     false               Retrieve the error using the \ref
 415:funsape/peripheral/usart0.hpp ****     //!                                     getLastError() function.
 416:funsape/peripheral/usart0.hpp ****     //!
 417:funsape/peripheral/usart0.hpp ****     bool_t setStopBits(
 418:funsape/peripheral/usart0.hpp ****             const StopBits stopBits_p
 419:funsape/peripheral/usart0.hpp ****     );
 420:funsape/peripheral/usart0.hpp **** 
 421:funsape/peripheral/usart0.hpp ****     //!
 422:funsape/peripheral/usart0.hpp ****     //! \brief      Sets the parity mode.
 423:funsape/peripheral/usart0.hpp ****     //! \details    Sets the parity mode.
 424:funsape/peripheral/usart0.hpp ****     //! \param[in]  parityMode_p        Parity mode.
 425:funsape/peripheral/usart0.hpp ****     //! \retval     true                Success.
 426:funsape/peripheral/usart0.hpp ****     //! \retval     false               Retrieve the error using the \ref
 427:funsape/peripheral/usart0.hpp ****     //!                                     getLastError() function.
 428:funsape/peripheral/usart0.hpp ****     //!
 429:funsape/peripheral/usart0.hpp ****     bool_t setParityMode(
 430:funsape/peripheral/usart0.hpp ****             const ParityMode parityMode_p
 431:funsape/peripheral/usart0.hpp ****     );
 432:funsape/peripheral/usart0.hpp **** 
 433:funsape/peripheral/usart0.hpp ****     //!
 434:funsape/peripheral/usart0.hpp ****     //! \brief      Sets the communication baud rate.
 435:funsape/peripheral/usart0.hpp ****     //! \details    Sets the communication baud rate.
 436:funsape/peripheral/usart0.hpp ****     //! \param[in]  baudRate_p          Communication baud rate.
 437:funsape/peripheral/usart0.hpp ****     //! \retval     true                Success.
 438:funsape/peripheral/usart0.hpp ****     //! \retval     false               Retrieve the error using the \ref
 439:funsape/peripheral/usart0.hpp ****     //!                                     getLastError() function.
 440:funsape/peripheral/usart0.hpp ****     //!
 441:funsape/peripheral/usart0.hpp ****     bool_t setBaudRate(
 442:funsape/peripheral/usart0.hpp ****             const BaudRate baudRate_p
 443:funsape/peripheral/usart0.hpp ****     );
 444:funsape/peripheral/usart0.hpp **** 
 445:funsape/peripheral/usart0.hpp ****     //!
 446:funsape/peripheral/usart0.hpp ****     //! \brief      Sets the Frame format.
 447:funsape/peripheral/usart0.hpp ****     //! \details    Sets the Frame format.
 448:funsape/peripheral/usart0.hpp ****     //! \param[in]  frameFormat_p       Frame format.
 449:funsape/peripheral/usart0.hpp ****     //! \retval     true                Success.
 450:funsape/peripheral/usart0.hpp ****     //! \retval     false               Retrieve the error using the \ref
 451:funsape/peripheral/usart0.hpp ****     //!                                     getLastError() function.
 452:funsape/peripheral/usart0.hpp ****     //!
 453:funsape/peripheral/usart0.hpp ****     bool_t setFrameFormat(
 454:funsape/peripheral/usart0.hpp ****             const FrameFormat frameFormat_p
 455:funsape/peripheral/usart0.hpp ****     );
 456:funsape/peripheral/usart0.hpp **** 
 457:funsape/peripheral/usart0.hpp ****     //     ///////////////////////     STATUS    ////////////////////////     //
 458:funsape/peripheral/usart0.hpp **** 
 459:funsape/peripheral/usart0.hpp ****     //!
 460:funsape/peripheral/usart0.hpp ****     //! \brief      Verifies the reception status.
 461:funsape/peripheral/usart0.hpp ****     //! \details    Verifies the reception status.
 462:funsape/peripheral/usart0.hpp ****     //! \retval     true                Success.
 463:funsape/peripheral/usart0.hpp ****     //! \retval     false               Retrieve the error using the \ref
GAS LISTING /tmp/ccgDjIOO.s 			page 50


 464:funsape/peripheral/usart0.hpp ****     //!                                     getLastError() function.
 465:funsape/peripheral/usart0.hpp ****     //!
 466:funsape/peripheral/usart0.hpp ****     bool_t inlined isReceptionComplete(void);
 467:funsape/peripheral/usart0.hpp **** 
 468:funsape/peripheral/usart0.hpp ****     //!
 469:funsape/peripheral/usart0.hpp ****     //! \brief      Verifies the transmission buffer status.
 470:funsape/peripheral/usart0.hpp ****     //! \details    Verifies the transmission buffer status.
 471:funsape/peripheral/usart0.hpp ****     //! \retval     true                Success.
 472:funsape/peripheral/usart0.hpp ****     //! \retval     false               Retrieve the error using the \ref
 473:funsape/peripheral/usart0.hpp ****     //!                                     getLastError() function.
 474:funsape/peripheral/usart0.hpp ****     //!
 475:funsape/peripheral/usart0.hpp ****     bool_t inlined isTransmissionBufferEmpty(void);
 476:funsape/peripheral/usart0.hpp **** 
 477:funsape/peripheral/usart0.hpp ****     //!
 478:funsape/peripheral/usart0.hpp ****     //! \brief      Verifies the transmission status.
 479:funsape/peripheral/usart0.hpp ****     //! \details    Verifies the transmission status.
 480:funsape/peripheral/usart0.hpp ****     //! \retval     true                Success.
 481:funsape/peripheral/usart0.hpp ****     //! \retval     false               Retrieve the error using the \ref
 482:funsape/peripheral/usart0.hpp ****     //!                                     getLastError() function.
 483:funsape/peripheral/usart0.hpp ****     //!
 484:funsape/peripheral/usart0.hpp ****     bool_t inlined isTransmissionComplete(void);
 485:funsape/peripheral/usart0.hpp **** 
 486:funsape/peripheral/usart0.hpp ****     //!
 487:funsape/peripheral/usart0.hpp ****     //! \brief      Gets the errors of the last reception.
 488:funsape/peripheral/usart0.hpp ****     //! \details    Gets the errors of the last reception.
 489:funsape/peripheral/usart0.hpp ****     //! \param[out] errorCode_p         Pointer to store the reception error code.
 490:funsape/peripheral/usart0.hpp ****     //! \retval     true                Success.
 491:funsape/peripheral/usart0.hpp ****     //! \retval     false               Retrieve the error using the \ref
 492:funsape/peripheral/usart0.hpp ****     //!                                     getLastError() function.
 493:funsape/peripheral/usart0.hpp ****     //!
 494:funsape/peripheral/usart0.hpp ****     bool_t getReceptionErrors(
 495:funsape/peripheral/usart0.hpp ****             ReceptionError *errorCode_p
 496:funsape/peripheral/usart0.hpp ****     );
 497:funsape/peripheral/usart0.hpp **** 
 498:funsape/peripheral/usart0.hpp ****     //     /////////////////////     INTERRUPTS    //////////////////////     //
 499:funsape/peripheral/usart0.hpp **** 
 500:funsape/peripheral/usart0.hpp ****     //!
 501:funsape/peripheral/usart0.hpp ****     //! \brief      Activates the Reception Complete interrupt.
 502:funsape/peripheral/usart0.hpp ****     //! \details    Activates the Reception Complete interrupt.
 503:funsape/peripheral/usart0.hpp ****     //!
 504:funsape/peripheral/usart0.hpp ****     void inlined activateReceptionCompleteInterrupt(void);
 505:funsape/peripheral/usart0.hpp **** 
 506:funsape/peripheral/usart0.hpp ****     //!
 507:funsape/peripheral/usart0.hpp ****     //! \brief      Activates the Transmission Buffer Empty interrupt.
 508:funsape/peripheral/usart0.hpp ****     //! \details    Activates the Transmission Buffer Empty interrupt.
 509:funsape/peripheral/usart0.hpp ****     //!
 510:funsape/peripheral/usart0.hpp ****     void inlined activateTransmissionBufferEmptyInterrupt(void);
 511:funsape/peripheral/usart0.hpp **** 
 512:funsape/peripheral/usart0.hpp ****     //!
 513:funsape/peripheral/usart0.hpp ****     //! \brief      Activates the Transmission Complete interrupt.
 514:funsape/peripheral/usart0.hpp ****     //! \details    Activates the Transmission Complete interrupt.
 515:funsape/peripheral/usart0.hpp ****     //!
 516:funsape/peripheral/usart0.hpp ****     void inlined activateTransmissionCompleteInterrupt(void);
 517:funsape/peripheral/usart0.hpp **** 
 518:funsape/peripheral/usart0.hpp ****     //!
 519:funsape/peripheral/usart0.hpp ****     //! \brief      Deactivates the Reception Complete interrupt.
 520:funsape/peripheral/usart0.hpp ****     //! \details    Deactivates the Reception Complete interrupt
GAS LISTING /tmp/ccgDjIOO.s 			page 51


 521:funsape/peripheral/usart0.hpp ****     //!
 522:funsape/peripheral/usart0.hpp ****     void inlined deactivateReceptionCompleteInterrupt(void);
 523:funsape/peripheral/usart0.hpp **** 
 524:funsape/peripheral/usart0.hpp ****     //!
 525:funsape/peripheral/usart0.hpp ****     //! \brief      Deactivates the Transmission Buffer Empty interrupt.
 526:funsape/peripheral/usart0.hpp ****     //! \details    Deactivates the Transmission Buffer Empty interrupt.
 527:funsape/peripheral/usart0.hpp ****     //!
 528:funsape/peripheral/usart0.hpp ****     void inlined deactivateTransmissionBufferEmptyInterrupt(void);
 529:funsape/peripheral/usart0.hpp **** 
 530:funsape/peripheral/usart0.hpp ****     //!
 531:funsape/peripheral/usart0.hpp ****     //! \brief      Deactivates the Transmission Complete interrupt.
 532:funsape/peripheral/usart0.hpp ****     //! \details    Deactivates the Transmission Complete interrupt.
 533:funsape/peripheral/usart0.hpp ****     //!
 534:funsape/peripheral/usart0.hpp ****     void inlined deactivateTransmissionCompleteInterrupt(void);
 535:funsape/peripheral/usart0.hpp **** 
 536:funsape/peripheral/usart0.hpp ****     //!
 537:funsape/peripheral/usart0.hpp ****     //! \brief      Redirects the standard I/O streams.
 538:funsape/peripheral/usart0.hpp ****     //! \details    Redirects the standard I/O streams.
 539:funsape/peripheral/usart0.hpp ****     //!
 540:funsape/peripheral/usart0.hpp ****     void inlined stdio(void);
 541:funsape/peripheral/usart0.hpp **** 
 542:funsape/peripheral/usart0.hpp ****     // UCSRA    U2X0
 543:funsape/peripheral/usart0.hpp ****     // UCSRA    MPCM0
 544:funsape/peripheral/usart0.hpp **** 
 545:funsape/peripheral/usart0.hpp ****     //!
 546:funsape/peripheral/usart0.hpp ****     //! \brief      Sends a frame through the transmitter.
 547:funsape/peripheral/usart0.hpp ****     //! \details    Sends a frame through the transmitter.
 548:funsape/peripheral/usart0.hpp ****     //! \param[out] data_p         Data to be transmitted.
 549:funsape/peripheral/usart0.hpp ****     //! \retval     true                Success.
 550:funsape/peripheral/usart0.hpp ****     //! \retval     false               Retrieve the error using the \ref
 551:funsape/peripheral/usart0.hpp ****     //!                                     getLastError() function.
 552:funsape/peripheral/usart0.hpp ****     //!
 553:funsape/peripheral/usart0.hpp ****     bool_t sendData(cuint16_t data_p);
 554:funsape/peripheral/usart0.hpp **** 
 555:funsape/peripheral/usart0.hpp ****     //!
 556:funsape/peripheral/usart0.hpp ****     //! \brief      Gets the received data.
 557:funsape/peripheral/usart0.hpp ****     //! \details    Gets the received data.
 558:funsape/peripheral/usart0.hpp ****     //! \param[out] data_p              Pointer to store the received data.
 559:funsape/peripheral/usart0.hpp ****     //! \retval     true                Success.
 560:funsape/peripheral/usart0.hpp ****     //! \retval     false               Retrieve the error using the \ref
 561:funsape/peripheral/usart0.hpp ****     //!                                     getLastError() function.
 562:funsape/peripheral/usart0.hpp ****     //!
 563:funsape/peripheral/usart0.hpp ****     bool_t receiveData(uint16_t *data_p);
 564:funsape/peripheral/usart0.hpp **** 
 565:funsape/peripheral/usart0.hpp ****     //!
 566:funsape/peripheral/usart0.hpp ****     //! \brief      Flushes the reception buffer.
 567:funsape/peripheral/usart0.hpp ****     //! \details    Flushes the reception buffer.
 568:funsape/peripheral/usart0.hpp ****     //!
 569:funsape/peripheral/usart0.hpp ****     void flushReceptionBuffer(void);
 570:funsape/peripheral/usart0.hpp **** 
 571:funsape/peripheral/usart0.hpp ****     //!
 572:funsape/peripheral/usart0.hpp ****     //! \brief      Receives data via standard data stream.
 573:funsape/peripheral/usart0.hpp ****     //! \details    Receives data via standard data stream.
 574:funsape/peripheral/usart0.hpp ****     //! \param[out] stream_p            Pointer to data stream.
 575:funsape/peripheral/usart0.hpp ****     //! \return     char                Character received.
 576:funsape/peripheral/usart0.hpp ****     //!
 577:funsape/peripheral/usart0.hpp ****     char receiveDataStd(FILE *stream_p);
GAS LISTING /tmp/ccgDjIOO.s 			page 52


 578:funsape/peripheral/usart0.hpp **** 
 579:funsape/peripheral/usart0.hpp ****     //!
 580:funsape/peripheral/usart0.hpp ****     //! \brief      Sends data via standard data stream.
 581:funsape/peripheral/usart0.hpp ****     //! \details    Sends data via standard data stream.
 582:funsape/peripheral/usart0.hpp ****     //! \param[in]  data_p              Data to be transmitted.
 583:funsape/peripheral/usart0.hpp ****     //! \param[out] stream_p            Pointer to data stream.
 584:funsape/peripheral/usart0.hpp ****     //! \return     int16_t             Always returns 0.
 585:funsape/peripheral/usart0.hpp ****     //!
 586:funsape/peripheral/usart0.hpp ****     int16_t sendDataStd(char data_p, FILE *stream_p);
 587:funsape/peripheral/usart0.hpp **** 
 588:funsape/peripheral/usart0.hpp ****     //     /////////////////     CONTROL AND STATUS    //////////////////     //
 589:funsape/peripheral/usart0.hpp ****     //!
 590:funsape/peripheral/usart0.hpp ****     //! \brief      Returns the last error.
 591:funsape/peripheral/usart0.hpp ****     //! \details    Returns the last error.
 592:funsape/peripheral/usart0.hpp ****     //! \return     Error               Error status of the last operation.
 593:funsape/peripheral/usart0.hpp ****     //!
 594:funsape/peripheral/usart0.hpp ****     Error           getLastError(
 595:funsape/peripheral/usart0.hpp ****             void
 596:funsape/peripheral/usart0.hpp ****     );
 597:funsape/peripheral/usart0.hpp **** 
 598:funsape/peripheral/usart0.hpp **** private:
 599:funsape/peripheral/usart0.hpp ****     char _receiveDataStd(FILE *stream_p);
 600:funsape/peripheral/usart0.hpp ****     void _clearDataOverrunError(void);
 601:funsape/peripheral/usart0.hpp ****     void _clearFrameError(void);
 602:funsape/peripheral/usart0.hpp ****     void _clearParityError(void);
 603:funsape/peripheral/usart0.hpp **** 
 604:funsape/peripheral/usart0.hpp ****     // -------------------------------------------------------------------------
 605:funsape/peripheral/usart0.hpp ****     // Properties --------------------------------------------------------------
 606:funsape/peripheral/usart0.hpp **** private:
 607:funsape/peripheral/usart0.hpp ****     //     ////////////////     RECEPTION ERROR FLAGS    ////////////////     //
 608:funsape/peripheral/usart0.hpp ****     bool_t  _isDataOverrunError                         : 1;
 609:funsape/peripheral/usart0.hpp ****     bool_t  _isFrameError                               : 1;
 610:funsape/peripheral/usart0.hpp ****     bool_t  _isParityError                              : 1;
 611:funsape/peripheral/usart0.hpp **** 
 612:funsape/peripheral/usart0.hpp ****     //     /////////////////     CONTROL AND STATUS     /////////////////     //
 613:funsape/peripheral/usart0.hpp ****     bool_t  _isInitialized                              : 1;
 614:funsape/peripheral/usart0.hpp ****     bool_t  _isReceiverEnabled                          : 1;
 615:funsape/peripheral/usart0.hpp ****     bool_t  _isReceptionCompleteInterruptEnabled        : 1;
 616:funsape/peripheral/usart0.hpp ****     bool_t  _isTransmissionBufferEmptyInterruptEnabled  : 1;
 617:funsape/peripheral/usart0.hpp ****     bool_t  _isTransmissionCompleteInterruptEnabled     : 1;
 618:funsape/peripheral/usart0.hpp ****     bool_t  _isTransmitterEnabled                       : 1;
 619:funsape/peripheral/usart0.hpp ****     Error   _lastError;
 620:funsape/peripheral/usart0.hpp **** 
 621:funsape/peripheral/usart0.hpp ****     //     ////////////////////     CONFIGURATION    ////////////////////     //
 622:funsape/peripheral/usart0.hpp ****     DataSize        _dataSize;
 623:funsape/peripheral/usart0.hpp ****     Mode            _mode;
 624:funsape/peripheral/usart0.hpp ****     BaudRate        _baudRate;
 625:funsape/peripheral/usart0.hpp ****     ParityMode      _parityMode;
 626:funsape/peripheral/usart0.hpp ****     StopBits        _stopBits;
 627:funsape/peripheral/usart0.hpp **** }; // class Usart0
 628:funsape/peripheral/usart0.hpp **** 
 629:funsape/peripheral/usart0.hpp **** // =============================================================================
 630:funsape/peripheral/usart0.hpp **** // Class inlined functions
 631:funsape/peripheral/usart0.hpp **** // =============================================================================
 632:funsape/peripheral/usart0.hpp **** 
 633:funsape/peripheral/usart0.hpp **** //!
 634:funsape/peripheral/usart0.hpp **** //! \cond
GAS LISTING /tmp/ccgDjIOO.s 			page 53


 635:funsape/peripheral/usart0.hpp **** //!
 636:funsape/peripheral/usart0.hpp **** 
 637:funsape/peripheral/usart0.hpp **** void inlined Usart0::disableReceiver(void)
 638:funsape/peripheral/usart0.hpp **** {
 639:funsape/peripheral/usart0.hpp ****     clrBit(UCSR0B, RXEN0);
 640:funsape/peripheral/usart0.hpp ****     return;
 641:funsape/peripheral/usart0.hpp **** }
 642:funsape/peripheral/usart0.hpp **** 
 643:funsape/peripheral/usart0.hpp **** void inlined Usart0::disableTransmitter(void)
 644:funsape/peripheral/usart0.hpp **** {
 645:funsape/peripheral/usart0.hpp ****     clrBit(UCSR0B, TXEN0);
 646:funsape/peripheral/usart0.hpp ****     return;
 647:funsape/peripheral/usart0.hpp **** }
 648:funsape/peripheral/usart0.hpp **** 
 649:funsape/peripheral/usart0.hpp **** void inlined Usart0::enableReceiver(void)
 650:funsape/peripheral/usart0.hpp **** {
 651:funsape/peripheral/usart0.hpp ****     setBit(UCSR0B, RXEN0);
 652:funsape/peripheral/usart0.hpp ****     return;
 653:funsape/peripheral/usart0.hpp **** }
 654:funsape/peripheral/usart0.hpp **** 
 655:funsape/peripheral/usart0.hpp **** void inlined Usart0::enableTransmitter(void)
 656:funsape/peripheral/usart0.hpp **** {
 657:funsape/peripheral/usart0.hpp ****     setBit(UCSR0B, TXEN0);
 658:funsape/peripheral/usart0.hpp ****     return;
 659:funsape/peripheral/usart0.hpp **** }
 660:funsape/peripheral/usart0.hpp **** 
 661:funsape/peripheral/usart0.hpp **** bool_t inlined Usart0::isReceptionComplete(void)
 662:funsape/peripheral/usart0.hpp **** {
 663:funsape/peripheral/usart0.hpp ****     return isBitSet(UCSR0A, RXC0);
 664:funsape/peripheral/usart0.hpp **** }
 665:funsape/peripheral/usart0.hpp **** 
 666:funsape/peripheral/usart0.hpp **** bool_t inlined Usart0::isTransmissionBufferEmpty(void)
 667:funsape/peripheral/usart0.hpp **** {
 668:funsape/peripheral/usart0.hpp ****     return isBitSet(UCSR0A, UDRE0);
 669:funsape/peripheral/usart0.hpp **** }
 670:funsape/peripheral/usart0.hpp **** 
 671:funsape/peripheral/usart0.hpp **** bool_t inlined Usart0::isTransmissionComplete(void)
 672:funsape/peripheral/usart0.hpp **** {
 673:funsape/peripheral/usart0.hpp ****     return isBitSet(UCSR0A, TXC0);
 674:funsape/peripheral/usart0.hpp **** }
 675:funsape/peripheral/usart0.hpp **** 
 676:funsape/peripheral/usart0.hpp **** void inlined Usart0::activateReceptionCompleteInterrupt(void)
 677:funsape/peripheral/usart0.hpp **** {
 678:funsape/peripheral/usart0.hpp ****     setBit(UCSR0B, RXCIE0);
 679:funsape/peripheral/usart0.hpp ****     return;
 680:funsape/peripheral/usart0.hpp **** }
 681:funsape/peripheral/usart0.hpp **** 
 682:funsape/peripheral/usart0.hpp **** void inlined Usart0::activateTransmissionBufferEmptyInterrupt(void)
 683:funsape/peripheral/usart0.hpp **** {
 684:funsape/peripheral/usart0.hpp ****     setBit(UCSR0B, UDRIE0);
 685:funsape/peripheral/usart0.hpp ****     return;
 686:funsape/peripheral/usart0.hpp **** }
 687:funsape/peripheral/usart0.hpp **** 
 688:funsape/peripheral/usart0.hpp **** void inlined Usart0::activateTransmissionCompleteInterrupt(void)
 689:funsape/peripheral/usart0.hpp **** {
 690:funsape/peripheral/usart0.hpp ****     setBit(UCSR0B, TXCIE0);
 691:funsape/peripheral/usart0.hpp ****     return;
GAS LISTING /tmp/ccgDjIOO.s 			page 54


 692:funsape/peripheral/usart0.hpp **** }
 693:funsape/peripheral/usart0.hpp **** 
 694:funsape/peripheral/usart0.hpp **** void inlined Usart0::deactivateReceptionCompleteInterrupt(void)
 695:funsape/peripheral/usart0.hpp **** {
 696:funsape/peripheral/usart0.hpp ****     clrBit(UCSR0B, RXCIE0);
 697:funsape/peripheral/usart0.hpp ****     return;
 698:funsape/peripheral/usart0.hpp **** }
 699:funsape/peripheral/usart0.hpp **** 
 700:funsape/peripheral/usart0.hpp **** void inlined Usart0::deactivateTransmissionBufferEmptyInterrupt(void)
 701:funsape/peripheral/usart0.hpp **** {
 702:funsape/peripheral/usart0.hpp ****     clrBit(UCSR0B, UDRIE0);
 703:funsape/peripheral/usart0.hpp ****     return;
 704:funsape/peripheral/usart0.hpp **** }
 705:funsape/peripheral/usart0.hpp **** 
 706:funsape/peripheral/usart0.hpp **** void inlined Usart0::deactivateTransmissionCompleteInterrupt(void)
 707:funsape/peripheral/usart0.hpp **** {
 708:funsape/peripheral/usart0.hpp ****     clrBit(UCSR0B, TXCIE0);
 709:funsape/peripheral/usart0.hpp ****     return;
 710:funsape/peripheral/usart0.hpp **** }
 711:funsape/peripheral/usart0.hpp **** 
 712:funsape/peripheral/usart0.hpp **** void inlined Usart0::stdio(void)
 713:funsape/peripheral/usart0.hpp **** {
 714:funsape/peripheral/usart0.hpp ****     stdin = stdout = stderr = &usartStream;
 715:funsape/peripheral/usart0.hpp ****     return;
 716:funsape/peripheral/usart0.hpp **** }
 717:funsape/peripheral/usart0.hpp **** 
 718:funsape/peripheral/usart0.hpp **** Usart0::ReceptionError inlined operator|(Usart0::ReceptionError a, Usart0::ReceptionError b)
 719:funsape/peripheral/usart0.hpp **** {
 720:funsape/peripheral/usart0.hpp ****     return static_cast<Usart0::ReceptionError>(static_cast<cuint8_t>(a) | static_cast<cuint8_t>(b))
 721:funsape/peripheral/usart0.hpp **** }
 722:funsape/peripheral/usart0.hpp **** 
 723:funsape/peripheral/usart0.hpp **** Usart0::ReceptionError inlined &operator|=(Usart0::ReceptionError &a, Usart0::ReceptionError b)
 1526               		.loc 2 723 33 view .LVU492
 1527               	.LBB22:
 724:funsape/peripheral/usart0.hpp **** {
 725:funsape/peripheral/usart0.hpp ****     return a = static_cast<Usart0::ReceptionError>(static_cast<uint8_t>(a) | static_cast<cuint8_t>(
 1528               		.loc 2 725 5 view .LVU493
 1529               		.loc 2 725 14 is_stmt 0 view .LVU494
 1530 0010 84E0      		ldi r24,lo8(4)
 1531 0012 8083      		st Z,r24
 1532               	.LVL91:
 1533               	.L94:
 1534               		.loc 2 725 14 view .LVU495
 1535               	.LBE22:
 1536               	.LBE21:
 402:funsape/peripheral/usart0.cpp ****         *errorCode_p |= Usart0::ReceptionError::FRAME_ERROR;
 1537               		.loc 1 402 5 is_stmt 1 view .LVU496
 402:funsape/peripheral/usart0.cpp ****         *errorCode_p |= Usart0::ReceptionError::FRAME_ERROR;
 1538               		.loc 1 402 14 is_stmt 0 view .LVU497
 1539 0014 8C91      		ld r24,X
 402:funsape/peripheral/usart0.cpp ****         *errorCode_p |= Usart0::ReceptionError::FRAME_ERROR;
 1540               		.loc 1 402 5 view .LVU498
 1541 0016 81FF      		sbrs r24,1
 1542 0018 00C0      		rjmp .L95
 403:funsape/peripheral/usart0.cpp ****     }
 1543               		.loc 1 403 9 is_stmt 1 view .LVU499
 1544               	.LVL92:
GAS LISTING /tmp/ccgDjIOO.s 			page 55


 1545               	.LBB23:
 1546               	.LBI23:
 723:funsape/peripheral/usart0.hpp **** {
 1547               		.loc 2 723 33 view .LVU500
 1548               	.LBB24:
 1549               		.loc 2 725 5 view .LVU501
 1550               		.loc 2 725 73 is_stmt 0 view .LVU502
 1551 001a 8081      		ld r24,Z
 1552               		.loc 2 725 76 view .LVU503
 1553 001c 8160      		ori r24,lo8(1)
 1554               		.loc 2 725 14 view .LVU504
 1555 001e 8083      		st Z,r24
 1556               	.LVL93:
 1557               	.L95:
 1558               		.loc 2 725 14 view .LVU505
 1559               	.LBE24:
 1560               	.LBE23:
 405:funsape/peripheral/usart0.cpp ****         *errorCode_p |= Usart0::ReceptionError::PARITY_ERROR;
 1561               		.loc 1 405 5 is_stmt 1 view .LVU506
 405:funsape/peripheral/usart0.cpp ****         *errorCode_p |= Usart0::ReceptionError::PARITY_ERROR;
 1562               		.loc 1 405 14 is_stmt 0 view .LVU507
 1563 0020 8C91      		ld r24,X
 405:funsape/peripheral/usart0.cpp ****         *errorCode_p |= Usart0::ReceptionError::PARITY_ERROR;
 1564               		.loc 1 405 5 view .LVU508
 1565 0022 82FF      		sbrs r24,2
 1566 0024 00C0      		rjmp .L96
 406:funsape/peripheral/usart0.cpp ****     }
 1567               		.loc 1 406 9 is_stmt 1 view .LVU509
 1568               	.LVL94:
 1569               	.LBB25:
 1570               	.LBI25:
 723:funsape/peripheral/usart0.hpp **** {
 1571               		.loc 2 723 33 view .LVU510
 1572               	.LBB26:
 1573               		.loc 2 725 5 view .LVU511
 1574               		.loc 2 725 73 is_stmt 0 view .LVU512
 1575 0026 8081      		ld r24,Z
 1576               		.loc 2 725 76 view .LVU513
 1577 0028 8260      		ori r24,lo8(2)
 1578               		.loc 2 725 14 view .LVU514
 1579 002a 8083      		st Z,r24
 1580               	.LVL95:
 1581               	.L96:
 1582               		.loc 2 725 14 view .LVU515
 1583               	.LBE26:
 1584               	.LBE25:
 410:funsape/peripheral/usart0.cpp ****     return true;
 1585               		.loc 1 410 5 is_stmt 1 view .LVU516
 410:funsape/peripheral/usart0.cpp ****     return true;
 1586               		.loc 1 410 22 is_stmt 0 view .LVU517
 1587 002c 1296      		adiw r26,2
 1588               	.LVL96:
 410:funsape/peripheral/usart0.cpp ****     return true;
 1589               		.loc 1 410 22 view .LVU518
 1590 002e 1D92      		st X+,__zero_reg__
 1591 0030 1D92      		st X+,__zero_reg__
 1592               	.LVL97:
GAS LISTING /tmp/ccgDjIOO.s 			page 56


 411:funsape/peripheral/usart0.cpp **** }
 1593               		.loc 1 411 5 is_stmt 1 view .LVU519
 411:funsape/peripheral/usart0.cpp **** }
 1594               		.loc 1 411 12 is_stmt 0 view .LVU520
 1595 0032 81E0      		ldi r24,lo8(1)
 1596               	/* epilogue start */
 412:funsape/peripheral/usart0.cpp **** 
 1597               		.loc 1 412 1 view .LVU521
 1598 0034 0895      		ret
 1599               	.LVL98:
 1600               	.L97:
 393:funsape/peripheral/usart0.cpp ****         return false;
 1601               		.loc 1 393 9 is_stmt 1 view .LVU522
 393:funsape/peripheral/usart0.cpp ****         return false;
 1602               		.loc 1 393 26 is_stmt 0 view .LVU523
 1603 0036 81E5      		ldi r24,lo8(81)
 1604 0038 90E0      		ldi r25,0
 1605               	.LVL99:
 393:funsape/peripheral/usart0.cpp ****         return false;
 1606               		.loc 1 393 26 view .LVU524
 1607 003a 1296      		adiw r26,2
 1608               	.LVL100:
 393:funsape/peripheral/usart0.cpp ****         return false;
 1609               		.loc 1 393 26 view .LVU525
 1610 003c 8D93      		st X+,r24
 1611 003e 9D93      		st X+,r25
 1612               	.LVL101:
 394:funsape/peripheral/usart0.cpp ****     }
 1613               		.loc 1 394 9 is_stmt 1 view .LVU526
 394:funsape/peripheral/usart0.cpp ****     }
 1614               		.loc 1 394 16 is_stmt 0 view .LVU527
 1615 0040 80E0      		ldi r24,0
 1616 0042 0895      		ret
 1617               		.cfi_endproc
 1618               	.LFE165:
 1620               		.section	.text._ZN6Usart015_receiveDataStdEP6__file,"ax",@progbits
 1621               	.global	_ZN6Usart015_receiveDataStdEP6__file
 1623               	_ZN6Usart015_receiveDataStdEP6__file:
 1624               	.LVL102:
 1625               	.LFB166:
 415:funsape/peripheral/usart0.cpp ****     char auxChar = 0;
 1626               		.loc 1 415 1 is_stmt 1 view -0
 1627               		.cfi_startproc
 1628               	/* prologue: function */
 1629               	/* frame size = 0 */
 1630               	/* stack size = 0 */
 1631               	.L__stack_usage = 0
 416:funsape/peripheral/usart0.cpp **** 
 1632               		.loc 1 416 5 view .LVU529
 418:funsape/peripheral/usart0.cpp **** }
 1633               		.loc 1 418 5 view .LVU530
 419:funsape/peripheral/usart0.cpp **** 
 1634               		.loc 1 419 1 is_stmt 0 view .LVU531
 1635 0000 80E0      		ldi r24,0
 1636               	.LVL103:
 1637               	/* epilogue start */
 419:funsape/peripheral/usart0.cpp **** 
GAS LISTING /tmp/ccgDjIOO.s 			page 57


 1638               		.loc 1 419 1 view .LVU532
 1639 0002 0895      		ret
 1640               		.cfi_endproc
 1641               	.LFE166:
 1643               		.section	.text._ZN6Usart022_clearDataOverrunErrorEv,"ax",@progbits
 1644               	.global	_ZN6Usart022_clearDataOverrunErrorEv
 1646               	_ZN6Usart022_clearDataOverrunErrorEv:
 1647               	.LVL104:
 1648               	.LFB167:
 422:funsape/peripheral/usart0.cpp ****     clrBit(UCSR0A, DOR0);
 1649               		.loc 1 422 1 is_stmt 1 view -0
 1650               		.cfi_startproc
 1651               	/* prologue: function */
 1652               	/* frame size = 0 */
 1653               	/* stack size = 0 */
 1654               	.L__stack_usage = 0
 423:funsape/peripheral/usart0.cpp ****     return;
 1655               		.loc 1 423 5 view .LVU534
 423:funsape/peripheral/usart0.cpp ****     return;
 1656               		.loc 1 423 5 view .LVU535
 1657 0000 E0EC      		ldi r30,lo8(-64)
 1658 0002 F0E0      		ldi r31,0
 1659 0004 8081      		ld r24,Z
 1660               	.LVL105:
 423:funsape/peripheral/usart0.cpp ****     return;
 1661               		.loc 1 423 5 is_stmt 0 view .LVU536
 1662 0006 877F      		andi r24,lo8(-9)
 1663 0008 8083      		st Z,r24
 423:funsape/peripheral/usart0.cpp ****     return;
 1664               		.loc 1 423 5 is_stmt 1 view .LVU537
 424:funsape/peripheral/usart0.cpp **** }
 1665               		.loc 1 424 5 view .LVU538
 1666               	/* epilogue start */
 425:funsape/peripheral/usart0.cpp **** 
 1667               		.loc 1 425 1 is_stmt 0 view .LVU539
 1668 000a 0895      		ret
 1669               		.cfi_endproc
 1670               	.LFE167:
 1672               		.section	.text._ZN6Usart016_clearFrameErrorEv,"ax",@progbits
 1673               	.global	_ZN6Usart016_clearFrameErrorEv
 1675               	_ZN6Usart016_clearFrameErrorEv:
 1676               	.LVL106:
 1677               	.LFB168:
 428:funsape/peripheral/usart0.cpp ****     clrBit(UCSR0A, FE0);
 1678               		.loc 1 428 1 is_stmt 1 view -0
 1679               		.cfi_startproc
 1680               	/* prologue: function */
 1681               	/* frame size = 0 */
 1682               	/* stack size = 0 */
 1683               	.L__stack_usage = 0
 429:funsape/peripheral/usart0.cpp ****     return;
 1684               		.loc 1 429 5 view .LVU541
 429:funsape/peripheral/usart0.cpp ****     return;
 1685               		.loc 1 429 5 view .LVU542
 1686 0000 E0EC      		ldi r30,lo8(-64)
 1687 0002 F0E0      		ldi r31,0
 1688 0004 8081      		ld r24,Z
GAS LISTING /tmp/ccgDjIOO.s 			page 58


 1689               	.LVL107:
 429:funsape/peripheral/usart0.cpp ****     return;
 1690               		.loc 1 429 5 is_stmt 0 view .LVU543
 1691 0006 8F7E      		andi r24,lo8(-17)
 1692 0008 8083      		st Z,r24
 429:funsape/peripheral/usart0.cpp ****     return;
 1693               		.loc 1 429 5 is_stmt 1 view .LVU544
 430:funsape/peripheral/usart0.cpp **** }
 1694               		.loc 1 430 5 view .LVU545
 1695               	/* epilogue start */
 431:funsape/peripheral/usart0.cpp **** 
 1696               		.loc 1 431 1 is_stmt 0 view .LVU546
 1697 000a 0895      		ret
 1698               		.cfi_endproc
 1699               	.LFE168:
 1701               		.section	.text._ZN6Usart017_clearParityErrorEv,"ax",@progbits
 1702               	.global	_ZN6Usart017_clearParityErrorEv
 1704               	_ZN6Usart017_clearParityErrorEv:
 1705               	.LVL108:
 1706               	.LFB169:
 434:funsape/peripheral/usart0.cpp ****     clrBit(UCSR0A, UPE0);
 1707               		.loc 1 434 1 is_stmt 1 view -0
 1708               		.cfi_startproc
 1709               	/* prologue: function */
 1710               	/* frame size = 0 */
 1711               	/* stack size = 0 */
 1712               	.L__stack_usage = 0
 435:funsape/peripheral/usart0.cpp ****     return;
 1713               		.loc 1 435 5 view .LVU548
 435:funsape/peripheral/usart0.cpp ****     return;
 1714               		.loc 1 435 5 view .LVU549
 1715 0000 E0EC      		ldi r30,lo8(-64)
 1716 0002 F0E0      		ldi r31,0
 1717 0004 8081      		ld r24,Z
 1718               	.LVL109:
 435:funsape/peripheral/usart0.cpp ****     return;
 1719               		.loc 1 435 5 is_stmt 0 view .LVU550
 1720 0006 8B7F      		andi r24,lo8(-5)
 1721 0008 8083      		st Z,r24
 435:funsape/peripheral/usart0.cpp ****     return;
 1722               		.loc 1 435 5 is_stmt 1 view .LVU551
 436:funsape/peripheral/usart0.cpp **** }
 1723               		.loc 1 436 5 view .LVU552
 1724               	/* epilogue start */
 437:funsape/peripheral/usart0.cpp **** 
 1725               		.loc 1 437 1 is_stmt 0 view .LVU553
 1726 000a 0895      		ret
 1727               		.cfi_endproc
 1728               	.LFE169:
 1730               		.section	.text._ZN6Usart08sendDataEj,"ax",@progbits
 1731               	.global	_ZN6Usart08sendDataEj
 1733               	_ZN6Usart08sendDataEj:
 1734               	.LVL110:
 1735               	.LFB170:
 440:funsape/peripheral/usart0.cpp ****     // Checks initialization
 1736               		.loc 1 440 1 is_stmt 1 view -0
 1737               		.cfi_startproc
GAS LISTING /tmp/ccgDjIOO.s 			page 59


 1738               	/* prologue: function */
 1739               	/* frame size = 0 */
 1740               	/* stack size = 0 */
 1741               	.L__stack_usage = 0
 440:funsape/peripheral/usart0.cpp ****     // Checks initialization
 1742               		.loc 1 440 1 is_stmt 0 view .LVU555
 1743 0000 FC01      		movw r30,r24
 442:funsape/peripheral/usart0.cpp ****         // Returns error
 1744               		.loc 1 442 5 is_stmt 1 view .LVU556
 442:funsape/peripheral/usart0.cpp ****         // Returns error
 1745               		.loc 1 442 15 is_stmt 0 view .LVU557
 1746 0002 9081      		ld r25,Z
 1747 0004 93FB      		bst r25,3
 1748 0006 8827      		clr r24
 1749 0008 80F9      		bld r24,0
 1750               	.LVL111:
 442:funsape/peripheral/usart0.cpp ****         // Returns error
 1751               		.loc 1 442 5 view .LVU558
 1752 000a 93FF      		sbrs r25,3
 1753 000c 00C0      		rjmp .L107
 1754               	.L103:
 449:funsape/peripheral/usart0.cpp **** 
 1755               		.loc 1 449 5 is_stmt 1 view .LVU559
 449:funsape/peripheral/usart0.cpp **** 
 1756               		.loc 1 449 5 view .LVU560
 449:funsape/peripheral/usart0.cpp **** 
 1757               		.loc 1 449 5 discriminator 1 view .LVU561
 1758 000e 9091 C000 		lds r25,192
 1759 0012 95FF      		sbrs r25,5
 1760 0014 00C0      		rjmp .L103
 452:funsape/peripheral/usart0.cpp ****         if(isBitSet(data_p, 8)) {
 1761               		.loc 1 452 5 view .LVU562
 452:funsape/peripheral/usart0.cpp ****         if(isBitSet(data_p, 8)) {
 1762               		.loc 1 452 14 is_stmt 0 view .LVU563
 1763 0016 9481      		ldd r25,Z+4
 452:funsape/peripheral/usart0.cpp ****         if(isBitSet(data_p, 8)) {
 1764               		.loc 1 452 5 view .LVU564
 1765 0018 9730      		cpi r25,lo8(7)
 1766 001a 01F0      		breq .L108
 1767               	.L105:
 459:funsape/peripheral/usart0.cpp **** 
 1768               		.loc 1 459 5 is_stmt 1 view .LVU565
 459:funsape/peripheral/usart0.cpp **** 
 1769               		.loc 1 459 10 is_stmt 0 view .LVU566
 1770 001c 6093 C600 		sts 198,r22
 462:funsape/peripheral/usart0.cpp ****     return true;
 1771               		.loc 1 462 5 is_stmt 1 view .LVU567
 462:funsape/peripheral/usart0.cpp ****     return true;
 1772               		.loc 1 462 22 is_stmt 0 view .LVU568
 1773 0020 1382      		std Z+3,__zero_reg__
 1774 0022 1282      		std Z+2,__zero_reg__
 463:funsape/peripheral/usart0.cpp **** }
 1775               		.loc 1 463 5 is_stmt 1 view .LVU569
 1776               	/* epilogue start */
 464:funsape/peripheral/usart0.cpp **** 
 1777               		.loc 1 464 1 is_stmt 0 view .LVU570
 1778 0024 0895      		ret
GAS LISTING /tmp/ccgDjIOO.s 			page 60


 1779               	.L107:
 444:funsape/peripheral/usart0.cpp ****         return false;
 1780               		.loc 1 444 9 is_stmt 1 view .LVU571
 444:funsape/peripheral/usart0.cpp ****         return false;
 1781               		.loc 1 444 26 is_stmt 0 view .LVU572
 1782 0026 26E0      		ldi r18,lo8(6)
 1783 0028 30E0      		ldi r19,0
 1784 002a 3383      		std Z+3,r19
 1785 002c 2283      		std Z+2,r18
 445:funsape/peripheral/usart0.cpp ****     }
 1786               		.loc 1 445 9 is_stmt 1 view .LVU573
 445:funsape/peripheral/usart0.cpp ****     }
 1787               		.loc 1 445 16 is_stmt 0 view .LVU574
 1788 002e 0895      		ret
 1789               	.L108:
 453:funsape/peripheral/usart0.cpp ****             setBit(UCSR0B, TXB80);
 1790               		.loc 1 453 9 is_stmt 1 view .LVU575
 1791 0030 70FF      		sbrs r23,0
 1792 0032 00C0      		rjmp .L106
 454:funsape/peripheral/usart0.cpp ****         } else {
 1793               		.loc 1 454 13 view .LVU576
 454:funsape/peripheral/usart0.cpp ****         } else {
 1794               		.loc 1 454 13 view .LVU577
 1795 0034 A1EC      		ldi r26,lo8(-63)
 1796 0036 B0E0      		ldi r27,0
 1797 0038 9C91      		ld r25,X
 1798 003a 9160      		ori r25,lo8(1)
 1799 003c 9C93      		st X,r25
 454:funsape/peripheral/usart0.cpp ****         } else {
 1800               		.loc 1 454 13 view .LVU578
 1801 003e 00C0      		rjmp .L105
 1802               	.L106:
 456:funsape/peripheral/usart0.cpp ****         }
 1803               		.loc 1 456 13 view .LVU579
 456:funsape/peripheral/usart0.cpp ****         }
 1804               		.loc 1 456 13 view .LVU580
 1805 0040 A1EC      		ldi r26,lo8(-63)
 1806 0042 B0E0      		ldi r27,0
 1807 0044 9C91      		ld r25,X
 1808 0046 9E7F      		andi r25,lo8(-2)
 1809 0048 9C93      		st X,r25
 1810 004a 00C0      		rjmp .L105
 1811               		.cfi_endproc
 1812               	.LFE170:
 1814               		.section	.text._ZN6Usart011receiveDataEPj,"ax",@progbits
 1815               	.global	_ZN6Usart011receiveDataEPj
 1817               	_ZN6Usart011receiveDataEPj:
 1818               	.LVL112:
 1819               	.LFB171:
 467:funsape/peripheral/usart0.cpp ****     // Local variables
 1820               		.loc 1 467 1 view -0
 1821               		.cfi_startproc
 1822               	/* prologue: function */
 1823               	/* frame size = 0 */
 1824               	/* stack size = 0 */
 1825               	.L__stack_usage = 0
 467:funsape/peripheral/usart0.cpp ****     // Local variables
GAS LISTING /tmp/ccgDjIOO.s 			page 61


 1826               		.loc 1 467 1 is_stmt 0 view .LVU582
 1827 0000 FC01      		movw r30,r24
 1828 0002 DB01      		movw r26,r22
 469:funsape/peripheral/usart0.cpp **** 
 1829               		.loc 1 469 5 is_stmt 1 view .LVU583
 472:funsape/peripheral/usart0.cpp ****         // Returns error
 1830               		.loc 1 472 5 view .LVU584
 472:funsape/peripheral/usart0.cpp ****         // Returns error
 1831               		.loc 1 472 15 is_stmt 0 view .LVU585
 1832 0004 9081      		ld r25,Z
 1833 0006 93FB      		bst r25,3
 1834 0008 8827      		clr r24
 1835 000a 80F9      		bld r24,0
 1836               	.LVL113:
 472:funsape/peripheral/usart0.cpp ****         // Returns error
 1837               		.loc 1 472 5 view .LVU586
 1838 000c 93FF      		sbrs r25,3
 1839 000e 00C0      		rjmp .L115
 1840               	.L110:
 479:funsape/peripheral/usart0.cpp **** 
 1841               		.loc 1 479 5 is_stmt 1 view .LVU587
 479:funsape/peripheral/usart0.cpp **** 
 1842               		.loc 1 479 5 view .LVU588
 479:funsape/peripheral/usart0.cpp **** 
 1843               		.loc 1 479 5 discriminator 1 view .LVU589
 1844 0010 9091 C000 		lds r25,192
 1845 0014 9030      		cpi r25,lo8(0)
 1846 0016 04F4      		brge .L110
 482:funsape/peripheral/usart0.cpp ****     this->_isDataOverrunError = isBitSet(aux8, DOR0);
 1847               		.loc 1 482 5 view .LVU590
 482:funsape/peripheral/usart0.cpp ****     this->_isDataOverrunError = isBitSet(aux8, DOR0);
 1848               		.loc 1 482 10 is_stmt 0 view .LVU591
 1849 0018 2091 C000 		lds r18,192
 1850               	.LVL114:
 483:funsape/peripheral/usart0.cpp ****     this->_isFrameError = isBitSet(aux8, FE0);
 1851               		.loc 1 483 5 is_stmt 1 view .LVU592
 483:funsape/peripheral/usart0.cpp ****     this->_isFrameError = isBitSet(aux8, FE0);
 1852               		.loc 1 483 31 is_stmt 0 view .LVU593
 1853 001c 9081      		ld r25,Z
 1854 001e 23FB      		bst r18,3
 1855 0020 90F9      		bld r25,0
 1856 0022 9083      		st Z,r25
 484:funsape/peripheral/usart0.cpp ****     this->_isParityError = isBitSet(aux8, UPE0);
 1857               		.loc 1 484 5 is_stmt 1 view .LVU594
 484:funsape/peripheral/usart0.cpp ****     this->_isParityError = isBitSet(aux8, UPE0);
 1858               		.loc 1 484 25 is_stmt 0 view .LVU595
 1859 0024 24FB      		bst r18,4
 1860 0026 91F9      		bld r25,1
 1861 0028 9083      		st Z,r25
 485:funsape/peripheral/usart0.cpp **** 
 1862               		.loc 1 485 5 is_stmt 1 view .LVU596
 485:funsape/peripheral/usart0.cpp **** 
 1863               		.loc 1 485 26 is_stmt 0 view .LVU597
 1864 002a 22FB      		bst r18,2
 1865 002c 92F9      		bld r25,2
 1866 002e 9083      		st Z,r25
 488:funsape/peripheral/usart0.cpp ****     if(this->_dataSize == DataSize::DATA_9_BITS) {
GAS LISTING /tmp/ccgDjIOO.s 			page 62


 1867               		.loc 1 488 5 is_stmt 1 view .LVU598
 488:funsape/peripheral/usart0.cpp ****     if(this->_dataSize == DataSize::DATA_9_BITS) {
 1868               		.loc 1 488 13 is_stmt 0 view .LVU599
 1869 0030 1D92      		st X+,__zero_reg__
 1870 0032 1D92      		st X+,__zero_reg__
 1871 0034 1297      		sbiw r26,2
 489:funsape/peripheral/usart0.cpp ****         *data_p = (isBitSet(UCSR0B, RXB80)) ? (1 << 8) : 0;
 1872               		.loc 1 489 5 is_stmt 1 view .LVU600
 489:funsape/peripheral/usart0.cpp ****         *data_p = (isBitSet(UCSR0B, RXB80)) ? (1 << 8) : 0;
 1873               		.loc 1 489 14 is_stmt 0 view .LVU601
 1874 0036 9481      		ldd r25,Z+4
 489:funsape/peripheral/usart0.cpp ****         *data_p = (isBitSet(UCSR0B, RXB80)) ? (1 << 8) : 0;
 1875               		.loc 1 489 5 view .LVU602
 1876 0038 9730      		cpi r25,lo8(7)
 1877 003a 01F0      		breq .L116
 1878               	.LVL115:
 1879               	.L112:
 494:funsape/peripheral/usart0.cpp **** 
 1880               		.loc 1 494 5 is_stmt 1 view .LVU603
 494:funsape/peripheral/usart0.cpp **** 
 1881               		.loc 1 494 16 is_stmt 0 view .LVU604
 1882 003c 9091 C600 		lds r25,198
 494:funsape/peripheral/usart0.cpp **** 
 1883               		.loc 1 494 5 view .LVU605
 1884 0040 2D91      		ld r18,X+
 1885 0042 3D91      		ld r19,X+
 494:funsape/peripheral/usart0.cpp **** 
 1886               		.loc 1 494 13 view .LVU606
 1887 0044 292B      		or r18,r25
 1888 0046 3E93      		st -X,r19
 1889 0048 2E93      		st -X,r18
 497:funsape/peripheral/usart0.cpp ****     return true;
 1890               		.loc 1 497 5 is_stmt 1 view .LVU607
 497:funsape/peripheral/usart0.cpp ****     return true;
 1891               		.loc 1 497 22 is_stmt 0 view .LVU608
 1892 004a 1382      		std Z+3,__zero_reg__
 1893 004c 1282      		std Z+2,__zero_reg__
 498:funsape/peripheral/usart0.cpp **** }
 1894               		.loc 1 498 5 is_stmt 1 view .LVU609
 1895               	/* epilogue start */
 499:funsape/peripheral/usart0.cpp **** 
 1896               		.loc 1 499 1 is_stmt 0 view .LVU610
 1897 004e 0895      		ret
 1898               	.LVL116:
 1899               	.L115:
 474:funsape/peripheral/usart0.cpp ****         return false;
 1900               		.loc 1 474 9 is_stmt 1 view .LVU611
 474:funsape/peripheral/usart0.cpp ****         return false;
 1901               		.loc 1 474 26 is_stmt 0 view .LVU612
 1902 0050 26E0      		ldi r18,lo8(6)
 1903 0052 30E0      		ldi r19,0
 1904 0054 3383      		std Z+3,r19
 1905 0056 2283      		std Z+2,r18
 475:funsape/peripheral/usart0.cpp ****     }
 1906               		.loc 1 475 9 is_stmt 1 view .LVU613
 475:funsape/peripheral/usart0.cpp ****     }
 1907               		.loc 1 475 16 is_stmt 0 view .LVU614
GAS LISTING /tmp/ccgDjIOO.s 			page 63


 1908 0058 0895      		ret
 1909               	.LVL117:
 1910               	.L116:
 490:funsape/peripheral/usart0.cpp ****     }
 1911               		.loc 1 490 9 is_stmt 1 view .LVU615
 490:funsape/peripheral/usart0.cpp ****     }
 1912               		.loc 1 490 20 is_stmt 0 view .LVU616
 1913 005a 9091 C100 		lds r25,193
 490:funsape/peripheral/usart0.cpp ****     }
 1914               		.loc 1 490 45 view .LVU617
 1915 005e 91FF      		sbrs r25,1
 1916 0060 00C0      		rjmp .L114
 490:funsape/peripheral/usart0.cpp ****     }
 1917               		.loc 1 490 45 discriminator 1 view .LVU618
 1918 0062 20E0      		ldi r18,0
 1919 0064 31E0      		ldi r19,lo8(1)
 1920               	.LVL118:
 1921               	.L113:
 490:funsape/peripheral/usart0.cpp ****     }
 1922               		.loc 1 490 17 discriminator 3 view .LVU619
 1923 0066 2D93      		st X+,r18
 1924 0068 3D93      		st X+,r19
 1925 006a 1297      		sbiw r26,2
 1926 006c 00C0      		rjmp .L112
 1927               	.LVL119:
 1928               	.L114:
 490:funsape/peripheral/usart0.cpp ****     }
 1929               		.loc 1 490 45 discriminator 2 view .LVU620
 1930 006e 20E0      		ldi r18,0
 1931 0070 30E0      		ldi r19,0
 1932               	.LVL120:
 490:funsape/peripheral/usart0.cpp ****     }
 1933               		.loc 1 490 45 discriminator 2 view .LVU621
 1934 0072 00C0      		rjmp .L113
 1935               		.cfi_endproc
 1936               	.LFE171:
 1938               		.section	.text._ZN6Usart020flushReceptionBufferEv,"ax",@progbits
 1939               	.global	_ZN6Usart020flushReceptionBufferEv
 1941               	_ZN6Usart020flushReceptionBufferEv:
 1942               	.LVL121:
 1943               	.LFB172:
 502:funsape/peripheral/usart0.cpp ****     __attribute__((unused)) uint8_t aux8;
 1944               		.loc 1 502 1 is_stmt 1 view -0
 1945               		.cfi_startproc
 1946               	/* prologue: function */
 1947               	/* frame size = 0 */
 1948               	/* stack size = 0 */
 1949               	.L__stack_usage = 0
 503:funsape/peripheral/usart0.cpp **** 
 1950               		.loc 1 503 29 view .LVU623
 505:funsape/peripheral/usart0.cpp ****         aux8 = UDR0;
 1951               		.loc 1 505 5 view .LVU624
 1952 0000 00C0      		rjmp .L118
 1953               	.LVL122:
 1954               	.L119:
 506:funsape/peripheral/usart0.cpp ****     }
 1955               		.loc 1 506 9 view .LVU625
GAS LISTING /tmp/ccgDjIOO.s 			page 64


 506:funsape/peripheral/usart0.cpp ****     }
 1956               		.loc 1 506 14 is_stmt 0 view .LVU626
 1957 0002 8091 C600 		lds r24,198
 1958               	.L118:
 505:funsape/peripheral/usart0.cpp ****         aux8 = UDR0;
 1959               		.loc 1 505 36 is_stmt 1 discriminator 1 view .LVU627
 1960               	.LVL123:
 1961               	.LBB27:
 1962               	.LBI27:
 661:funsape/peripheral/usart0.hpp **** {
 1963               		.loc 2 661 16 view .LVU628
 1964               	.LBB28:
 663:funsape/peripheral/usart0.hpp **** }
 1965               		.loc 2 663 5 view .LVU629
 663:funsape/peripheral/usart0.hpp **** }
 1966               		.loc 2 663 12 is_stmt 0 view .LVU630
 1967 0006 8091 C000 		lds r24,192
 1968               	.LVL124:
 663:funsape/peripheral/usart0.hpp **** }
 1969               		.loc 2 663 12 view .LVU631
 1970               	.LBE28:
 1971               	.LBE27:
 505:funsape/peripheral/usart0.cpp ****         aux8 = UDR0;
 1972               		.loc 1 505 36 discriminator 2 view .LVU632
 1973 000a 8030      		cpi r24,lo8(0)
 1974 000c 04F0      		brlt .L119
 1975               	/* epilogue start */
 510:funsape/peripheral/usart0.cpp **** 
 1976               		.loc 1 510 1 view .LVU633
 1977 000e 0895      		ret
 1978               		.cfi_endproc
 1979               	.LFE172:
 1981               		.section	.text._ZN6Usart014receiveDataStdEP6__file,"ax",@progbits
 1982               	.global	_ZN6Usart014receiveDataStdEP6__file
 1984               	_ZN6Usart014receiveDataStdEP6__file:
 1985               	.LFB173:
 513:funsape/peripheral/usart0.cpp ****     waitUntilBitIsSet(UCSR0A, RXC0);	// Waits until last reception ends
 1986               		.loc 1 513 1 is_stmt 1 view -0
 1987               		.cfi_startproc
 1988               	/* prologue: function */
 1989               	/* frame size = 0 */
 1990               	/* stack size = 0 */
 1991               	.L__stack_usage = 0
 1992               	.LVL125:
 1993               	.L121:
 514:funsape/peripheral/usart0.cpp **** 
 1994               		.loc 1 514 5 view .LVU635
 514:funsape/peripheral/usart0.cpp **** 
 1995               		.loc 1 514 5 view .LVU636
 514:funsape/peripheral/usart0.cpp **** 
 1996               		.loc 1 514 5 discriminator 1 view .LVU637
 1997 0000 8091 C000 		lds r24,192
 1998 0004 8030      		cpi r24,lo8(0)
 1999 0006 04F4      		brge .L121
 516:funsape/peripheral/usart0.cpp **** }
 2000               		.loc 1 516 5 view .LVU638
 517:funsape/peripheral/usart0.cpp **** 
GAS LISTING /tmp/ccgDjIOO.s 			page 65


 2001               		.loc 1 517 1 is_stmt 0 view .LVU639
 2002 0008 8091 C600 		lds r24,198
 2003               	/* epilogue start */
 2004 000c 0895      		ret
 2005               		.cfi_endproc
 2006               	.LFE173:
 2008               		.section	.text._ZN6Usart011sendDataStdEcP6__file,"ax",@progbits
 2009               	.global	_ZN6Usart011sendDataStdEcP6__file
 2011               	_ZN6Usart011sendDataStdEcP6__file:
 2012               	.LFB174:
 520:funsape/peripheral/usart0.cpp ****     waitUntilBitIsSet(UCSR0A, UDRE0);	// Waits until last transmission ends
 2013               		.loc 1 520 1 is_stmt 1 view -0
 2014               		.cfi_startproc
 2015               	/* prologue: function */
 2016               	/* frame size = 0 */
 2017               	/* stack size = 0 */
 2018               	.L__stack_usage = 0
 2019               	.LVL126:
 2020               	.L123:
 521:funsape/peripheral/usart0.cpp ****     UDR0 = data_p;
 2021               		.loc 1 521 5 view .LVU641
 521:funsape/peripheral/usart0.cpp ****     UDR0 = data_p;
 2022               		.loc 1 521 5 view .LVU642
 521:funsape/peripheral/usart0.cpp ****     UDR0 = data_p;
 2023               		.loc 1 521 5 discriminator 1 view .LVU643
 2024 0000 8091 C000 		lds r24,192
 2025 0004 85FF      		sbrs r24,5
 2026 0006 00C0      		rjmp .L123
 522:funsape/peripheral/usart0.cpp **** 
 2027               		.loc 1 522 5 view .LVU644
 522:funsape/peripheral/usart0.cpp **** 
 2028               		.loc 1 522 10 is_stmt 0 view .LVU645
 2029 0008 6093 C600 		sts 198,r22
 524:funsape/peripheral/usart0.cpp **** }
 2030               		.loc 1 524 5 is_stmt 1 view .LVU646
 525:funsape/peripheral/usart0.cpp **** 
 2031               		.loc 1 525 1 is_stmt 0 view .LVU647
 2032 000c 80E0      		ldi r24,0
 2033 000e 90E0      		ldi r25,0
 2034               	/* epilogue start */
 2035 0010 0895      		ret
 2036               		.cfi_endproc
 2037               	.LFE174:
 2039               		.section	.text._Z23usartTransmitStdWrappercP6__file,"ax",@progbits
 2040               	.global	_Z23usartTransmitStdWrappercP6__file
 2042               	_Z23usartTransmitStdWrappercP6__file:
 2043               	.LVL127:
 2044               	.LFB175:
 528:funsape/peripheral/usart0.cpp ****     return usartDefaultHandler->sendDataStd(c, f);
 2045               		.loc 1 528 1 is_stmt 1 view -0
 2046               		.cfi_startproc
 2047               	/* prologue: function */
 2048               	/* frame size = 0 */
 2049               	/* stack size = 0 */
 2050               	.L__stack_usage = 0
 528:funsape/peripheral/usart0.cpp ****     return usartDefaultHandler->sendDataStd(c, f);
 2051               		.loc 1 528 1 is_stmt 0 view .LVU649
GAS LISTING /tmp/ccgDjIOO.s 			page 66


 2052 0000 AB01      		movw r20,r22
 529:funsape/peripheral/usart0.cpp **** }
 2053               		.loc 1 529 5 is_stmt 1 view .LVU650
 529:funsape/peripheral/usart0.cpp **** }
 2054               		.loc 1 529 44 is_stmt 0 view .LVU651
 2055 0002 682F      		mov r22,r24
 2056               	.LVL128:
 529:funsape/peripheral/usart0.cpp **** }
 2057               		.loc 1 529 44 view .LVU652
 2058 0004 8091 0000 		lds r24,usartDefaultHandler
 2059 0008 9091 0000 		lds r25,usartDefaultHandler+1
 2060               	.LVL129:
 529:funsape/peripheral/usart0.cpp **** }
 2061               		.loc 1 529 44 view .LVU653
 2062 000c 0E94 0000 		call _ZN6Usart011sendDataStdEcP6__file
 2063               	.LVL130:
 2064               	/* epilogue start */
 530:funsape/peripheral/usart0.cpp **** 
 2065               		.loc 1 530 1 view .LVU654
 2066 0010 0895      		ret
 2067               		.cfi_endproc
 2068               	.LFE175:
 2070               		.section	.text._Z30usartReceptionCompleteCallbackv,"ax",@progbits
 2071               		.weak	_Z30usartReceptionCompleteCallbackv
 2073               	_Z30usartReceptionCompleteCallbackv:
 2074               	.LFB176:
 537:funsape/peripheral/usart0.cpp ****     return;
 2075               		.loc 1 537 1 is_stmt 1 view -0
 2076               		.cfi_startproc
 2077               	/* prologue: function */
 2078               	/* frame size = 0 */
 2079               	/* stack size = 0 */
 2080               	.L__stack_usage = 0
 538:funsape/peripheral/usart0.cpp **** }
 2081               		.loc 1 538 5 view .LVU656
 2082               	/* epilogue start */
 539:funsape/peripheral/usart0.cpp **** 
 2083               		.loc 1 539 1 is_stmt 0 view .LVU657
 2084 0000 0895      		ret
 2085               		.cfi_endproc
 2086               	.LFE176:
 2088               		.section	.text._Z36usartTransmissionBufferEmptyCallbackv,"ax",@progbits
 2089               		.weak	_Z36usartTransmissionBufferEmptyCallbackv
 2091               	_Z36usartTransmissionBufferEmptyCallbackv:
 2092               	.LFB177:
 542:funsape/peripheral/usart0.cpp ****     return;
 2093               		.loc 1 542 1 is_stmt 1 view -0
 2094               		.cfi_startproc
 2095               	/* prologue: function */
 2096               	/* frame size = 0 */
 2097               	/* stack size = 0 */
 2098               	.L__stack_usage = 0
 543:funsape/peripheral/usart0.cpp **** }
 2099               		.loc 1 543 5 view .LVU659
 2100               	/* epilogue start */
 544:funsape/peripheral/usart0.cpp **** 
 2101               		.loc 1 544 1 is_stmt 0 view .LVU660
GAS LISTING /tmp/ccgDjIOO.s 			page 67


 2102 0000 0895      		ret
 2103               		.cfi_endproc
 2104               	.LFE177:
 2106               		.section	.text._Z33usartTransmissionCompleteCallbackv,"ax",@progbits
 2107               		.weak	_Z33usartTransmissionCompleteCallbackv
 2109               	_Z33usartTransmissionCompleteCallbackv:
 2110               	.LFB178:
 547:funsape/peripheral/usart0.cpp ****     return;
 2111               		.loc 1 547 1 is_stmt 1 view -0
 2112               		.cfi_startproc
 2113               	/* prologue: function */
 2114               	/* frame size = 0 */
 2115               	/* stack size = 0 */
 2116               	.L__stack_usage = 0
 548:funsape/peripheral/usart0.cpp **** }
 2117               		.loc 1 548 5 view .LVU662
 2118               	/* epilogue start */
 549:funsape/peripheral/usart0.cpp **** 
 2119               		.loc 1 549 1 is_stmt 0 view .LVU663
 2120 0000 0895      		ret
 2121               		.cfi_endproc
 2122               	.LFE178:
 2124               		.section	.text.__vector_18,"ax",@progbits
 2125               	.global	__vector_18
 2127               	__vector_18:
 2128               	.LFB179:
 560:funsape/peripheral/usart0.cpp ****     usartReceptionCompleteCallback();
 2129               		.loc 1 560 1 is_stmt 1 view -0
 2130               		.cfi_startproc
 2131 0000 1F92      		push r1
 2132               	.LCFI18:
 2133               		.cfi_def_cfa_offset 3
 2134               		.cfi_offset 1, -2
 2135 0002 0F92      		push r0
 2136               	.LCFI19:
 2137               		.cfi_def_cfa_offset 4
 2138               		.cfi_offset 0, -3
 2139 0004 0FB6      		in r0,__SREG__
 2140 0006 0F92      		push r0
 2141 0008 1124      		clr __zero_reg__
 2142 000a 2F93      		push r18
 2143               	.LCFI20:
 2144               		.cfi_def_cfa_offset 5
 2145               		.cfi_offset 18, -4
 2146 000c 3F93      		push r19
 2147               	.LCFI21:
 2148               		.cfi_def_cfa_offset 6
 2149               		.cfi_offset 19, -5
 2150 000e 4F93      		push r20
 2151               	.LCFI22:
 2152               		.cfi_def_cfa_offset 7
 2153               		.cfi_offset 20, -6
 2154 0010 5F93      		push r21
 2155               	.LCFI23:
 2156               		.cfi_def_cfa_offset 8
 2157               		.cfi_offset 21, -7
 2158 0012 6F93      		push r22
GAS LISTING /tmp/ccgDjIOO.s 			page 68


 2159               	.LCFI24:
 2160               		.cfi_def_cfa_offset 9
 2161               		.cfi_offset 22, -8
 2162 0014 7F93      		push r23
 2163               	.LCFI25:
 2164               		.cfi_def_cfa_offset 10
 2165               		.cfi_offset 23, -9
 2166 0016 8F93      		push r24
 2167               	.LCFI26:
 2168               		.cfi_def_cfa_offset 11
 2169               		.cfi_offset 24, -10
 2170 0018 9F93      		push r25
 2171               	.LCFI27:
 2172               		.cfi_def_cfa_offset 12
 2173               		.cfi_offset 25, -11
 2174 001a AF93      		push r26
 2175               	.LCFI28:
 2176               		.cfi_def_cfa_offset 13
 2177               		.cfi_offset 26, -12
 2178 001c BF93      		push r27
 2179               	.LCFI29:
 2180               		.cfi_def_cfa_offset 14
 2181               		.cfi_offset 27, -13
 2182 001e EF93      		push r30
 2183               	.LCFI30:
 2184               		.cfi_def_cfa_offset 15
 2185               		.cfi_offset 30, -14
 2186 0020 FF93      		push r31
 2187               	.LCFI31:
 2188               		.cfi_def_cfa_offset 16
 2189               		.cfi_offset 31, -15
 2190               	/* prologue: Signal */
 2191               	/* frame size = 0 */
 2192               	/* stack size = 15 */
 2193               	.L__stack_usage = 15
 561:funsape/peripheral/usart0.cpp **** }
 2194               		.loc 1 561 5 view .LVU665
 561:funsape/peripheral/usart0.cpp **** }
 2195               		.loc 1 561 35 is_stmt 0 view .LVU666
 2196 0022 0E94 0000 		call _Z30usartReceptionCompleteCallbackv
 2197               	.LVL131:
 2198               	/* epilogue start */
 562:funsape/peripheral/usart0.cpp **** 
 2199               		.loc 1 562 1 view .LVU667
 2200 0026 FF91      		pop r31
 2201 0028 EF91      		pop r30
 2202 002a BF91      		pop r27
 2203 002c AF91      		pop r26
 2204 002e 9F91      		pop r25
 2205 0030 8F91      		pop r24
 2206 0032 7F91      		pop r23
 2207 0034 6F91      		pop r22
 2208 0036 5F91      		pop r21
 2209 0038 4F91      		pop r20
 2210 003a 3F91      		pop r19
 2211 003c 2F91      		pop r18
 2212 003e 0F90      		pop r0
GAS LISTING /tmp/ccgDjIOO.s 			page 69


 2213 0040 0FBE      		out __SREG__,r0
 2214 0042 0F90      		pop r0
 2215 0044 1F90      		pop r1
 2216 0046 1895      		reti
 2217               		.cfi_endproc
 2218               	.LFE179:
 2220               		.section	.text.__vector_20,"ax",@progbits
 2221               	.global	__vector_20
 2223               	__vector_20:
 2224               	.LFB180:
 569:funsape/peripheral/usart0.cpp ****     usartTransmissionCompleteCallback();
 2225               		.loc 1 569 1 is_stmt 1 view -0
 2226               		.cfi_startproc
 2227 0000 1F92      		push r1
 2228               	.LCFI32:
 2229               		.cfi_def_cfa_offset 3
 2230               		.cfi_offset 1, -2
 2231 0002 0F92      		push r0
 2232               	.LCFI33:
 2233               		.cfi_def_cfa_offset 4
 2234               		.cfi_offset 0, -3
 2235 0004 0FB6      		in r0,__SREG__
 2236 0006 0F92      		push r0
 2237 0008 1124      		clr __zero_reg__
 2238 000a 2F93      		push r18
 2239               	.LCFI34:
 2240               		.cfi_def_cfa_offset 5
 2241               		.cfi_offset 18, -4
 2242 000c 3F93      		push r19
 2243               	.LCFI35:
 2244               		.cfi_def_cfa_offset 6
 2245               		.cfi_offset 19, -5
 2246 000e 4F93      		push r20
 2247               	.LCFI36:
 2248               		.cfi_def_cfa_offset 7
 2249               		.cfi_offset 20, -6
 2250 0010 5F93      		push r21
 2251               	.LCFI37:
 2252               		.cfi_def_cfa_offset 8
 2253               		.cfi_offset 21, -7
 2254 0012 6F93      		push r22
 2255               	.LCFI38:
 2256               		.cfi_def_cfa_offset 9
 2257               		.cfi_offset 22, -8
 2258 0014 7F93      		push r23
 2259               	.LCFI39:
 2260               		.cfi_def_cfa_offset 10
 2261               		.cfi_offset 23, -9
 2262 0016 8F93      		push r24
 2263               	.LCFI40:
 2264               		.cfi_def_cfa_offset 11
 2265               		.cfi_offset 24, -10
 2266 0018 9F93      		push r25
 2267               	.LCFI41:
 2268               		.cfi_def_cfa_offset 12
 2269               		.cfi_offset 25, -11
 2270 001a AF93      		push r26
GAS LISTING /tmp/ccgDjIOO.s 			page 70


 2271               	.LCFI42:
 2272               		.cfi_def_cfa_offset 13
 2273               		.cfi_offset 26, -12
 2274 001c BF93      		push r27
 2275               	.LCFI43:
 2276               		.cfi_def_cfa_offset 14
 2277               		.cfi_offset 27, -13
 2278 001e EF93      		push r30
 2279               	.LCFI44:
 2280               		.cfi_def_cfa_offset 15
 2281               		.cfi_offset 30, -14
 2282 0020 FF93      		push r31
 2283               	.LCFI45:
 2284               		.cfi_def_cfa_offset 16
 2285               		.cfi_offset 31, -15
 2286               	/* prologue: Signal */
 2287               	/* frame size = 0 */
 2288               	/* stack size = 15 */
 2289               	.L__stack_usage = 15
 570:funsape/peripheral/usart0.cpp **** }
 2290               		.loc 1 570 5 view .LVU669
 570:funsape/peripheral/usart0.cpp **** }
 2291               		.loc 1 570 38 is_stmt 0 view .LVU670
 2292 0022 0E94 0000 		call _Z33usartTransmissionCompleteCallbackv
 2293               	.LVL132:
 2294               	/* epilogue start */
 571:funsape/peripheral/usart0.cpp **** 
 2295               		.loc 1 571 1 view .LVU671
 2296 0026 FF91      		pop r31
 2297 0028 EF91      		pop r30
 2298 002a BF91      		pop r27
 2299 002c AF91      		pop r26
 2300 002e 9F91      		pop r25
 2301 0030 8F91      		pop r24
 2302 0032 7F91      		pop r23
 2303 0034 6F91      		pop r22
 2304 0036 5F91      		pop r21
 2305 0038 4F91      		pop r20
 2306 003a 3F91      		pop r19
 2307 003c 2F91      		pop r18
 2308 003e 0F90      		pop r0
 2309 0040 0FBE      		out __SREG__,r0
 2310 0042 0F90      		pop r0
 2311 0044 1F90      		pop r1
 2312 0046 1895      		reti
 2313               		.cfi_endproc
 2314               	.LFE180:
 2316               		.section	.text.__vector_19,"ax",@progbits
 2317               	.global	__vector_19
 2319               	__vector_19:
 2320               	.LFB181:
 578:funsape/peripheral/usart0.cpp ****     usartTransmissionBufferEmptyCallback();
 2321               		.loc 1 578 1 is_stmt 1 view -0
 2322               		.cfi_startproc
 2323 0000 1F92      		push r1
 2324               	.LCFI46:
 2325               		.cfi_def_cfa_offset 3
GAS LISTING /tmp/ccgDjIOO.s 			page 71


 2326               		.cfi_offset 1, -2
 2327 0002 0F92      		push r0
 2328               	.LCFI47:
 2329               		.cfi_def_cfa_offset 4
 2330               		.cfi_offset 0, -3
 2331 0004 0FB6      		in r0,__SREG__
 2332 0006 0F92      		push r0
 2333 0008 1124      		clr __zero_reg__
 2334 000a 2F93      		push r18
 2335               	.LCFI48:
 2336               		.cfi_def_cfa_offset 5
 2337               		.cfi_offset 18, -4
 2338 000c 3F93      		push r19
 2339               	.LCFI49:
 2340               		.cfi_def_cfa_offset 6
 2341               		.cfi_offset 19, -5
 2342 000e 4F93      		push r20
 2343               	.LCFI50:
 2344               		.cfi_def_cfa_offset 7
 2345               		.cfi_offset 20, -6
 2346 0010 5F93      		push r21
 2347               	.LCFI51:
 2348               		.cfi_def_cfa_offset 8
 2349               		.cfi_offset 21, -7
 2350 0012 6F93      		push r22
 2351               	.LCFI52:
 2352               		.cfi_def_cfa_offset 9
 2353               		.cfi_offset 22, -8
 2354 0014 7F93      		push r23
 2355               	.LCFI53:
 2356               		.cfi_def_cfa_offset 10
 2357               		.cfi_offset 23, -9
 2358 0016 8F93      		push r24
 2359               	.LCFI54:
 2360               		.cfi_def_cfa_offset 11
 2361               		.cfi_offset 24, -10
 2362 0018 9F93      		push r25
 2363               	.LCFI55:
 2364               		.cfi_def_cfa_offset 12
 2365               		.cfi_offset 25, -11
 2366 001a AF93      		push r26
 2367               	.LCFI56:
 2368               		.cfi_def_cfa_offset 13
 2369               		.cfi_offset 26, -12
 2370 001c BF93      		push r27
 2371               	.LCFI57:
 2372               		.cfi_def_cfa_offset 14
 2373               		.cfi_offset 27, -13
 2374 001e EF93      		push r30
 2375               	.LCFI58:
 2376               		.cfi_def_cfa_offset 15
 2377               		.cfi_offset 30, -14
 2378 0020 FF93      		push r31
 2379               	.LCFI59:
 2380               		.cfi_def_cfa_offset 16
 2381               		.cfi_offset 31, -15
 2382               	/* prologue: Signal */
GAS LISTING /tmp/ccgDjIOO.s 			page 72


 2383               	/* frame size = 0 */
 2384               	/* stack size = 15 */
 2385               	.L__stack_usage = 15
 579:funsape/peripheral/usart0.cpp **** }
 2386               		.loc 1 579 5 view .LVU673
 579:funsape/peripheral/usart0.cpp **** }
 2387               		.loc 1 579 41 is_stmt 0 view .LVU674
 2388 0022 0E94 0000 		call _Z36usartTransmissionBufferEmptyCallbackv
 2389               	.LVL133:
 2390               	/* epilogue start */
 2391               		.loc 1 580 1 view .LVU675
 2392 0026 FF91      		pop r31
 2393 0028 EF91      		pop r30
 2394 002a BF91      		pop r27
 2395 002c AF91      		pop r26
 2396 002e 9F91      		pop r25
 2397 0030 8F91      		pop r24
 2398 0032 7F91      		pop r23
 2399 0034 6F91      		pop r22
 2400 0036 5F91      		pop r21
 2401 0038 4F91      		pop r20
 2402 003a 3F91      		pop r19
 2403 003c 2F91      		pop r18
 2404 003e 0F90      		pop r0
 2405 0040 0FBE      		out __SREG__,r0
 2406 0042 0F90      		pop r0
 2407 0044 1F90      		pop r1
 2408 0046 1895      		reti
 2409               		.cfi_endproc
 2410               	.LFE181:
 2412               		.section	.text._GLOBAL__sub_I_usartDefaultHandler,"ax",@progbits
 2414               	_GLOBAL__sub_I_usartDefaultHandler:
 2415               	.LFB184:
 2416               		.loc 1 580 1 is_stmt 1 view -0
 2417               		.cfi_startproc
 2418               	/* prologue: function */
 2419               	/* frame size = 0 */
 2420               	/* stack size = 0 */
 2421               	.L__stack_usage = 0
 2422               		.loc 1 580 1 is_stmt 0 view .LVU677
 2423 0000 0E94 0000 		call _Z41__static_initialization_and_destruction_0v
 2424               	.LVL134:
 2425               	/* epilogue start */
 2426 0004 0895      		ret
 2427               		.cfi_endproc
 2428               	.LFE184:
 2430               		.global __do_global_ctors
 2431               		.section .ctors,"a",@progbits
 2432               		.p2align	1
 2433 0000 0000      		.word	gs(_GLOBAL__sub_I_usartDefaultHandler)
 2434               	.global	usartStream
 2435               		.section	.bss.usartStream,"aw",@nobits
 2438               	usartStream:
 2439 0000 0000 0000 		.zero	14
 2439      0000 0000 
 2439      0000 0000 
 2439      0000 
GAS LISTING /tmp/ccgDjIOO.s 			page 73


 2440               	.global	usart0
 2441               		.section	.bss.usart0,"aw",@nobits
 2444               	usart0:
 2445 0000 0000 0000 		.zero	12
 2445      0000 0000 
 2445      0000 0000 
 2446               	.global	usartDefaultHandler
 2447               		.section	.bss.usartDefaultHandler,"aw",@nobits
 2450               	usartDefaultHandler:
 2451 0000 0000      		.zero	2
 2452               		.text
 2453               	.Letext0:
 2454               		.file 3 "/usr/avr/include/stdint.h"
 2455               		.file 4 "funsape/peripheral/../config/atmega328p.hpp"
 2456               		.file 5 "/usr/avr/include/stdio.h"
 2457               		.file 6 "funsape/peripheral/../globalDefines.hpp"
 2458               		.file 7 "funsape/peripheral/../util/systemStatus.hpp"
GAS LISTING /tmp/ccgDjIOO.s 			page 74

